ARM GAS  C:\Users\Dawn\AppData\Local\Temp\ccf7B1Wd.s 			page 1


   1              		.cpu cortex-m4
   2              		.arch armv7e-m
   3              		.fpu softvfp
   4              		.eabi_attribute 23, 1
   5              		.eabi_attribute 24, 1
   6              		.eabi_attribute 25, 1
   7              		.eabi_attribute 26, 1
   8              		.eabi_attribute 30, 1
   9              		.eabi_attribute 34, 1
  10              		.eabi_attribute 18, 4
  11              		.file	"n32g430_tim.c"
  12              		.text
  13              	.Ltext0:
  14              		.cfi_sections	.debug_frame
  15              		.file 1 "n32g430_std_periph_driver/src/n32g430_tim.c"
  16              		.section	.text.TIM_Reset,"ax",%progbits
  17              		.align	1
  18              		.global	TIM_Reset
  19              		.syntax unified
  20              		.thumb
  21              		.thumb_func
  23              	TIM_Reset:
  24              	.LVL0:
  25              	.LFB123:
   1:n32g430_std_periph_driver/src/n32g430_tim.c **** /**
   2:n32g430_std_periph_driver/src/n32g430_tim.c **** *     Copyright (c) 2022, Nations Technologies Inc.
   3:n32g430_std_periph_driver/src/n32g430_tim.c **** * 
   4:n32g430_std_periph_driver/src/n32g430_tim.c **** *     All rights reserved.
   5:n32g430_std_periph_driver/src/n32g430_tim.c **** *
   6:n32g430_std_periph_driver/src/n32g430_tim.c **** *     This software is the exclusive property of Nations Technologies Inc. (Hereinafter 
   7:n32g430_std_periph_driver/src/n32g430_tim.c **** * referred to as NATIONS). This software, and the product of NATIONS described herein 
   8:n32g430_std_periph_driver/src/n32g430_tim.c **** * (Hereinafter referred to as the Product) are owned by NATIONS under the laws and treaties
   9:n32g430_std_periph_driver/src/n32g430_tim.c **** * of the People's Republic of China and other applicable jurisdictions worldwide.
  10:n32g430_std_periph_driver/src/n32g430_tim.c **** *
  11:n32g430_std_periph_driver/src/n32g430_tim.c **** *     NATIONS does not grant any license under its patents, copyrights, trademarks, or other 
  12:n32g430_std_periph_driver/src/n32g430_tim.c **** * intellectual property rights. Names and brands of third party may be mentioned or referred 
  13:n32g430_std_periph_driver/src/n32g430_tim.c **** * thereto (if any) for identification purposes only.
  14:n32g430_std_periph_driver/src/n32g430_tim.c **** *
  15:n32g430_std_periph_driver/src/n32g430_tim.c **** *     NATIONS reserves the right to make changes, corrections, enhancements, modifications, and 
  16:n32g430_std_periph_driver/src/n32g430_tim.c **** * improvements to this software at any time without notice. Please contact NATIONS and obtain 
  17:n32g430_std_periph_driver/src/n32g430_tim.c **** * the latest version of this software before placing orders.
  18:n32g430_std_periph_driver/src/n32g430_tim.c **** 
  19:n32g430_std_periph_driver/src/n32g430_tim.c **** *     Although NATIONS has attempted to provide accurate and reliable information, NATIONS assumes 
  20:n32g430_std_periph_driver/src/n32g430_tim.c **** * no responsibility for the accuracy and reliability of this software.
  21:n32g430_std_periph_driver/src/n32g430_tim.c **** * 
  22:n32g430_std_periph_driver/src/n32g430_tim.c **** *     It is the responsibility of the user of this software to properly design, program, and test 
  23:n32g430_std_periph_driver/src/n32g430_tim.c **** * the functionality and safety of any application made of this information and any resulting produc
  24:n32g430_std_periph_driver/src/n32g430_tim.c **** * In no event shall NATIONS be liable for any direct, indirect, incidental, special,exemplary, or 
  25:n32g430_std_periph_driver/src/n32g430_tim.c **** * consequential damages arising in any way out of the use of this software or the Product.
  26:n32g430_std_periph_driver/src/n32g430_tim.c **** *
  27:n32g430_std_periph_driver/src/n32g430_tim.c **** *     NATIONS Products are neither intended nor warranted for usage in systems or equipment, any
  28:n32g430_std_periph_driver/src/n32g430_tim.c **** * malfunction or failure of which may cause loss of human life, bodily injury or severe property 
  29:n32g430_std_periph_driver/src/n32g430_tim.c **** * damage. Such applications are deemed, "Insecure Usage".
  30:n32g430_std_periph_driver/src/n32g430_tim.c **** *
  31:n32g430_std_periph_driver/src/n32g430_tim.c **** *     All Insecure Usage shall be made at user's risk. User shall indemnify NATIONS and hold NATION
  32:n32g430_std_periph_driver/src/n32g430_tim.c **** * harmless from and against all claims, costs, damages, and other liabilities, arising from or rela
  33:n32g430_std_periph_driver/src/n32g430_tim.c **** * to any customer's Insecure Usage.
ARM GAS  C:\Users\Dawn\AppData\Local\Temp\ccf7B1Wd.s 			page 2


  34:n32g430_std_periph_driver/src/n32g430_tim.c **** 
  35:n32g430_std_periph_driver/src/n32g430_tim.c **** *     Any express or implied warranty with regard to this software or the Product, including,but no
  36:n32g430_std_periph_driver/src/n32g430_tim.c **** * limited to, the warranties of merchantability, fitness for a particular purpose and non-infringem
  37:n32g430_std_periph_driver/src/n32g430_tim.c **** * are disclaimed to the fullest extent permitted by law.
  38:n32g430_std_periph_driver/src/n32g430_tim.c **** 
  39:n32g430_std_periph_driver/src/n32g430_tim.c **** *     Unless otherwise explicitly permitted by NATIONS, anyone may not duplicate, modify, transcrib
  40:n32g430_std_periph_driver/src/n32g430_tim.c **** * or otherwise distribute this software for any purposes, in whole or in part.
  41:n32g430_std_periph_driver/src/n32g430_tim.c **** *
  42:n32g430_std_periph_driver/src/n32g430_tim.c **** *     NATIONS products and technologies shall not be used for or incorporated into any products or 
  43:n32g430_std_periph_driver/src/n32g430_tim.c **** * whose manufacture, use, or sale is prohibited under any applicable domestic or foreign laws or re
  44:n32g430_std_periph_driver/src/n32g430_tim.c **** * User shall comply with any applicable export control laws and regulations promulgated and adminis
  45:n32g430_std_periph_driver/src/n32g430_tim.c **** * the governments of any countries asserting jurisdiction over the parties or transactions.
  46:n32g430_std_periph_driver/src/n32g430_tim.c **** **/
  47:n32g430_std_periph_driver/src/n32g430_tim.c **** 
  48:n32g430_std_periph_driver/src/n32g430_tim.c **** /**
  49:n32g430_std_periph_driver/src/n32g430_tim.c **** *\*\file n32g430_tim.c
  50:n32g430_std_periph_driver/src/n32g430_tim.c **** *\*\author Nations
  51:n32g430_std_periph_driver/src/n32g430_tim.c **** *\*\version v1.0.1
  52:n32g430_std_periph_driver/src/n32g430_tim.c **** *\*\copyright Copyright (c) 2022, Nations Technologies Inc. All rights reserved.
  53:n32g430_std_periph_driver/src/n32g430_tim.c **** **/
  54:n32g430_std_periph_driver/src/n32g430_tim.c **** #include "n32g430_tim.h"
  55:n32g430_std_periph_driver/src/n32g430_tim.c **** #include "n32g430_rcc.h"
  56:n32g430_std_periph_driver/src/n32g430_tim.c **** 
  57:n32g430_std_periph_driver/src/n32g430_tim.c **** /**
  58:n32g430_std_periph_driver/src/n32g430_tim.c **** *\*\name    TIM_Reset.
  59:n32g430_std_periph_driver/src/n32g430_tim.c **** *\*\fun     Reset the TIM registers.
  60:n32g430_std_periph_driver/src/n32g430_tim.c **** *\*\param   TIMx :
  61:n32g430_std_periph_driver/src/n32g430_tim.c **** *\*\          - TIM1
  62:n32g430_std_periph_driver/src/n32g430_tim.c **** *\*\          - TIM2
  63:n32g430_std_periph_driver/src/n32g430_tim.c **** *\*\          - TIM3
  64:n32g430_std_periph_driver/src/n32g430_tim.c **** *\*\          - TIM4
  65:n32g430_std_periph_driver/src/n32g430_tim.c **** *\*\          - TIM5
  66:n32g430_std_periph_driver/src/n32g430_tim.c **** *\*\          - TIM6
  67:n32g430_std_periph_driver/src/n32g430_tim.c **** *\*\          - TIM8
  68:n32g430_std_periph_driver/src/n32g430_tim.c **** *\*\return  none
  69:n32g430_std_periph_driver/src/n32g430_tim.c **** **/
  70:n32g430_std_periph_driver/src/n32g430_tim.c **** void TIM_Reset(TIM_Module* TIMx)
  71:n32g430_std_periph_driver/src/n32g430_tim.c **** {
  26              		.loc 1 71 1 view -0
  27              		.cfi_startproc
  28              		@ args = 0, pretend = 0, frame = 0
  29              		@ frame_needed = 0, uses_anonymous_args = 0
  30              		.loc 1 71 1 is_stmt 0 view .LVU1
  31 0000 08B5     		push	{r3, lr}
  32              	.LCFI0:
  33              		.cfi_def_cfa_offset 8
  34              		.cfi_offset 3, -8
  35              		.cfi_offset 14, -4
  72:n32g430_std_periph_driver/src/n32g430_tim.c **** 
  73:n32g430_std_periph_driver/src/n32g430_tim.c ****     if (TIMx == TIM1)
  36              		.loc 1 73 5 is_stmt 1 view .LVU2
  37              		.loc 1 73 8 is_stmt 0 view .LVU3
  38 0002 1A4B     		ldr	r3, .L17
  39 0004 9842     		cmp	r0, r3
  40 0006 12D0     		beq	.L10
  74:n32g430_std_periph_driver/src/n32g430_tim.c ****     {
  75:n32g430_std_periph_driver/src/n32g430_tim.c ****         RCC_APB2_Peripheral_Reset(RCC_APB2_PERIPH_TIM1);
ARM GAS  C:\Users\Dawn\AppData\Local\Temp\ccf7B1Wd.s 			page 3


  76:n32g430_std_periph_driver/src/n32g430_tim.c ****     }
  77:n32g430_std_periph_driver/src/n32g430_tim.c ****     else if (TIMx == TIM2)
  41              		.loc 1 77 10 is_stmt 1 view .LVU4
  42              		.loc 1 77 13 is_stmt 0 view .LVU5
  43 0008 B0F1804F 		cmp	r0, #1073741824
  44 000c 14D0     		beq	.L11
  78:n32g430_std_periph_driver/src/n32g430_tim.c ****     {
  79:n32g430_std_periph_driver/src/n32g430_tim.c ****         RCC_APB1_Peripheral_Reset(RCC_APB1_PERIPH_TIM2);
  80:n32g430_std_periph_driver/src/n32g430_tim.c ****     }
  81:n32g430_std_periph_driver/src/n32g430_tim.c ****     else if (TIMx == TIM3)
  45              		.loc 1 81 10 is_stmt 1 view .LVU6
  46              		.loc 1 81 13 is_stmt 0 view .LVU7
  47 000e 184B     		ldr	r3, .L17+4
  48 0010 9842     		cmp	r0, r3
  49 0012 15D0     		beq	.L12
  82:n32g430_std_periph_driver/src/n32g430_tim.c ****     {
  83:n32g430_std_periph_driver/src/n32g430_tim.c ****         RCC_APB1_Peripheral_Reset(RCC_APB1_PERIPH_TIM3);
  84:n32g430_std_periph_driver/src/n32g430_tim.c ****     }
  85:n32g430_std_periph_driver/src/n32g430_tim.c ****     else if (TIMx == TIM4)
  50              		.loc 1 85 10 is_stmt 1 view .LVU8
  51              		.loc 1 85 13 is_stmt 0 view .LVU9
  52 0014 174B     		ldr	r3, .L17+8
  53 0016 9842     		cmp	r0, r3
  54 0018 16D0     		beq	.L13
  86:n32g430_std_periph_driver/src/n32g430_tim.c ****     {
  87:n32g430_std_periph_driver/src/n32g430_tim.c ****         RCC_APB1_Peripheral_Reset(RCC_APB1_PERIPH_TIM4);
  88:n32g430_std_periph_driver/src/n32g430_tim.c ****     }
  89:n32g430_std_periph_driver/src/n32g430_tim.c ****     else if (TIMx == TIM5)
  55              		.loc 1 89 10 is_stmt 1 view .LVU10
  56              		.loc 1 89 13 is_stmt 0 view .LVU11
  57 001a 174B     		ldr	r3, .L17+12
  58 001c 9842     		cmp	r0, r3
  59 001e 17D0     		beq	.L14
  90:n32g430_std_periph_driver/src/n32g430_tim.c ****     {
  91:n32g430_std_periph_driver/src/n32g430_tim.c ****         RCC_APB1_Peripheral_Reset(RCC_APB1_PERIPH_TIM5);
  92:n32g430_std_periph_driver/src/n32g430_tim.c ****     }
  93:n32g430_std_periph_driver/src/n32g430_tim.c ****     else if (TIMx == TIM6)
  60              		.loc 1 93 10 is_stmt 1 view .LVU12
  61              		.loc 1 93 13 is_stmt 0 view .LVU13
  62 0020 164B     		ldr	r3, .L17+16
  63 0022 9842     		cmp	r0, r3
  64 0024 18D0     		beq	.L15
  94:n32g430_std_periph_driver/src/n32g430_tim.c ****     {
  95:n32g430_std_periph_driver/src/n32g430_tim.c ****         RCC_APB1_Peripheral_Reset(RCC_APB1_PERIPH_TIM6);
  96:n32g430_std_periph_driver/src/n32g430_tim.c ****     }
  97:n32g430_std_periph_driver/src/n32g430_tim.c **** 
  98:n32g430_std_periph_driver/src/n32g430_tim.c ****     else if (TIMx == TIM8)
  65              		.loc 1 98 10 is_stmt 1 view .LVU14
  66              		.loc 1 98 13 is_stmt 0 view .LVU15
  67 0026 164B     		ldr	r3, .L17+20
  68 0028 9842     		cmp	r0, r3
  69 002a 19D0     		beq	.L16
  70              	.LVL1:
  71              	.L1:
  99:n32g430_std_periph_driver/src/n32g430_tim.c ****     {
 100:n32g430_std_periph_driver/src/n32g430_tim.c ****         RCC_APB2_Peripheral_Reset(RCC_APB2_PERIPH_TIM8);
 101:n32g430_std_periph_driver/src/n32g430_tim.c ****     }
ARM GAS  C:\Users\Dawn\AppData\Local\Temp\ccf7B1Wd.s 			page 4


 102:n32g430_std_periph_driver/src/n32g430_tim.c **** }
  72              		.loc 1 102 1 view .LVU16
  73 002c 08BD     		pop	{r3, pc}
  74              	.LVL2:
  75              	.L10:
  75:n32g430_std_periph_driver/src/n32g430_tim.c ****     }
  76              		.loc 1 75 9 is_stmt 1 view .LVU17
  77 002e 4FF40060 		mov	r0, #2048
  78              	.LVL3:
  75:n32g430_std_periph_driver/src/n32g430_tim.c ****     }
  79              		.loc 1 75 9 is_stmt 0 view .LVU18
  80 0032 FFF7FEFF 		bl	RCC_APB2_Peripheral_Reset
  81              	.LVL4:
  82 0036 F9E7     		b	.L1
  83              	.LVL5:
  84              	.L11:
  79:n32g430_std_periph_driver/src/n32g430_tim.c ****     }
  85              		.loc 1 79 9 is_stmt 1 view .LVU19
  86 0038 0120     		movs	r0, #1
  87              	.LVL6:
  79:n32g430_std_periph_driver/src/n32g430_tim.c ****     }
  88              		.loc 1 79 9 is_stmt 0 view .LVU20
  89 003a FFF7FEFF 		bl	RCC_APB1_Peripheral_Reset
  90              	.LVL7:
  91 003e F5E7     		b	.L1
  92              	.LVL8:
  93              	.L12:
  83:n32g430_std_periph_driver/src/n32g430_tim.c ****     }
  94              		.loc 1 83 9 is_stmt 1 view .LVU21
  95 0040 0220     		movs	r0, #2
  96              	.LVL9:
  83:n32g430_std_periph_driver/src/n32g430_tim.c ****     }
  97              		.loc 1 83 9 is_stmt 0 view .LVU22
  98 0042 FFF7FEFF 		bl	RCC_APB1_Peripheral_Reset
  99              	.LVL10:
 100 0046 F1E7     		b	.L1
 101              	.LVL11:
 102              	.L13:
  87:n32g430_std_periph_driver/src/n32g430_tim.c ****     }
 103              		.loc 1 87 9 is_stmt 1 view .LVU23
 104 0048 0420     		movs	r0, #4
 105              	.LVL12:
  87:n32g430_std_periph_driver/src/n32g430_tim.c ****     }
 106              		.loc 1 87 9 is_stmt 0 view .LVU24
 107 004a FFF7FEFF 		bl	RCC_APB1_Peripheral_Reset
 108              	.LVL13:
 109 004e EDE7     		b	.L1
 110              	.LVL14:
 111              	.L14:
  91:n32g430_std_periph_driver/src/n32g430_tim.c ****     }
 112              		.loc 1 91 9 is_stmt 1 view .LVU25
 113 0050 0820     		movs	r0, #8
 114              	.LVL15:
  91:n32g430_std_periph_driver/src/n32g430_tim.c ****     }
 115              		.loc 1 91 9 is_stmt 0 view .LVU26
 116 0052 FFF7FEFF 		bl	RCC_APB1_Peripheral_Reset
 117              	.LVL16:
ARM GAS  C:\Users\Dawn\AppData\Local\Temp\ccf7B1Wd.s 			page 5


 118 0056 E9E7     		b	.L1
 119              	.LVL17:
 120              	.L15:
  95:n32g430_std_periph_driver/src/n32g430_tim.c ****     }
 121              		.loc 1 95 9 is_stmt 1 view .LVU27
 122 0058 1020     		movs	r0, #16
 123              	.LVL18:
  95:n32g430_std_periph_driver/src/n32g430_tim.c ****     }
 124              		.loc 1 95 9 is_stmt 0 view .LVU28
 125 005a FFF7FEFF 		bl	RCC_APB1_Peripheral_Reset
 126              	.LVL19:
 127 005e E5E7     		b	.L1
 128              	.LVL20:
 129              	.L16:
 100:n32g430_std_periph_driver/src/n32g430_tim.c ****     }
 130              		.loc 1 100 9 is_stmt 1 view .LVU29
 131 0060 4FF40050 		mov	r0, #8192
 132              	.LVL21:
 100:n32g430_std_periph_driver/src/n32g430_tim.c ****     }
 133              		.loc 1 100 9 is_stmt 0 view .LVU30
 134 0064 FFF7FEFF 		bl	RCC_APB2_Peripheral_Reset
 135              	.LVL22:
 136              		.loc 1 102 1 view .LVU31
 137 0068 E0E7     		b	.L1
 138              	.L18:
 139 006a 00BF     		.align	2
 140              	.L17:
 141 006c 002C0140 		.word	1073818624
 142 0070 00040040 		.word	1073742848
 143 0074 00080040 		.word	1073743872
 144 0078 000C0040 		.word	1073744896
 145 007c 00100040 		.word	1073745920
 146 0080 00340140 		.word	1073820672
 147              		.cfi_endproc
 148              	.LFE123:
 150              		.section	.text.TIM_Base_Count_Mode_Set,"ax",%progbits
 151              		.align	1
 152              		.global	TIM_Base_Count_Mode_Set
 153              		.syntax unified
 154              		.thumb
 155              		.thumb_func
 157              	TIM_Base_Count_Mode_Set:
 158              	.LVL23:
 159              	.LFB124:
 103:n32g430_std_periph_driver/src/n32g430_tim.c **** 
 104:n32g430_std_periph_driver/src/n32g430_tim.c **** /**
 105:n32g430_std_periph_driver/src/n32g430_tim.c **** *\*\name    TIM_Base_Count_Mode_Set.
 106:n32g430_std_periph_driver/src/n32g430_tim.c **** *\*\fun     Initializes the TIM cnt mode in up mode or down mode.
 107:n32g430_std_periph_driver/src/n32g430_tim.c **** *\*\param   TIMx:
 108:n32g430_std_periph_driver/src/n32g430_tim.c **** *\*\          - TIM1
 109:n32g430_std_periph_driver/src/n32g430_tim.c **** *\*\          - TIM2
 110:n32g430_std_periph_driver/src/n32g430_tim.c **** *\*\          - TIM3
 111:n32g430_std_periph_driver/src/n32g430_tim.c **** *\*\          - TIM4
 112:n32g430_std_periph_driver/src/n32g430_tim.c **** *\*\          - TIM5
 113:n32g430_std_periph_driver/src/n32g430_tim.c **** *\*\          - TIM8
 114:n32g430_std_periph_driver/src/n32g430_tim.c **** *\*\param   cnt_mode
 115:n32g430_std_periph_driver/src/n32g430_tim.c **** *\*\          - TIM_CNT_MODE_UP
ARM GAS  C:\Users\Dawn\AppData\Local\Temp\ccf7B1Wd.s 			page 6


 116:n32g430_std_periph_driver/src/n32g430_tim.c **** *\*\          - TIM_CNT_MODE_DOWN
 117:n32g430_std_periph_driver/src/n32g430_tim.c **** *\*\          - TIM_CNT_MODE_CENTER_ALIGN1    TIM Center Aligned Mode1
 118:n32g430_std_periph_driver/src/n32g430_tim.c **** *\*\          - TIM_CNT_MODE_CENTER_ALIGN2    TIM Center Aligned Mode2
 119:n32g430_std_periph_driver/src/n32g430_tim.c **** *\*\          - TIM_CNT_MODE_CENTER_ALIGN3    TIM Center Aligned Mode3
 120:n32g430_std_periph_driver/src/n32g430_tim.c **** *\*\return  none
 121:n32g430_std_periph_driver/src/n32g430_tim.c **** *\*\note    The counting direction of TIM6 is fixed upward counting
 122:n32g430_std_periph_driver/src/n32g430_tim.c **** **/
 123:n32g430_std_periph_driver/src/n32g430_tim.c **** void TIM_Base_Count_Mode_Set(TIM_Module* TIMx, uint32_t cnt_mode)
 124:n32g430_std_periph_driver/src/n32g430_tim.c **** {
 160              		.loc 1 124 1 is_stmt 1 view -0
 161              		.cfi_startproc
 162              		@ args = 0, pretend = 0, frame = 0
 163              		@ frame_needed = 0, uses_anonymous_args = 0
 164              		@ link register save eliminated.
 125:n32g430_std_periph_driver/src/n32g430_tim.c ****     uint32_t temp_value = 0;
 165              		.loc 1 125 5 view .LVU33
 126:n32g430_std_periph_driver/src/n32g430_tim.c **** 
 127:n32g430_std_periph_driver/src/n32g430_tim.c ****     temp_value = TIMx->CTRL1;
 166              		.loc 1 127 5 view .LVU34
 167              		.loc 1 127 16 is_stmt 0 view .LVU35
 168 0000 0368     		ldr	r3, [r0]
 169              	.LVL24:
 128:n32g430_std_periph_driver/src/n32g430_tim.c ****     /* Reset the CMS and DIR Bits */
 129:n32g430_std_periph_driver/src/n32g430_tim.c ****     temp_value &= (uint32_t)(~((uint32_t)(TIM_CTRL1_DIR | TIM_CTRL1_CAMSEL)));
 170              		.loc 1 129 5 is_stmt 1 view .LVU36
 171              		.loc 1 129 16 is_stmt 0 view .LVU37
 172 0002 23F07003 		bic	r3, r3, #112
 173              	.LVL25:
 130:n32g430_std_periph_driver/src/n32g430_tim.c ****     /* Set the Counter Mode */
 131:n32g430_std_periph_driver/src/n32g430_tim.c ****     temp_value |= cnt_mode;
 174              		.loc 1 131 5 is_stmt 1 view .LVU38
 175              		.loc 1 131 16 is_stmt 0 view .LVU39
 176 0006 0B43     		orrs	r3, r3, r1
 177              	.LVL26:
 132:n32g430_std_periph_driver/src/n32g430_tim.c ****     /* Write to TIMx CTRL1 register */
 133:n32g430_std_periph_driver/src/n32g430_tim.c ****     TIMx->CTRL1 = temp_value;
 178              		.loc 1 133 5 is_stmt 1 view .LVU40
 179              		.loc 1 133 17 is_stmt 0 view .LVU41
 180 0008 0360     		str	r3, [r0]
 134:n32g430_std_periph_driver/src/n32g430_tim.c **** }
 181              		.loc 1 134 1 view .LVU42
 182 000a 7047     		bx	lr
 183              		.cfi_endproc
 184              	.LFE124:
 186              		.section	.text.TIM_Base_Center_Aligned_Mode_OC4_7_8_9_Trigger_Set,"ax",%progbits
 187              		.align	1
 188              		.global	TIM_Base_Center_Aligned_Mode_OC4_7_8_9_Trigger_Set
 189              		.syntax unified
 190              		.thumb
 191              		.thumb_func
 193              	TIM_Base_Center_Aligned_Mode_OC4_7_8_9_Trigger_Set:
 194              	.LVL27:
 195              	.LFB125:
 135:n32g430_std_periph_driver/src/n32g430_tim.c **** 
 136:n32g430_std_periph_driver/src/n32g430_tim.c **** /**
 137:n32g430_std_periph_driver/src/n32g430_tim.c **** *\*\name    TIM_Base_Center_Aligned_Mode_OC4_7_8_9_Trigger_Set.
 138:n32g430_std_periph_driver/src/n32g430_tim.c **** *\*\param   TIMx:
ARM GAS  C:\Users\Dawn\AppData\Local\Temp\ccf7B1Wd.s 			page 7


 139:n32g430_std_periph_driver/src/n32g430_tim.c **** *\*\          - TIM1
 140:n32g430_std_periph_driver/src/n32g430_tim.c **** *\*\param   trigger_mode_in_center_aligned_mode
 141:n32g430_std_periph_driver/src/n32g430_tim.c **** *\*\          - TIM_UP_COUNTING_OC4_7_8_9_TRIGGER_VALID
 142:n32g430_std_periph_driver/src/n32g430_tim.c **** *\*\          - TIM_DOWN_COUNTING_OC4_7_8_9_TRIGGER_VALID
 143:n32g430_std_periph_driver/src/n32g430_tim.c **** *\*\          - TIM_UP_DOWN_COUNTING_OC4_7_8_9_TRIGGER_VALID
 144:n32g430_std_periph_driver/src/n32g430_tim.c **** *\*\return  none
 145:n32g430_std_periph_driver/src/n32g430_tim.c **** **/
 146:n32g430_std_periph_driver/src/n32g430_tim.c **** void TIM_Base_Center_Aligned_Mode_OC4_7_8_9_Trigger_Set(TIM_Module* TIMx, uint32_t trigger_mode_in_
 147:n32g430_std_periph_driver/src/n32g430_tim.c **** {
 196              		.loc 1 147 1 is_stmt 1 view -0
 197              		.cfi_startproc
 198              		@ args = 0, pretend = 0, frame = 0
 199              		@ frame_needed = 0, uses_anonymous_args = 0
 200              		@ link register save eliminated.
 148:n32g430_std_periph_driver/src/n32g430_tim.c ****     uint32_t temp_value = 0;
 201              		.loc 1 148 5 view .LVU44
 149:n32g430_std_periph_driver/src/n32g430_tim.c **** 
 150:n32g430_std_periph_driver/src/n32g430_tim.c ****     temp_value = TIMx->CTRL1;
 202              		.loc 1 150 5 view .LVU45
 203              		.loc 1 150 16 is_stmt 0 view .LVU46
 204 0000 0368     		ldr	r3, [r0]
 205              	.LVL28:
 151:n32g430_std_periph_driver/src/n32g430_tim.c ****     /* Reset the CMS and DIR Bits */
 152:n32g430_std_periph_driver/src/n32g430_tim.c ****     temp_value &= (uint32_t)(~((uint32_t)TIM_CENTER_ALIGNED_OC4_7_8_9_MASK));
 206              		.loc 1 152 5 is_stmt 1 view .LVU47
 207              		.loc 1 152 16 is_stmt 0 view .LVU48
 208 0002 23F44013 		bic	r3, r3, #3145728
 209              	.LVL29:
 153:n32g430_std_periph_driver/src/n32g430_tim.c ****     /* Set the Counter Mode */
 154:n32g430_std_periph_driver/src/n32g430_tim.c ****     temp_value |= trigger_mode_in_center_aligned_mode;
 210              		.loc 1 154 5 is_stmt 1 view .LVU49
 211              		.loc 1 154 16 is_stmt 0 view .LVU50
 212 0006 0B43     		orrs	r3, r3, r1
 213              	.LVL30:
 155:n32g430_std_periph_driver/src/n32g430_tim.c ****     /* Write to TIMx CTRL1 register */
 156:n32g430_std_periph_driver/src/n32g430_tim.c ****     TIMx->CTRL1 = temp_value;
 214              		.loc 1 156 5 is_stmt 1 view .LVU51
 215              		.loc 1 156 17 is_stmt 0 view .LVU52
 216 0008 0360     		str	r3, [r0]
 157:n32g430_std_periph_driver/src/n32g430_tim.c **** }
 217              		.loc 1 157 1 view .LVU53
 218 000a 7047     		bx	lr
 219              		.cfi_endproc
 220              	.LFE125:
 222              		.section	.text.TIM_Asymmetric_Enable,"ax",%progbits
 223              		.align	1
 224              		.global	TIM_Asymmetric_Enable
 225              		.syntax unified
 226              		.thumb
 227              		.thumb_func
 229              	TIM_Asymmetric_Enable:
 230              	.LVL31:
 231              	.LFB126:
 158:n32g430_std_periph_driver/src/n32g430_tim.c **** 
 159:n32g430_std_periph_driver/src/n32g430_tim.c **** 
 160:n32g430_std_periph_driver/src/n32g430_tim.c **** /**
 161:n32g430_std_periph_driver/src/n32g430_tim.c **** *\*\name    TIM_Asymmetric_Enable.
ARM GAS  C:\Users\Dawn\AppData\Local\Temp\ccf7B1Wd.s 			page 8


 162:n32g430_std_periph_driver/src/n32g430_tim.c **** *\*\param   TIMx:
 163:n32g430_std_periph_driver/src/n32g430_tim.c **** *\*\          - TIM1
 164:n32g430_std_periph_driver/src/n32g430_tim.c **** *\*\return  none
 165:n32g430_std_periph_driver/src/n32g430_tim.c **** **/
 166:n32g430_std_periph_driver/src/n32g430_tim.c **** void TIM_Asymmetric_Enable(TIM_Module* TIMx)
 167:n32g430_std_periph_driver/src/n32g430_tim.c **** {
 232              		.loc 1 167 1 is_stmt 1 view -0
 233              		.cfi_startproc
 234              		@ args = 0, pretend = 0, frame = 0
 235              		@ frame_needed = 0, uses_anonymous_args = 0
 236              		@ link register save eliminated.
 168:n32g430_std_periph_driver/src/n32g430_tim.c ****     TIMx->CTRL1 |= TIM_ASMMETRIC_ENABLE;
 237              		.loc 1 168 5 view .LVU55
 238              		.loc 1 168 9 is_stmt 0 view .LVU56
 239 0000 0368     		ldr	r3, [r0]
 240              		.loc 1 168 17 view .LVU57
 241 0002 43F48023 		orr	r3, r3, #262144
 242 0006 0360     		str	r3, [r0]
 169:n32g430_std_periph_driver/src/n32g430_tim.c **** }
 243              		.loc 1 169 1 view .LVU58
 244 0008 7047     		bx	lr
 245              		.cfi_endproc
 246              	.LFE126:
 248              		.section	.text.TIM_Asymmetric_Disable,"ax",%progbits
 249              		.align	1
 250              		.global	TIM_Asymmetric_Disable
 251              		.syntax unified
 252              		.thumb
 253              		.thumb_func
 255              	TIM_Asymmetric_Disable:
 256              	.LVL32:
 257              	.LFB127:
 170:n32g430_std_periph_driver/src/n32g430_tim.c **** 
 171:n32g430_std_periph_driver/src/n32g430_tim.c **** /**
 172:n32g430_std_periph_driver/src/n32g430_tim.c **** *\*\name    TIM_Asymmetric_Disable.
 173:n32g430_std_periph_driver/src/n32g430_tim.c **** *\*\param   TIMx:
 174:n32g430_std_periph_driver/src/n32g430_tim.c **** *\*\          - TIM1
 175:n32g430_std_periph_driver/src/n32g430_tim.c **** *\*\return  none
 176:n32g430_std_periph_driver/src/n32g430_tim.c **** **/
 177:n32g430_std_periph_driver/src/n32g430_tim.c **** void TIM_Asymmetric_Disable(TIM_Module* TIMx)
 178:n32g430_std_periph_driver/src/n32g430_tim.c **** {
 258              		.loc 1 178 1 is_stmt 1 view -0
 259              		.cfi_startproc
 260              		@ args = 0, pretend = 0, frame = 0
 261              		@ frame_needed = 0, uses_anonymous_args = 0
 262              		@ link register save eliminated.
 179:n32g430_std_periph_driver/src/n32g430_tim.c ****     TIMx->CTRL1 &= (uint32_t)(~((uint32_t)TIM_ASMMETRIC_ENABLE));
 263              		.loc 1 179 5 view .LVU60
 264              		.loc 1 179 9 is_stmt 0 view .LVU61
 265 0000 0368     		ldr	r3, [r0]
 266              		.loc 1 179 17 view .LVU62
 267 0002 23F48023 		bic	r3, r3, #262144
 268 0006 0360     		str	r3, [r0]
 180:n32g430_std_periph_driver/src/n32g430_tim.c **** }
 269              		.loc 1 180 1 view .LVU63
 270 0008 7047     		bx	lr
 271              		.cfi_endproc
ARM GAS  C:\Users\Dawn\AppData\Local\Temp\ccf7B1Wd.s 			page 9


 272              	.LFE127:
 274              		.section	.text.TIM_Base_Auto_Reload_Set,"ax",%progbits
 275              		.align	1
 276              		.global	TIM_Base_Auto_Reload_Set
 277              		.syntax unified
 278              		.thumb
 279              		.thumb_func
 281              	TIM_Base_Auto_Reload_Set:
 282              	.LVL33:
 283              	.LFB128:
 181:n32g430_std_periph_driver/src/n32g430_tim.c **** 
 182:n32g430_std_periph_driver/src/n32g430_tim.c **** /**
 183:n32g430_std_periph_driver/src/n32g430_tim.c **** *\*\name    TIM_Base_Auto_Reload_Set.
 184:n32g430_std_periph_driver/src/n32g430_tim.c **** *\*\fun     Initializes the TIM AR value
 185:n32g430_std_periph_driver/src/n32g430_tim.c **** *\*\param   TIMx:
 186:n32g430_std_periph_driver/src/n32g430_tim.c **** *\*\          - TIM1
 187:n32g430_std_periph_driver/src/n32g430_tim.c **** *\*\          - TIM2
 188:n32g430_std_periph_driver/src/n32g430_tim.c **** *\*\          - TIM3
 189:n32g430_std_periph_driver/src/n32g430_tim.c **** *\*\          - TIM4
 190:n32g430_std_periph_driver/src/n32g430_tim.c **** *\*\          - TIM5
 191:n32g430_std_periph_driver/src/n32g430_tim.c **** *\*\          - TIM6
 192:n32g430_std_periph_driver/src/n32g430_tim.c **** *\*\          - TIM8
 193:n32g430_std_periph_driver/src/n32g430_tim.c **** *\*\param   auto_reload:
 194:n32g430_std_periph_driver/src/n32g430_tim.c ****               - [1, 0xffff]
 195:n32g430_std_periph_driver/src/n32g430_tim.c **** *\*\return  none
 196:n32g430_std_periph_driver/src/n32g430_tim.c **** **/
 197:n32g430_std_periph_driver/src/n32g430_tim.c **** void TIM_Base_Auto_Reload_Set(TIM_Module* TIMx, uint16_t auto_reload)
 198:n32g430_std_periph_driver/src/n32g430_tim.c **** {
 284              		.loc 1 198 1 is_stmt 1 view -0
 285              		.cfi_startproc
 286              		@ args = 0, pretend = 0, frame = 0
 287              		@ frame_needed = 0, uses_anonymous_args = 0
 288              		@ link register save eliminated.
 199:n32g430_std_periph_driver/src/n32g430_tim.c ****     TIMx->AR = auto_reload;
 289              		.loc 1 199 5 view .LVU65
 290              		.loc 1 199 14 is_stmt 0 view .LVU66
 291 0000 8185     		strh	r1, [r0, #44]	@ movhi
 200:n32g430_std_periph_driver/src/n32g430_tim.c **** }
 292              		.loc 1 200 1 view .LVU67
 293 0002 7047     		bx	lr
 294              		.cfi_endproc
 295              	.LFE128:
 297              		.section	.text.TIM_Base_Prescaler_Set,"ax",%progbits
 298              		.align	1
 299              		.global	TIM_Base_Prescaler_Set
 300              		.syntax unified
 301              		.thumb
 302              		.thumb_func
 304              	TIM_Base_Prescaler_Set:
 305              	.LVL34:
 306              	.LFB129:
 201:n32g430_std_periph_driver/src/n32g430_tim.c **** 
 202:n32g430_std_periph_driver/src/n32g430_tim.c **** /**
 203:n32g430_std_periph_driver/src/n32g430_tim.c **** *\*\name    TIM_Base_Prescaler_Set.
 204:n32g430_std_periph_driver/src/n32g430_tim.c **** *\*\fun     Initializes the TIM PSC value
 205:n32g430_std_periph_driver/src/n32g430_tim.c **** *\*\param   TIMx:
 206:n32g430_std_periph_driver/src/n32g430_tim.c **** *\*\          - TIM1
ARM GAS  C:\Users\Dawn\AppData\Local\Temp\ccf7B1Wd.s 			page 10


 207:n32g430_std_periph_driver/src/n32g430_tim.c **** *\*\          - TIM2
 208:n32g430_std_periph_driver/src/n32g430_tim.c **** *\*\          - TIM3
 209:n32g430_std_periph_driver/src/n32g430_tim.c **** *\*\          - TIM4
 210:n32g430_std_periph_driver/src/n32g430_tim.c **** *\*\          - TIM5
 211:n32g430_std_periph_driver/src/n32g430_tim.c **** *\*\          - TIM6
 212:n32g430_std_periph_driver/src/n32g430_tim.c **** *\*\          - TIM8
 213:n32g430_std_periph_driver/src/n32g430_tim.c **** *\*\param   prescaler
 214:n32g430_std_periph_driver/src/n32g430_tim.c **** *\*\return  none
 215:n32g430_std_periph_driver/src/n32g430_tim.c **** **/
 216:n32g430_std_periph_driver/src/n32g430_tim.c **** void TIM_Base_Prescaler_Set(TIM_Module* TIMx, uint16_t prescaler)
 217:n32g430_std_periph_driver/src/n32g430_tim.c **** {
 307              		.loc 1 217 1 is_stmt 1 view -0
 308              		.cfi_startproc
 309              		@ args = 0, pretend = 0, frame = 0
 310              		@ frame_needed = 0, uses_anonymous_args = 0
 311              		@ link register save eliminated.
 218:n32g430_std_periph_driver/src/n32g430_tim.c ****     TIMx->PSC = prescaler;
 312              		.loc 1 218 5 view .LVU69
 313              		.loc 1 218 15 is_stmt 0 view .LVU70
 314 0000 0185     		strh	r1, [r0, #40]	@ movhi
 219:n32g430_std_periph_driver/src/n32g430_tim.c **** }
 315              		.loc 1 219 1 view .LVU71
 316 0002 7047     		bx	lr
 317              		.cfi_endproc
 318              	.LFE129:
 320              		.section	.text.TIM_Base_Reload_Mode_Set,"ax",%progbits
 321              		.align	1
 322              		.global	TIM_Base_Reload_Mode_Set
 323              		.syntax unified
 324              		.thumb
 325              		.thumb_func
 327              	TIM_Base_Reload_Mode_Set:
 328              	.LVL35:
 329              	.LFB130:
 220:n32g430_std_periph_driver/src/n32g430_tim.c **** 
 221:n32g430_std_periph_driver/src/n32g430_tim.c **** /**
 222:n32g430_std_periph_driver/src/n32g430_tim.c **** *\*\name    TIM_Base_Reload_Mode_Set.
 223:n32g430_std_periph_driver/src/n32g430_tim.c **** *\*\fun     Initializes the TIM reload mode
 224:n32g430_std_periph_driver/src/n32g430_tim.c **** *\*\param   TIMx:
 225:n32g430_std_periph_driver/src/n32g430_tim.c **** *\*\          - TIM1
 226:n32g430_std_periph_driver/src/n32g430_tim.c **** *\*\          - TIM2
 227:n32g430_std_periph_driver/src/n32g430_tim.c **** *\*\          - TIM3
 228:n32g430_std_periph_driver/src/n32g430_tim.c **** *\*\          - TIM4
 229:n32g430_std_periph_driver/src/n32g430_tim.c **** *\*\          - TIM5
 230:n32g430_std_periph_driver/src/n32g430_tim.c **** *\*\          - TIM6
 231:n32g430_std_periph_driver/src/n32g430_tim.c **** *\*\          - TIM8
 232:n32g430_std_periph_driver/src/n32g430_tim.c **** *\*\param   prescaler_reload_mode:
 233:n32g430_std_periph_driver/src/n32g430_tim.c **** **\           - TIM_PSC_RELOAD_MODE_IMMEDIATE
 234:n32g430_std_periph_driver/src/n32g430_tim.c **** **\           - TIM_PSC_RELOAD_MODE_UPDATE
 235:n32g430_std_periph_driver/src/n32g430_tim.c **** *\*\return  none
 236:n32g430_std_periph_driver/src/n32g430_tim.c **** **/
 237:n32g430_std_periph_driver/src/n32g430_tim.c **** void TIM_Base_Reload_Mode_Set(TIM_Module* TIMx, uint16_t prescaler_reload_mode)
 238:n32g430_std_periph_driver/src/n32g430_tim.c **** {
 330              		.loc 1 238 1 is_stmt 1 view -0
 331              		.cfi_startproc
 332              		@ args = 0, pretend = 0, frame = 0
 333              		@ frame_needed = 0, uses_anonymous_args = 0
ARM GAS  C:\Users\Dawn\AppData\Local\Temp\ccf7B1Wd.s 			page 11


 334              		@ link register save eliminated.
 239:n32g430_std_periph_driver/src/n32g430_tim.c ****     TIMx->EVTGEN = prescaler_reload_mode;
 335              		.loc 1 239 5 view .LVU73
 336              		.loc 1 239 18 is_stmt 0 view .LVU74
 337 0000 8182     		strh	r1, [r0, #20]	@ movhi
 240:n32g430_std_periph_driver/src/n32g430_tim.c **** }
 338              		.loc 1 240 1 view .LVU75
 339 0002 7047     		bx	lr
 340              		.cfi_endproc
 341              	.LFE130:
 343              		.section	.text.TIM_Base_Repeat_Count_Set,"ax",%progbits
 344              		.align	1
 345              		.global	TIM_Base_Repeat_Count_Set
 346              		.syntax unified
 347              		.thumb
 348              		.thumb_func
 350              	TIM_Base_Repeat_Count_Set:
 351              	.LVL36:
 352              	.LFB131:
 241:n32g430_std_periph_driver/src/n32g430_tim.c **** 
 242:n32g430_std_periph_driver/src/n32g430_tim.c **** /**
 243:n32g430_std_periph_driver/src/n32g430_tim.c **** *\*\name    TIM_Base_Repeat_Count_Set.
 244:n32g430_std_periph_driver/src/n32g430_tim.c **** *\*\fun     Initializes the TIM repeat cnt
 245:n32g430_std_periph_driver/src/n32g430_tim.c **** *\*\param   TIMx:
 246:n32g430_std_periph_driver/src/n32g430_tim.c **** *\*\          - TIM1
 247:n32g430_std_periph_driver/src/n32g430_tim.c **** *\*\          - TIM8
 248:n32g430_std_periph_driver/src/n32g430_tim.c **** *\*\param   repeat_cnt
 249:n32g430_std_periph_driver/src/n32g430_tim.c **** *\*\          - [0,255]
 250:n32g430_std_periph_driver/src/n32g430_tim.c **** *\*\return  none
 251:n32g430_std_periph_driver/src/n32g430_tim.c **** **/
 252:n32g430_std_periph_driver/src/n32g430_tim.c **** void TIM_Base_Repeat_Count_Set(TIM_Module* TIMx, uint8_t repeat_cnt)
 253:n32g430_std_periph_driver/src/n32g430_tim.c **** {
 353              		.loc 1 253 1 is_stmt 1 view -0
 354              		.cfi_startproc
 355              		@ args = 0, pretend = 0, frame = 0
 356              		@ frame_needed = 0, uses_anonymous_args = 0
 357              		@ link register save eliminated.
 254:n32g430_std_periph_driver/src/n32g430_tim.c ****     TIMx->REPCNT = repeat_cnt;
 358              		.loc 1 254 5 view .LVU77
 359              		.loc 1 254 18 is_stmt 0 view .LVU78
 360 0000 0186     		strh	r1, [r0, #48]	@ movhi
 255:n32g430_std_periph_driver/src/n32g430_tim.c **** }
 361              		.loc 1 255 1 view .LVU79
 362 0002 7047     		bx	lr
 363              		.cfi_endproc
 364              	.LFE131:
 366              		.section	.text.TIM_Base_Channel1,"ax",%progbits
 367              		.align	1
 368              		.global	TIM_Base_Channel1
 369              		.syntax unified
 370              		.thumb
 371              		.thumb_func
 373              	TIM_Base_Channel1:
 374              	.LVL37:
 375              	.LFB132:
 256:n32g430_std_periph_driver/src/n32g430_tim.c **** 
 257:n32g430_std_periph_driver/src/n32g430_tim.c **** /**
ARM GAS  C:\Users\Dawn\AppData\Local\Temp\ccf7B1Wd.s 			page 12


 258:n32g430_std_periph_driver/src/n32g430_tim.c **** *\*\name    TIM_Base_Channel1.
 259:n32g430_std_periph_driver/src/n32g430_tim.c **** *\*\param   TIMx:
 260:n32g430_std_periph_driver/src/n32g430_tim.c **** *\*\          - TIM1
 261:n32g430_std_periph_driver/src/n32g430_tim.c **** *\*\          - TIM2
 262:n32g430_std_periph_driver/src/n32g430_tim.c **** *\*\          - TIM3
 263:n32g430_std_periph_driver/src/n32g430_tim.c **** *\*\          - TIM4
 264:n32g430_std_periph_driver/src/n32g430_tim.c **** *\*\          - TIM5
 265:n32g430_std_periph_driver/src/n32g430_tim.c **** *\*\          - TIM8
 266:n32g430_std_periph_driver/src/n32g430_tim.c **** *\*\param   channel_selection:
 267:n32g430_std_periph_driver/src/n32g430_tim.c **** **\           - 1
 268:n32g430_std_periph_driver/src/n32g430_tim.c **** **\             CH1 is from COMP
 269:n32g430_std_periph_driver/src/n32g430_tim.c **** **\           - 0
 270:n32g430_std_periph_driver/src/n32g430_tim.c **** **\             CH1 is from IO
 271:n32g430_std_periph_driver/src/n32g430_tim.c **** *\*\return  none
 272:n32g430_std_periph_driver/src/n32g430_tim.c **** *\*\note    not for TIM6
 273:n32g430_std_periph_driver/src/n32g430_tim.c **** **/
 274:n32g430_std_periph_driver/src/n32g430_tim.c **** void TIM_Base_Channel1(TIM_Module* TIMx, bool channel_selection)
 275:n32g430_std_periph_driver/src/n32g430_tim.c **** {
 376              		.loc 1 275 1 is_stmt 1 view -0
 377              		.cfi_startproc
 378              		@ args = 0, pretend = 0, frame = 0
 379              		@ frame_needed = 0, uses_anonymous_args = 0
 380              		@ link register save eliminated.
 276:n32g430_std_periph_driver/src/n32g430_tim.c ****     if(channel_selection)
 381              		.loc 1 276 5 view .LVU81
 382              		.loc 1 276 7 is_stmt 0 view .LVU82
 383 0000 21B1     		cbz	r1, .L28
 277:n32g430_std_periph_driver/src/n32g430_tim.c ****     {
 278:n32g430_std_periph_driver/src/n32g430_tim.c ****         TIMx->CTRL1 |= TIM_CH1_SEL;
 384              		.loc 1 278 9 is_stmt 1 view .LVU83
 385              		.loc 1 278 13 is_stmt 0 view .LVU84
 386 0002 0368     		ldr	r3, [r0]
 387              		.loc 1 278 21 view .LVU85
 388 0004 43F40063 		orr	r3, r3, #2048
 389 0008 0360     		str	r3, [r0]
 390 000a 7047     		bx	lr
 391              	.L28:
 279:n32g430_std_periph_driver/src/n32g430_tim.c ****     }
 280:n32g430_std_periph_driver/src/n32g430_tim.c ****     else
 281:n32g430_std_periph_driver/src/n32g430_tim.c ****     {
 282:n32g430_std_periph_driver/src/n32g430_tim.c ****         TIMx->CTRL1 &= (uint32_t)(~TIM_CH1_SEL);
 392              		.loc 1 282 9 is_stmt 1 view .LVU86
 393              		.loc 1 282 13 is_stmt 0 view .LVU87
 394 000c 0368     		ldr	r3, [r0]
 395              		.loc 1 282 21 view .LVU88
 396 000e 23F40063 		bic	r3, r3, #2048
 397 0012 0360     		str	r3, [r0]
 283:n32g430_std_periph_driver/src/n32g430_tim.c ****     }    
 284:n32g430_std_periph_driver/src/n32g430_tim.c **** }
 398              		.loc 1 284 1 view .LVU89
 399 0014 7047     		bx	lr
 400              		.cfi_endproc
 401              	.LFE132:
 403              		.section	.text.TIM_Base_Channel2,"ax",%progbits
 404              		.align	1
 405              		.global	TIM_Base_Channel2
 406              		.syntax unified
ARM GAS  C:\Users\Dawn\AppData\Local\Temp\ccf7B1Wd.s 			page 13


 407              		.thumb
 408              		.thumb_func
 410              	TIM_Base_Channel2:
 411              	.LVL38:
 412              	.LFB133:
 285:n32g430_std_periph_driver/src/n32g430_tim.c **** 
 286:n32g430_std_periph_driver/src/n32g430_tim.c **** /**
 287:n32g430_std_periph_driver/src/n32g430_tim.c **** *\*\name    TIM_Base_Channel2.
 288:n32g430_std_periph_driver/src/n32g430_tim.c **** *\*\param   TIMx:
 289:n32g430_std_periph_driver/src/n32g430_tim.c **** *\*\          - TIM2
 290:n32g430_std_periph_driver/src/n32g430_tim.c **** *\*\param   channel_selection:
 291:n32g430_std_periph_driver/src/n32g430_tim.c **** **\           - 1
 292:n32g430_std_periph_driver/src/n32g430_tim.c **** **\             CH2 is from LSE
 293:n32g430_std_periph_driver/src/n32g430_tim.c **** **\           - 0
 294:n32g430_std_periph_driver/src/n32g430_tim.c **** **\             CH2 is from IO
 295:n32g430_std_periph_driver/src/n32g430_tim.c **** *\*\return  none
 296:n32g430_std_periph_driver/src/n32g430_tim.c **** **/
 297:n32g430_std_periph_driver/src/n32g430_tim.c **** void TIM_Base_Channel2(TIM_Module* TIMx, bool channel_selection)
 298:n32g430_std_periph_driver/src/n32g430_tim.c **** {
 413              		.loc 1 298 1 is_stmt 1 view -0
 414              		.cfi_startproc
 415              		@ args = 0, pretend = 0, frame = 0
 416              		@ frame_needed = 0, uses_anonymous_args = 0
 417              		@ link register save eliminated.
 299:n32g430_std_periph_driver/src/n32g430_tim.c ****     if(channel_selection)
 418              		.loc 1 299 5 view .LVU91
 419              		.loc 1 299 7 is_stmt 0 view .LVU92
 420 0000 21B1     		cbz	r1, .L31
 300:n32g430_std_periph_driver/src/n32g430_tim.c ****     {
 301:n32g430_std_periph_driver/src/n32g430_tim.c ****         TIMx->CTRL1 |= TIM_CH2_SEL;
 421              		.loc 1 301 9 is_stmt 1 view .LVU93
 422              		.loc 1 301 13 is_stmt 0 view .LVU94
 423 0002 0368     		ldr	r3, [r0]
 424              		.loc 1 301 21 view .LVU95
 425 0004 43F48053 		orr	r3, r3, #4096
 426 0008 0360     		str	r3, [r0]
 427 000a 7047     		bx	lr
 428              	.L31:
 302:n32g430_std_periph_driver/src/n32g430_tim.c ****     }
 303:n32g430_std_periph_driver/src/n32g430_tim.c ****     else
 304:n32g430_std_periph_driver/src/n32g430_tim.c ****     {
 305:n32g430_std_periph_driver/src/n32g430_tim.c ****         TIMx->CTRL1 &= (uint32_t)(~TIM_CH2_SEL);
 429              		.loc 1 305 9 is_stmt 1 view .LVU96
 430              		.loc 1 305 13 is_stmt 0 view .LVU97
 431 000c 0368     		ldr	r3, [r0]
 432              		.loc 1 305 21 view .LVU98
 433 000e 23F48053 		bic	r3, r3, #4096
 434 0012 0360     		str	r3, [r0]
 306:n32g430_std_periph_driver/src/n32g430_tim.c ****     }    
 307:n32g430_std_periph_driver/src/n32g430_tim.c **** }
 435              		.loc 1 307 1 view .LVU99
 436 0014 7047     		bx	lr
 437              		.cfi_endproc
 438              	.LFE133:
 440              		.section	.text.TIM_Base_Channel3,"ax",%progbits
 441              		.align	1
 442              		.global	TIM_Base_Channel3
ARM GAS  C:\Users\Dawn\AppData\Local\Temp\ccf7B1Wd.s 			page 14


 443              		.syntax unified
 444              		.thumb
 445              		.thumb_func
 447              	TIM_Base_Channel3:
 448              	.LVL39:
 449              	.LFB134:
 308:n32g430_std_periph_driver/src/n32g430_tim.c **** 
 309:n32g430_std_periph_driver/src/n32g430_tim.c **** /**
 310:n32g430_std_periph_driver/src/n32g430_tim.c **** *\*\name    TIM_Base_Channel3.
 311:n32g430_std_periph_driver/src/n32g430_tim.c **** *\*\param   TIMx:
 312:n32g430_std_periph_driver/src/n32g430_tim.c **** *\*\          - TIM2
 313:n32g430_std_periph_driver/src/n32g430_tim.c **** *\*\param   channel_selection:
 314:n32g430_std_periph_driver/src/n32g430_tim.c **** **\           - 1
 315:n32g430_std_periph_driver/src/n32g430_tim.c **** **\             CH3 is from LSI
 316:n32g430_std_periph_driver/src/n32g430_tim.c **** **\           - 0
 317:n32g430_std_periph_driver/src/n32g430_tim.c **** **\             CH3 is from IO
 318:n32g430_std_periph_driver/src/n32g430_tim.c **** *\*\return  none
 319:n32g430_std_periph_driver/src/n32g430_tim.c **** **/
 320:n32g430_std_periph_driver/src/n32g430_tim.c **** void TIM_Base_Channel3(TIM_Module* TIMx, bool channel_selection)
 321:n32g430_std_periph_driver/src/n32g430_tim.c **** {
 450              		.loc 1 321 1 is_stmt 1 view -0
 451              		.cfi_startproc
 452              		@ args = 0, pretend = 0, frame = 0
 453              		@ frame_needed = 0, uses_anonymous_args = 0
 454              		@ link register save eliminated.
 322:n32g430_std_periph_driver/src/n32g430_tim.c ****     if(channel_selection)
 455              		.loc 1 322 5 view .LVU101
 456              		.loc 1 322 7 is_stmt 0 view .LVU102
 457 0000 21B1     		cbz	r1, .L34
 323:n32g430_std_periph_driver/src/n32g430_tim.c ****     {
 324:n32g430_std_periph_driver/src/n32g430_tim.c ****         TIMx->CTRL1 |= TIM_CH3_SEL;
 458              		.loc 1 324 9 is_stmt 1 view .LVU103
 459              		.loc 1 324 13 is_stmt 0 view .LVU104
 460 0002 0368     		ldr	r3, [r0]
 461              		.loc 1 324 21 view .LVU105
 462 0004 43F40053 		orr	r3, r3, #8192
 463 0008 0360     		str	r3, [r0]
 464 000a 7047     		bx	lr
 465              	.L34:
 325:n32g430_std_periph_driver/src/n32g430_tim.c ****     }
 326:n32g430_std_periph_driver/src/n32g430_tim.c ****     else
 327:n32g430_std_periph_driver/src/n32g430_tim.c ****     {
 328:n32g430_std_periph_driver/src/n32g430_tim.c ****         TIMx->CTRL1 &= (uint32_t)(~TIM_CH3_SEL);
 466              		.loc 1 328 9 is_stmt 1 view .LVU106
 467              		.loc 1 328 13 is_stmt 0 view .LVU107
 468 000c 0368     		ldr	r3, [r0]
 469              		.loc 1 328 21 view .LVU108
 470 000e 23F40053 		bic	r3, r3, #8192
 471 0012 0360     		str	r3, [r0]
 329:n32g430_std_periph_driver/src/n32g430_tim.c ****     }    
 330:n32g430_std_periph_driver/src/n32g430_tim.c **** }
 472              		.loc 1 330 1 view .LVU109
 473 0014 7047     		bx	lr
 474              		.cfi_endproc
 475              	.LFE134:
 477              		.section	.text.TIM_Base_Channel4,"ax",%progbits
 478              		.align	1
ARM GAS  C:\Users\Dawn\AppData\Local\Temp\ccf7B1Wd.s 			page 15


 479              		.global	TIM_Base_Channel4
 480              		.syntax unified
 481              		.thumb
 482              		.thumb_func
 484              	TIM_Base_Channel4:
 485              	.LVL40:
 486              	.LFB135:
 331:n32g430_std_periph_driver/src/n32g430_tim.c **** 
 332:n32g430_std_periph_driver/src/n32g430_tim.c **** /**
 333:n32g430_std_periph_driver/src/n32g430_tim.c **** *\*\name    TIM_Base_Channel4.
 334:n32g430_std_periph_driver/src/n32g430_tim.c **** *\*\param   TIMx:
 335:n32g430_std_periph_driver/src/n32g430_tim.c **** *\*\          - TIM2
 336:n32g430_std_periph_driver/src/n32g430_tim.c **** *\*\param   channel_selection:
 337:n32g430_std_periph_driver/src/n32g430_tim.c **** **\           - 1
 338:n32g430_std_periph_driver/src/n32g430_tim.c **** **\             CH4 is from HSE/128
 339:n32g430_std_periph_driver/src/n32g430_tim.c **** **\           - 0
 340:n32g430_std_periph_driver/src/n32g430_tim.c **** **\             CH4 is from IO
 341:n32g430_std_periph_driver/src/n32g430_tim.c **** *\*\return  none
 342:n32g430_std_periph_driver/src/n32g430_tim.c **** **/
 343:n32g430_std_periph_driver/src/n32g430_tim.c **** void TIM_Base_Channel4(TIM_Module* TIMx, bool channel_selection)
 344:n32g430_std_periph_driver/src/n32g430_tim.c **** {
 487              		.loc 1 344 1 is_stmt 1 view -0
 488              		.cfi_startproc
 489              		@ args = 0, pretend = 0, frame = 0
 490              		@ frame_needed = 0, uses_anonymous_args = 0
 491              		@ link register save eliminated.
 345:n32g430_std_periph_driver/src/n32g430_tim.c ****     if(channel_selection)
 492              		.loc 1 345 5 view .LVU111
 493              		.loc 1 345 7 is_stmt 0 view .LVU112
 494 0000 21B1     		cbz	r1, .L37
 346:n32g430_std_periph_driver/src/n32g430_tim.c ****     {
 347:n32g430_std_periph_driver/src/n32g430_tim.c ****         TIMx->CTRL1 |= TIM_CH4_SEL;
 495              		.loc 1 347 9 is_stmt 1 view .LVU113
 496              		.loc 1 347 13 is_stmt 0 view .LVU114
 497 0002 0368     		ldr	r3, [r0]
 498              		.loc 1 347 21 view .LVU115
 499 0004 43F48043 		orr	r3, r3, #16384
 500 0008 0360     		str	r3, [r0]
 501 000a 7047     		bx	lr
 502              	.L37:
 348:n32g430_std_periph_driver/src/n32g430_tim.c ****     }
 349:n32g430_std_periph_driver/src/n32g430_tim.c ****     else
 350:n32g430_std_periph_driver/src/n32g430_tim.c ****     {
 351:n32g430_std_periph_driver/src/n32g430_tim.c ****         TIMx->CTRL1 &= (uint32_t)(~TIM_CH4_SEL);
 503              		.loc 1 351 9 is_stmt 1 view .LVU116
 504              		.loc 1 351 13 is_stmt 0 view .LVU117
 505 000c 0368     		ldr	r3, [r0]
 506              		.loc 1 351 21 view .LVU118
 507 000e 23F48043 		bic	r3, r3, #16384
 508 0012 0360     		str	r3, [r0]
 352:n32g430_std_periph_driver/src/n32g430_tim.c ****     }    
 353:n32g430_std_periph_driver/src/n32g430_tim.c **** }
 509              		.loc 1 353 1 view .LVU119
 510 0014 7047     		bx	lr
 511              		.cfi_endproc
 512              	.LFE135:
 514              		.section	.text.TIM_Base_OCrefClear,"ax",%progbits
ARM GAS  C:\Users\Dawn\AppData\Local\Temp\ccf7B1Wd.s 			page 16


 515              		.align	1
 516              		.global	TIM_Base_OCrefClear
 517              		.syntax unified
 518              		.thumb
 519              		.thumb_func
 521              	TIM_Base_OCrefClear:
 522              	.LVL41:
 523              	.LFB136:
 354:n32g430_std_periph_driver/src/n32g430_tim.c **** 
 355:n32g430_std_periph_driver/src/n32g430_tim.c **** /**
 356:n32g430_std_periph_driver/src/n32g430_tim.c **** *\*\name    TIM_Base_OCrefClear.
 357:n32g430_std_periph_driver/src/n32g430_tim.c **** *\*\param   TIMx:
 358:n32g430_std_periph_driver/src/n32g430_tim.c **** *\*\          - TIM1
 359:n32g430_std_periph_driver/src/n32g430_tim.c **** *\*\          - TIM2
 360:n32g430_std_periph_driver/src/n32g430_tim.c **** *\*\          - TIM3
 361:n32g430_std_periph_driver/src/n32g430_tim.c **** *\*\          - TIM4
 362:n32g430_std_periph_driver/src/n32g430_tim.c **** *\*\          - TIM8
 363:n32g430_std_periph_driver/src/n32g430_tim.c **** *\*\param   OCrefClear_selection:
 364:n32g430_std_periph_driver/src/n32g430_tim.c **** **\           - 1
 365:n32g430_std_periph_driver/src/n32g430_tim.c **** **\             OCrefClear is from ETR
 366:n32g430_std_periph_driver/src/n32g430_tim.c **** **\           - 0
 367:n32g430_std_periph_driver/src/n32g430_tim.c **** **\             OCrefClear is from COMP
 368:n32g430_std_periph_driver/src/n32g430_tim.c **** *\*\return  none 
 369:n32g430_std_periph_driver/src/n32g430_tim.c **** *\*\note    Not for TIM5 and TIM6
 370:n32g430_std_periph_driver/src/n32g430_tim.c **** **/
 371:n32g430_std_periph_driver/src/n32g430_tim.c **** void TIM_Base_OCrefClear(TIM_Module* TIMx, bool OCrefClear_selection)
 372:n32g430_std_periph_driver/src/n32g430_tim.c **** {
 524              		.loc 1 372 1 is_stmt 1 view -0
 525              		.cfi_startproc
 526              		@ args = 0, pretend = 0, frame = 0
 527              		@ frame_needed = 0, uses_anonymous_args = 0
 528              		@ link register save eliminated.
 373:n32g430_std_periph_driver/src/n32g430_tim.c ****     if (OCrefClear_selection)
 529              		.loc 1 373 5 view .LVU121
 530              		.loc 1 373 8 is_stmt 0 view .LVU122
 531 0000 21B1     		cbz	r1, .L40
 374:n32g430_std_periph_driver/src/n32g430_tim.c ****     {
 375:n32g430_std_periph_driver/src/n32g430_tim.c ****         TIMx->CTRL1 |= TIM_OCREF_CLEAR_SEL;
 532              		.loc 1 375 9 is_stmt 1 view .LVU123
 533              		.loc 1 375 13 is_stmt 0 view .LVU124
 534 0002 0368     		ldr	r3, [r0]
 535              		.loc 1 375 21 view .LVU125
 536 0004 43F40043 		orr	r3, r3, #32768
 537 0008 0360     		str	r3, [r0]
 538 000a 7047     		bx	lr
 539              	.L40:
 376:n32g430_std_periph_driver/src/n32g430_tim.c ****     }
 377:n32g430_std_periph_driver/src/n32g430_tim.c ****     else
 378:n32g430_std_periph_driver/src/n32g430_tim.c ****     {
 379:n32g430_std_periph_driver/src/n32g430_tim.c ****         TIMx->CTRL1 &= (uint32_t)(~TIM_OCREF_CLEAR_SEL);
 540              		.loc 1 379 9 is_stmt 1 view .LVU126
 541              		.loc 1 379 13 is_stmt 0 view .LVU127
 542 000c 0368     		ldr	r3, [r0]
 543              		.loc 1 379 21 view .LVU128
 544 000e 23F40043 		bic	r3, r3, #32768
 545 0012 0360     		str	r3, [r0]
 380:n32g430_std_periph_driver/src/n32g430_tim.c ****     }
ARM GAS  C:\Users\Dawn\AppData\Local\Temp\ccf7B1Wd.s 			page 17


 381:n32g430_std_periph_driver/src/n32g430_tim.c **** }
 546              		.loc 1 381 1 view .LVU129
 547 0014 7047     		bx	lr
 548              		.cfi_endproc
 549              	.LFE136:
 551              		.section	.text.TIM_Base_Struct_Initialize,"ax",%progbits
 552              		.align	1
 553              		.global	TIM_Base_Struct_Initialize
 554              		.syntax unified
 555              		.thumb
 556              		.thumb_func
 558              	TIM_Base_Struct_Initialize:
 559              	.LVL42:
 560              	.LFB138:
 382:n32g430_std_periph_driver/src/n32g430_tim.c **** 
 383:n32g430_std_periph_driver/src/n32g430_tim.c **** /**
 384:n32g430_std_periph_driver/src/n32g430_tim.c **** *\*\name    TIM_Base_Init.
 385:n32g430_std_periph_driver/src/n32g430_tim.c **** *\*\fun     Initializes the TIMx Time Base Unit peripheral according to
 386:n32g430_std_periph_driver/src/n32g430_tim.c **** *\*\        the specified parameters in the TIM_TimeBaseInitStruct.
 387:n32g430_std_periph_driver/src/n32g430_tim.c **** *\*\param   TIMx:
 388:n32g430_std_periph_driver/src/n32g430_tim.c **** *\*\          - TIM1
 389:n32g430_std_periph_driver/src/n32g430_tim.c **** *\*\          - TIM2
 390:n32g430_std_periph_driver/src/n32g430_tim.c **** *\*\          - TIM3
 391:n32g430_std_periph_driver/src/n32g430_tim.c **** *\*\          - TIM4
 392:n32g430_std_periph_driver/src/n32g430_tim.c **** *\*\          - TIM5
 393:n32g430_std_periph_driver/src/n32g430_tim.c **** *\*\          - TIM6
 394:n32g430_std_periph_driver/src/n32g430_tim.c **** *\*\          - TIM8
 395:n32g430_std_periph_driver/src/n32g430_tim.c **** *\*\param   TIM_TimeBaseInitStruct:
 396:n32g430_std_periph_driver/src/n32g430_tim.c **** *\*\          - refer to the definition of TIM_TimeBaseInitType
 397:n32g430_std_periph_driver/src/n32g430_tim.c **** *\*\return  none
 398:n32g430_std_periph_driver/src/n32g430_tim.c **** **/
 399:n32g430_std_periph_driver/src/n32g430_tim.c **** void TIM_Base_Initialize(TIM_Module* TIMx, TIM_TimeBaseInitType* TIM_TimeBaseInitStruct)
 400:n32g430_std_periph_driver/src/n32g430_tim.c **** {
 401:n32g430_std_periph_driver/src/n32g430_tim.c ****     if (TIMx != TIM6)
 402:n32g430_std_periph_driver/src/n32g430_tim.c ****     {
 403:n32g430_std_periph_driver/src/n32g430_tim.c ****         TIM_Base_Count_Mode_Set(TIMx, TIM_TimeBaseInitStruct->CntMode);
 404:n32g430_std_periph_driver/src/n32g430_tim.c ****         TIM_Clock_Division_Set(TIMx, TIM_TimeBaseInitStruct->ClkDiv);
 405:n32g430_std_periph_driver/src/n32g430_tim.c ****     }
 406:n32g430_std_periph_driver/src/n32g430_tim.c ****     else
 407:n32g430_std_periph_driver/src/n32g430_tim.c ****     {
 408:n32g430_std_periph_driver/src/n32g430_tim.c ****         /* none */
 409:n32g430_std_periph_driver/src/n32g430_tim.c ****     }
 410:n32g430_std_periph_driver/src/n32g430_tim.c **** 
 411:n32g430_std_periph_driver/src/n32g430_tim.c ****     TIM_Base_Auto_Reload_Set(TIMx, TIM_TimeBaseInitStruct->Period);
 412:n32g430_std_periph_driver/src/n32g430_tim.c **** 
 413:n32g430_std_periph_driver/src/n32g430_tim.c ****     TIM_Base_Prescaler_Set(TIMx, TIM_TimeBaseInitStruct->Prescaler);
 414:n32g430_std_periph_driver/src/n32g430_tim.c **** 
 415:n32g430_std_periph_driver/src/n32g430_tim.c ****     if ((TIMx == TIM1) || (TIMx == TIM8))
 416:n32g430_std_periph_driver/src/n32g430_tim.c ****     {
 417:n32g430_std_periph_driver/src/n32g430_tim.c ****         TIM_Base_Repeat_Count_Set(TIMx,TIM_TimeBaseInitStruct->RepetCnt);
 418:n32g430_std_periph_driver/src/n32g430_tim.c ****     }
 419:n32g430_std_periph_driver/src/n32g430_tim.c ****     else
 420:n32g430_std_periph_driver/src/n32g430_tim.c ****     {
 421:n32g430_std_periph_driver/src/n32g430_tim.c ****         /* none */
 422:n32g430_std_periph_driver/src/n32g430_tim.c ****     }
 423:n32g430_std_periph_driver/src/n32g430_tim.c **** 
 424:n32g430_std_periph_driver/src/n32g430_tim.c ****     TIM_Base_Reload_Mode_Set(TIMx, TIM_PSC_RELOAD_MODE_IMMEDIATE);
ARM GAS  C:\Users\Dawn\AppData\Local\Temp\ccf7B1Wd.s 			page 18


 425:n32g430_std_periph_driver/src/n32g430_tim.c **** 
 426:n32g430_std_periph_driver/src/n32g430_tim.c ****     if ((TIMx != TIM6))
 427:n32g430_std_periph_driver/src/n32g430_tim.c ****     {
 428:n32g430_std_periph_driver/src/n32g430_tim.c ****         TIM_Base_Channel1(TIMx, TIM_TimeBaseInitStruct->CapCh1Sel);
 429:n32g430_std_periph_driver/src/n32g430_tim.c ****     }
 430:n32g430_std_periph_driver/src/n32g430_tim.c ****     else 
 431:n32g430_std_periph_driver/src/n32g430_tim.c ****     {
 432:n32g430_std_periph_driver/src/n32g430_tim.c ****         /* none */
 433:n32g430_std_periph_driver/src/n32g430_tim.c ****     }
 434:n32g430_std_periph_driver/src/n32g430_tim.c ****     
 435:n32g430_std_periph_driver/src/n32g430_tim.c ****     if ((TIMx == TIM1) || (TIMx == TIM8) || (TIMx == TIM2) || (TIMx == TIM3) || (TIMx == TIM4) )
 436:n32g430_std_periph_driver/src/n32g430_tim.c ****     {
 437:n32g430_std_periph_driver/src/n32g430_tim.c ****         TIM_Base_OCrefClear(TIMx, TIM_TimeBaseInitStruct->CapEtrClrFromCompEn);
 438:n32g430_std_periph_driver/src/n32g430_tim.c ****     }
 439:n32g430_std_periph_driver/src/n32g430_tim.c ****     else 
 440:n32g430_std_periph_driver/src/n32g430_tim.c ****     {
 441:n32g430_std_periph_driver/src/n32g430_tim.c ****         /* none */
 442:n32g430_std_periph_driver/src/n32g430_tim.c ****     }
 443:n32g430_std_periph_driver/src/n32g430_tim.c ****     
 444:n32g430_std_periph_driver/src/n32g430_tim.c ****     if(TIMx == TIM2)
 445:n32g430_std_periph_driver/src/n32g430_tim.c ****     {
 446:n32g430_std_periph_driver/src/n32g430_tim.c ****         TIM_Base_Channel2(TIMx, TIM_TimeBaseInitStruct->CapCh2Sel);
 447:n32g430_std_periph_driver/src/n32g430_tim.c ****         TIM_Base_Channel3(TIMx, TIM_TimeBaseInitStruct->CapCh3Sel);
 448:n32g430_std_periph_driver/src/n32g430_tim.c ****         TIM_Base_Channel4(TIMx, TIM_TimeBaseInitStruct->CapCh4Sel);
 449:n32g430_std_periph_driver/src/n32g430_tim.c ****     }
 450:n32g430_std_periph_driver/src/n32g430_tim.c ****     else 
 451:n32g430_std_periph_driver/src/n32g430_tim.c ****     {
 452:n32g430_std_periph_driver/src/n32g430_tim.c ****         /* none */
 453:n32g430_std_periph_driver/src/n32g430_tim.c ****     }
 454:n32g430_std_periph_driver/src/n32g430_tim.c **** }
 455:n32g430_std_periph_driver/src/n32g430_tim.c **** 
 456:n32g430_std_periph_driver/src/n32g430_tim.c **** void TIM_Base_Struct_Initialize(TIM_TimeBaseInitType* TIM_TimeBaseInitStruct)
 457:n32g430_std_periph_driver/src/n32g430_tim.c **** {
 561              		.loc 1 457 1 is_stmt 1 view -0
 562              		.cfi_startproc
 563              		@ args = 0, pretend = 0, frame = 0
 564              		@ frame_needed = 0, uses_anonymous_args = 0
 565              		@ link register save eliminated.
 458:n32g430_std_periph_driver/src/n32g430_tim.c ****     /* Set the default configuration */
 459:n32g430_std_periph_driver/src/n32g430_tim.c ****     TIM_TimeBaseInitStruct->Period    = 0xFFFF;
 566              		.loc 1 459 5 view .LVU131
 567              		.loc 1 459 39 is_stmt 0 view .LVU132
 568 0000 4FF6FF73 		movw	r3, #65535
 569 0004 8380     		strh	r3, [r0, #4]	@ movhi
 460:n32g430_std_periph_driver/src/n32g430_tim.c ****     TIM_TimeBaseInitStruct->Prescaler = 0x0000;
 570              		.loc 1 460 5 is_stmt 1 view .LVU133
 571              		.loc 1 460 39 is_stmt 0 view .LVU134
 572 0006 0023     		movs	r3, #0
 573 0008 0380     		strh	r3, [r0]	@ movhi
 461:n32g430_std_periph_driver/src/n32g430_tim.c ****     TIM_TimeBaseInitStruct->ClkDiv    = TIM_CLK_DIV1;
 574              		.loc 1 461 5 is_stmt 1 view .LVU135
 575              		.loc 1 461 39 is_stmt 0 view .LVU136
 576 000a C380     		strh	r3, [r0, #6]	@ movhi
 462:n32g430_std_periph_driver/src/n32g430_tim.c ****     TIM_TimeBaseInitStruct->CntMode   = TIM_CNT_MODE_UP;
 577              		.loc 1 462 5 is_stmt 1 view .LVU137
 578              		.loc 1 462 39 is_stmt 0 view .LVU138
 579 000c 4380     		strh	r3, [r0, #2]	@ movhi
ARM GAS  C:\Users\Dawn\AppData\Local\Temp\ccf7B1Wd.s 			page 19


 463:n32g430_std_periph_driver/src/n32g430_tim.c ****     TIM_TimeBaseInitStruct->RepetCnt  = 0x0000;
 580              		.loc 1 463 5 is_stmt 1 view .LVU139
 581              		.loc 1 463 39 is_stmt 0 view .LVU140
 582 000e 0372     		strb	r3, [r0, #8]
 464:n32g430_std_periph_driver/src/n32g430_tim.c **** 
 465:n32g430_std_periph_driver/src/n32g430_tim.c ****     TIM_TimeBaseInitStruct->CapCh1Sel    = false;
 583              		.loc 1 465 5 is_stmt 1 view .LVU141
 584              		.loc 1 465 42 is_stmt 0 view .LVU142
 585 0010 4372     		strb	r3, [r0, #9]
 466:n32g430_std_periph_driver/src/n32g430_tim.c ****     TIM_TimeBaseInitStruct->CapCh2Sel    = false;
 586              		.loc 1 466 5 is_stmt 1 view .LVU143
 587              		.loc 1 466 42 is_stmt 0 view .LVU144
 588 0012 8372     		strb	r3, [r0, #10]
 467:n32g430_std_periph_driver/src/n32g430_tim.c ****     TIM_TimeBaseInitStruct->CapCh3Sel    = false;
 589              		.loc 1 467 5 is_stmt 1 view .LVU145
 590              		.loc 1 467 42 is_stmt 0 view .LVU146
 591 0014 C372     		strb	r3, [r0, #11]
 468:n32g430_std_periph_driver/src/n32g430_tim.c ****     TIM_TimeBaseInitStruct->CapCh4Sel    = false;
 592              		.loc 1 468 5 is_stmt 1 view .LVU147
 593              		.loc 1 468 42 is_stmt 0 view .LVU148
 594 0016 0373     		strb	r3, [r0, #12]
 469:n32g430_std_periph_driver/src/n32g430_tim.c ****     TIM_TimeBaseInitStruct->CapEtrClrFromCompEn = false;
 595              		.loc 1 469 5 is_stmt 1 view .LVU149
 596              		.loc 1 469 49 is_stmt 0 view .LVU150
 597 0018 4373     		strb	r3, [r0, #13]
 470:n32g430_std_periph_driver/src/n32g430_tim.c ****     TIM_TimeBaseInitStruct->CapEtrSelFromTscEn  = false;    
 598              		.loc 1 470 5 is_stmt 1 view .LVU151
 599              		.loc 1 470 49 is_stmt 0 view .LVU152
 600 001a 8373     		strb	r3, [r0, #14]
 471:n32g430_std_periph_driver/src/n32g430_tim.c **** }
 601              		.loc 1 471 1 view .LVU153
 602 001c 7047     		bx	lr
 603              		.cfi_endproc
 604              	.LFE138:
 606              		.section	.text.TIM_Base_Count_Set,"ax",%progbits
 607              		.align	1
 608              		.global	TIM_Base_Count_Set
 609              		.syntax unified
 610              		.thumb
 611              		.thumb_func
 613              	TIM_Base_Count_Set:
 614              	.LVL43:
 615              	.LFB139:
 472:n32g430_std_periph_driver/src/n32g430_tim.c **** /**
 473:n32g430_std_periph_driver/src/n32g430_tim.c **** *\*\name    TIM_Base_Count_Set.
 474:n32g430_std_periph_driver/src/n32g430_tim.c **** *\*\param   TIMx:
 475:n32g430_std_periph_driver/src/n32g430_tim.c **** *\*\          - TIM1
 476:n32g430_std_periph_driver/src/n32g430_tim.c **** *\*\          - TIM2
 477:n32g430_std_periph_driver/src/n32g430_tim.c **** *\*\          - TIM3
 478:n32g430_std_periph_driver/src/n32g430_tim.c **** *\*\          - TIM4
 479:n32g430_std_periph_driver/src/n32g430_tim.c **** *\*\          - TIM5
 480:n32g430_std_periph_driver/src/n32g430_tim.c **** *\*\          - TIM6
 481:n32g430_std_periph_driver/src/n32g430_tim.c **** *\*\          - TIM8
 482:n32g430_std_periph_driver/src/n32g430_tim.c **** *\*\param   count:
 483:n32g430_std_periph_driver/src/n32g430_tim.c **** *\*\return  none
 484:n32g430_std_periph_driver/src/n32g430_tim.c **** **/
 485:n32g430_std_periph_driver/src/n32g430_tim.c **** void TIM_Base_Count_Set(TIM_Module* TIMx, uint16_t count)
ARM GAS  C:\Users\Dawn\AppData\Local\Temp\ccf7B1Wd.s 			page 20


 486:n32g430_std_periph_driver/src/n32g430_tim.c **** {
 616              		.loc 1 486 1 is_stmt 1 view -0
 617              		.cfi_startproc
 618              		@ args = 0, pretend = 0, frame = 0
 619              		@ frame_needed = 0, uses_anonymous_args = 0
 620              		@ link register save eliminated.
 487:n32g430_std_periph_driver/src/n32g430_tim.c ****     TIMx->CNT= count;
 621              		.loc 1 487 5 view .LVU155
 622              		.loc 1 487 14 is_stmt 0 view .LVU156
 623 0000 8184     		strh	r1, [r0, #36]	@ movhi
 488:n32g430_std_periph_driver/src/n32g430_tim.c **** }
 624              		.loc 1 488 1 view .LVU157
 625 0002 7047     		bx	lr
 626              		.cfi_endproc
 627              	.LFE139:
 629              		.section	.text.TIM_Base_Count_Get,"ax",%progbits
 630              		.align	1
 631              		.global	TIM_Base_Count_Get
 632              		.syntax unified
 633              		.thumb
 634              		.thumb_func
 636              	TIM_Base_Count_Get:
 637              	.LVL44:
 638              	.LFB140:
 489:n32g430_std_periph_driver/src/n32g430_tim.c **** /**
 490:n32g430_std_periph_driver/src/n32g430_tim.c **** *\*\name    TIM_Base_Count_Get.
 491:n32g430_std_periph_driver/src/n32g430_tim.c **** *\*\param   TIMx:
 492:n32g430_std_periph_driver/src/n32g430_tim.c **** *\*\          - TIM1
 493:n32g430_std_periph_driver/src/n32g430_tim.c **** *\*\          - TIM2
 494:n32g430_std_periph_driver/src/n32g430_tim.c **** *\*\          - TIM3
 495:n32g430_std_periph_driver/src/n32g430_tim.c **** *\*\          - TIM4
 496:n32g430_std_periph_driver/src/n32g430_tim.c **** *\*\          - TIM5
 497:n32g430_std_periph_driver/src/n32g430_tim.c **** *\*\          - TIM6
 498:n32g430_std_periph_driver/src/n32g430_tim.c **** *\*\          - TIM8
 499:n32g430_std_periph_driver/src/n32g430_tim.c **** *\*\return  the value of count register
 500:n32g430_std_periph_driver/src/n32g430_tim.c **** **/
 501:n32g430_std_periph_driver/src/n32g430_tim.c **** uint16_t TIM_Base_Count_Get(TIM_Module* TIMx)
 502:n32g430_std_periph_driver/src/n32g430_tim.c **** {
 639              		.loc 1 502 1 is_stmt 1 view -0
 640              		.cfi_startproc
 641              		@ args = 0, pretend = 0, frame = 0
 642              		@ frame_needed = 0, uses_anonymous_args = 0
 643              		@ link register save eliminated.
 503:n32g430_std_periph_driver/src/n32g430_tim.c ****     /* Get the value of count register */
 504:n32g430_std_periph_driver/src/n32g430_tim.c ****     return TIMx->CNT;
 644              		.loc 1 504 5 view .LVU159
 645              		.loc 1 504 16 is_stmt 0 view .LVU160
 646 0000 808C     		ldrh	r0, [r0, #36]
 647              	.LVL45:
 505:n32g430_std_periph_driver/src/n32g430_tim.c **** }
 648              		.loc 1 505 1 view .LVU161
 649 0002 80B2     		uxth	r0, r0
 650 0004 7047     		bx	lr
 651              		.cfi_endproc
 652              	.LFE140:
 654              		.section	.text.TIM_Auto_Reload_Get,"ax",%progbits
 655              		.align	1
ARM GAS  C:\Users\Dawn\AppData\Local\Temp\ccf7B1Wd.s 			page 21


 656              		.global	TIM_Auto_Reload_Get
 657              		.syntax unified
 658              		.thumb
 659              		.thumb_func
 661              	TIM_Auto_Reload_Get:
 662              	.LVL46:
 663              	.LFB141:
 506:n32g430_std_periph_driver/src/n32g430_tim.c **** 
 507:n32g430_std_periph_driver/src/n32g430_tim.c **** /**
 508:n32g430_std_periph_driver/src/n32g430_tim.c **** *\*\name    TIM_Auto_Reload_Get.
 509:n32g430_std_periph_driver/src/n32g430_tim.c **** *\*\param   TIMx:
 510:n32g430_std_periph_driver/src/n32g430_tim.c **** *\*\          - TIM1
 511:n32g430_std_periph_driver/src/n32g430_tim.c **** *\*\          - TIM2
 512:n32g430_std_periph_driver/src/n32g430_tim.c **** *\*\          - TIM3
 513:n32g430_std_periph_driver/src/n32g430_tim.c **** *\*\          - TIM4
 514:n32g430_std_periph_driver/src/n32g430_tim.c **** *\*\          - TIM5
 515:n32g430_std_periph_driver/src/n32g430_tim.c **** *\*\          - TIM6
 516:n32g430_std_periph_driver/src/n32g430_tim.c **** *\*\          - TIM8
 517:n32g430_std_periph_driver/src/n32g430_tim.c **** *\*\return  the value of auto reload register
 518:n32g430_std_periph_driver/src/n32g430_tim.c **** **/
 519:n32g430_std_periph_driver/src/n32g430_tim.c **** uint16_t TIM_Auto_Reload_Get(TIM_Module* TIMx)
 520:n32g430_std_periph_driver/src/n32g430_tim.c **** {
 664              		.loc 1 520 1 is_stmt 1 view -0
 665              		.cfi_startproc
 666              		@ args = 0, pretend = 0, frame = 0
 667              		@ frame_needed = 0, uses_anonymous_args = 0
 668              		@ link register save eliminated.
 521:n32g430_std_periph_driver/src/n32g430_tim.c ****     /* Get the value of auto reload register */
 522:n32g430_std_periph_driver/src/n32g430_tim.c ****     return TIMx->AR;
 669              		.loc 1 522 5 view .LVU163
 670              		.loc 1 522 16 is_stmt 0 view .LVU164
 671 0000 808D     		ldrh	r0, [r0, #44]
 672              	.LVL47:
 523:n32g430_std_periph_driver/src/n32g430_tim.c **** }
 673              		.loc 1 523 1 view .LVU165
 674 0002 80B2     		uxth	r0, r0
 675 0004 7047     		bx	lr
 676              		.cfi_endproc
 677              	.LFE141:
 679              		.section	.text.TIM_Base_Prescaler_Get,"ax",%progbits
 680              		.align	1
 681              		.global	TIM_Base_Prescaler_Get
 682              		.syntax unified
 683              		.thumb
 684              		.thumb_func
 686              	TIM_Base_Prescaler_Get:
 687              	.LVL48:
 688              	.LFB142:
 524:n32g430_std_periph_driver/src/n32g430_tim.c **** 
 525:n32g430_std_periph_driver/src/n32g430_tim.c **** /**
 526:n32g430_std_periph_driver/src/n32g430_tim.c **** *\*\name    TIM_Base_Prescaler_Get.
 527:n32g430_std_periph_driver/src/n32g430_tim.c **** *\*\param   TIMx:
 528:n32g430_std_periph_driver/src/n32g430_tim.c **** *\*\          - TIM1
 529:n32g430_std_periph_driver/src/n32g430_tim.c **** *\*\          - TIM2
 530:n32g430_std_periph_driver/src/n32g430_tim.c **** *\*\          - TIM3
 531:n32g430_std_periph_driver/src/n32g430_tim.c **** *\*\          - TIM4
 532:n32g430_std_periph_driver/src/n32g430_tim.c **** *\*\          - TIM5
ARM GAS  C:\Users\Dawn\AppData\Local\Temp\ccf7B1Wd.s 			page 22


 533:n32g430_std_periph_driver/src/n32g430_tim.c **** *\*\          - TIM6
 534:n32g430_std_periph_driver/src/n32g430_tim.c **** *\*\          - TIM8
 535:n32g430_std_periph_driver/src/n32g430_tim.c **** *\*\return  the value of prescaler register
 536:n32g430_std_periph_driver/src/n32g430_tim.c **** **/
 537:n32g430_std_periph_driver/src/n32g430_tim.c **** uint16_t TIM_Base_Prescaler_Get(TIM_Module* TIMx)
 538:n32g430_std_periph_driver/src/n32g430_tim.c **** {
 689              		.loc 1 538 1 is_stmt 1 view -0
 690              		.cfi_startproc
 691              		@ args = 0, pretend = 0, frame = 0
 692              		@ frame_needed = 0, uses_anonymous_args = 0
 693              		@ link register save eliminated.
 539:n32g430_std_periph_driver/src/n32g430_tim.c ****     /* Get the value of prescaler register */
 540:n32g430_std_periph_driver/src/n32g430_tim.c ****     return TIMx->PSC;
 694              		.loc 1 540 5 view .LVU167
 695              		.loc 1 540 16 is_stmt 0 view .LVU168
 696 0000 008D     		ldrh	r0, [r0, #40]
 697              	.LVL49:
 541:n32g430_std_periph_driver/src/n32g430_tim.c **** }
 698              		.loc 1 541 1 view .LVU169
 699 0002 80B2     		uxth	r0, r0
 700 0004 7047     		bx	lr
 701              		.cfi_endproc
 702              	.LFE142:
 704              		.section	.text.TIM_On,"ax",%progbits
 705              		.align	1
 706              		.global	TIM_On
 707              		.syntax unified
 708              		.thumb
 709              		.thumb_func
 711              	TIM_On:
 712              	.LVL50:
 713              	.LFB143:
 542:n32g430_std_periph_driver/src/n32g430_tim.c **** 
 543:n32g430_std_periph_driver/src/n32g430_tim.c **** 
 544:n32g430_std_periph_driver/src/n32g430_tim.c **** /**
 545:n32g430_std_periph_driver/src/n32g430_tim.c **** *\*\name    TIM_Enable.
 546:n32g430_std_periph_driver/src/n32g430_tim.c **** *\*\param   TIMx:
 547:n32g430_std_periph_driver/src/n32g430_tim.c **** *\*\          - TIM1
 548:n32g430_std_periph_driver/src/n32g430_tim.c **** *\*\          - TIM2
 549:n32g430_std_periph_driver/src/n32g430_tim.c **** *\*\          - TIM3
 550:n32g430_std_periph_driver/src/n32g430_tim.c **** *\*\          - TIM4
 551:n32g430_std_periph_driver/src/n32g430_tim.c **** *\*\          - TIM5
 552:n32g430_std_periph_driver/src/n32g430_tim.c **** *\*\          - TIM6
 553:n32g430_std_periph_driver/src/n32g430_tim.c **** *\*\          - TIM8
 554:n32g430_std_periph_driver/src/n32g430_tim.c **** *\*\return  none
 555:n32g430_std_periph_driver/src/n32g430_tim.c **** **/
 556:n32g430_std_periph_driver/src/n32g430_tim.c **** void TIM_On(TIM_Module* TIMx)
 557:n32g430_std_periph_driver/src/n32g430_tim.c **** {
 714              		.loc 1 557 1 is_stmt 1 view -0
 715              		.cfi_startproc
 716              		@ args = 0, pretend = 0, frame = 0
 717              		@ frame_needed = 0, uses_anonymous_args = 0
 718              		@ link register save eliminated.
 558:n32g430_std_periph_driver/src/n32g430_tim.c ****     TIMx->CTRL1 |= TIM_ON;
 719              		.loc 1 558 5 view .LVU171
 720              		.loc 1 558 9 is_stmt 0 view .LVU172
 721 0000 0368     		ldr	r3, [r0]
ARM GAS  C:\Users\Dawn\AppData\Local\Temp\ccf7B1Wd.s 			page 23


 722              		.loc 1 558 17 view .LVU173
 723 0002 43F00103 		orr	r3, r3, #1
 724 0006 0360     		str	r3, [r0]
 559:n32g430_std_periph_driver/src/n32g430_tim.c **** }
 725              		.loc 1 559 1 view .LVU174
 726 0008 7047     		bx	lr
 727              		.cfi_endproc
 728              	.LFE143:
 730              		.section	.text.TIM_Off,"ax",%progbits
 731              		.align	1
 732              		.global	TIM_Off
 733              		.syntax unified
 734              		.thumb
 735              		.thumb_func
 737              	TIM_Off:
 738              	.LVL51:
 739              	.LFB144:
 560:n32g430_std_periph_driver/src/n32g430_tim.c **** 
 561:n32g430_std_periph_driver/src/n32g430_tim.c **** /**
 562:n32g430_std_periph_driver/src/n32g430_tim.c **** *\*\name    TIM_Disable.
 563:n32g430_std_periph_driver/src/n32g430_tim.c **** *\*\param   TIMx:
 564:n32g430_std_periph_driver/src/n32g430_tim.c **** *\*\          - TIM1
 565:n32g430_std_periph_driver/src/n32g430_tim.c **** *\*\          - TIM2
 566:n32g430_std_periph_driver/src/n32g430_tim.c **** *\*\          - TIM3
 567:n32g430_std_periph_driver/src/n32g430_tim.c **** *\*\          - TIM4
 568:n32g430_std_periph_driver/src/n32g430_tim.c **** *\*\          - TIM5
 569:n32g430_std_periph_driver/src/n32g430_tim.c **** *\*\          - TIM6
 570:n32g430_std_periph_driver/src/n32g430_tim.c **** *\*\          - TIM8
 571:n32g430_std_periph_driver/src/n32g430_tim.c **** *\*\return  none
 572:n32g430_std_periph_driver/src/n32g430_tim.c **** **/
 573:n32g430_std_periph_driver/src/n32g430_tim.c **** void TIM_Off(TIM_Module* TIMx)
 574:n32g430_std_periph_driver/src/n32g430_tim.c **** {
 740              		.loc 1 574 1 is_stmt 1 view -0
 741              		.cfi_startproc
 742              		@ args = 0, pretend = 0, frame = 0
 743              		@ frame_needed = 0, uses_anonymous_args = 0
 744              		@ link register save eliminated.
 575:n32g430_std_periph_driver/src/n32g430_tim.c ****     TIMx->CTRL1 &= (uint32_t)(~((uint32_t)TIM_ON));
 745              		.loc 1 575 5 view .LVU176
 746              		.loc 1 575 9 is_stmt 0 view .LVU177
 747 0000 0368     		ldr	r3, [r0]
 748              		.loc 1 575 17 view .LVU178
 749 0002 23F00103 		bic	r3, r3, #1
 750 0006 0360     		str	r3, [r0]
 576:n32g430_std_periph_driver/src/n32g430_tim.c **** }
 751              		.loc 1 576 1 view .LVU179
 752 0008 7047     		bx	lr
 753              		.cfi_endproc
 754              	.LFE144:
 756              		.section	.text.TIM_Output_Channel1_Preload_Set,"ax",%progbits
 757              		.align	1
 758              		.global	TIM_Output_Channel1_Preload_Set
 759              		.syntax unified
 760              		.thumb
 761              		.thumb_func
 763              	TIM_Output_Channel1_Preload_Set:
 764              	.LVL52:
ARM GAS  C:\Users\Dawn\AppData\Local\Temp\ccf7B1Wd.s 			page 24


 765              	.LFB145:
 577:n32g430_std_periph_driver/src/n32g430_tim.c **** 
 578:n32g430_std_periph_driver/src/n32g430_tim.c **** /**
 579:n32g430_std_periph_driver/src/n32g430_tim.c **** *\*\name    TIM_Output_Channel1_Preload_Set
 580:n32g430_std_periph_driver/src/n32g430_tim.c **** *\*\param   TIMx:
 581:n32g430_std_periph_driver/src/n32g430_tim.c **** *\*\          - TIM1
 582:n32g430_std_periph_driver/src/n32g430_tim.c **** *\*\          - TIM2
 583:n32g430_std_periph_driver/src/n32g430_tim.c **** *\*\          - TIM3
 584:n32g430_std_periph_driver/src/n32g430_tim.c **** *\*\          - TIM4
 585:n32g430_std_periph_driver/src/n32g430_tim.c **** *\*\          - TIM5
 586:n32g430_std_periph_driver/src/n32g430_tim.c **** *\*\          - TIM8
 587:n32g430_std_periph_driver/src/n32g430_tim.c **** *\*\param   TIM_output_channel_preload 
 588:n32g430_std_periph_driver/src/n32g430_tim.c **** *\*\          - TIM_OC_PRELOAD_ENABLE
 589:n32g430_std_periph_driver/src/n32g430_tim.c **** *\*\          - TIM_OC_PRELOAD_DISABLE
 590:n32g430_std_periph_driver/src/n32g430_tim.c **** *\*\return  none
 591:n32g430_std_periph_driver/src/n32g430_tim.c **** **/
 592:n32g430_std_periph_driver/src/n32g430_tim.c **** void TIM_Output_Channel1_Preload_Set(TIM_Module* TIMx, uint16_t TIM_output_channel_preload)
 593:n32g430_std_periph_driver/src/n32g430_tim.c **** {
 766              		.loc 1 593 1 is_stmt 1 view -0
 767              		.cfi_startproc
 768              		@ args = 0, pretend = 0, frame = 0
 769              		@ frame_needed = 0, uses_anonymous_args = 0
 770              		@ link register save eliminated.
 594:n32g430_std_periph_driver/src/n32g430_tim.c ****     uint16_t temp_value = 0;
 771              		.loc 1 594 5 view .LVU181
 595:n32g430_std_periph_driver/src/n32g430_tim.c **** 
 596:n32g430_std_periph_driver/src/n32g430_tim.c ****     temp_value = TIMx->CCMOD1;
 772              		.loc 1 596 5 view .LVU182
 773              		.loc 1 596 16 is_stmt 0 view .LVU183
 774 0000 038B     		ldrh	r3, [r0, #24]
 775 0002 9BB2     		uxth	r3, r3
 776              	.LVL53:
 597:n32g430_std_periph_driver/src/n32g430_tim.c ****     /* Reset the OC1PE Bit */
 598:n32g430_std_periph_driver/src/n32g430_tim.c ****     temp_value &= (uint16_t) ~((uint16_t)TIM_OC1_PRELOAD_MASK);
 777              		.loc 1 598 5 is_stmt 1 view .LVU184
 778              		.loc 1 598 16 is_stmt 0 view .LVU185
 779 0004 23F00803 		bic	r3, r3, #8
 780              	.LVL54:
 599:n32g430_std_periph_driver/src/n32g430_tim.c ****     /* Enable or Disable the Output Compare Preload feat_value |= (uint16_t)TIM_output_channel_prel
 600:n32g430_std_periph_driver/src/n32g430_tim.c ****     temp_value |= TIM_output_channel_preload;
 781              		.loc 1 600 5 is_stmt 1 view .LVU186
 782              		.loc 1 600 16 is_stmt 0 view .LVU187
 783 0008 0B43     		orrs	r3, r3, r1
 784              	.LVL55:
 601:n32g430_std_periph_driver/src/n32g430_tim.c ****     /* Write to TIMx CCMOD1 register */
 602:n32g430_std_periph_driver/src/n32g430_tim.c ****     TIMx->CCMOD1 = temp_value;    
 785              		.loc 1 602 5 is_stmt 1 view .LVU188
 786              		.loc 1 602 18 is_stmt 0 view .LVU189
 787 000a 0383     		strh	r3, [r0, #24]	@ movhi
 603:n32g430_std_periph_driver/src/n32g430_tim.c **** }
 788              		.loc 1 603 1 view .LVU190
 789 000c 7047     		bx	lr
 790              		.cfi_endproc
 791              	.LFE145:
 793              		.section	.text.TIM_Output_Channel2_Preload_Set,"ax",%progbits
 794              		.align	1
 795              		.global	TIM_Output_Channel2_Preload_Set
ARM GAS  C:\Users\Dawn\AppData\Local\Temp\ccf7B1Wd.s 			page 25


 796              		.syntax unified
 797              		.thumb
 798              		.thumb_func
 800              	TIM_Output_Channel2_Preload_Set:
 801              	.LVL56:
 802              	.LFB146:
 604:n32g430_std_periph_driver/src/n32g430_tim.c **** 
 605:n32g430_std_periph_driver/src/n32g430_tim.c **** /**
 606:n32g430_std_periph_driver/src/n32g430_tim.c **** *\*\name    TIM_Output_Channel2_Preload_Set
 607:n32g430_std_periph_driver/src/n32g430_tim.c **** *\*\param   TIMx:
 608:n32g430_std_periph_driver/src/n32g430_tim.c **** *\*\          - TIM1
 609:n32g430_std_periph_driver/src/n32g430_tim.c **** *\*\          - TIM2
 610:n32g430_std_periph_driver/src/n32g430_tim.c **** *\*\          - TIM3
 611:n32g430_std_periph_driver/src/n32g430_tim.c **** *\*\          - TIM4
 612:n32g430_std_periph_driver/src/n32g430_tim.c **** *\*\          - TIM5
 613:n32g430_std_periph_driver/src/n32g430_tim.c **** *\*\          - TIM8
 614:n32g430_std_periph_driver/src/n32g430_tim.c **** *\*\param   TIM_output_channel_preload 
 615:n32g430_std_periph_driver/src/n32g430_tim.c **** *\*\          - TIM_OC_PRELOAD_ENABLE
 616:n32g430_std_periph_driver/src/n32g430_tim.c **** *\*\          - TIM_OC_PRELOAD_DISABLE
 617:n32g430_std_periph_driver/src/n32g430_tim.c **** *\*\return  none
 618:n32g430_std_periph_driver/src/n32g430_tim.c **** **/
 619:n32g430_std_periph_driver/src/n32g430_tim.c **** void TIM_Output_Channel2_Preload_Set(TIM_Module* TIMx, uint16_t TIM_output_channel_preload)
 620:n32g430_std_periph_driver/src/n32g430_tim.c **** {
 803              		.loc 1 620 1 is_stmt 1 view -0
 804              		.cfi_startproc
 805              		@ args = 0, pretend = 0, frame = 0
 806              		@ frame_needed = 0, uses_anonymous_args = 0
 807              		@ link register save eliminated.
 621:n32g430_std_periph_driver/src/n32g430_tim.c ****     uint16_t temp_value = 0;
 808              		.loc 1 621 5 view .LVU192
 622:n32g430_std_periph_driver/src/n32g430_tim.c **** 
 623:n32g430_std_periph_driver/src/n32g430_tim.c ****     temp_value = TIMx->CCMOD1;
 809              		.loc 1 623 5 view .LVU193
 810              		.loc 1 623 16 is_stmt 0 view .LVU194
 811 0000 038B     		ldrh	r3, [r0, #24]
 812 0002 9BB2     		uxth	r3, r3
 813              	.LVL57:
 624:n32g430_std_periph_driver/src/n32g430_tim.c ****     /* Reset the OC1PE Bit */
 625:n32g430_std_periph_driver/src/n32g430_tim.c ****     temp_value &= (uint16_t) ~((uint16_t)TIM_OC2_PRELOAD_MASK);
 814              		.loc 1 625 5 is_stmt 1 view .LVU195
 815              		.loc 1 625 16 is_stmt 0 view .LVU196
 816 0004 23F40063 		bic	r3, r3, #2048
 817              	.LVL58:
 626:n32g430_std_periph_driver/src/n32g430_tim.c ****     /* Enable or Disable the Output Compare Preload feature */
 627:n32g430_std_periph_driver/src/n32g430_tim.c ****     temp_value |= (uint16_t)(TIM_output_channel_preload << 8);
 818              		.loc 1 627 5 is_stmt 1 view .LVU197
 819              		.loc 1 627 19 is_stmt 0 view .LVU198
 820 0008 0902     		lsls	r1, r1, #8
 821              	.LVL59:
 822              		.loc 1 627 19 view .LVU199
 823 000a 89B2     		uxth	r1, r1
 824              		.loc 1 627 16 view .LVU200
 825 000c 0B43     		orrs	r3, r3, r1
 826              	.LVL60:
 628:n32g430_std_periph_driver/src/n32g430_tim.c ****     /* Write to TIMx CCMOD1 register */
 629:n32g430_std_periph_driver/src/n32g430_tim.c ****     TIMx->CCMOD1 = temp_value;    
 827              		.loc 1 629 5 is_stmt 1 view .LVU201
ARM GAS  C:\Users\Dawn\AppData\Local\Temp\ccf7B1Wd.s 			page 26


 828              		.loc 1 629 18 is_stmt 0 view .LVU202
 829 000e 0383     		strh	r3, [r0, #24]	@ movhi
 630:n32g430_std_periph_driver/src/n32g430_tim.c **** }
 830              		.loc 1 630 1 view .LVU203
 831 0010 7047     		bx	lr
 832              		.cfi_endproc
 833              	.LFE146:
 835              		.section	.text.TIM_Output_Channel3_Preload_Set,"ax",%progbits
 836              		.align	1
 837              		.global	TIM_Output_Channel3_Preload_Set
 838              		.syntax unified
 839              		.thumb
 840              		.thumb_func
 842              	TIM_Output_Channel3_Preload_Set:
 843              	.LVL61:
 844              	.LFB147:
 631:n32g430_std_periph_driver/src/n32g430_tim.c **** 
 632:n32g430_std_periph_driver/src/n32g430_tim.c **** /**
 633:n32g430_std_periph_driver/src/n32g430_tim.c **** *\*\name    TIM_Output_Channel3_Preload_Set
 634:n32g430_std_periph_driver/src/n32g430_tim.c **** *\*\param   TIMx:
 635:n32g430_std_periph_driver/src/n32g430_tim.c **** *\*\          - TIM1
 636:n32g430_std_periph_driver/src/n32g430_tim.c **** *\*\          - TIM2
 637:n32g430_std_periph_driver/src/n32g430_tim.c **** *\*\          - TIM3
 638:n32g430_std_periph_driver/src/n32g430_tim.c **** *\*\          - TIM4
 639:n32g430_std_periph_driver/src/n32g430_tim.c **** *\*\          - TIM5
 640:n32g430_std_periph_driver/src/n32g430_tim.c **** *\*\          - TIM8
 641:n32g430_std_periph_driver/src/n32g430_tim.c **** *\*\param   TIM_output_channel_preload 
 642:n32g430_std_periph_driver/src/n32g430_tim.c **** *\*\          - TIM_OC_PRELOAD_ENABLE
 643:n32g430_std_periph_driver/src/n32g430_tim.c **** *\*\          - TIM_OC_PRELOAD_DISABLE
 644:n32g430_std_periph_driver/src/n32g430_tim.c **** *\*\return  none
 645:n32g430_std_periph_driver/src/n32g430_tim.c **** **/
 646:n32g430_std_periph_driver/src/n32g430_tim.c **** void TIM_Output_Channel3_Preload_Set(TIM_Module* TIMx, uint16_t TIM_output_channel_preload)
 647:n32g430_std_periph_driver/src/n32g430_tim.c **** {
 845              		.loc 1 647 1 is_stmt 1 view -0
 846              		.cfi_startproc
 847              		@ args = 0, pretend = 0, frame = 0
 848              		@ frame_needed = 0, uses_anonymous_args = 0
 849              		@ link register save eliminated.
 648:n32g430_std_periph_driver/src/n32g430_tim.c ****     uint16_t temp_value = 0;
 850              		.loc 1 648 5 view .LVU205
 649:n32g430_std_periph_driver/src/n32g430_tim.c **** 
 650:n32g430_std_periph_driver/src/n32g430_tim.c ****     temp_value = TIMx->CCMOD2;
 851              		.loc 1 650 5 view .LVU206
 852              		.loc 1 650 22 is_stmt 0 view .LVU207
 853 0000 C369     		ldr	r3, [r0, #28]
 854              		.loc 1 650 16 view .LVU208
 855 0002 9BB2     		uxth	r3, r3
 856              	.LVL62:
 651:n32g430_std_periph_driver/src/n32g430_tim.c ****     /* Reset the OC1PE Bit */
 652:n32g430_std_periph_driver/src/n32g430_tim.c ****     temp_value &= (uint16_t) ~((uint16_t)TIM_OC3_PRELOAD_MASK);
 857              		.loc 1 652 5 is_stmt 1 view .LVU209
 858              		.loc 1 652 16 is_stmt 0 view .LVU210
 859 0004 23F00803 		bic	r3, r3, #8
 860              	.LVL63:
 653:n32g430_std_periph_driver/src/n32g430_tim.c ****     /* Enable or Disable the Output Compare Preload feature */
 654:n32g430_std_periph_driver/src/n32g430_tim.c ****     temp_value |= TIM_output_channel_preload;
 861              		.loc 1 654 5 is_stmt 1 view .LVU211
ARM GAS  C:\Users\Dawn\AppData\Local\Temp\ccf7B1Wd.s 			page 27


 862              		.loc 1 654 16 is_stmt 0 view .LVU212
 863 0008 0B43     		orrs	r3, r3, r1
 864              	.LVL64:
 655:n32g430_std_periph_driver/src/n32g430_tim.c ****     /* Write to TIMx CCMOD2 register */
 656:n32g430_std_periph_driver/src/n32g430_tim.c ****     TIMx->CCMOD2 = temp_value;    
 865              		.loc 1 656 5 is_stmt 1 view .LVU213
 866              		.loc 1 656 18 is_stmt 0 view .LVU214
 867 000a C361     		str	r3, [r0, #28]
 657:n32g430_std_periph_driver/src/n32g430_tim.c **** }
 868              		.loc 1 657 1 view .LVU215
 869 000c 7047     		bx	lr
 870              		.cfi_endproc
 871              	.LFE147:
 873              		.section	.text.TIM_Output_Channel4_Preload_Set,"ax",%progbits
 874              		.align	1
 875              		.global	TIM_Output_Channel4_Preload_Set
 876              		.syntax unified
 877              		.thumb
 878              		.thumb_func
 880              	TIM_Output_Channel4_Preload_Set:
 881              	.LVL65:
 882              	.LFB148:
 658:n32g430_std_periph_driver/src/n32g430_tim.c **** 
 659:n32g430_std_periph_driver/src/n32g430_tim.c **** /**
 660:n32g430_std_periph_driver/src/n32g430_tim.c **** *\*\name    TIM_Output_Channel4_Preload_Set
 661:n32g430_std_periph_driver/src/n32g430_tim.c **** *\*\param   TIMx:
 662:n32g430_std_periph_driver/src/n32g430_tim.c **** *\*\          - TIM1
 663:n32g430_std_periph_driver/src/n32g430_tim.c **** *\*\          - TIM2
 664:n32g430_std_periph_driver/src/n32g430_tim.c **** *\*\          - TIM3
 665:n32g430_std_periph_driver/src/n32g430_tim.c **** *\*\          - TIM4
 666:n32g430_std_periph_driver/src/n32g430_tim.c **** *\*\          - TIM5
 667:n32g430_std_periph_driver/src/n32g430_tim.c **** *\*\          - TIM8
 668:n32g430_std_periph_driver/src/n32g430_tim.c **** *\*\param   TIM_output_channel_preload 
 669:n32g430_std_periph_driver/src/n32g430_tim.c **** *\*\          - TIM_OC_PRELOAD_ENABLE
 670:n32g430_std_periph_driver/src/n32g430_tim.c **** *\*\          - TIM_OC_PRELOAD_DISABLE
 671:n32g430_std_periph_driver/src/n32g430_tim.c **** *\*\return  none
 672:n32g430_std_periph_driver/src/n32g430_tim.c **** **/
 673:n32g430_std_periph_driver/src/n32g430_tim.c **** void TIM_Output_Channel4_Preload_Set(TIM_Module* TIMx, uint16_t TIM_output_channel_preload)
 674:n32g430_std_periph_driver/src/n32g430_tim.c **** {
 883              		.loc 1 674 1 is_stmt 1 view -0
 884              		.cfi_startproc
 885              		@ args = 0, pretend = 0, frame = 0
 886              		@ frame_needed = 0, uses_anonymous_args = 0
 887              		@ link register save eliminated.
 675:n32g430_std_periph_driver/src/n32g430_tim.c ****     uint16_t temp_value = 0;
 888              		.loc 1 675 5 view .LVU217
 676:n32g430_std_periph_driver/src/n32g430_tim.c **** 
 677:n32g430_std_periph_driver/src/n32g430_tim.c ****     temp_value = TIMx->CCMOD2;
 889              		.loc 1 677 5 view .LVU218
 890              		.loc 1 677 22 is_stmt 0 view .LVU219
 891 0000 C369     		ldr	r3, [r0, #28]
 892              		.loc 1 677 16 view .LVU220
 893 0002 9BB2     		uxth	r3, r3
 894              	.LVL66:
 678:n32g430_std_periph_driver/src/n32g430_tim.c ****     /* Reset the OC1PE Bit */
 679:n32g430_std_periph_driver/src/n32g430_tim.c ****     temp_value &= (uint16_t) ~((uint16_t)TIM_OC4_PRELOAD_MASK);
 895              		.loc 1 679 5 is_stmt 1 view .LVU221
ARM GAS  C:\Users\Dawn\AppData\Local\Temp\ccf7B1Wd.s 			page 28


 896              		.loc 1 679 16 is_stmt 0 view .LVU222
 897 0004 23F40063 		bic	r3, r3, #2048
 898              	.LVL67:
 680:n32g430_std_periph_driver/src/n32g430_tim.c ****     /* Enable or Disable the Output Compare Preload feature */
 681:n32g430_std_periph_driver/src/n32g430_tim.c ****     temp_value |= (uint16_t)(TIM_output_channel_preload << 8);
 899              		.loc 1 681 5 is_stmt 1 view .LVU223
 900              		.loc 1 681 19 is_stmt 0 view .LVU224
 901 0008 0902     		lsls	r1, r1, #8
 902              	.LVL68:
 903              		.loc 1 681 19 view .LVU225
 904 000a 89B2     		uxth	r1, r1
 905              		.loc 1 681 16 view .LVU226
 906 000c 0B43     		orrs	r3, r3, r1
 907              	.LVL69:
 682:n32g430_std_periph_driver/src/n32g430_tim.c ****     /* Write to TIMx CCMOD2 register */
 683:n32g430_std_periph_driver/src/n32g430_tim.c ****     TIMx->CCMOD2 = temp_value;    
 908              		.loc 1 683 5 is_stmt 1 view .LVU227
 909              		.loc 1 683 18 is_stmt 0 view .LVU228
 910 000e C361     		str	r3, [r0, #28]
 684:n32g430_std_periph_driver/src/n32g430_tim.c **** }
 911              		.loc 1 684 1 view .LVU229
 912 0010 7047     		bx	lr
 913              		.cfi_endproc
 914              	.LFE148:
 916              		.section	.text.TIM_Output_Channel5_Preload_Set,"ax",%progbits
 917              		.align	1
 918              		.global	TIM_Output_Channel5_Preload_Set
 919              		.syntax unified
 920              		.thumb
 921              		.thumb_func
 923              	TIM_Output_Channel5_Preload_Set:
 924              	.LVL70:
 925              	.LFB149:
 685:n32g430_std_periph_driver/src/n32g430_tim.c **** 
 686:n32g430_std_periph_driver/src/n32g430_tim.c **** /**
 687:n32g430_std_periph_driver/src/n32g430_tim.c **** *\*\name    TIM_Output_Channel5_Preload_Set
 688:n32g430_std_periph_driver/src/n32g430_tim.c **** *\*\param   TIMx:
 689:n32g430_std_periph_driver/src/n32g430_tim.c **** *\*\          - TIM1
 690:n32g430_std_periph_driver/src/n32g430_tim.c **** *\*\          - TIM8
 691:n32g430_std_periph_driver/src/n32g430_tim.c **** *\*\param   TIM_output_channel_preload 
 692:n32g430_std_periph_driver/src/n32g430_tim.c **** *\*\          - TIM_OC_PRELOAD_ENABLE
 693:n32g430_std_periph_driver/src/n32g430_tim.c **** *\*\          - TIM_OC_PRELOAD_DISABLE
 694:n32g430_std_periph_driver/src/n32g430_tim.c **** *\*\return  none
 695:n32g430_std_periph_driver/src/n32g430_tim.c **** **/
 696:n32g430_std_periph_driver/src/n32g430_tim.c **** void TIM_Output_Channel5_Preload_Set(TIM_Module* TIMx, uint16_t TIM_output_channel_preload)
 697:n32g430_std_periph_driver/src/n32g430_tim.c **** {
 926              		.loc 1 697 1 is_stmt 1 view -0
 927              		.cfi_startproc
 928              		@ args = 0, pretend = 0, frame = 0
 929              		@ frame_needed = 0, uses_anonymous_args = 0
 930              		@ link register save eliminated.
 698:n32g430_std_periph_driver/src/n32g430_tim.c ****     uint16_t temp_value = 0;
 931              		.loc 1 698 5 view .LVU231
 699:n32g430_std_periph_driver/src/n32g430_tim.c **** 
 700:n32g430_std_periph_driver/src/n32g430_tim.c ****     temp_value = TIMx->CCMOD3;
 932              		.loc 1 700 5 view .LVU232
 933              		.loc 1 700 16 is_stmt 0 view .LVU233
ARM GAS  C:\Users\Dawn\AppData\Local\Temp\ccf7B1Wd.s 			page 29


 934 0000 B0F85430 		ldrh	r3, [r0, #84]
 935 0004 9BB2     		uxth	r3, r3
 936              	.LVL71:
 701:n32g430_std_periph_driver/src/n32g430_tim.c ****     /* Reset the OC1PE Bit */
 702:n32g430_std_periph_driver/src/n32g430_tim.c ****     temp_value &= (uint16_t) ~((uint16_t)TIM_OC5_PRELOAD_MASK);
 937              		.loc 1 702 5 is_stmt 1 view .LVU234
 938              		.loc 1 702 16 is_stmt 0 view .LVU235
 939 0006 23F00803 		bic	r3, r3, #8
 940              	.LVL72:
 703:n32g430_std_periph_driver/src/n32g430_tim.c ****     /* Enable or Disable the Output Compare Preload feature */
 704:n32g430_std_periph_driver/src/n32g430_tim.c ****     temp_value |= TIM_output_channel_preload;
 941              		.loc 1 704 5 is_stmt 1 view .LVU236
 942              		.loc 1 704 16 is_stmt 0 view .LVU237
 943 000a 0B43     		orrs	r3, r3, r1
 944              	.LVL73:
 705:n32g430_std_periph_driver/src/n32g430_tim.c ****     /* Write to TIMx CCMOD3 register */
 706:n32g430_std_periph_driver/src/n32g430_tim.c ****     TIMx->CCMOD3 = temp_value;    
 945              		.loc 1 706 5 is_stmt 1 view .LVU238
 946              		.loc 1 706 18 is_stmt 0 view .LVU239
 947 000c A0F85430 		strh	r3, [r0, #84]	@ movhi
 707:n32g430_std_periph_driver/src/n32g430_tim.c **** }
 948              		.loc 1 707 1 view .LVU240
 949 0010 7047     		bx	lr
 950              		.cfi_endproc
 951              	.LFE149:
 953              		.section	.text.TIM_Output_Channel6_Preload_Set,"ax",%progbits
 954              		.align	1
 955              		.global	TIM_Output_Channel6_Preload_Set
 956              		.syntax unified
 957              		.thumb
 958              		.thumb_func
 960              	TIM_Output_Channel6_Preload_Set:
 961              	.LVL74:
 962              	.LFB150:
 708:n32g430_std_periph_driver/src/n32g430_tim.c **** 
 709:n32g430_std_periph_driver/src/n32g430_tim.c **** /**
 710:n32g430_std_periph_driver/src/n32g430_tim.c **** *\*\name    TIM_Output_Channel6_Preload_Set
 711:n32g430_std_periph_driver/src/n32g430_tim.c **** *\*\param   TIMx:
 712:n32g430_std_periph_driver/src/n32g430_tim.c **** *\*\          - TIM1
 713:n32g430_std_periph_driver/src/n32g430_tim.c **** *\*\param   TIM_output_channel_preload 
 714:n32g430_std_periph_driver/src/n32g430_tim.c **** *\*\          - TIM_OC_PRE_LOAD_ENABLE
 715:n32g430_std_periph_driver/src/n32g430_tim.c **** *\*\          - TIM_OC_PRE_LOAD_DISABLE
 716:n32g430_std_periph_driver/src/n32g430_tim.c **** *\*\return  none
 717:n32g430_std_periph_driver/src/n32g430_tim.c **** **/
 718:n32g430_std_periph_driver/src/n32g430_tim.c **** void TIM_Output_Channel6_Preload_Set(TIM_Module* TIMx, uint16_t TIM_output_channel_preload)
 719:n32g430_std_periph_driver/src/n32g430_tim.c **** {
 963              		.loc 1 719 1 is_stmt 1 view -0
 964              		.cfi_startproc
 965              		@ args = 0, pretend = 0, frame = 0
 966              		@ frame_needed = 0, uses_anonymous_args = 0
 967              		@ link register save eliminated.
 720:n32g430_std_periph_driver/src/n32g430_tim.c ****     uint16_t temp_value = 0;
 968              		.loc 1 720 5 view .LVU242
 721:n32g430_std_periph_driver/src/n32g430_tim.c **** 
 722:n32g430_std_periph_driver/src/n32g430_tim.c ****     temp_value = TIMx->CCMOD3;
 969              		.loc 1 722 5 view .LVU243
 970              		.loc 1 722 16 is_stmt 0 view .LVU244
ARM GAS  C:\Users\Dawn\AppData\Local\Temp\ccf7B1Wd.s 			page 30


 971 0000 B0F85430 		ldrh	r3, [r0, #84]
 972 0004 9BB2     		uxth	r3, r3
 973              	.LVL75:
 723:n32g430_std_periph_driver/src/n32g430_tim.c ****     /* Reset the OC1PE Bit */
 724:n32g430_std_periph_driver/src/n32g430_tim.c ****     temp_value &= (uint16_t) ~((uint16_t)TIM_OC6_PRELOAD_MASK);
 974              		.loc 1 724 5 is_stmt 1 view .LVU245
 975              		.loc 1 724 16 is_stmt 0 view .LVU246
 976 0006 23F40063 		bic	r3, r3, #2048
 977              	.LVL76:
 725:n32g430_std_periph_driver/src/n32g430_tim.c ****     /* Enable or Disable the Output Compare Preload feature */
 726:n32g430_std_periph_driver/src/n32g430_tim.c ****     temp_value |=  (uint16_t)(TIM_output_channel_preload << 8);
 978              		.loc 1 726 5 is_stmt 1 view .LVU247
 979              		.loc 1 726 20 is_stmt 0 view .LVU248
 980 000a 0902     		lsls	r1, r1, #8
 981              	.LVL77:
 982              		.loc 1 726 20 view .LVU249
 983 000c 89B2     		uxth	r1, r1
 984              		.loc 1 726 16 view .LVU250
 985 000e 0B43     		orrs	r3, r3, r1
 986              	.LVL78:
 727:n32g430_std_periph_driver/src/n32g430_tim.c ****     /* Write to TIMx CCMOD3 register */
 728:n32g430_std_periph_driver/src/n32g430_tim.c ****     TIMx->CCMOD3 = temp_value;    
 987              		.loc 1 728 5 is_stmt 1 view .LVU251
 988              		.loc 1 728 18 is_stmt 0 view .LVU252
 989 0010 A0F85430 		strh	r3, [r0, #84]	@ movhi
 729:n32g430_std_periph_driver/src/n32g430_tim.c **** }
 990              		.loc 1 729 1 view .LVU253
 991 0014 7047     		bx	lr
 992              		.cfi_endproc
 993              	.LFE150:
 995              		.section	.text.TIM_Output_Channel7_Preload_Set,"ax",%progbits
 996              		.align	1
 997              		.global	TIM_Output_Channel7_Preload_Set
 998              		.syntax unified
 999              		.thumb
 1000              		.thumb_func
 1002              	TIM_Output_Channel7_Preload_Set:
 1003              	.LVL79:
 1004              	.LFB151:
 730:n32g430_std_periph_driver/src/n32g430_tim.c **** 
 731:n32g430_std_periph_driver/src/n32g430_tim.c **** /**
 732:n32g430_std_periph_driver/src/n32g430_tim.c **** *\*\name    TIM_Output_Channel7_Preload_Set
 733:n32g430_std_periph_driver/src/n32g430_tim.c **** *\*\param   TIMx:
 734:n32g430_std_periph_driver/src/n32g430_tim.c **** *\*\          - TIM1
 735:n32g430_std_periph_driver/src/n32g430_tim.c **** *\*\param   TIM_output_channel_preload 
 736:n32g430_std_periph_driver/src/n32g430_tim.c **** *\*\          - TIM_OC_PRELOAD_ENABLE
 737:n32g430_std_periph_driver/src/n32g430_tim.c **** *\*\          - TIM_OC_PRELOAD_DISABLE
 738:n32g430_std_periph_driver/src/n32g430_tim.c **** *\*\return  none
 739:n32g430_std_periph_driver/src/n32g430_tim.c **** **/
 740:n32g430_std_periph_driver/src/n32g430_tim.c **** void TIM_Output_Channel7_Preload_Set(TIM_Module* TIMx, uint16_t TIM_output_channel_preload)
 741:n32g430_std_periph_driver/src/n32g430_tim.c **** {
 1005              		.loc 1 741 1 is_stmt 1 view -0
 1006              		.cfi_startproc
 1007              		@ args = 0, pretend = 0, frame = 0
 1008              		@ frame_needed = 0, uses_anonymous_args = 0
 1009              		@ link register save eliminated.
 742:n32g430_std_periph_driver/src/n32g430_tim.c ****     if(TIM_OC_PRELOAD_ENABLE == TIM_output_channel_preload)
ARM GAS  C:\Users\Dawn\AppData\Local\Temp\ccf7B1Wd.s 			page 31


 1010              		.loc 1 742 5 view .LVU255
 1011              		.loc 1 742 7 is_stmt 0 view .LVU256
 1012 0000 0829     		cmp	r1, #8
 1013 0002 05D0     		beq	.L58
 743:n32g430_std_periph_driver/src/n32g430_tim.c ****     {
 744:n32g430_std_periph_driver/src/n32g430_tim.c ****         TIMx->CCMOD2 |= TIM_OC7_PRELOAD_ENABLE;
 745:n32g430_std_periph_driver/src/n32g430_tim.c ****     }
 746:n32g430_std_periph_driver/src/n32g430_tim.c ****     else if(TIM_OC_PRELOAD_DISABLE == TIM_output_channel_preload)
 1014              		.loc 1 746 10 is_stmt 1 view .LVU257
 1015              		.loc 1 746 12 is_stmt 0 view .LVU258
 1016 0004 19B9     		cbnz	r1, .L55
 747:n32g430_std_periph_driver/src/n32g430_tim.c ****     {
 748:n32g430_std_periph_driver/src/n32g430_tim.c ****         TIMx->CCMOD2 &= (uint32_t)(~TIM_OC7_PRELOAD_ENABLE);
 1017              		.loc 1 748 9 is_stmt 1 view .LVU259
 1018              		.loc 1 748 13 is_stmt 0 view .LVU260
 1019 0006 C369     		ldr	r3, [r0, #28]
 1020              		.loc 1 748 22 view .LVU261
 1021 0008 23F48033 		bic	r3, r3, #65536
 1022 000c C361     		str	r3, [r0, #28]
 749:n32g430_std_periph_driver/src/n32g430_tim.c ****     }
 750:n32g430_std_periph_driver/src/n32g430_tim.c ****     else
 751:n32g430_std_periph_driver/src/n32g430_tim.c ****     {
 752:n32g430_std_periph_driver/src/n32g430_tim.c ****         /* none */
 753:n32g430_std_periph_driver/src/n32g430_tim.c ****     }
 1023              		.loc 1 753 5 is_stmt 1 view .LVU262
 1024              	.L55:
 754:n32g430_std_periph_driver/src/n32g430_tim.c **** }
 1025              		.loc 1 754 1 is_stmt 0 view .LVU263
 1026 000e 7047     		bx	lr
 1027              	.L58:
 744:n32g430_std_periph_driver/src/n32g430_tim.c ****     }
 1028              		.loc 1 744 9 is_stmt 1 view .LVU264
 744:n32g430_std_periph_driver/src/n32g430_tim.c ****     }
 1029              		.loc 1 744 13 is_stmt 0 view .LVU265
 1030 0010 C369     		ldr	r3, [r0, #28]
 744:n32g430_std_periph_driver/src/n32g430_tim.c ****     }
 1031              		.loc 1 744 22 view .LVU266
 1032 0012 43F48033 		orr	r3, r3, #65536
 1033 0016 C361     		str	r3, [r0, #28]
 1034 0018 7047     		bx	lr
 1035              		.cfi_endproc
 1036              	.LFE151:
 1038              		.section	.text.TIM_Output_Channel8_Preload_Set,"ax",%progbits
 1039              		.align	1
 1040              		.global	TIM_Output_Channel8_Preload_Set
 1041              		.syntax unified
 1042              		.thumb
 1043              		.thumb_func
 1045              	TIM_Output_Channel8_Preload_Set:
 1046              	.LVL80:
 1047              	.LFB152:
 755:n32g430_std_periph_driver/src/n32g430_tim.c **** 
 756:n32g430_std_periph_driver/src/n32g430_tim.c **** /**
 757:n32g430_std_periph_driver/src/n32g430_tim.c **** *\*\name    TIM_Output_Channel8_Preload_Set
 758:n32g430_std_periph_driver/src/n32g430_tim.c **** *\*\param   TIMx:
 759:n32g430_std_periph_driver/src/n32g430_tim.c **** *\*\          - TIM1
 760:n32g430_std_periph_driver/src/n32g430_tim.c **** *\*\param   TIM_output_channel_preload 
ARM GAS  C:\Users\Dawn\AppData\Local\Temp\ccf7B1Wd.s 			page 32


 761:n32g430_std_periph_driver/src/n32g430_tim.c **** *\*\          - TIM_OC_PRE_LOAD_ENABLE
 762:n32g430_std_periph_driver/src/n32g430_tim.c **** *\*\          - TIM_OC_PRE_LOAD_DISABLE
 763:n32g430_std_periph_driver/src/n32g430_tim.c **** *\*\return  none
 764:n32g430_std_periph_driver/src/n32g430_tim.c **** **/
 765:n32g430_std_periph_driver/src/n32g430_tim.c **** void TIM_Output_Channel8_Preload_Set(TIM_Module* TIMx, uint16_t TIM_output_channel_preload)
 766:n32g430_std_periph_driver/src/n32g430_tim.c **** {
 1048              		.loc 1 766 1 is_stmt 1 view -0
 1049              		.cfi_startproc
 1050              		@ args = 0, pretend = 0, frame = 0
 1051              		@ frame_needed = 0, uses_anonymous_args = 0
 1052              		@ link register save eliminated.
 767:n32g430_std_periph_driver/src/n32g430_tim.c ****     if(TIM_OC_PRELOAD_ENABLE == TIM_output_channel_preload)
 1053              		.loc 1 767 5 view .LVU268
 1054              		.loc 1 767 7 is_stmt 0 view .LVU269
 1055 0000 0829     		cmp	r1, #8
 1056 0002 05D0     		beq	.L62
 768:n32g430_std_periph_driver/src/n32g430_tim.c ****     {
 769:n32g430_std_periph_driver/src/n32g430_tim.c ****         TIMx->CCMOD2 |= TIM_OC8_PRELOAD_ENABLE;
 770:n32g430_std_periph_driver/src/n32g430_tim.c ****     }
 771:n32g430_std_periph_driver/src/n32g430_tim.c ****     else if(TIM_OC_PRELOAD_DISABLE == TIM_output_channel_preload)
 1057              		.loc 1 771 10 is_stmt 1 view .LVU270
 1058              		.loc 1 771 12 is_stmt 0 view .LVU271
 1059 0004 19B9     		cbnz	r1, .L59
 772:n32g430_std_periph_driver/src/n32g430_tim.c ****     {
 773:n32g430_std_periph_driver/src/n32g430_tim.c ****         TIMx->CCMOD2 &= (uint32_t)(~TIM_OC8_PRELOAD_ENABLE);
 1060              		.loc 1 773 9 is_stmt 1 view .LVU272
 1061              		.loc 1 773 13 is_stmt 0 view .LVU273
 1062 0006 C369     		ldr	r3, [r0, #28]
 1063              		.loc 1 773 22 view .LVU274
 1064 0008 23F40013 		bic	r3, r3, #2097152
 1065 000c C361     		str	r3, [r0, #28]
 774:n32g430_std_periph_driver/src/n32g430_tim.c ****     }
 775:n32g430_std_periph_driver/src/n32g430_tim.c ****     else
 776:n32g430_std_periph_driver/src/n32g430_tim.c ****     {
 777:n32g430_std_periph_driver/src/n32g430_tim.c ****         /* none */
 778:n32g430_std_periph_driver/src/n32g430_tim.c ****     }
 1066              		.loc 1 778 5 is_stmt 1 view .LVU275
 1067              	.L59:
 779:n32g430_std_periph_driver/src/n32g430_tim.c **** }
 1068              		.loc 1 779 1 is_stmt 0 view .LVU276
 1069 000e 7047     		bx	lr
 1070              	.L62:
 769:n32g430_std_periph_driver/src/n32g430_tim.c ****     }
 1071              		.loc 1 769 9 is_stmt 1 view .LVU277
 769:n32g430_std_periph_driver/src/n32g430_tim.c ****     }
 1072              		.loc 1 769 13 is_stmt 0 view .LVU278
 1073 0010 C369     		ldr	r3, [r0, #28]
 769:n32g430_std_periph_driver/src/n32g430_tim.c ****     }
 1074              		.loc 1 769 22 view .LVU279
 1075 0012 43F40013 		orr	r3, r3, #2097152
 1076 0016 C361     		str	r3, [r0, #28]
 1077 0018 7047     		bx	lr
 1078              		.cfi_endproc
 1079              	.LFE152:
 1081              		.section	.text.TIM_Output_Channel9_Preload_Set,"ax",%progbits
 1082              		.align	1
 1083              		.global	TIM_Output_Channel9_Preload_Set
ARM GAS  C:\Users\Dawn\AppData\Local\Temp\ccf7B1Wd.s 			page 33


 1084              		.syntax unified
 1085              		.thumb
 1086              		.thumb_func
 1088              	TIM_Output_Channel9_Preload_Set:
 1089              	.LVL81:
 1090              	.LFB153:
 780:n32g430_std_periph_driver/src/n32g430_tim.c **** 
 781:n32g430_std_periph_driver/src/n32g430_tim.c **** /**
 782:n32g430_std_periph_driver/src/n32g430_tim.c **** *\*\name    TIM_Output_Channel9_Preload_Set
 783:n32g430_std_periph_driver/src/n32g430_tim.c **** *\*\param   TIMx:
 784:n32g430_std_periph_driver/src/n32g430_tim.c **** *\*\          - TIM1
 785:n32g430_std_periph_driver/src/n32g430_tim.c **** *\*\param   TIM_output_channel_preload 
 786:n32g430_std_periph_driver/src/n32g430_tim.c **** *\*\          - TIM_OC_PRE_LOAD_ENABLE
 787:n32g430_std_periph_driver/src/n32g430_tim.c **** *\*\          - TIM_OC_PRE_LOAD_DISABLE
 788:n32g430_std_periph_driver/src/n32g430_tim.c **** *\*\return  none
 789:n32g430_std_periph_driver/src/n32g430_tim.c **** **/
 790:n32g430_std_periph_driver/src/n32g430_tim.c **** void TIM_Output_Channel9_Preload_Set(TIM_Module* TIMx, uint16_t TIM_output_channel_preload)
 791:n32g430_std_periph_driver/src/n32g430_tim.c **** {
 1091              		.loc 1 791 1 is_stmt 1 view -0
 1092              		.cfi_startproc
 1093              		@ args = 0, pretend = 0, frame = 0
 1094              		@ frame_needed = 0, uses_anonymous_args = 0
 1095              		@ link register save eliminated.
 792:n32g430_std_periph_driver/src/n32g430_tim.c ****     if(TIM_OC_PRELOAD_ENABLE == TIM_output_channel_preload)
 1096              		.loc 1 792 5 view .LVU281
 1097              		.loc 1 792 7 is_stmt 0 view .LVU282
 1098 0000 0829     		cmp	r1, #8
 1099 0002 05D0     		beq	.L66
 793:n32g430_std_periph_driver/src/n32g430_tim.c ****     {
 794:n32g430_std_periph_driver/src/n32g430_tim.c ****         TIMx->CCMOD2 |= TIM_OC9_PRELOAD_ENABLE;
 795:n32g430_std_periph_driver/src/n32g430_tim.c ****     }
 796:n32g430_std_periph_driver/src/n32g430_tim.c ****     else if(TIM_OC_PRELOAD_DISABLE == TIM_output_channel_preload)
 1100              		.loc 1 796 10 is_stmt 1 view .LVU283
 1101              		.loc 1 796 12 is_stmt 0 view .LVU284
 1102 0004 19B9     		cbnz	r1, .L63
 797:n32g430_std_periph_driver/src/n32g430_tim.c ****     {
 798:n32g430_std_periph_driver/src/n32g430_tim.c ****         TIMx->CCMOD2 &= (uint32_t)(~TIM_OC9_PRELOAD_ENABLE);
 1103              		.loc 1 798 9 is_stmt 1 view .LVU285
 1104              		.loc 1 798 13 is_stmt 0 view .LVU286
 1105 0006 C369     		ldr	r3, [r0, #28]
 1106              		.loc 1 798 22 view .LVU287
 1107 0008 23F08063 		bic	r3, r3, #67108864
 1108 000c C361     		str	r3, [r0, #28]
 799:n32g430_std_periph_driver/src/n32g430_tim.c ****     }
 800:n32g430_std_periph_driver/src/n32g430_tim.c ****     else
 801:n32g430_std_periph_driver/src/n32g430_tim.c ****     {
 802:n32g430_std_periph_driver/src/n32g430_tim.c ****         /* none */
 803:n32g430_std_periph_driver/src/n32g430_tim.c ****     }
 1109              		.loc 1 803 5 is_stmt 1 view .LVU288
 1110              	.L63:
 804:n32g430_std_periph_driver/src/n32g430_tim.c **** }
 1111              		.loc 1 804 1 is_stmt 0 view .LVU289
 1112 000e 7047     		bx	lr
 1113              	.L66:
 794:n32g430_std_periph_driver/src/n32g430_tim.c ****     }
 1114              		.loc 1 794 9 is_stmt 1 view .LVU290
 794:n32g430_std_periph_driver/src/n32g430_tim.c ****     }
ARM GAS  C:\Users\Dawn\AppData\Local\Temp\ccf7B1Wd.s 			page 34


 1115              		.loc 1 794 13 is_stmt 0 view .LVU291
 1116 0010 C369     		ldr	r3, [r0, #28]
 794:n32g430_std_periph_driver/src/n32g430_tim.c ****     }
 1117              		.loc 1 794 22 view .LVU292
 1118 0012 43F08063 		orr	r3, r3, #67108864
 1119 0016 C361     		str	r3, [r0, #28]
 1120 0018 7047     		bx	lr
 1121              		.cfi_endproc
 1122              	.LFE153:
 1124              		.section	.text.TIM_Auto_Reload_Preload_Enable,"ax",%progbits
 1125              		.align	1
 1126              		.global	TIM_Auto_Reload_Preload_Enable
 1127              		.syntax unified
 1128              		.thumb
 1129              		.thumb_func
 1131              	TIM_Auto_Reload_Preload_Enable:
 1132              	.LVL82:
 1133              	.LFB154:
 805:n32g430_std_periph_driver/src/n32g430_tim.c **** 
 806:n32g430_std_periph_driver/src/n32g430_tim.c **** /**
 807:n32g430_std_periph_driver/src/n32g430_tim.c **** *\*\name    TIM_Auto_Reload_Preload_Enable
 808:n32g430_std_periph_driver/src/n32g430_tim.c **** *\*\param   TIMx:
 809:n32g430_std_periph_driver/src/n32g430_tim.c **** *\*\          - TIM1
 810:n32g430_std_periph_driver/src/n32g430_tim.c **** *\*\          - TIM2
 811:n32g430_std_periph_driver/src/n32g430_tim.c **** *\*\          - TIM3
 812:n32g430_std_periph_driver/src/n32g430_tim.c **** *\*\          - TIM4
 813:n32g430_std_periph_driver/src/n32g430_tim.c **** *\*\          - TIM5
 814:n32g430_std_periph_driver/src/n32g430_tim.c **** *\*\          - TIM6
 815:n32g430_std_periph_driver/src/n32g430_tim.c **** *\*\          - TIM8
 816:n32g430_std_periph_driver/src/n32g430_tim.c **** *\*\return  none
 817:n32g430_std_periph_driver/src/n32g430_tim.c **** **/
 818:n32g430_std_periph_driver/src/n32g430_tim.c **** void TIM_Auto_Reload_Preload_Enable(TIM_Module* TIMx)
 819:n32g430_std_periph_driver/src/n32g430_tim.c **** {
 1134              		.loc 1 819 1 is_stmt 1 view -0
 1135              		.cfi_startproc
 1136              		@ args = 0, pretend = 0, frame = 0
 1137              		@ frame_needed = 0, uses_anonymous_args = 0
 1138              		@ link register save eliminated.
 820:n32g430_std_periph_driver/src/n32g430_tim.c ****     TIMx->CTRL1 |= TIM_AR_PRELOAD_ENABLE;
 1139              		.loc 1 820 5 view .LVU294
 1140              		.loc 1 820 9 is_stmt 0 view .LVU295
 1141 0000 0368     		ldr	r3, [r0]
 1142              		.loc 1 820 17 view .LVU296
 1143 0002 43F08003 		orr	r3, r3, #128
 1144 0006 0360     		str	r3, [r0]
 821:n32g430_std_periph_driver/src/n32g430_tim.c **** }
 1145              		.loc 1 821 1 view .LVU297
 1146 0008 7047     		bx	lr
 1147              		.cfi_endproc
 1148              	.LFE154:
 1150              		.section	.text.TIM_Auto_Reload_Preload_Disable,"ax",%progbits
 1151              		.align	1
 1152              		.global	TIM_Auto_Reload_Preload_Disable
 1153              		.syntax unified
 1154              		.thumb
 1155              		.thumb_func
 1157              	TIM_Auto_Reload_Preload_Disable:
ARM GAS  C:\Users\Dawn\AppData\Local\Temp\ccf7B1Wd.s 			page 35


 1158              	.LVL83:
 1159              	.LFB155:
 822:n32g430_std_periph_driver/src/n32g430_tim.c **** 
 823:n32g430_std_periph_driver/src/n32g430_tim.c **** /**
 824:n32g430_std_periph_driver/src/n32g430_tim.c **** *\*\name    TIM_Auto_Reload_Preload_Disable
 825:n32g430_std_periph_driver/src/n32g430_tim.c **** *\*\param   TIMx:
 826:n32g430_std_periph_driver/src/n32g430_tim.c **** *\*\          - TIM1
 827:n32g430_std_periph_driver/src/n32g430_tim.c **** *\*\          - TIM2
 828:n32g430_std_periph_driver/src/n32g430_tim.c **** *\*\          - TIM3
 829:n32g430_std_periph_driver/src/n32g430_tim.c **** *\*\          - TIM4
 830:n32g430_std_periph_driver/src/n32g430_tim.c **** *\*\          - TIM5
 831:n32g430_std_periph_driver/src/n32g430_tim.c **** *\*\          - TIM6
 832:n32g430_std_periph_driver/src/n32g430_tim.c **** *\*\          - TIM8
 833:n32g430_std_periph_driver/src/n32g430_tim.c **** *\*\return  none
 834:n32g430_std_periph_driver/src/n32g430_tim.c **** **/
 835:n32g430_std_periph_driver/src/n32g430_tim.c **** void TIM_Auto_Reload_Preload_Disable(TIM_Module* TIMx)
 836:n32g430_std_periph_driver/src/n32g430_tim.c **** {
 1160              		.loc 1 836 1 is_stmt 1 view -0
 1161              		.cfi_startproc
 1162              		@ args = 0, pretend = 0, frame = 0
 1163              		@ frame_needed = 0, uses_anonymous_args = 0
 1164              		@ link register save eliminated.
 837:n32g430_std_periph_driver/src/n32g430_tim.c ****     TIMx->CTRL1 &= (uint32_t) ~((uint32_t)TIM_AR_PRELOAD_ENABLE);
 1165              		.loc 1 837 5 view .LVU299
 1166              		.loc 1 837 9 is_stmt 0 view .LVU300
 1167 0000 0368     		ldr	r3, [r0]
 1168              		.loc 1 837 17 view .LVU301
 1169 0002 23F08003 		bic	r3, r3, #128
 1170 0006 0360     		str	r3, [r0]
 838:n32g430_std_periph_driver/src/n32g430_tim.c **** }
 1171              		.loc 1 838 1 view .LVU302
 1172 0008 7047     		bx	lr
 1173              		.cfi_endproc
 1174              	.LFE155:
 1176              		.section	.text.TIM_Update_Event_Enable,"ax",%progbits
 1177              		.align	1
 1178              		.global	TIM_Update_Event_Enable
 1179              		.syntax unified
 1180              		.thumb
 1181              		.thumb_func
 1183              	TIM_Update_Event_Enable:
 1184              	.LVL84:
 1185              	.LFB156:
 839:n32g430_std_periph_driver/src/n32g430_tim.c **** 
 840:n32g430_std_periph_driver/src/n32g430_tim.c **** 
 841:n32g430_std_periph_driver/src/n32g430_tim.c **** /**
 842:n32g430_std_periph_driver/src/n32g430_tim.c **** *\*\name    TIM_Update_Event_Enable
 843:n32g430_std_periph_driver/src/n32g430_tim.c **** *\*\param   TIMx:
 844:n32g430_std_periph_driver/src/n32g430_tim.c **** *\*\          - TIM1
 845:n32g430_std_periph_driver/src/n32g430_tim.c **** *\*\          - TIM2
 846:n32g430_std_periph_driver/src/n32g430_tim.c **** *\*\          - TIM3
 847:n32g430_std_periph_driver/src/n32g430_tim.c **** *\*\          - TIM4
 848:n32g430_std_periph_driver/src/n32g430_tim.c **** *\*\          - TIM5
 849:n32g430_std_periph_driver/src/n32g430_tim.c **** *\*\          - TIM6
 850:n32g430_std_periph_driver/src/n32g430_tim.c **** *\*\          - TIM8
 851:n32g430_std_periph_driver/src/n32g430_tim.c **** *\*\return  none
 852:n32g430_std_periph_driver/src/n32g430_tim.c **** **/
ARM GAS  C:\Users\Dawn\AppData\Local\Temp\ccf7B1Wd.s 			page 36


 853:n32g430_std_periph_driver/src/n32g430_tim.c **** void TIM_Update_Event_Enable(TIM_Module* TIMx)
 854:n32g430_std_periph_driver/src/n32g430_tim.c **** {
 1186              		.loc 1 854 1 is_stmt 1 view -0
 1187              		.cfi_startproc
 1188              		@ args = 0, pretend = 0, frame = 0
 1189              		@ frame_needed = 0, uses_anonymous_args = 0
 1190              		@ link register save eliminated.
 855:n32g430_std_periph_driver/src/n32g430_tim.c ****     TIMx->CTRL1 &= (uint32_t) ~((uint32_t)TIM_UPDATE_EVENT_DISABLE);
 1191              		.loc 1 855 5 view .LVU304
 1192              		.loc 1 855 9 is_stmt 0 view .LVU305
 1193 0000 0368     		ldr	r3, [r0]
 1194              		.loc 1 855 17 view .LVU306
 1195 0002 23F00203 		bic	r3, r3, #2
 1196 0006 0360     		str	r3, [r0]
 856:n32g430_std_periph_driver/src/n32g430_tim.c **** }
 1197              		.loc 1 856 1 view .LVU307
 1198 0008 7047     		bx	lr
 1199              		.cfi_endproc
 1200              	.LFE156:
 1202              		.section	.text.TIM_Update_Event_Disable,"ax",%progbits
 1203              		.align	1
 1204              		.global	TIM_Update_Event_Disable
 1205              		.syntax unified
 1206              		.thumb
 1207              		.thumb_func
 1209              	TIM_Update_Event_Disable:
 1210              	.LVL85:
 1211              	.LFB157:
 857:n32g430_std_periph_driver/src/n32g430_tim.c **** 
 858:n32g430_std_periph_driver/src/n32g430_tim.c **** /**
 859:n32g430_std_periph_driver/src/n32g430_tim.c **** *\*\name    TIM_Update_Event_Disable
 860:n32g430_std_periph_driver/src/n32g430_tim.c **** *\*\param   TIMx:
 861:n32g430_std_periph_driver/src/n32g430_tim.c **** *\*\          - TIM1
 862:n32g430_std_periph_driver/src/n32g430_tim.c **** *\*\          - TIM2
 863:n32g430_std_periph_driver/src/n32g430_tim.c **** *\*\          - TIM3
 864:n32g430_std_periph_driver/src/n32g430_tim.c **** *\*\          - TIM4
 865:n32g430_std_periph_driver/src/n32g430_tim.c **** *\*\          - TIM5
 866:n32g430_std_periph_driver/src/n32g430_tim.c **** *\*\          - TIM6
 867:n32g430_std_periph_driver/src/n32g430_tim.c **** *\*\          - TIM8
 868:n32g430_std_periph_driver/src/n32g430_tim.c **** **/
 869:n32g430_std_periph_driver/src/n32g430_tim.c **** void TIM_Update_Event_Disable(TIM_Module* TIMx)
 870:n32g430_std_periph_driver/src/n32g430_tim.c **** {
 1212              		.loc 1 870 1 is_stmt 1 view -0
 1213              		.cfi_startproc
 1214              		@ args = 0, pretend = 0, frame = 0
 1215              		@ frame_needed = 0, uses_anonymous_args = 0
 1216              		@ link register save eliminated.
 871:n32g430_std_periph_driver/src/n32g430_tim.c ****     TIMx->CTRL1 |= TIM_UPDATE_EVENT_DISABLE;
 1217              		.loc 1 871 5 view .LVU309
 1218              		.loc 1 871 9 is_stmt 0 view .LVU310
 1219 0000 0368     		ldr	r3, [r0]
 1220              		.loc 1 871 17 view .LVU311
 1221 0002 43F00203 		orr	r3, r3, #2
 1222 0006 0360     		str	r3, [r0]
 872:n32g430_std_periph_driver/src/n32g430_tim.c **** }
 1223              		.loc 1 872 1 view .LVU312
 1224 0008 7047     		bx	lr
ARM GAS  C:\Users\Dawn\AppData\Local\Temp\ccf7B1Wd.s 			page 37


 1225              		.cfi_endproc
 1226              	.LFE157:
 1228              		.section	.text.TIM_Update_Request_Source_Set,"ax",%progbits
 1229              		.align	1
 1230              		.global	TIM_Update_Request_Source_Set
 1231              		.syntax unified
 1232              		.thumb
 1233              		.thumb_func
 1235              	TIM_Update_Request_Source_Set:
 1236              	.LVL86:
 1237              	.LFB158:
 873:n32g430_std_periph_driver/src/n32g430_tim.c **** 
 874:n32g430_std_periph_driver/src/n32g430_tim.c **** /**
 875:n32g430_std_periph_driver/src/n32g430_tim.c **** *\*\name    TIM_Update_Request_Source_Set
 876:n32g430_std_periph_driver/src/n32g430_tim.c **** *\*\param   TIMx:
 877:n32g430_std_periph_driver/src/n32g430_tim.c **** *\*\          - TIM1
 878:n32g430_std_periph_driver/src/n32g430_tim.c **** *\*\          - TIM2
 879:n32g430_std_periph_driver/src/n32g430_tim.c **** *\*\          - TIM3
 880:n32g430_std_periph_driver/src/n32g430_tim.c **** *\*\          - TIM4
 881:n32g430_std_periph_driver/src/n32g430_tim.c **** *\*\          - TIM5
 882:n32g430_std_periph_driver/src/n32g430_tim.c **** *\*\          - TIM6
 883:n32g430_std_periph_driver/src/n32g430_tim.c **** *\*\          - TIM8
 884:n32g430_std_periph_driver/src/n32g430_tim.c **** *\*\param   TIM_update_source:
 885:n32g430_std_periph_driver/src/n32g430_tim.c **** *\*\          - TIM_UPDATE_SRC_REGULAR    Source of update is counter overflow/underflow
 886:n32g430_std_periph_driver/src/n32g430_tim.c **** *\*\          - TIM_UPDATE_SRC_GLOBAL     Source of update is the counter overflow/underflow
 887:n32g430_std_periph_driver/src/n32g430_tim.c **** *\*\                                      or the setting of UG bit, or an update generation
 888:n32g430_std_periph_driver/src/n32g430_tim.c **** *\*\                                      through the slave mode controller.
 889:n32g430_std_periph_driver/src/n32g430_tim.c **** *\*\note    TIM6 does note support slave mode and underflow counter
 890:n32g430_std_periph_driver/src/n32g430_tim.c **** *\*\return  none
 891:n32g430_std_periph_driver/src/n32g430_tim.c **** **/
 892:n32g430_std_periph_driver/src/n32g430_tim.c **** void TIM_Update_Request_Source_Set(TIM_Module* TIMx, uint16_t TIM_update_source)
 893:n32g430_std_periph_driver/src/n32g430_tim.c **** {
 1238              		.loc 1 893 1 is_stmt 1 view -0
 1239              		.cfi_startproc
 1240              		@ args = 0, pretend = 0, frame = 0
 1241              		@ frame_needed = 0, uses_anonymous_args = 0
 1242              		@ link register save eliminated.
 894:n32g430_std_periph_driver/src/n32g430_tim.c ****     if (TIM_update_source != TIM_UPDATE_SRC_GLOBAL)
 1243              		.loc 1 894 5 view .LVU314
 1244              		.loc 1 894 8 is_stmt 0 view .LVU315
 1245 0000 21B1     		cbz	r1, .L72
 895:n32g430_std_periph_driver/src/n32g430_tim.c ****     {
 896:n32g430_std_periph_driver/src/n32g430_tim.c ****         /* Set the URS Bit */
 897:n32g430_std_periph_driver/src/n32g430_tim.c ****         TIMx->CTRL1 |= TIM_UPRS_REGULAR;
 1246              		.loc 1 897 9 is_stmt 1 view .LVU316
 1247              		.loc 1 897 13 is_stmt 0 view .LVU317
 1248 0002 0368     		ldr	r3, [r0]
 1249              		.loc 1 897 21 view .LVU318
 1250 0004 43F00403 		orr	r3, r3, #4
 1251 0008 0360     		str	r3, [r0]
 1252 000a 7047     		bx	lr
 1253              	.L72:
 898:n32g430_std_periph_driver/src/n32g430_tim.c ****     }
 899:n32g430_std_periph_driver/src/n32g430_tim.c ****     else
 900:n32g430_std_periph_driver/src/n32g430_tim.c ****     {
 901:n32g430_std_periph_driver/src/n32g430_tim.c ****         /* Reset the URS Bit */
 902:n32g430_std_periph_driver/src/n32g430_tim.c ****         TIMx->CTRL1 &= (uint32_t) ~((uint32_t)TIM_UPRS_REGULAR);
ARM GAS  C:\Users\Dawn\AppData\Local\Temp\ccf7B1Wd.s 			page 38


 1254              		.loc 1 902 9 is_stmt 1 view .LVU319
 1255              		.loc 1 902 13 is_stmt 0 view .LVU320
 1256 000c 0368     		ldr	r3, [r0]
 1257              		.loc 1 902 21 view .LVU321
 1258 000e 23F00403 		bic	r3, r3, #4
 1259 0012 0360     		str	r3, [r0]
 903:n32g430_std_periph_driver/src/n32g430_tim.c ****     }
 904:n32g430_std_periph_driver/src/n32g430_tim.c **** }
 1260              		.loc 1 904 1 view .LVU322
 1261 0014 7047     		bx	lr
 1262              		.cfi_endproc
 1263              	.LFE158:
 1265              		.section	.text.TIM_Event_Generate,"ax",%progbits
 1266              		.align	1
 1267              		.global	TIM_Event_Generate
 1268              		.syntax unified
 1269              		.thumb
 1270              		.thumb_func
 1272              	TIM_Event_Generate:
 1273              	.LVL87:
 1274              	.LFB159:
 905:n32g430_std_periph_driver/src/n32g430_tim.c **** 
 906:n32g430_std_periph_driver/src/n32g430_tim.c **** /**
 907:n32g430_std_periph_driver/src/n32g430_tim.c **** *\*\fun     Enables or disables the preload register of auto reload register.
 908:n32g430_std_periph_driver/src/n32g430_tim.c **** *\*\param   TIMx:
 909:n32g430_std_periph_driver/src/n32g430_tim.c **** *\*\          - TIM1
 910:n32g430_std_periph_driver/src/n32g430_tim.c **** *\*\          - TIM2
 911:n32g430_std_periph_driver/src/n32g430_tim.c **** *\*\          - TIM3
 912:n32g430_std_periph_driver/src/n32g430_tim.c **** *\*\          - TIM4
 913:n32g430_std_periph_driver/src/n32g430_tim.c **** *\*\          - TIM5
 914:n32g430_std_periph_driver/src/n32g430_tim.c **** *\*\          - TIM6
 915:n32g430_std_periph_driver/src/n32g430_tim.c **** *\*\          - TIM8
 916:n32g430_std_periph_driver/src/n32g430_tim.c **** *\*\param   TIM_event_source 
 917:n32g430_std_periph_driver/src/n32g430_tim.c **** *\*\          - TIM_EVT_SRC_UPDATE    Timer update Event source
 918:n32g430_std_periph_driver/src/n32g430_tim.c **** *\*\          - TIM_EVT_SRC_CC1       Timer Capture Compare 1 Event source
 919:n32g430_std_periph_driver/src/n32g430_tim.c **** *\*\          - TIM_EVT_SRC_CC2       Timer Capture Compare 2 Event source
 920:n32g430_std_periph_driver/src/n32g430_tim.c **** *\*\          - TIM_EVT_SRC_CC3       Timer Capture Compare 3 Event source
 921:n32g430_std_periph_driver/src/n32g430_tim.c **** *\*\          - TIM_EVT_SRC_CC4       Timer Capture Compare 4 Event source
 922:n32g430_std_periph_driver/src/n32g430_tim.c **** *\*\          - TIM_EVT_SRC_COM       Timer COM event source
 923:n32g430_std_periph_driver/src/n32g430_tim.c **** *\*\          - TIM_EVT_SRC_TRIG      Timer Trigger Event source
 924:n32g430_std_periph_driver/src/n32g430_tim.c **** *\*\          - TIM_EVT_SRC_BREAK     Timer Break event source
 925:n32g430_std_periph_driver/src/n32g430_tim.c **** *\*\return  none
 926:n32g430_std_periph_driver/src/n32g430_tim.c **** *\*\note    TIM6 and TIM7 can only generate an update event. 
 927:n32g430_std_periph_driver/src/n32g430_tim.c **** *\*\     TIM_EVT_SRC_COM and TIM_EVT_SRC_BREAK are used only with TIM1 and TIM8.
 928:n32g430_std_periph_driver/src/n32g430_tim.c **** **/
 929:n32g430_std_periph_driver/src/n32g430_tim.c **** void TIM_Event_Generate(TIM_Module* TIMx, uint16_t TIM_event_source)
 930:n32g430_std_periph_driver/src/n32g430_tim.c **** {
 1275              		.loc 1 930 1 is_stmt 1 view -0
 1276              		.cfi_startproc
 1277              		@ args = 0, pretend = 0, frame = 0
 1278              		@ frame_needed = 0, uses_anonymous_args = 0
 1279              		@ link register save eliminated.
 931:n32g430_std_periph_driver/src/n32g430_tim.c ****     TIMx->EVTGEN = TIM_event_source;
 1280              		.loc 1 931 5 view .LVU324
 1281              		.loc 1 931 18 is_stmt 0 view .LVU325
 1282 0000 8182     		strh	r1, [r0, #20]	@ movhi
 932:n32g430_std_periph_driver/src/n32g430_tim.c **** }
ARM GAS  C:\Users\Dawn\AppData\Local\Temp\ccf7B1Wd.s 			page 39


 1283              		.loc 1 932 1 view .LVU326
 1284 0002 7047     		bx	lr
 1285              		.cfi_endproc
 1286              	.LFE159:
 1288              		.section	.text.TIM_Commutation_Event_Enable,"ax",%progbits
 1289              		.align	1
 1290              		.global	TIM_Commutation_Event_Enable
 1291              		.syntax unified
 1292              		.thumb
 1293              		.thumb_func
 1295              	TIM_Commutation_Event_Enable:
 1296              	.LVL88:
 1297              	.LFB160:
 933:n32g430_std_periph_driver/src/n32g430_tim.c **** 
 934:n32g430_std_periph_driver/src/n32g430_tim.c **** /**
 935:n32g430_std_periph_driver/src/n32g430_tim.c **** *\*\name    TIM_Commutation_Event_Enable
 936:n32g430_std_periph_driver/src/n32g430_tim.c **** *\*\fun     Enables the preload register of auto reload register.
 937:n32g430_std_periph_driver/src/n32g430_tim.c **** *\*\param   TIMx:
 938:n32g430_std_periph_driver/src/n32g430_tim.c **** *\*\          - TIM1
 939:n32g430_std_periph_driver/src/n32g430_tim.c **** *\*\          - TIM8
 940:n32g430_std_periph_driver/src/n32g430_tim.c **** *\*\return  none
 941:n32g430_std_periph_driver/src/n32g430_tim.c **** **/
 942:n32g430_std_periph_driver/src/n32g430_tim.c **** void TIM_Commutation_Event_Enable(TIM_Module* TIMx)
 943:n32g430_std_periph_driver/src/n32g430_tim.c **** {
 1298              		.loc 1 943 1 is_stmt 1 view -0
 1299              		.cfi_startproc
 1300              		@ args = 0, pretend = 0, frame = 0
 1301              		@ frame_needed = 0, uses_anonymous_args = 0
 1302              		@ link register save eliminated.
 944:n32g430_std_periph_driver/src/n32g430_tim.c ****     TIMx->CTRL2 |= TIM_CCUSEL_COM_AND_TRIG;
 1303              		.loc 1 944 5 view .LVU328
 1304              		.loc 1 944 9 is_stmt 0 view .LVU329
 1305 0000 4368     		ldr	r3, [r0, #4]
 1306              		.loc 1 944 17 view .LVU330
 1307 0002 43F00403 		orr	r3, r3, #4
 1308 0006 4360     		str	r3, [r0, #4]
 945:n32g430_std_periph_driver/src/n32g430_tim.c **** }
 1309              		.loc 1 945 1 view .LVU331
 1310 0008 7047     		bx	lr
 1311              		.cfi_endproc
 1312              	.LFE160:
 1314              		.section	.text.TIM_Commutation_Event_Disable,"ax",%progbits
 1315              		.align	1
 1316              		.global	TIM_Commutation_Event_Disable
 1317              		.syntax unified
 1318              		.thumb
 1319              		.thumb_func
 1321              	TIM_Commutation_Event_Disable:
 1322              	.LVL89:
 1323              	.LFB161:
 946:n32g430_std_periph_driver/src/n32g430_tim.c **** 
 947:n32g430_std_periph_driver/src/n32g430_tim.c **** /**
 948:n32g430_std_periph_driver/src/n32g430_tim.c **** *\*\name    TIM_Commutation_Event_Disable
 949:n32g430_std_periph_driver/src/n32g430_tim.c **** *\*\fun     Disables the preload register of auto reload register.
 950:n32g430_std_periph_driver/src/n32g430_tim.c **** *\*\param   TIMx:
 951:n32g430_std_periph_driver/src/n32g430_tim.c **** *\*\          - TIM1
 952:n32g430_std_periph_driver/src/n32g430_tim.c **** *\*\          - TIM8
ARM GAS  C:\Users\Dawn\AppData\Local\Temp\ccf7B1Wd.s 			page 40


 953:n32g430_std_periph_driver/src/n32g430_tim.c **** *\*\return  none
 954:n32g430_std_periph_driver/src/n32g430_tim.c **** **/
 955:n32g430_std_periph_driver/src/n32g430_tim.c **** void TIM_Commutation_Event_Disable(TIM_Module* TIMx)
 956:n32g430_std_periph_driver/src/n32g430_tim.c **** {
 1324              		.loc 1 956 1 is_stmt 1 view -0
 1325              		.cfi_startproc
 1326              		@ args = 0, pretend = 0, frame = 0
 1327              		@ frame_needed = 0, uses_anonymous_args = 0
 1328              		@ link register save eliminated.
 957:n32g430_std_periph_driver/src/n32g430_tim.c ****     TIMx->CTRL2 &= (uint32_t) ~((uint32_t)TIM_CCUSEL_MASK);
 1329              		.loc 1 957 5 view .LVU333
 1330              		.loc 1 957 9 is_stmt 0 view .LVU334
 1331 0000 4368     		ldr	r3, [r0, #4]
 1332              		.loc 1 957 17 view .LVU335
 1333 0002 23F00403 		bic	r3, r3, #4
 1334 0006 4360     		str	r3, [r0, #4]
 958:n32g430_std_periph_driver/src/n32g430_tim.c **** }
 1335              		.loc 1 958 1 view .LVU336
 1336 0008 7047     		bx	lr
 1337              		.cfi_endproc
 1338              	.LFE161:
 1340              		.section	.text.TIM_Capture_Compare_Control_Preload_Enable,"ax",%progbits
 1341              		.align	1
 1342              		.global	TIM_Capture_Compare_Control_Preload_Enable
 1343              		.syntax unified
 1344              		.thumb
 1345              		.thumb_func
 1347              	TIM_Capture_Compare_Control_Preload_Enable:
 1348              	.LVL90:
 1349              	.LFB162:
 959:n32g430_std_periph_driver/src/n32g430_tim.c **** 
 960:n32g430_std_periph_driver/src/n32g430_tim.c **** /**
 961:n32g430_std_periph_driver/src/n32g430_tim.c **** *\*\name    TIM_Capture_Compare_Control_Preload_Enable
 962:n32g430_std_periph_driver/src/n32g430_tim.c **** *\*\fun     Disables the preload register of auto reload register.
 963:n32g430_std_periph_driver/src/n32g430_tim.c **** *\*\param   TIMx:
 964:n32g430_std_periph_driver/src/n32g430_tim.c **** *\*\          - TIM1
 965:n32g430_std_periph_driver/src/n32g430_tim.c **** *\*\          - TIM8
 966:n32g430_std_periph_driver/src/n32g430_tim.c **** **/
 967:n32g430_std_periph_driver/src/n32g430_tim.c **** void TIM_Capture_Compare_Control_Preload_Enable(TIM_Module* TIMx)
 968:n32g430_std_periph_driver/src/n32g430_tim.c **** {
 1350              		.loc 1 968 1 is_stmt 1 view -0
 1351              		.cfi_startproc
 1352              		@ args = 0, pretend = 0, frame = 0
 1353              		@ frame_needed = 0, uses_anonymous_args = 0
 1354              		@ link register save eliminated.
 969:n32g430_std_periph_driver/src/n32g430_tim.c ****     TIMx->CTRL2 |= TIM_CCPCTL_PRELOAD;
 1355              		.loc 1 969 5 view .LVU338
 1356              		.loc 1 969 9 is_stmt 0 view .LVU339
 1357 0000 4368     		ldr	r3, [r0, #4]
 1358              		.loc 1 969 17 view .LVU340
 1359 0002 43F00103 		orr	r3, r3, #1
 1360 0006 4360     		str	r3, [r0, #4]
 970:n32g430_std_periph_driver/src/n32g430_tim.c **** }
 1361              		.loc 1 970 1 view .LVU341
 1362 0008 7047     		bx	lr
 1363              		.cfi_endproc
 1364              	.LFE162:
ARM GAS  C:\Users\Dawn\AppData\Local\Temp\ccf7B1Wd.s 			page 41


 1366              		.section	.text.TIM_Capture_Compare_Control_Preload_Disable,"ax",%progbits
 1367              		.align	1
 1368              		.global	TIM_Capture_Compare_Control_Preload_Disable
 1369              		.syntax unified
 1370              		.thumb
 1371              		.thumb_func
 1373              	TIM_Capture_Compare_Control_Preload_Disable:
 1374              	.LVL91:
 1375              	.LFB163:
 971:n32g430_std_periph_driver/src/n32g430_tim.c **** 
 972:n32g430_std_periph_driver/src/n32g430_tim.c **** /**
 973:n32g430_std_periph_driver/src/n32g430_tim.c **** *\*\name    TIM_Capture_Compare_Control_Preload_Disable
 974:n32g430_std_periph_driver/src/n32g430_tim.c **** *\*\fun     Disables the preload register of auto reload register.
 975:n32g430_std_periph_driver/src/n32g430_tim.c **** *\*\param   TIMx:
 976:n32g430_std_periph_driver/src/n32g430_tim.c **** *\*\          - TIM1
 977:n32g430_std_periph_driver/src/n32g430_tim.c **** *\*\          - TIM8
 978:n32g430_std_periph_driver/src/n32g430_tim.c **** **/
 979:n32g430_std_periph_driver/src/n32g430_tim.c **** void TIM_Capture_Compare_Control_Preload_Disable(TIM_Module* TIMx)
 980:n32g430_std_periph_driver/src/n32g430_tim.c **** {
 1376              		.loc 1 980 1 is_stmt 1 view -0
 1377              		.cfi_startproc
 1378              		@ args = 0, pretend = 0, frame = 0
 1379              		@ frame_needed = 0, uses_anonymous_args = 0
 1380              		@ link register save eliminated.
 981:n32g430_std_periph_driver/src/n32g430_tim.c ****     TIMx->CTRL2 &= (uint32_t) ~((uint32_t)TIM_CCPCTL_PRELOAD);
 1381              		.loc 1 981 5 view .LVU343
 1382              		.loc 1 981 9 is_stmt 0 view .LVU344
 1383 0000 4368     		ldr	r3, [r0, #4]
 1384              		.loc 1 981 17 view .LVU345
 1385 0002 23F00103 		bic	r3, r3, #1
 1386 0006 4360     		str	r3, [r0, #4]
 982:n32g430_std_periph_driver/src/n32g430_tim.c **** }
 1387              		.loc 1 982 1 view .LVU346
 1388 0008 7047     		bx	lr
 1389              		.cfi_endproc
 1390              	.LFE163:
 1392              		.section	.text.TIM_Compare1_Set,"ax",%progbits
 1393              		.align	1
 1394              		.global	TIM_Compare1_Set
 1395              		.syntax unified
 1396              		.thumb
 1397              		.thumb_func
 1399              	TIM_Compare1_Set:
 1400              	.LVL92:
 1401              	.LFB164:
 983:n32g430_std_periph_driver/src/n32g430_tim.c **** 
 984:n32g430_std_periph_driver/src/n32g430_tim.c **** /**
 985:n32g430_std_periph_driver/src/n32g430_tim.c **** *\*\name    TIM_Compare1_Set
 986:n32g430_std_periph_driver/src/n32g430_tim.c **** *\*\fun     Sets the TIMx Capture compare1 Register value
 987:n32g430_std_periph_driver/src/n32g430_tim.c **** *\*\param   TIMx:
 988:n32g430_std_periph_driver/src/n32g430_tim.c **** *\*\          - TIM1
 989:n32g430_std_periph_driver/src/n32g430_tim.c **** *\*\          - TIM2
 990:n32g430_std_periph_driver/src/n32g430_tim.c **** *\*\          - TIM3
 991:n32g430_std_periph_driver/src/n32g430_tim.c **** *\*\          - TIM4
 992:n32g430_std_periph_driver/src/n32g430_tim.c **** *\*\          - TIM5
 993:n32g430_std_periph_driver/src/n32g430_tim.c **** *\*\          - TIM8
 994:n32g430_std_periph_driver/src/n32g430_tim.c **** *\*\param   compare1:
ARM GAS  C:\Users\Dawn\AppData\Local\Temp\ccf7B1Wd.s 			page 42


 995:n32g430_std_periph_driver/src/n32g430_tim.c **** *\*\          - [0,0xffff]
 996:n32g430_std_periph_driver/src/n32g430_tim.c **** **/
 997:n32g430_std_periph_driver/src/n32g430_tim.c **** void TIM_Compare1_Set(TIM_Module* TIMx, uint16_t compare1)
 998:n32g430_std_periph_driver/src/n32g430_tim.c **** {
 1402              		.loc 1 998 1 is_stmt 1 view -0
 1403              		.cfi_startproc
 1404              		@ args = 0, pretend = 0, frame = 0
 1405              		@ frame_needed = 0, uses_anonymous_args = 0
 1406              		@ link register save eliminated.
 999:n32g430_std_periph_driver/src/n32g430_tim.c ****     uint32_t temp_value = TIMx->CCDAT1;
 1407              		.loc 1 999 5 view .LVU348
 1408              		.loc 1 999 14 is_stmt 0 view .LVU349
 1409 0000 436B     		ldr	r3, [r0, #52]
 1410              	.LVL93:
1000:n32g430_std_periph_driver/src/n32g430_tim.c ****     temp_value &= (uint32_t)(~TIM_CCDAT1_MASK);
 1411              		.loc 1 1000 5 is_stmt 1 view .LVU350
 1412              		.loc 1 1000 16 is_stmt 0 view .LVU351
 1413 0002 6FF30F03 		bfc	r3, #0, #16
 1414              	.LVL94:
1001:n32g430_std_periph_driver/src/n32g430_tim.c ****     temp_value |= compare1;
 1415              		.loc 1 1001 5 is_stmt 1 view .LVU352
 1416              		.loc 1 1001 16 is_stmt 0 view .LVU353
 1417 0006 1943     		orrs	r1, r1, r3
 1418              	.LVL95:
1002:n32g430_std_periph_driver/src/n32g430_tim.c ****     TIMx->CCDAT1 = temp_value;
 1419              		.loc 1 1002 5 is_stmt 1 view .LVU354
 1420              		.loc 1 1002 18 is_stmt 0 view .LVU355
 1421 0008 4163     		str	r1, [r0, #52]
1003:n32g430_std_periph_driver/src/n32g430_tim.c **** }
 1422              		.loc 1 1003 1 view .LVU356
 1423 000a 7047     		bx	lr
 1424              		.cfi_endproc
 1425              	.LFE164:
 1427              		.section	.text.TIM_Compare2_Set,"ax",%progbits
 1428              		.align	1
 1429              		.global	TIM_Compare2_Set
 1430              		.syntax unified
 1431              		.thumb
 1432              		.thumb_func
 1434              	TIM_Compare2_Set:
 1435              	.LVL96:
 1436              	.LFB165:
1004:n32g430_std_periph_driver/src/n32g430_tim.c **** 
1005:n32g430_std_periph_driver/src/n32g430_tim.c **** /**
1006:n32g430_std_periph_driver/src/n32g430_tim.c **** *\*\name    TIM_Compare2_Set
1007:n32g430_std_periph_driver/src/n32g430_tim.c **** *\*\fun     Sets the TIMx Capture compare2 Register value
1008:n32g430_std_periph_driver/src/n32g430_tim.c **** *\*\param   TIMx:
1009:n32g430_std_periph_driver/src/n32g430_tim.c **** *\*\          - TIM1
1010:n32g430_std_periph_driver/src/n32g430_tim.c **** *\*\          - TIM2
1011:n32g430_std_periph_driver/src/n32g430_tim.c **** *\*\          - TIM3
1012:n32g430_std_periph_driver/src/n32g430_tim.c **** *\*\          - TIM4
1013:n32g430_std_periph_driver/src/n32g430_tim.c **** *\*\          - TIM5
1014:n32g430_std_periph_driver/src/n32g430_tim.c **** *\*\          - TIM8
1015:n32g430_std_periph_driver/src/n32g430_tim.c **** *\*\param   compare2:
1016:n32g430_std_periph_driver/src/n32g430_tim.c **** *\*\          - [0,0xffff]
1017:n32g430_std_periph_driver/src/n32g430_tim.c **** **/
1018:n32g430_std_periph_driver/src/n32g430_tim.c **** void TIM_Compare2_Set(TIM_Module* TIMx, uint16_t compare2)
ARM GAS  C:\Users\Dawn\AppData\Local\Temp\ccf7B1Wd.s 			page 43


1019:n32g430_std_periph_driver/src/n32g430_tim.c **** {
 1437              		.loc 1 1019 1 is_stmt 1 view -0
 1438              		.cfi_startproc
 1439              		@ args = 0, pretend = 0, frame = 0
 1440              		@ frame_needed = 0, uses_anonymous_args = 0
 1441              		@ link register save eliminated.
1020:n32g430_std_periph_driver/src/n32g430_tim.c ****     uint32_t temp_value = TIMx->CCDAT2;
 1442              		.loc 1 1020 5 view .LVU358
 1443              		.loc 1 1020 14 is_stmt 0 view .LVU359
 1444 0000 836B     		ldr	r3, [r0, #56]
 1445              	.LVL97:
1021:n32g430_std_periph_driver/src/n32g430_tim.c ****     temp_value &= (uint32_t)(~TIM_CCDAT2_MASK);
 1446              		.loc 1 1021 5 is_stmt 1 view .LVU360
 1447              		.loc 1 1021 16 is_stmt 0 view .LVU361
 1448 0002 6FF30F03 		bfc	r3, #0, #16
 1449              	.LVL98:
1022:n32g430_std_periph_driver/src/n32g430_tim.c ****     temp_value |= compare2;
 1450              		.loc 1 1022 5 is_stmt 1 view .LVU362
 1451              		.loc 1 1022 16 is_stmt 0 view .LVU363
 1452 0006 1943     		orrs	r1, r1, r3
 1453              	.LVL99:
1023:n32g430_std_periph_driver/src/n32g430_tim.c ****     TIMx->CCDAT2 = temp_value;
 1454              		.loc 1 1023 5 is_stmt 1 view .LVU364
 1455              		.loc 1 1023 18 is_stmt 0 view .LVU365
 1456 0008 8163     		str	r1, [r0, #56]
1024:n32g430_std_periph_driver/src/n32g430_tim.c **** }
 1457              		.loc 1 1024 1 view .LVU366
 1458 000a 7047     		bx	lr
 1459              		.cfi_endproc
 1460              	.LFE165:
 1462              		.section	.text.TIM_Compare3_Set,"ax",%progbits
 1463              		.align	1
 1464              		.global	TIM_Compare3_Set
 1465              		.syntax unified
 1466              		.thumb
 1467              		.thumb_func
 1469              	TIM_Compare3_Set:
 1470              	.LVL100:
 1471              	.LFB166:
1025:n32g430_std_periph_driver/src/n32g430_tim.c **** 
1026:n32g430_std_periph_driver/src/n32g430_tim.c **** /**
1027:n32g430_std_periph_driver/src/n32g430_tim.c **** *\*\name    TIM_Compare3_Set
1028:n32g430_std_periph_driver/src/n32g430_tim.c **** *\*\fun     Sets the TIMx Capture compare3 Register value
1029:n32g430_std_periph_driver/src/n32g430_tim.c **** *\*\param   TIMx:
1030:n32g430_std_periph_driver/src/n32g430_tim.c **** *\*\          - TIM1
1031:n32g430_std_periph_driver/src/n32g430_tim.c **** *\*\          - TIM2
1032:n32g430_std_periph_driver/src/n32g430_tim.c **** *\*\          - TIM3
1033:n32g430_std_periph_driver/src/n32g430_tim.c **** *\*\          - TIM4
1034:n32g430_std_periph_driver/src/n32g430_tim.c **** *\*\          - TIM5
1035:n32g430_std_periph_driver/src/n32g430_tim.c **** *\*\          - TIM8
1036:n32g430_std_periph_driver/src/n32g430_tim.c **** *\*\param   compare3:
1037:n32g430_std_periph_driver/src/n32g430_tim.c **** *\*\          - [0,0xffff]
1038:n32g430_std_periph_driver/src/n32g430_tim.c **** **/
1039:n32g430_std_periph_driver/src/n32g430_tim.c **** void TIM_Compare3_Set(TIM_Module* TIMx, uint16_t compare3)
1040:n32g430_std_periph_driver/src/n32g430_tim.c **** {
 1472              		.loc 1 1040 1 is_stmt 1 view -0
 1473              		.cfi_startproc
ARM GAS  C:\Users\Dawn\AppData\Local\Temp\ccf7B1Wd.s 			page 44


 1474              		@ args = 0, pretend = 0, frame = 0
 1475              		@ frame_needed = 0, uses_anonymous_args = 0
 1476              		@ link register save eliminated.
1041:n32g430_std_periph_driver/src/n32g430_tim.c ****     uint32_t temp_value = TIMx->CCDAT3;
 1477              		.loc 1 1041 5 view .LVU368
 1478              		.loc 1 1041 14 is_stmt 0 view .LVU369
 1479 0000 C36B     		ldr	r3, [r0, #60]
 1480              	.LVL101:
1042:n32g430_std_periph_driver/src/n32g430_tim.c ****     temp_value &= (uint32_t)(~TIM_CCDAT3_MASK);
 1481              		.loc 1 1042 5 is_stmt 1 view .LVU370
 1482              		.loc 1 1042 16 is_stmt 0 view .LVU371
 1483 0002 6FF30F03 		bfc	r3, #0, #16
 1484              	.LVL102:
1043:n32g430_std_periph_driver/src/n32g430_tim.c ****     temp_value |= compare3;
 1485              		.loc 1 1043 5 is_stmt 1 view .LVU372
 1486              		.loc 1 1043 16 is_stmt 0 view .LVU373
 1487 0006 1943     		orrs	r1, r1, r3
 1488              	.LVL103:
1044:n32g430_std_periph_driver/src/n32g430_tim.c ****     TIMx->CCDAT3 = temp_value;
 1489              		.loc 1 1044 5 is_stmt 1 view .LVU374
 1490              		.loc 1 1044 18 is_stmt 0 view .LVU375
 1491 0008 C163     		str	r1, [r0, #60]
1045:n32g430_std_periph_driver/src/n32g430_tim.c **** }
 1492              		.loc 1 1045 1 view .LVU376
 1493 000a 7047     		bx	lr
 1494              		.cfi_endproc
 1495              	.LFE166:
 1497              		.section	.text.TIM_Compare4_Set,"ax",%progbits
 1498              		.align	1
 1499              		.global	TIM_Compare4_Set
 1500              		.syntax unified
 1501              		.thumb
 1502              		.thumb_func
 1504              	TIM_Compare4_Set:
 1505              	.LVL104:
 1506              	.LFB167:
1046:n32g430_std_periph_driver/src/n32g430_tim.c **** 
1047:n32g430_std_periph_driver/src/n32g430_tim.c **** /**
1048:n32g430_std_periph_driver/src/n32g430_tim.c **** *\*\name    TIM_Compare4_Set
1049:n32g430_std_periph_driver/src/n32g430_tim.c **** *\*\fun     Sets the TIMx Capture compare4 Register value
1050:n32g430_std_periph_driver/src/n32g430_tim.c **** *\*\param   TIMx:
1051:n32g430_std_periph_driver/src/n32g430_tim.c **** *\*\          - TIM1
1052:n32g430_std_periph_driver/src/n32g430_tim.c **** *\*\          - TIM2
1053:n32g430_std_periph_driver/src/n32g430_tim.c **** *\*\          - TIM3
1054:n32g430_std_periph_driver/src/n32g430_tim.c **** *\*\          - TIM4
1055:n32g430_std_periph_driver/src/n32g430_tim.c **** *\*\          - TIM5
1056:n32g430_std_periph_driver/src/n32g430_tim.c **** *\*\          - TIM8
1057:n32g430_std_periph_driver/src/n32g430_tim.c **** *\*\param   compare4:
1058:n32g430_std_periph_driver/src/n32g430_tim.c **** *\*\          - [0,0xffff]
1059:n32g430_std_periph_driver/src/n32g430_tim.c **** **/
1060:n32g430_std_periph_driver/src/n32g430_tim.c **** void TIM_Compare4_Set(TIM_Module* TIMx, uint16_t compare4)
1061:n32g430_std_periph_driver/src/n32g430_tim.c **** {
 1507              		.loc 1 1061 1 is_stmt 1 view -0
 1508              		.cfi_startproc
 1509              		@ args = 0, pretend = 0, frame = 0
 1510              		@ frame_needed = 0, uses_anonymous_args = 0
 1511              		@ link register save eliminated.
ARM GAS  C:\Users\Dawn\AppData\Local\Temp\ccf7B1Wd.s 			page 45


1062:n32g430_std_periph_driver/src/n32g430_tim.c ****     uint32_t temp_value = TIMx->CCDAT4;
 1512              		.loc 1 1062 5 view .LVU378
 1513              		.loc 1 1062 14 is_stmt 0 view .LVU379
 1514 0000 036C     		ldr	r3, [r0, #64]
 1515              	.LVL105:
1063:n32g430_std_periph_driver/src/n32g430_tim.c ****     temp_value &= (uint32_t)(~TIM_CCDAT4_MASK);
 1516              		.loc 1 1063 5 is_stmt 1 view .LVU380
 1517              		.loc 1 1063 16 is_stmt 0 view .LVU381
 1518 0002 6FF30F03 		bfc	r3, #0, #16
 1519              	.LVL106:
1064:n32g430_std_periph_driver/src/n32g430_tim.c ****     temp_value |= compare4;
 1520              		.loc 1 1064 5 is_stmt 1 view .LVU382
 1521              		.loc 1 1064 16 is_stmt 0 view .LVU383
 1522 0006 1943     		orrs	r1, r1, r3
 1523              	.LVL107:
1065:n32g430_std_periph_driver/src/n32g430_tim.c ****     TIMx->CCDAT4 = temp_value;
 1524              		.loc 1 1065 5 is_stmt 1 view .LVU384
 1525              		.loc 1 1065 18 is_stmt 0 view .LVU385
 1526 0008 0164     		str	r1, [r0, #64]
1066:n32g430_std_periph_driver/src/n32g430_tim.c **** }
 1527              		.loc 1 1066 1 view .LVU386
 1528 000a 7047     		bx	lr
 1529              		.cfi_endproc
 1530              	.LFE167:
 1532              		.section	.text.TIM_Compare5_Set,"ax",%progbits
 1533              		.align	1
 1534              		.global	TIM_Compare5_Set
 1535              		.syntax unified
 1536              		.thumb
 1537              		.thumb_func
 1539              	TIM_Compare5_Set:
 1540              	.LVL108:
 1541              	.LFB168:
1067:n32g430_std_periph_driver/src/n32g430_tim.c **** 
1068:n32g430_std_periph_driver/src/n32g430_tim.c **** /**
1069:n32g430_std_periph_driver/src/n32g430_tim.c **** *\*\name    TIM_Compare5_Set
1070:n32g430_std_periph_driver/src/n32g430_tim.c **** *\*\fun     Sets the TIMx Capture compare5 Register value
1071:n32g430_std_periph_driver/src/n32g430_tim.c **** *\*\param   TIMx:
1072:n32g430_std_periph_driver/src/n32g430_tim.c **** *\*\          - TIM1
1073:n32g430_std_periph_driver/src/n32g430_tim.c **** *\*\          - TIM8
1074:n32g430_std_periph_driver/src/n32g430_tim.c **** *\*\param   compare5:
1075:n32g430_std_periph_driver/src/n32g430_tim.c **** *\*\          - [0,0xffff]
1076:n32g430_std_periph_driver/src/n32g430_tim.c **** **/
1077:n32g430_std_periph_driver/src/n32g430_tim.c **** void TIM_Compare5_Set(TIM_Module* TIMx, uint16_t compare5)
1078:n32g430_std_periph_driver/src/n32g430_tim.c **** {
 1542              		.loc 1 1078 1 is_stmt 1 view -0
 1543              		.cfi_startproc
 1544              		@ args = 0, pretend = 0, frame = 0
 1545              		@ frame_needed = 0, uses_anonymous_args = 0
 1546              		@ link register save eliminated.
1079:n32g430_std_periph_driver/src/n32g430_tim.c ****     TIMx->CCDAT5 = compare5;  
 1547              		.loc 1 1079 5 view .LVU388
 1548              		.loc 1 1079 18 is_stmt 0 view .LVU389
 1549 0000 A0F85810 		strh	r1, [r0, #88]	@ movhi
1080:n32g430_std_periph_driver/src/n32g430_tim.c **** }
 1550              		.loc 1 1080 1 view .LVU390
 1551 0004 7047     		bx	lr
ARM GAS  C:\Users\Dawn\AppData\Local\Temp\ccf7B1Wd.s 			page 46


 1552              		.cfi_endproc
 1553              	.LFE168:
 1555              		.section	.text.TIM_Compare6_Set,"ax",%progbits
 1556              		.align	1
 1557              		.global	TIM_Compare6_Set
 1558              		.syntax unified
 1559              		.thumb
 1560              		.thumb_func
 1562              	TIM_Compare6_Set:
 1563              	.LVL109:
 1564              	.LFB169:
1081:n32g430_std_periph_driver/src/n32g430_tim.c **** 
1082:n32g430_std_periph_driver/src/n32g430_tim.c **** /**
1083:n32g430_std_periph_driver/src/n32g430_tim.c **** *\*\name    TIM_Compare6_Set
1084:n32g430_std_periph_driver/src/n32g430_tim.c **** *\*\fun     Sets the TIMx Capture compare6 Register value
1085:n32g430_std_periph_driver/src/n32g430_tim.c **** *\*\param   TIMx:
1086:n32g430_std_periph_driver/src/n32g430_tim.c **** *\*\          - TIM1
1087:n32g430_std_periph_driver/src/n32g430_tim.c **** *\*\          - TIM8
1088:n32g430_std_periph_driver/src/n32g430_tim.c **** *\*\param   compare6:
1089:n32g430_std_periph_driver/src/n32g430_tim.c **** *\*\          - [0,0xffff]
1090:n32g430_std_periph_driver/src/n32g430_tim.c **** **/
1091:n32g430_std_periph_driver/src/n32g430_tim.c **** void TIM_Compare6_Set(TIM_Module* TIMx, uint16_t compare6)
1092:n32g430_std_periph_driver/src/n32g430_tim.c **** {
 1565              		.loc 1 1092 1 is_stmt 1 view -0
 1566              		.cfi_startproc
 1567              		@ args = 0, pretend = 0, frame = 0
 1568              		@ frame_needed = 0, uses_anonymous_args = 0
 1569              		@ link register save eliminated.
1093:n32g430_std_periph_driver/src/n32g430_tim.c ****     TIMx->CCDAT6 = compare6;
 1570              		.loc 1 1093 5 view .LVU392
 1571              		.loc 1 1093 18 is_stmt 0 view .LVU393
 1572 0000 A0F85C10 		strh	r1, [r0, #92]	@ movhi
1094:n32g430_std_periph_driver/src/n32g430_tim.c **** }
 1573              		.loc 1 1094 1 view .LVU394
 1574 0004 7047     		bx	lr
 1575              		.cfi_endproc
 1576              	.LFE169:
 1578              		.section	.text.TIM_Compare7_Set,"ax",%progbits
 1579              		.align	1
 1580              		.global	TIM_Compare7_Set
 1581              		.syntax unified
 1582              		.thumb
 1583              		.thumb_func
 1585              	TIM_Compare7_Set:
 1586              	.LVL110:
 1587              	.LFB170:
1095:n32g430_std_periph_driver/src/n32g430_tim.c **** 
1096:n32g430_std_periph_driver/src/n32g430_tim.c **** /**
1097:n32g430_std_periph_driver/src/n32g430_tim.c **** *\*\name    TIM_Compare7_Set
1098:n32g430_std_periph_driver/src/n32g430_tim.c **** *\*\fun     Sets the TIMx Capture compare7 Register value
1099:n32g430_std_periph_driver/src/n32g430_tim.c **** *\*\param   TIMx
1100:n32g430_std_periph_driver/src/n32g430_tim.c **** *\*\          - TIM1
1101:n32g430_std_periph_driver/src/n32g430_tim.c **** *\*\param   compare7:
1102:n32g430_std_periph_driver/src/n32g430_tim.c **** *\*\          - [0,0xffff]
1103:n32g430_std_periph_driver/src/n32g430_tim.c **** *\*\return  none
1104:n32g430_std_periph_driver/src/n32g430_tim.c **** *\*\note    only for TIM1
1105:n32g430_std_periph_driver/src/n32g430_tim.c **** **/
ARM GAS  C:\Users\Dawn\AppData\Local\Temp\ccf7B1Wd.s 			page 47


1106:n32g430_std_periph_driver/src/n32g430_tim.c **** void TIM_Compare7_Set(TIM_Module* TIMx, uint16_t compare7)
1107:n32g430_std_periph_driver/src/n32g430_tim.c **** {
 1588              		.loc 1 1107 1 is_stmt 1 view -0
 1589              		.cfi_startproc
 1590              		@ args = 0, pretend = 0, frame = 0
 1591              		@ frame_needed = 0, uses_anonymous_args = 0
 1592              		@ link register save eliminated.
1108:n32g430_std_periph_driver/src/n32g430_tim.c ****     TIMx->CCDAT7 = compare7;
 1593              		.loc 1 1108 5 view .LVU396
 1594              		.loc 1 1108 18 is_stmt 0 view .LVU397
 1595 0000 A0F86010 		strh	r1, [r0, #96]	@ movhi
1109:n32g430_std_periph_driver/src/n32g430_tim.c **** }
 1596              		.loc 1 1109 1 view .LVU398
 1597 0004 7047     		bx	lr
 1598              		.cfi_endproc
 1599              	.LFE170:
 1601              		.section	.text.TIM_Compare8_Set,"ax",%progbits
 1602              		.align	1
 1603              		.global	TIM_Compare8_Set
 1604              		.syntax unified
 1605              		.thumb
 1606              		.thumb_func
 1608              	TIM_Compare8_Set:
 1609              	.LVL111:
 1610              	.LFB171:
1110:n32g430_std_periph_driver/src/n32g430_tim.c **** 
1111:n32g430_std_periph_driver/src/n32g430_tim.c **** /**
1112:n32g430_std_periph_driver/src/n32g430_tim.c **** *\*\name    TIM_Compare8_Set
1113:n32g430_std_periph_driver/src/n32g430_tim.c **** *\*\fun     Sets the TIMx Capture compare8 Register value
1114:n32g430_std_periph_driver/src/n32g430_tim.c **** *\*\param   TIMx
1115:n32g430_std_periph_driver/src/n32g430_tim.c **** *\*\          - TIM1
1116:n32g430_std_periph_driver/src/n32g430_tim.c **** *\*\param   compare8:
1117:n32g430_std_periph_driver/src/n32g430_tim.c **** *\*\          - [0,0xffff]
1118:n32g430_std_periph_driver/src/n32g430_tim.c **** *\*\return  none
1119:n32g430_std_periph_driver/src/n32g430_tim.c **** *\*\note    only for TIM1
1120:n32g430_std_periph_driver/src/n32g430_tim.c **** **/
1121:n32g430_std_periph_driver/src/n32g430_tim.c **** void TIM_Compare8_Set(TIM_Module* TIMx, uint16_t compare8)
1122:n32g430_std_periph_driver/src/n32g430_tim.c **** {
 1611              		.loc 1 1122 1 is_stmt 1 view -0
 1612              		.cfi_startproc
 1613              		@ args = 0, pretend = 0, frame = 0
 1614              		@ frame_needed = 0, uses_anonymous_args = 0
 1615              		@ link register save eliminated.
1123:n32g430_std_periph_driver/src/n32g430_tim.c ****     TIMx->CCDAT8 = compare8;
 1616              		.loc 1 1123 5 view .LVU400
 1617              		.loc 1 1123 18 is_stmt 0 view .LVU401
 1618 0000 A0F86410 		strh	r1, [r0, #100]	@ movhi
1124:n32g430_std_periph_driver/src/n32g430_tim.c **** }
 1619              		.loc 1 1124 1 view .LVU402
 1620 0004 7047     		bx	lr
 1621              		.cfi_endproc
 1622              	.LFE171:
 1624              		.section	.text.TIM_Compare9_Set,"ax",%progbits
 1625              		.align	1
 1626              		.global	TIM_Compare9_Set
 1627              		.syntax unified
 1628              		.thumb
ARM GAS  C:\Users\Dawn\AppData\Local\Temp\ccf7B1Wd.s 			page 48


 1629              		.thumb_func
 1631              	TIM_Compare9_Set:
 1632              	.LVL112:
 1633              	.LFB172:
1125:n32g430_std_periph_driver/src/n32g430_tim.c **** 
1126:n32g430_std_periph_driver/src/n32g430_tim.c **** /**
1127:n32g430_std_periph_driver/src/n32g430_tim.c **** *\*\name    TIM_Compare9_Set
1128:n32g430_std_periph_driver/src/n32g430_tim.c **** *\*\fun     Sets the TIMx Capture compare9 Register value
1129:n32g430_std_periph_driver/src/n32g430_tim.c **** *\*\param   TIMx
1130:n32g430_std_periph_driver/src/n32g430_tim.c **** *\*\          - TIM1
1131:n32g430_std_periph_driver/src/n32g430_tim.c **** *\*\param   compare9:
1132:n32g430_std_periph_driver/src/n32g430_tim.c **** *\*\          - [0,0xffff]
1133:n32g430_std_periph_driver/src/n32g430_tim.c **** *\*\return  none
1134:n32g430_std_periph_driver/src/n32g430_tim.c **** *\*\note    only for TIM1
1135:n32g430_std_periph_driver/src/n32g430_tim.c **** **/
1136:n32g430_std_periph_driver/src/n32g430_tim.c **** void TIM_Compare9_Set(TIM_Module* TIMx, uint16_t compare9)
1137:n32g430_std_periph_driver/src/n32g430_tim.c **** {
 1634              		.loc 1 1137 1 is_stmt 1 view -0
 1635              		.cfi_startproc
 1636              		@ args = 0, pretend = 0, frame = 0
 1637              		@ frame_needed = 0, uses_anonymous_args = 0
 1638              		@ link register save eliminated.
1138:n32g430_std_periph_driver/src/n32g430_tim.c ****     TIMx->CCDAT9 = compare9;
 1639              		.loc 1 1138 5 view .LVU404
 1640              		.loc 1 1138 18 is_stmt 0 view .LVU405
 1641 0000 A0F86810 		strh	r1, [r0, #104]	@ movhi
1139:n32g430_std_periph_driver/src/n32g430_tim.c **** }
 1642              		.loc 1 1139 1 view .LVU406
 1643 0004 7047     		bx	lr
 1644              		.cfi_endproc
 1645              	.LFE172:
 1647              		.section	.text.TIM_Compare1_D_Set,"ax",%progbits
 1648              		.align	1
 1649              		.global	TIM_Compare1_D_Set
 1650              		.syntax unified
 1651              		.thumb
 1652              		.thumb_func
 1654              	TIM_Compare1_D_Set:
 1655              	.LVL113:
 1656              	.LFB173:
1140:n32g430_std_periph_driver/src/n32g430_tim.c **** 
1141:n32g430_std_periph_driver/src/n32g430_tim.c **** /**
1142:n32g430_std_periph_driver/src/n32g430_tim.c **** *\*\name    TIM_Compare1_D_Set
1143:n32g430_std_periph_driver/src/n32g430_tim.c **** *\*\fun     Sets the CCDDAT1[16:31] in TIM1_CCDAT1 register
1144:n32g430_std_periph_driver/src/n32g430_tim.c **** *\*\param   TIMx
1145:n32g430_std_periph_driver/src/n32g430_tim.c **** *\*\          - TIM1
1146:n32g430_std_periph_driver/src/n32g430_tim.c **** *\*\param   compare1:
1147:n32g430_std_periph_driver/src/n32g430_tim.c **** *\*\          - [0,0xffff]
1148:n32g430_std_periph_driver/src/n32g430_tim.c **** *\*\return  none
1149:n32g430_std_periph_driver/src/n32g430_tim.c **** *\*\note    only for TIM1
1150:n32g430_std_periph_driver/src/n32g430_tim.c **** **/
1151:n32g430_std_periph_driver/src/n32g430_tim.c **** void TIM_Compare1_D_Set(TIM_Module* TIMx, uint16_t compare1)
1152:n32g430_std_periph_driver/src/n32g430_tim.c **** {
 1657              		.loc 1 1152 1 is_stmt 1 view -0
 1658              		.cfi_startproc
 1659              		@ args = 0, pretend = 0, frame = 0
 1660              		@ frame_needed = 0, uses_anonymous_args = 0
ARM GAS  C:\Users\Dawn\AppData\Local\Temp\ccf7B1Wd.s 			page 49


 1661              		@ link register save eliminated.
1153:n32g430_std_periph_driver/src/n32g430_tim.c ****     uint32_t temp_value = TIMx->CCDAT1;
 1662              		.loc 1 1153 5 view .LVU408
 1663              		.loc 1 1153 14 is_stmt 0 view .LVU409
 1664 0000 436B     		ldr	r3, [r0, #52]
 1665              	.LVL114:
1154:n32g430_std_periph_driver/src/n32g430_tim.c ****     temp_value &= (uint32_t)(~TIM_CCDDAT1_MASK);
 1666              		.loc 1 1154 5 is_stmt 1 view .LVU410
 1667              		.loc 1 1154 16 is_stmt 0 view .LVU411
 1668 0002 9BB2     		uxth	r3, r3
 1669              	.LVL115:
1155:n32g430_std_periph_driver/src/n32g430_tim.c ****     temp_value |= (((uint32_t)compare1) << TIM_CCDDAT1_OFFSET);
 1670              		.loc 1 1155 5 is_stmt 1 view .LVU412
 1671              		.loc 1 1155 16 is_stmt 0 view .LVU413
 1672 0004 43EA0143 		orr	r3, r3, r1, lsl #16
 1673              	.LVL116:
1156:n32g430_std_periph_driver/src/n32g430_tim.c ****     TIMx->CCDAT1 = temp_value;
 1674              		.loc 1 1156 5 is_stmt 1 view .LVU414
 1675              		.loc 1 1156 18 is_stmt 0 view .LVU415
 1676 0008 4363     		str	r3, [r0, #52]
1157:n32g430_std_periph_driver/src/n32g430_tim.c **** }
 1677              		.loc 1 1157 1 view .LVU416
 1678 000a 7047     		bx	lr
 1679              		.cfi_endproc
 1680              	.LFE173:
 1682              		.section	.text.TIM_Compare2_D_Set,"ax",%progbits
 1683              		.align	1
 1684              		.global	TIM_Compare2_D_Set
 1685              		.syntax unified
 1686              		.thumb
 1687              		.thumb_func
 1689              	TIM_Compare2_D_Set:
 1690              	.LVL117:
 1691              	.LFB174:
1158:n32g430_std_periph_driver/src/n32g430_tim.c **** 
1159:n32g430_std_periph_driver/src/n32g430_tim.c **** /**
1160:n32g430_std_periph_driver/src/n32g430_tim.c **** *\*\name    TIM_Compare2_D_Set
1161:n32g430_std_periph_driver/src/n32g430_tim.c **** *\*\fun     Sets the CCDDAT2[16:31] in TIM1_CCDAT2 register
1162:n32g430_std_periph_driver/src/n32g430_tim.c **** *\*\param   TIMx
1163:n32g430_std_periph_driver/src/n32g430_tim.c **** *\*\          - TIM1
1164:n32g430_std_periph_driver/src/n32g430_tim.c **** *\*\param   compare2:
1165:n32g430_std_periph_driver/src/n32g430_tim.c **** *\*\          - [0,0xffff]
1166:n32g430_std_periph_driver/src/n32g430_tim.c **** *\*\return  none
1167:n32g430_std_periph_driver/src/n32g430_tim.c **** *\*\note    only for TIM1
1168:n32g430_std_periph_driver/src/n32g430_tim.c **** **/
1169:n32g430_std_periph_driver/src/n32g430_tim.c **** void TIM_Compare2_D_Set(TIM_Module* TIMx, uint16_t compare2)
1170:n32g430_std_periph_driver/src/n32g430_tim.c **** {
 1692              		.loc 1 1170 1 is_stmt 1 view -0
 1693              		.cfi_startproc
 1694              		@ args = 0, pretend = 0, frame = 0
 1695              		@ frame_needed = 0, uses_anonymous_args = 0
 1696              		@ link register save eliminated.
1171:n32g430_std_periph_driver/src/n32g430_tim.c ****     uint32_t temp_value = TIMx->CCDAT2;
 1697              		.loc 1 1171 5 view .LVU418
 1698              		.loc 1 1171 14 is_stmt 0 view .LVU419
 1699 0000 836B     		ldr	r3, [r0, #56]
 1700              	.LVL118:
ARM GAS  C:\Users\Dawn\AppData\Local\Temp\ccf7B1Wd.s 			page 50


1172:n32g430_std_periph_driver/src/n32g430_tim.c ****     temp_value &= (uint32_t)(~TIM_CCDDAT2_MASK);
 1701              		.loc 1 1172 5 is_stmt 1 view .LVU420
 1702              		.loc 1 1172 16 is_stmt 0 view .LVU421
 1703 0002 9BB2     		uxth	r3, r3
 1704              	.LVL119:
1173:n32g430_std_periph_driver/src/n32g430_tim.c ****     temp_value |= (((uint32_t)compare2) << TIM_CCDDAT2_OFFSET);
 1705              		.loc 1 1173 5 is_stmt 1 view .LVU422
 1706              		.loc 1 1173 16 is_stmt 0 view .LVU423
 1707 0004 43EA0143 		orr	r3, r3, r1, lsl #16
 1708              	.LVL120:
1174:n32g430_std_periph_driver/src/n32g430_tim.c ****     TIMx->CCDAT2 = temp_value;
 1709              		.loc 1 1174 5 is_stmt 1 view .LVU424
 1710              		.loc 1 1174 18 is_stmt 0 view .LVU425
 1711 0008 8363     		str	r3, [r0, #56]
1175:n32g430_std_periph_driver/src/n32g430_tim.c **** }
 1712              		.loc 1 1175 1 view .LVU426
 1713 000a 7047     		bx	lr
 1714              		.cfi_endproc
 1715              	.LFE174:
 1717              		.section	.text.TIM_Compare3_D_Set,"ax",%progbits
 1718              		.align	1
 1719              		.global	TIM_Compare3_D_Set
 1720              		.syntax unified
 1721              		.thumb
 1722              		.thumb_func
 1724              	TIM_Compare3_D_Set:
 1725              	.LVL121:
 1726              	.LFB175:
1176:n32g430_std_periph_driver/src/n32g430_tim.c **** 
1177:n32g430_std_periph_driver/src/n32g430_tim.c **** /**
1178:n32g430_std_periph_driver/src/n32g430_tim.c **** *\*\name    TIM_Compare3_D_Set
1179:n32g430_std_periph_driver/src/n32g430_tim.c **** *\*\fun     Sets the CCDDAT3[16:31] in TIM1_CCDAT3 register
1180:n32g430_std_periph_driver/src/n32g430_tim.c **** *\*\param   TIMx
1181:n32g430_std_periph_driver/src/n32g430_tim.c **** *\*\          - TIM1
1182:n32g430_std_periph_driver/src/n32g430_tim.c **** *\*\param   compare3:
1183:n32g430_std_periph_driver/src/n32g430_tim.c **** *\*\          - [0,0xffff]
1184:n32g430_std_periph_driver/src/n32g430_tim.c **** *\*\return  none
1185:n32g430_std_periph_driver/src/n32g430_tim.c **** *\*\note    only for TIM1
1186:n32g430_std_periph_driver/src/n32g430_tim.c **** **/
1187:n32g430_std_periph_driver/src/n32g430_tim.c **** void TIM_Compare3_D_Set(TIM_Module* TIMx, uint16_t compare3)
1188:n32g430_std_periph_driver/src/n32g430_tim.c **** {
 1727              		.loc 1 1188 1 is_stmt 1 view -0
 1728              		.cfi_startproc
 1729              		@ args = 0, pretend = 0, frame = 0
 1730              		@ frame_needed = 0, uses_anonymous_args = 0
 1731              		@ link register save eliminated.
1189:n32g430_std_periph_driver/src/n32g430_tim.c ****     uint32_t temp_value = TIMx->CCDAT3;
 1732              		.loc 1 1189 5 view .LVU428
 1733              		.loc 1 1189 14 is_stmt 0 view .LVU429
 1734 0000 C36B     		ldr	r3, [r0, #60]
 1735              	.LVL122:
1190:n32g430_std_periph_driver/src/n32g430_tim.c ****     temp_value &= (uint32_t)(~TIM_CCDDAT3_MASK);
 1736              		.loc 1 1190 5 is_stmt 1 view .LVU430
 1737              		.loc 1 1190 16 is_stmt 0 view .LVU431
 1738 0002 9BB2     		uxth	r3, r3
 1739              	.LVL123:
1191:n32g430_std_periph_driver/src/n32g430_tim.c ****     temp_value |= (((uint32_t)compare3) << TIM_CCDDAT3_OFFSET);
ARM GAS  C:\Users\Dawn\AppData\Local\Temp\ccf7B1Wd.s 			page 51


 1740              		.loc 1 1191 5 is_stmt 1 view .LVU432
 1741              		.loc 1 1191 16 is_stmt 0 view .LVU433
 1742 0004 43EA0143 		orr	r3, r3, r1, lsl #16
 1743              	.LVL124:
1192:n32g430_std_periph_driver/src/n32g430_tim.c ****     TIMx->CCDAT3 = temp_value;
 1744              		.loc 1 1192 5 is_stmt 1 view .LVU434
 1745              		.loc 1 1192 18 is_stmt 0 view .LVU435
 1746 0008 C363     		str	r3, [r0, #60]
1193:n32g430_std_periph_driver/src/n32g430_tim.c **** }
 1747              		.loc 1 1193 1 view .LVU436
 1748 000a 7047     		bx	lr
 1749              		.cfi_endproc
 1750              	.LFE175:
 1752              		.section	.text.TIM_Compare4_D_Set,"ax",%progbits
 1753              		.align	1
 1754              		.global	TIM_Compare4_D_Set
 1755              		.syntax unified
 1756              		.thumb
 1757              		.thumb_func
 1759              	TIM_Compare4_D_Set:
 1760              	.LVL125:
 1761              	.LFB176:
1194:n32g430_std_periph_driver/src/n32g430_tim.c **** 
1195:n32g430_std_periph_driver/src/n32g430_tim.c **** /**
1196:n32g430_std_periph_driver/src/n32g430_tim.c **** *\*\name    TIM_Compare4_D_Set
1197:n32g430_std_periph_driver/src/n32g430_tim.c **** *\*\fun     Sets the CCDDAT4[16:31] in TIM1_CCDAT4 register
1198:n32g430_std_periph_driver/src/n32g430_tim.c **** *\*\param   TIMx
1199:n32g430_std_periph_driver/src/n32g430_tim.c **** *\*\          - TIM1
1200:n32g430_std_periph_driver/src/n32g430_tim.c **** *\*\param   compare4:
1201:n32g430_std_periph_driver/src/n32g430_tim.c **** *\*\          - [0,0xffff]
1202:n32g430_std_periph_driver/src/n32g430_tim.c **** *\*\return  none
1203:n32g430_std_periph_driver/src/n32g430_tim.c **** *\*\note    only for TIM1
1204:n32g430_std_periph_driver/src/n32g430_tim.c **** **/
1205:n32g430_std_periph_driver/src/n32g430_tim.c **** void TIM_Compare4_D_Set(TIM_Module* TIMx, uint16_t compare4)
1206:n32g430_std_periph_driver/src/n32g430_tim.c **** {
 1762              		.loc 1 1206 1 is_stmt 1 view -0
 1763              		.cfi_startproc
 1764              		@ args = 0, pretend = 0, frame = 0
 1765              		@ frame_needed = 0, uses_anonymous_args = 0
 1766              		@ link register save eliminated.
1207:n32g430_std_periph_driver/src/n32g430_tim.c ****     uint32_t temp_value = TIMx->CCDAT4;
 1767              		.loc 1 1207 5 view .LVU438
 1768              		.loc 1 1207 14 is_stmt 0 view .LVU439
 1769 0000 036C     		ldr	r3, [r0, #64]
 1770              	.LVL126:
1208:n32g430_std_periph_driver/src/n32g430_tim.c ****     temp_value &= (uint32_t)(~TIM_CCDDAT4_MASK);
 1771              		.loc 1 1208 5 is_stmt 1 view .LVU440
 1772              		.loc 1 1208 16 is_stmt 0 view .LVU441
 1773 0002 9BB2     		uxth	r3, r3
 1774              	.LVL127:
1209:n32g430_std_periph_driver/src/n32g430_tim.c ****     temp_value |= (((uint32_t)compare4) << TIM_CCDDAT4_OFFSET);
 1775              		.loc 1 1209 5 is_stmt 1 view .LVU442
 1776              		.loc 1 1209 16 is_stmt 0 view .LVU443
 1777 0004 43EA0143 		orr	r3, r3, r1, lsl #16
 1778              	.LVL128:
1210:n32g430_std_periph_driver/src/n32g430_tim.c ****     TIMx->CCDAT4 = temp_value;
 1779              		.loc 1 1210 5 is_stmt 1 view .LVU444
ARM GAS  C:\Users\Dawn\AppData\Local\Temp\ccf7B1Wd.s 			page 52


 1780              		.loc 1 1210 18 is_stmt 0 view .LVU445
 1781 0008 0364     		str	r3, [r0, #64]
1211:n32g430_std_periph_driver/src/n32g430_tim.c **** }
 1782              		.loc 1 1211 1 view .LVU446
 1783 000a 7047     		bx	lr
 1784              		.cfi_endproc
 1785              	.LFE176:
 1787              		.section	.text.TIM_Compare_Capture1_Get,"ax",%progbits
 1788              		.align	1
 1789              		.global	TIM_Compare_Capture1_Get
 1790              		.syntax unified
 1791              		.thumb
 1792              		.thumb_func
 1794              	TIM_Compare_Capture1_Get:
 1795              	.LVL129:
 1796              	.LFB177:
1212:n32g430_std_periph_driver/src/n32g430_tim.c **** 
1213:n32g430_std_periph_driver/src/n32g430_tim.c **** /**
1214:n32g430_std_periph_driver/src/n32g430_tim.c **** *\*\name    TIM_Compare_Capture1_Get 
1215:n32g430_std_periph_driver/src/n32g430_tim.c **** *\*\fun     Get the TIMx compare1 Register value
1216:n32g430_std_periph_driver/src/n32g430_tim.c **** *\*\param   TIMx:
1217:n32g430_std_periph_driver/src/n32g430_tim.c **** *\*\          - TIM1
1218:n32g430_std_periph_driver/src/n32g430_tim.c **** *\*\          - TIM2
1219:n32g430_std_periph_driver/src/n32g430_tim.c **** *\*\          - TIM3
1220:n32g430_std_periph_driver/src/n32g430_tim.c **** *\*\          - TIM4
1221:n32g430_std_periph_driver/src/n32g430_tim.c **** *\*\          - TIM5
1222:n32g430_std_periph_driver/src/n32g430_tim.c **** *\*\          - TIM8
1223:n32g430_std_periph_driver/src/n32g430_tim.c **** *\*\return  uin16_t:
1224:n32g430_std_periph_driver/src/n32g430_tim.c **** *\*\          - [0 , 0xffff]
1225:n32g430_std_periph_driver/src/n32g430_tim.c **** **/
1226:n32g430_std_periph_driver/src/n32g430_tim.c **** uint16_t TIM_Compare_Capture1_Get(TIM_Module* TIMx)
1227:n32g430_std_periph_driver/src/n32g430_tim.c **** {
 1797              		.loc 1 1227 1 is_stmt 1 view -0
 1798              		.cfi_startproc
 1799              		@ args = 0, pretend = 0, frame = 0
 1800              		@ frame_needed = 0, uses_anonymous_args = 0
 1801              		@ link register save eliminated.
1228:n32g430_std_periph_driver/src/n32g430_tim.c ****     return (uint16_t)(TIMx->CCDAT1);
 1802              		.loc 1 1228 5 view .LVU448
 1803              		.loc 1 1228 27 is_stmt 0 view .LVU449
 1804 0000 406B     		ldr	r0, [r0, #52]
 1805              	.LVL130:
1229:n32g430_std_periph_driver/src/n32g430_tim.c **** }
 1806              		.loc 1 1229 1 view .LVU450
 1807 0002 80B2     		uxth	r0, r0
 1808 0004 7047     		bx	lr
 1809              		.cfi_endproc
 1810              	.LFE177:
 1812              		.section	.text.TIM_Compare_Capture2_Get,"ax",%progbits
 1813              		.align	1
 1814              		.global	TIM_Compare_Capture2_Get
 1815              		.syntax unified
 1816              		.thumb
 1817              		.thumb_func
 1819              	TIM_Compare_Capture2_Get:
 1820              	.LVL131:
 1821              	.LFB178:
ARM GAS  C:\Users\Dawn\AppData\Local\Temp\ccf7B1Wd.s 			page 53


1230:n32g430_std_periph_driver/src/n32g430_tim.c **** 
1231:n32g430_std_periph_driver/src/n32g430_tim.c **** /**
1232:n32g430_std_periph_driver/src/n32g430_tim.c **** *\*\name    TIM_Compare_Capture2_Get 
1233:n32g430_std_periph_driver/src/n32g430_tim.c **** *\*\fun     Get the TIMx Compare2 Register value
1234:n32g430_std_periph_driver/src/n32g430_tim.c **** *\*\param   TIMx:
1235:n32g430_std_periph_driver/src/n32g430_tim.c **** *\*\          - TIM1
1236:n32g430_std_periph_driver/src/n32g430_tim.c **** *\*\          - TIM2
1237:n32g430_std_periph_driver/src/n32g430_tim.c **** *\*\          - TIM3
1238:n32g430_std_periph_driver/src/n32g430_tim.c **** *\*\          - TIM4
1239:n32g430_std_periph_driver/src/n32g430_tim.c **** *\*\          - TIM5
1240:n32g430_std_periph_driver/src/n32g430_tim.c **** *\*\          - TIM8
1241:n32g430_std_periph_driver/src/n32g430_tim.c **** *\*\return  uin16_t:
1242:n32g430_std_periph_driver/src/n32g430_tim.c **** *\*\          - [0 , 0xffff]
1243:n32g430_std_periph_driver/src/n32g430_tim.c **** **/
1244:n32g430_std_periph_driver/src/n32g430_tim.c **** uint16_t TIM_Compare_Capture2_Get(TIM_Module* TIMx)
1245:n32g430_std_periph_driver/src/n32g430_tim.c **** {
 1822              		.loc 1 1245 1 is_stmt 1 view -0
 1823              		.cfi_startproc
 1824              		@ args = 0, pretend = 0, frame = 0
 1825              		@ frame_needed = 0, uses_anonymous_args = 0
 1826              		@ link register save eliminated.
1246:n32g430_std_periph_driver/src/n32g430_tim.c ****     return (uint16_t)(TIMx->CCDAT2);
 1827              		.loc 1 1246 5 view .LVU452
 1828              		.loc 1 1246 27 is_stmt 0 view .LVU453
 1829 0000 806B     		ldr	r0, [r0, #56]
 1830              	.LVL132:
1247:n32g430_std_periph_driver/src/n32g430_tim.c **** }
 1831              		.loc 1 1247 1 view .LVU454
 1832 0002 80B2     		uxth	r0, r0
 1833 0004 7047     		bx	lr
 1834              		.cfi_endproc
 1835              	.LFE178:
 1837              		.section	.text.TIM_Compare_Capture3_Get,"ax",%progbits
 1838              		.align	1
 1839              		.global	TIM_Compare_Capture3_Get
 1840              		.syntax unified
 1841              		.thumb
 1842              		.thumb_func
 1844              	TIM_Compare_Capture3_Get:
 1845              	.LVL133:
 1846              	.LFB179:
1248:n32g430_std_periph_driver/src/n32g430_tim.c **** 
1249:n32g430_std_periph_driver/src/n32g430_tim.c **** /**
1250:n32g430_std_periph_driver/src/n32g430_tim.c **** *\*\name    TIM_Compare_Capture3_Get 
1251:n32g430_std_periph_driver/src/n32g430_tim.c **** *\*\fun     Get the TIMx Compare3 Register value
1252:n32g430_std_periph_driver/src/n32g430_tim.c **** *\*\param   TIMx:
1253:n32g430_std_periph_driver/src/n32g430_tim.c **** *\*\          - TIM1
1254:n32g430_std_periph_driver/src/n32g430_tim.c **** *\*\          - TIM2
1255:n32g430_std_periph_driver/src/n32g430_tim.c **** *\*\          - TIM3
1256:n32g430_std_periph_driver/src/n32g430_tim.c **** *\*\          - TIM4
1257:n32g430_std_periph_driver/src/n32g430_tim.c **** *\*\          - TIM5
1258:n32g430_std_periph_driver/src/n32g430_tim.c **** *\*\          - TIM8
1259:n32g430_std_periph_driver/src/n32g430_tim.c **** *\*\return  uin16_t:
1260:n32g430_std_periph_driver/src/n32g430_tim.c **** *\*\          - [0 , 0xffff]
1261:n32g430_std_periph_driver/src/n32g430_tim.c **** **/
1262:n32g430_std_periph_driver/src/n32g430_tim.c **** uint16_t TIM_Compare_Capture3_Get(TIM_Module* TIMx)
1263:n32g430_std_periph_driver/src/n32g430_tim.c **** {
ARM GAS  C:\Users\Dawn\AppData\Local\Temp\ccf7B1Wd.s 			page 54


 1847              		.loc 1 1263 1 is_stmt 1 view -0
 1848              		.cfi_startproc
 1849              		@ args = 0, pretend = 0, frame = 0
 1850              		@ frame_needed = 0, uses_anonymous_args = 0
 1851              		@ link register save eliminated.
1264:n32g430_std_periph_driver/src/n32g430_tim.c ****     return (uint16_t)(TIMx->CCDAT3);
 1852              		.loc 1 1264 5 view .LVU456
 1853              		.loc 1 1264 27 is_stmt 0 view .LVU457
 1854 0000 C06B     		ldr	r0, [r0, #60]
 1855              	.LVL134:
1265:n32g430_std_periph_driver/src/n32g430_tim.c **** }
 1856              		.loc 1 1265 1 view .LVU458
 1857 0002 80B2     		uxth	r0, r0
 1858 0004 7047     		bx	lr
 1859              		.cfi_endproc
 1860              	.LFE179:
 1862              		.section	.text.TIM_Compare_Capture4_Get,"ax",%progbits
 1863              		.align	1
 1864              		.global	TIM_Compare_Capture4_Get
 1865              		.syntax unified
 1866              		.thumb
 1867              		.thumb_func
 1869              	TIM_Compare_Capture4_Get:
 1870              	.LVL135:
 1871              	.LFB180:
1266:n32g430_std_periph_driver/src/n32g430_tim.c **** 
1267:n32g430_std_periph_driver/src/n32g430_tim.c **** /**
1268:n32g430_std_periph_driver/src/n32g430_tim.c **** *\*\name    TIM_Compare_Capture4_Get 
1269:n32g430_std_periph_driver/src/n32g430_tim.c **** *\*\fun     Get the TIMx Compare4 Register value
1270:n32g430_std_periph_driver/src/n32g430_tim.c **** *\*\param   TIMx:
1271:n32g430_std_periph_driver/src/n32g430_tim.c **** *\*\          - TIM1
1272:n32g430_std_periph_driver/src/n32g430_tim.c **** *\*\          - TIM2
1273:n32g430_std_periph_driver/src/n32g430_tim.c **** *\*\          - TIM3
1274:n32g430_std_periph_driver/src/n32g430_tim.c **** *\*\          - TIM4
1275:n32g430_std_periph_driver/src/n32g430_tim.c **** *\*\          - TIM5
1276:n32g430_std_periph_driver/src/n32g430_tim.c **** *\*\          - TIM8
1277:n32g430_std_periph_driver/src/n32g430_tim.c **** *\*\return  uin16_t:
1278:n32g430_std_periph_driver/src/n32g430_tim.c **** *\*\          - [0 , 0xffff]
1279:n32g430_std_periph_driver/src/n32g430_tim.c **** **/
1280:n32g430_std_periph_driver/src/n32g430_tim.c **** uint16_t TIM_Compare_Capture4_Get(TIM_Module* TIMx)
1281:n32g430_std_periph_driver/src/n32g430_tim.c **** {
 1872              		.loc 1 1281 1 is_stmt 1 view -0
 1873              		.cfi_startproc
 1874              		@ args = 0, pretend = 0, frame = 0
 1875              		@ frame_needed = 0, uses_anonymous_args = 0
 1876              		@ link register save eliminated.
1282:n32g430_std_periph_driver/src/n32g430_tim.c ****     return (uint16_t)(TIMx->CCDAT4);
 1877              		.loc 1 1282 5 view .LVU460
 1878              		.loc 1 1282 27 is_stmt 0 view .LVU461
 1879 0000 006C     		ldr	r0, [r0, #64]
 1880              	.LVL136:
1283:n32g430_std_periph_driver/src/n32g430_tim.c **** }
 1881              		.loc 1 1283 1 view .LVU462
 1882 0002 80B2     		uxth	r0, r0
 1883 0004 7047     		bx	lr
 1884              		.cfi_endproc
 1885              	.LFE180:
ARM GAS  C:\Users\Dawn\AppData\Local\Temp\ccf7B1Wd.s 			page 55


 1887              		.section	.text.TIM_Compare_Capture5_Get,"ax",%progbits
 1888              		.align	1
 1889              		.global	TIM_Compare_Capture5_Get
 1890              		.syntax unified
 1891              		.thumb
 1892              		.thumb_func
 1894              	TIM_Compare_Capture5_Get:
 1895              	.LVL137:
 1896              	.LFB181:
1284:n32g430_std_periph_driver/src/n32g430_tim.c **** 
1285:n32g430_std_periph_driver/src/n32g430_tim.c **** /**
1286:n32g430_std_periph_driver/src/n32g430_tim.c **** *\*\name    TIM_Compare_Capture5_Get 
1287:n32g430_std_periph_driver/src/n32g430_tim.c **** *\*\fun     Get the TIMx Compare5 Register value
1288:n32g430_std_periph_driver/src/n32g430_tim.c **** *\*\param   TIMx:
1289:n32g430_std_periph_driver/src/n32g430_tim.c **** *\*\          - TIM1
1290:n32g430_std_periph_driver/src/n32g430_tim.c **** *\*\          - TIM8
1291:n32g430_std_periph_driver/src/n32g430_tim.c **** *\*\return  uin16_t:
1292:n32g430_std_periph_driver/src/n32g430_tim.c **** *\*\          - [0 , 0xffff]
1293:n32g430_std_periph_driver/src/n32g430_tim.c **** **/
1294:n32g430_std_periph_driver/src/n32g430_tim.c **** uint16_t TIM_Compare_Capture5_Get(TIM_Module* TIMx)
1295:n32g430_std_periph_driver/src/n32g430_tim.c **** {
 1897              		.loc 1 1295 1 is_stmt 1 view -0
 1898              		.cfi_startproc
 1899              		@ args = 0, pretend = 0, frame = 0
 1900              		@ frame_needed = 0, uses_anonymous_args = 0
 1901              		@ link register save eliminated.
1296:n32g430_std_periph_driver/src/n32g430_tim.c ****     return TIMx->CCDAT5;
 1902              		.loc 1 1296 5 view .LVU464
 1903              		.loc 1 1296 16 is_stmt 0 view .LVU465
 1904 0000 B0F85800 		ldrh	r0, [r0, #88]
 1905              	.LVL138:
1297:n32g430_std_periph_driver/src/n32g430_tim.c **** }
 1906              		.loc 1 1297 1 view .LVU466
 1907 0004 80B2     		uxth	r0, r0
 1908 0006 7047     		bx	lr
 1909              		.cfi_endproc
 1910              	.LFE181:
 1912              		.section	.text.TIM_Compare_Capture6_Get,"ax",%progbits
 1913              		.align	1
 1914              		.global	TIM_Compare_Capture6_Get
 1915              		.syntax unified
 1916              		.thumb
 1917              		.thumb_func
 1919              	TIM_Compare_Capture6_Get:
 1920              	.LVL139:
 1921              	.LFB182:
1298:n32g430_std_periph_driver/src/n32g430_tim.c **** 
1299:n32g430_std_periph_driver/src/n32g430_tim.c **** /**
1300:n32g430_std_periph_driver/src/n32g430_tim.c **** *\*\name    TIM_Compare_Capture6_Get
1301:n32g430_std_periph_driver/src/n32g430_tim.c **** *\*\fun     Get the TIMx Compare6 Register value
1302:n32g430_std_periph_driver/src/n32g430_tim.c **** *\*\param   TIMx:
1303:n32g430_std_periph_driver/src/n32g430_tim.c **** *\*\          - TIM1
1304:n32g430_std_periph_driver/src/n32g430_tim.c **** *\*\          - TIM8
1305:n32g430_std_periph_driver/src/n32g430_tim.c **** *\*\return  uin16_t:
1306:n32g430_std_periph_driver/src/n32g430_tim.c **** *\*\          - [0 , 0xffff]
1307:n32g430_std_periph_driver/src/n32g430_tim.c **** **/
1308:n32g430_std_periph_driver/src/n32g430_tim.c **** uint16_t TIM_Compare_Capture6_Get(TIM_Module* TIMx)
ARM GAS  C:\Users\Dawn\AppData\Local\Temp\ccf7B1Wd.s 			page 56


1309:n32g430_std_periph_driver/src/n32g430_tim.c **** {
 1922              		.loc 1 1309 1 is_stmt 1 view -0
 1923              		.cfi_startproc
 1924              		@ args = 0, pretend = 0, frame = 0
 1925              		@ frame_needed = 0, uses_anonymous_args = 0
 1926              		@ link register save eliminated.
1310:n32g430_std_periph_driver/src/n32g430_tim.c ****     return TIMx->CCDAT6;
 1927              		.loc 1 1310 5 view .LVU468
 1928              		.loc 1 1310 16 is_stmt 0 view .LVU469
 1929 0000 B0F85C00 		ldrh	r0, [r0, #92]
 1930              	.LVL140:
1311:n32g430_std_periph_driver/src/n32g430_tim.c **** }
 1931              		.loc 1 1311 1 view .LVU470
 1932 0004 80B2     		uxth	r0, r0
 1933 0006 7047     		bx	lr
 1934              		.cfi_endproc
 1935              	.LFE182:
 1937              		.section	.text.TIM_Compare_Capture7_Get,"ax",%progbits
 1938              		.align	1
 1939              		.global	TIM_Compare_Capture7_Get
 1940              		.syntax unified
 1941              		.thumb
 1942              		.thumb_func
 1944              	TIM_Compare_Capture7_Get:
 1945              	.LVL141:
 1946              	.LFB183:
1312:n32g430_std_periph_driver/src/n32g430_tim.c **** 
1313:n32g430_std_periph_driver/src/n32g430_tim.c **** /**
1314:n32g430_std_periph_driver/src/n32g430_tim.c **** *\*\name    TIM_Compare_Capture7_Get
1315:n32g430_std_periph_driver/src/n32g430_tim.c **** *\*\fun     Sets the TIMx Capture compare7 Register value
1316:n32g430_std_periph_driver/src/n32g430_tim.c **** *\*\param   TIMx:
1317:n32g430_std_periph_driver/src/n32g430_tim.c **** *\*\          - TIM1
1318:n32g430_std_periph_driver/src/n32g430_tim.c **** *\*\return  uint16_t:
1319:n32g430_std_periph_driver/src/n32g430_tim.c **** *\*\          - [0 , 0xffff]         
1320:n32g430_std_periph_driver/src/n32g430_tim.c **** *\*\note    only for TIM1
1321:n32g430_std_periph_driver/src/n32g430_tim.c **** **/
1322:n32g430_std_periph_driver/src/n32g430_tim.c **** uint16_t TIM_Compare_Capture7_Get(TIM_Module* TIMx)
1323:n32g430_std_periph_driver/src/n32g430_tim.c **** {
 1947              		.loc 1 1323 1 is_stmt 1 view -0
 1948              		.cfi_startproc
 1949              		@ args = 0, pretend = 0, frame = 0
 1950              		@ frame_needed = 0, uses_anonymous_args = 0
 1951              		@ link register save eliminated.
1324:n32g430_std_periph_driver/src/n32g430_tim.c ****     return TIMx->CCDAT7;
 1952              		.loc 1 1324 5 view .LVU472
 1953              		.loc 1 1324 16 is_stmt 0 view .LVU473
 1954 0000 B0F86000 		ldrh	r0, [r0, #96]
 1955              	.LVL142:
1325:n32g430_std_periph_driver/src/n32g430_tim.c **** }
 1956              		.loc 1 1325 1 view .LVU474
 1957 0004 80B2     		uxth	r0, r0
 1958 0006 7047     		bx	lr
 1959              		.cfi_endproc
 1960              	.LFE183:
 1962              		.section	.text.TIM_Compare_Capture8_Get,"ax",%progbits
 1963              		.align	1
 1964              		.global	TIM_Compare_Capture8_Get
ARM GAS  C:\Users\Dawn\AppData\Local\Temp\ccf7B1Wd.s 			page 57


 1965              		.syntax unified
 1966              		.thumb
 1967              		.thumb_func
 1969              	TIM_Compare_Capture8_Get:
 1970              	.LVL143:
 1971              	.LFB184:
1326:n32g430_std_periph_driver/src/n32g430_tim.c **** 
1327:n32g430_std_periph_driver/src/n32g430_tim.c **** /**
1328:n32g430_std_periph_driver/src/n32g430_tim.c **** *\*\name    TIM_Compare_Capture8_Get
1329:n32g430_std_periph_driver/src/n32g430_tim.c **** *\*\fun     Sets the TIMx Capture compare8 Register value
1330:n32g430_std_periph_driver/src/n32g430_tim.c **** *\*\param   TIMx:
1331:n32g430_std_periph_driver/src/n32g430_tim.c **** *\*\          - TIM1
1332:n32g430_std_periph_driver/src/n32g430_tim.c **** *\*\return  uint16_t:
1333:n32g430_std_periph_driver/src/n32g430_tim.c **** *\*\          - [0 , 0xffff]         
1334:n32g430_std_periph_driver/src/n32g430_tim.c **** *\*\note    only for TIM1
1335:n32g430_std_periph_driver/src/n32g430_tim.c **** **/
1336:n32g430_std_periph_driver/src/n32g430_tim.c **** uint16_t TIM_Compare_Capture8_Get(TIM_Module* TIMx)
1337:n32g430_std_periph_driver/src/n32g430_tim.c **** {
 1972              		.loc 1 1337 1 is_stmt 1 view -0
 1973              		.cfi_startproc
 1974              		@ args = 0, pretend = 0, frame = 0
 1975              		@ frame_needed = 0, uses_anonymous_args = 0
 1976              		@ link register save eliminated.
1338:n32g430_std_periph_driver/src/n32g430_tim.c ****     return TIMx->CCDAT8;
 1977              		.loc 1 1338 5 view .LVU476
 1978              		.loc 1 1338 16 is_stmt 0 view .LVU477
 1979 0000 B0F86400 		ldrh	r0, [r0, #100]
 1980              	.LVL144:
1339:n32g430_std_periph_driver/src/n32g430_tim.c **** }
 1981              		.loc 1 1339 1 view .LVU478
 1982 0004 80B2     		uxth	r0, r0
 1983 0006 7047     		bx	lr
 1984              		.cfi_endproc
 1985              	.LFE184:
 1987              		.section	.text.TIM_Compare_Capture9_Get,"ax",%progbits
 1988              		.align	1
 1989              		.global	TIM_Compare_Capture9_Get
 1990              		.syntax unified
 1991              		.thumb
 1992              		.thumb_func
 1994              	TIM_Compare_Capture9_Get:
 1995              	.LVL145:
 1996              	.LFB185:
1340:n32g430_std_periph_driver/src/n32g430_tim.c **** 
1341:n32g430_std_periph_driver/src/n32g430_tim.c **** /**
1342:n32g430_std_periph_driver/src/n32g430_tim.c **** *\*\name    TIM_Compare_Capture9_Get
1343:n32g430_std_periph_driver/src/n32g430_tim.c **** *\*\fun     Sets the TIMx Capture compare9 Register value
1344:n32g430_std_periph_driver/src/n32g430_tim.c **** *\*\param   TIMx:
1345:n32g430_std_periph_driver/src/n32g430_tim.c **** *\*\          - TIM1
1346:n32g430_std_periph_driver/src/n32g430_tim.c **** *\*\return  uint16_t:
1347:n32g430_std_periph_driver/src/n32g430_tim.c **** *\*\          - [0 , 0xffff]         
1348:n32g430_std_periph_driver/src/n32g430_tim.c **** *\*\note    only for TIM1
1349:n32g430_std_periph_driver/src/n32g430_tim.c **** **/
1350:n32g430_std_periph_driver/src/n32g430_tim.c **** uint16_t TIM_Compare_Capture9_Get(TIM_Module* TIMx)
1351:n32g430_std_periph_driver/src/n32g430_tim.c **** {
 1997              		.loc 1 1351 1 is_stmt 1 view -0
 1998              		.cfi_startproc
ARM GAS  C:\Users\Dawn\AppData\Local\Temp\ccf7B1Wd.s 			page 58


 1999              		@ args = 0, pretend = 0, frame = 0
 2000              		@ frame_needed = 0, uses_anonymous_args = 0
 2001              		@ link register save eliminated.
1352:n32g430_std_periph_driver/src/n32g430_tim.c ****     return TIMx->CCDAT9;
 2002              		.loc 1 1352 5 view .LVU480
 2003              		.loc 1 1352 16 is_stmt 0 view .LVU481
 2004 0000 B0F86800 		ldrh	r0, [r0, #104]
 2005              	.LVL146:
1353:n32g430_std_periph_driver/src/n32g430_tim.c **** }
 2006              		.loc 1 1353 1 view .LVU482
 2007 0004 80B2     		uxth	r0, r0
 2008 0006 7047     		bx	lr
 2009              		.cfi_endproc
 2010              	.LFE185:
 2012              		.section	.text.TIM_Compare_Capture1_D_Get,"ax",%progbits
 2013              		.align	1
 2014              		.global	TIM_Compare_Capture1_D_Get
 2015              		.syntax unified
 2016              		.thumb
 2017              		.thumb_func
 2019              	TIM_Compare_Capture1_D_Get:
 2020              	.LVL147:
 2021              	.LFB186:
1354:n32g430_std_periph_driver/src/n32g430_tim.c **** 
1355:n32g430_std_periph_driver/src/n32g430_tim.c **** /**
1356:n32g430_std_periph_driver/src/n32g430_tim.c **** *\*\name    TIM_Compare_Capture1_D_Get
1357:n32g430_std_periph_driver/src/n32g430_tim.c **** *\*\fun     Gets the CCDDAT1[16:31] in TIMx_CCDAT1 register
1358:n32g430_std_periph_driver/src/n32g430_tim.c **** *\*\param   TIMx:
1359:n32g430_std_periph_driver/src/n32g430_tim.c **** *\*\          - TIM1
1360:n32g430_std_periph_driver/src/n32g430_tim.c **** *\*\return  uint16_t:
1361:n32g430_std_periph_driver/src/n32g430_tim.c **** *\*\          - [0 , 0xffff]         
1362:n32g430_std_periph_driver/src/n32g430_tim.c **** *\*\note    only for TIM1
1363:n32g430_std_periph_driver/src/n32g430_tim.c **** **/
1364:n32g430_std_periph_driver/src/n32g430_tim.c **** uint16_t TIM_Compare_Capture1_D_Get(TIM_Module* TIMx)
1365:n32g430_std_periph_driver/src/n32g430_tim.c **** {
 2022              		.loc 1 1365 1 is_stmt 1 view -0
 2023              		.cfi_startproc
 2024              		@ args = 0, pretend = 0, frame = 0
 2025              		@ frame_needed = 0, uses_anonymous_args = 0
 2026              		@ link register save eliminated.
1366:n32g430_std_periph_driver/src/n32g430_tim.c ****     return (uint16_t)((TIMx->CCDAT1 & TIM_CCDDAT1_MASK) >> 16);
 2027              		.loc 1 1366 5 view .LVU484
 2028              		.loc 1 1366 28 is_stmt 0 view .LVU485
 2029 0000 406B     		ldr	r0, [r0, #52]
 2030              	.LVL148:
1367:n32g430_std_periph_driver/src/n32g430_tim.c **** }
 2031              		.loc 1 1367 1 view .LVU486
 2032 0002 000C     		lsrs	r0, r0, #16
 2033 0004 7047     		bx	lr
 2034              		.cfi_endproc
 2035              	.LFE186:
 2037              		.section	.text.TIM_Compare_Capture2_D_Get,"ax",%progbits
 2038              		.align	1
 2039              		.global	TIM_Compare_Capture2_D_Get
 2040              		.syntax unified
 2041              		.thumb
 2042              		.thumb_func
ARM GAS  C:\Users\Dawn\AppData\Local\Temp\ccf7B1Wd.s 			page 59


 2044              	TIM_Compare_Capture2_D_Get:
 2045              	.LVL149:
 2046              	.LFB187:
1368:n32g430_std_periph_driver/src/n32g430_tim.c **** 
1369:n32g430_std_periph_driver/src/n32g430_tim.c **** /**
1370:n32g430_std_periph_driver/src/n32g430_tim.c **** *\*\name    TIM_Compare_Capture2_D_Get
1371:n32g430_std_periph_driver/src/n32g430_tim.c **** *\*\fun     Gets the CCDDAT2[16:31] in TIMx_CCDAT2 register
1372:n32g430_std_periph_driver/src/n32g430_tim.c **** *\*\param   TIMx:
1373:n32g430_std_periph_driver/src/n32g430_tim.c **** *\*\          - TIM1
1374:n32g430_std_periph_driver/src/n32g430_tim.c **** *\*\return  uint16_t:
1375:n32g430_std_periph_driver/src/n32g430_tim.c **** *\*\          - [0 , 0xffff]         
1376:n32g430_std_periph_driver/src/n32g430_tim.c **** *\*\note    only for TIM1
1377:n32g430_std_periph_driver/src/n32g430_tim.c **** **/
1378:n32g430_std_periph_driver/src/n32g430_tim.c **** uint16_t TIM_Compare_Capture2_D_Get(TIM_Module* TIMx)
1379:n32g430_std_periph_driver/src/n32g430_tim.c **** {
 2047              		.loc 1 1379 1 is_stmt 1 view -0
 2048              		.cfi_startproc
 2049              		@ args = 0, pretend = 0, frame = 0
 2050              		@ frame_needed = 0, uses_anonymous_args = 0
 2051              		@ link register save eliminated.
1380:n32g430_std_periph_driver/src/n32g430_tim.c ****     return (uint16_t)((TIMx->CCDAT2 & TIM_CCDDAT2_MASK) >> 16);
 2052              		.loc 1 1380 5 view .LVU488
 2053              		.loc 1 1380 28 is_stmt 0 view .LVU489
 2054 0000 806B     		ldr	r0, [r0, #56]
 2055              	.LVL150:
1381:n32g430_std_periph_driver/src/n32g430_tim.c **** }
 2056              		.loc 1 1381 1 view .LVU490
 2057 0002 000C     		lsrs	r0, r0, #16
 2058 0004 7047     		bx	lr
 2059              		.cfi_endproc
 2060              	.LFE187:
 2062              		.section	.text.TIM_Compare_Capture3_D_Get,"ax",%progbits
 2063              		.align	1
 2064              		.global	TIM_Compare_Capture3_D_Get
 2065              		.syntax unified
 2066              		.thumb
 2067              		.thumb_func
 2069              	TIM_Compare_Capture3_D_Get:
 2070              	.LVL151:
 2071              	.LFB188:
1382:n32g430_std_periph_driver/src/n32g430_tim.c **** 
1383:n32g430_std_periph_driver/src/n32g430_tim.c **** /**
1384:n32g430_std_periph_driver/src/n32g430_tim.c **** *\*\name    TIM_Compare_Capture3_D_Get
1385:n32g430_std_periph_driver/src/n32g430_tim.c **** *\*\fun     Gets the CCDDAT3[16:31] in TIMx_CCDAT3 register
1386:n32g430_std_periph_driver/src/n32g430_tim.c **** *\*\param   TIMx:
1387:n32g430_std_periph_driver/src/n32g430_tim.c **** *\*\          - TIM1
1388:n32g430_std_periph_driver/src/n32g430_tim.c **** *\*\return  uint16_t:
1389:n32g430_std_periph_driver/src/n32g430_tim.c **** *\*\          - [0 , 0xffff]         
1390:n32g430_std_periph_driver/src/n32g430_tim.c **** *\*\note    only for TIM1
1391:n32g430_std_periph_driver/src/n32g430_tim.c **** **/
1392:n32g430_std_periph_driver/src/n32g430_tim.c **** uint16_t TIM_Compare_Capture3_D_Get(TIM_Module* TIMx)
1393:n32g430_std_periph_driver/src/n32g430_tim.c **** {
 2072              		.loc 1 1393 1 is_stmt 1 view -0
 2073              		.cfi_startproc
 2074              		@ args = 0, pretend = 0, frame = 0
 2075              		@ frame_needed = 0, uses_anonymous_args = 0
 2076              		@ link register save eliminated.
ARM GAS  C:\Users\Dawn\AppData\Local\Temp\ccf7B1Wd.s 			page 60


1394:n32g430_std_periph_driver/src/n32g430_tim.c ****     return (uint16_t)((TIMx->CCDAT3 & TIM_CCDDAT3_MASK) >> 16);
 2077              		.loc 1 1394 5 view .LVU492
 2078              		.loc 1 1394 28 is_stmt 0 view .LVU493
 2079 0000 C06B     		ldr	r0, [r0, #60]
 2080              	.LVL152:
1395:n32g430_std_periph_driver/src/n32g430_tim.c **** }
 2081              		.loc 1 1395 1 view .LVU494
 2082 0002 000C     		lsrs	r0, r0, #16
 2083 0004 7047     		bx	lr
 2084              		.cfi_endproc
 2085              	.LFE188:
 2087              		.section	.text.TIM_Compare_Capture4_D_Get,"ax",%progbits
 2088              		.align	1
 2089              		.global	TIM_Compare_Capture4_D_Get
 2090              		.syntax unified
 2091              		.thumb
 2092              		.thumb_func
 2094              	TIM_Compare_Capture4_D_Get:
 2095              	.LVL153:
 2096              	.LFB189:
1396:n32g430_std_periph_driver/src/n32g430_tim.c **** 
1397:n32g430_std_periph_driver/src/n32g430_tim.c **** /**
1398:n32g430_std_periph_driver/src/n32g430_tim.c **** *\*\name    TIM_Compare_Capture4_D_Get
1399:n32g430_std_periph_driver/src/n32g430_tim.c **** *\*\fun     Gets the CCDDAT4[16:31] in TIMx_CCDAT4 register
1400:n32g430_std_periph_driver/src/n32g430_tim.c **** *\*\param   TIMx:
1401:n32g430_std_periph_driver/src/n32g430_tim.c **** *\*\          - TIM1
1402:n32g430_std_periph_driver/src/n32g430_tim.c **** *\*\return  uint16_t:
1403:n32g430_std_periph_driver/src/n32g430_tim.c **** *\*\          - [0 , 0xffff]         
1404:n32g430_std_periph_driver/src/n32g430_tim.c **** *\*\note    only for TIM1
1405:n32g430_std_periph_driver/src/n32g430_tim.c **** **/
1406:n32g430_std_periph_driver/src/n32g430_tim.c **** uint16_t TIM_Compare_Capture4_D_Get(TIM_Module* TIMx)
1407:n32g430_std_periph_driver/src/n32g430_tim.c **** {
 2097              		.loc 1 1407 1 is_stmt 1 view -0
 2098              		.cfi_startproc
 2099              		@ args = 0, pretend = 0, frame = 0
 2100              		@ frame_needed = 0, uses_anonymous_args = 0
 2101              		@ link register save eliminated.
1408:n32g430_std_periph_driver/src/n32g430_tim.c ****     return (uint16_t)((TIMx->CCDAT4 & TIM_CCDDAT4_MASK) >> 16);
 2102              		.loc 1 1408 5 view .LVU496
 2103              		.loc 1 1408 28 is_stmt 0 view .LVU497
 2104 0000 006C     		ldr	r0, [r0, #64]
 2105              	.LVL154:
1409:n32g430_std_periph_driver/src/n32g430_tim.c **** }
 2106              		.loc 1 1409 1 view .LVU498
 2107 0002 000C     		lsrs	r0, r0, #16
 2108 0004 7047     		bx	lr
 2109              		.cfi_endproc
 2110              	.LFE189:
 2112              		.section	.text.TIM_Trigger_Source_Select,"ax",%progbits
 2113              		.align	1
 2114              		.global	TIM_Trigger_Source_Select
 2115              		.syntax unified
 2116              		.thumb
 2117              		.thumb_func
 2119              	TIM_Trigger_Source_Select:
 2120              	.LVL155:
 2121              	.LFB190:
ARM GAS  C:\Users\Dawn\AppData\Local\Temp\ccf7B1Wd.s 			page 61


1410:n32g430_std_periph_driver/src/n32g430_tim.c **** 
1411:n32g430_std_periph_driver/src/n32g430_tim.c **** 
1412:n32g430_std_periph_driver/src/n32g430_tim.c **** /**
1413:n32g430_std_periph_driver/src/n32g430_tim.c **** *\*\name    TIM_Trigger_Source_Select
1414:n32g430_std_periph_driver/src/n32g430_tim.c **** *\*\fun     Selects the Input Trigger source
1415:n32g430_std_periph_driver/src/n32g430_tim.c **** *\*\param   TIMx:
1416:n32g430_std_periph_driver/src/n32g430_tim.c **** *\*\          - TIM1
1417:n32g430_std_periph_driver/src/n32g430_tim.c **** *\*\          - TIM2
1418:n32g430_std_periph_driver/src/n32g430_tim.c **** *\*\          - TIM3
1419:n32g430_std_periph_driver/src/n32g430_tim.c **** *\*\          - TIM4
1420:n32g430_std_periph_driver/src/n32g430_tim.c **** *\*\          - TIM5
1421:n32g430_std_periph_driver/src/n32g430_tim.c **** *\*\          - TIM8
1422:n32g430_std_periph_driver/src/n32g430_tim.c **** *\*\param   TIM_trigger_source
1423:n32g430_std_periph_driver/src/n32g430_tim.c **** *\*\          - TIM_TRIG_SEL_IN_TR0     Internal Trigger 0
1424:n32g430_std_periph_driver/src/n32g430_tim.c **** *\*\          - TIM_TRIG_SEL_IN_TR1     Internal Trigger 1
1425:n32g430_std_periph_driver/src/n32g430_tim.c **** *\*\          - TIM_TRIG_SEL_IN_TR2     Internal Trigger 2
1426:n32g430_std_periph_driver/src/n32g430_tim.c **** *\*\          - TIM_TRIG_SEL_IN_TR3     Internal Trigger 3
1427:n32g430_std_periph_driver/src/n32g430_tim.c **** *\*\          - TIM_TRIG_SEL_TI1F_ED    TI1 Edge Detector
1428:n32g430_std_periph_driver/src/n32g430_tim.c **** *\*\          - TIM_TRIG_SEL_TI1FP1     Filtered Timer Input 1
1429:n32g430_std_periph_driver/src/n32g430_tim.c **** *\*\          - TIM_TRIG_SEL_TI2FP2     Filtered Timer Input 2
1430:n32g430_std_periph_driver/src/n32g430_tim.c **** *\*\          - TIM_TRIG_SEL_ETRF       External Trigger input
1431:n32g430_std_periph_driver/src/n32g430_tim.c **** *\*\return  none
1432:n32g430_std_periph_driver/src/n32g430_tim.c **** **/
1433:n32g430_std_periph_driver/src/n32g430_tim.c **** void TIM_Trigger_Source_Select(TIM_Module* TIMx, uint16_t TIM_trigger_source)
1434:n32g430_std_periph_driver/src/n32g430_tim.c **** {
 2122              		.loc 1 1434 1 is_stmt 1 view -0
 2123              		.cfi_startproc
 2124              		@ args = 0, pretend = 0, frame = 0
 2125              		@ frame_needed = 0, uses_anonymous_args = 0
 2126              		@ link register save eliminated.
1435:n32g430_std_periph_driver/src/n32g430_tim.c ****     uint16_t temp_value = 0;
 2127              		.loc 1 1435 5 view .LVU500
1436:n32g430_std_periph_driver/src/n32g430_tim.c **** 
1437:n32g430_std_periph_driver/src/n32g430_tim.c ****     /* Get the TIMx SMCTRL register value */
1438:n32g430_std_periph_driver/src/n32g430_tim.c ****     temp_value = TIMx->SMCTRL;
 2128              		.loc 1 1438 5 view .LVU501
 2129              		.loc 1 1438 16 is_stmt 0 view .LVU502
 2130 0000 0389     		ldrh	r3, [r0, #8]
 2131 0002 9BB2     		uxth	r3, r3
 2132              	.LVL156:
1439:n32g430_std_periph_driver/src/n32g430_tim.c ****     /* Reset the TS Bits */
1440:n32g430_std_periph_driver/src/n32g430_tim.c ****     temp_value &= (uint16_t)(~((uint16_t)TIM_TRIG_SEL_MASK));
 2133              		.loc 1 1440 5 is_stmt 1 view .LVU503
 2134              		.loc 1 1440 16 is_stmt 0 view .LVU504
 2135 0004 23F07003 		bic	r3, r3, #112
 2136              	.LVL157:
1441:n32g430_std_periph_driver/src/n32g430_tim.c ****     /* Set the Input Trigger source */
1442:n32g430_std_periph_driver/src/n32g430_tim.c ****     temp_value |= TIM_trigger_source;
 2137              		.loc 1 1442 5 is_stmt 1 view .LVU505
 2138              		.loc 1 1442 16 is_stmt 0 view .LVU506
 2139 0008 0B43     		orrs	r3, r3, r1
 2140              	.LVL158:
1443:n32g430_std_periph_driver/src/n32g430_tim.c ****     /* Write to TIMx SMCTRL */
1444:n32g430_std_periph_driver/src/n32g430_tim.c ****     TIMx->SMCTRL = temp_value;
 2141              		.loc 1 1444 5 is_stmt 1 view .LVU507
 2142              		.loc 1 1444 18 is_stmt 0 view .LVU508
 2143 000a 0381     		strh	r3, [r0, #8]	@ movhi
ARM GAS  C:\Users\Dawn\AppData\Local\Temp\ccf7B1Wd.s 			page 62


1445:n32g430_std_periph_driver/src/n32g430_tim.c **** }
 2144              		.loc 1 1445 1 view .LVU509
 2145 000c 7047     		bx	lr
 2146              		.cfi_endproc
 2147              	.LFE190:
 2149              		.section	.text.Input_Channel1_Config,"ax",%progbits
 2150              		.align	1
 2151              		.global	Input_Channel1_Config
 2152              		.syntax unified
 2153              		.thumb
 2154              		.thumb_func
 2156              	Input_Channel1_Config:
 2157              	.LVL159:
 2158              	.LFB191:
1446:n32g430_std_periph_driver/src/n32g430_tim.c **** 
1447:n32g430_std_periph_driver/src/n32g430_tim.c **** 
1448:n32g430_std_periph_driver/src/n32g430_tim.c **** /**
1449:n32g430_std_periph_driver/src/n32g430_tim.c **** *\*\name    Input_Channel1_Config
1450:n32g430_std_periph_driver/src/n32g430_tim.c **** *\*\fun     Configure the TI1 as Input.
1451:n32g430_std_periph_driver/src/n32g430_tim.c **** *\*\param   TIMx:
1452:n32g430_std_periph_driver/src/n32g430_tim.c **** *\*\          - TIM1
1453:n32g430_std_periph_driver/src/n32g430_tim.c **** *\*\          - TIM2
1454:n32g430_std_periph_driver/src/n32g430_tim.c **** *\*\          - TIM3
1455:n32g430_std_periph_driver/src/n32g430_tim.c **** *\*\          - TIM4
1456:n32g430_std_periph_driver/src/n32g430_tim.c **** *\*\          - TIM5
1457:n32g430_std_periph_driver/src/n32g430_tim.c **** *\*\          - TIM8
1458:n32g430_std_periph_driver/src/n32g430_tim.c **** *\*\param   input_channel_polarity The Input Polarity.
1459:n32g430_std_periph_driver/src/n32g430_tim.c **** *\*\  This parameter can be one of the following values:
1460:n32g430_std_periph_driver/src/n32g430_tim.c **** *\*\          - TIM_IC_POLARITY_RISING
1461:n32g430_std_periph_driver/src/n32g430_tim.c **** *\*\          - TIM_IC_POLARITY_FALLING
1462:n32g430_std_periph_driver/src/n32g430_tim.c **** *\*\param   input_channel_selection specifies the input to be used.
1463:n32g430_std_periph_driver/src/n32g430_tim.c **** *\*\  This parameter can be one of the following values:
1464:n32g430_std_periph_driver/src/n32g430_tim.c **** *\*\          - TIM_IC_SELECTION_DIRECTTI      TIM Input 1 is selected to be connected to IC1.
1465:n32g430_std_periph_driver/src/n32g430_tim.c **** *\*\          - TIM_IC_SELECTION_INDIRECTTI    TIM Input 1 is selected to be connected to IC2.
1466:n32g430_std_periph_driver/src/n32g430_tim.c **** *\*\          - TIM_IC_SELECTION_TRC           TIM Input 1 is selected to be connected to TRC.
1467:n32g430_std_periph_driver/src/n32g430_tim.c **** *\*\param   input_channel_filter Specifies the Input Capture Filter.
1468:n32g430_std_periph_driver/src/n32g430_tim.c **** *\*\            [0x00 0xF]
1469:n32g430_std_periph_driver/src/n32g430_tim.c **** *\*\return  none
1470:n32g430_std_periph_driver/src/n32g430_tim.c **** **/
1471:n32g430_std_periph_driver/src/n32g430_tim.c **** void Input_Channel1_Config(TIM_Module* TIMx, uint16_t input_channel_polarity, 
1472:n32g430_std_periph_driver/src/n32g430_tim.c ****                                uint16_t input_channel_selection, uint16_t input_channel_filter)
1473:n32g430_std_periph_driver/src/n32g430_tim.c **** {
 2159              		.loc 1 1473 1 is_stmt 1 view -0
 2160              		.cfi_startproc
 2161              		@ args = 0, pretend = 0, frame = 0
 2162              		@ frame_needed = 0, uses_anonymous_args = 0
 2163              		@ link register save eliminated.
 2164              		.loc 1 1473 1 is_stmt 0 view .LVU511
 2165 0000 10B4     		push	{r4}
 2166              	.LCFI1:
 2167              		.cfi_def_cfa_offset 4
 2168              		.cfi_offset 4, -4
1474:n32g430_std_periph_driver/src/n32g430_tim.c ****     uint16_t temp_ccmod1 = 0;
 2169              		.loc 1 1474 5 is_stmt 1 view .LVU512
 2170              	.LVL160:
1475:n32g430_std_periph_driver/src/n32g430_tim.c ****     uint32_t temp_ccen  = 0;
 2171              		.loc 1 1475 5 view .LVU513
ARM GAS  C:\Users\Dawn\AppData\Local\Temp\ccf7B1Wd.s 			page 63


1476:n32g430_std_periph_driver/src/n32g430_tim.c ****     /* Disable the Channel 1: Reset the CC1E Bit */
1477:n32g430_std_periph_driver/src/n32g430_tim.c ****     TIMx->CCEN &= (uint32_t) ~((uint32_t)TIM_CC1EN);
 2172              		.loc 1 1477 5 view .LVU514
 2173              		.loc 1 1477 9 is_stmt 0 view .LVU515
 2174 0002 046A     		ldr	r4, [r0, #32]
 2175              		.loc 1 1477 16 view .LVU516
 2176 0004 24F00104 		bic	r4, r4, #1
 2177 0008 0462     		str	r4, [r0, #32]
1478:n32g430_std_periph_driver/src/n32g430_tim.c ****     temp_ccmod1 = TIMx->CCMOD1;
 2178              		.loc 1 1478 5 is_stmt 1 view .LVU517
 2179              		.loc 1 1478 17 is_stmt 0 view .LVU518
 2180 000a B0F818C0 		ldrh	ip, [r0, #24]
 2181 000e 1FFA8CFC 		uxth	ip, ip
 2182              	.LVL161:
1479:n32g430_std_periph_driver/src/n32g430_tim.c ****     temp_ccen  = TIMx->CCEN;
 2183              		.loc 1 1479 5 is_stmt 1 view .LVU519
 2184              		.loc 1 1479 16 is_stmt 0 view .LVU520
 2185 0012 046A     		ldr	r4, [r0, #32]
 2186              	.LVL162:
1480:n32g430_std_periph_driver/src/n32g430_tim.c ****     /* Select the Input and set the filter */
1481:n32g430_std_periph_driver/src/n32g430_tim.c ****     temp_ccmod1 &= (uint16_t)(((uint16_t) ~((uint16_t)TIM_IC1_SELECTION_MASK)) & ((uint16_t) ~((uin
 2187              		.loc 1 1481 5 is_stmt 1 view .LVU521
 2188              		.loc 1 1481 17 is_stmt 0 view .LVU522
 2189 0014 2CF0F30C 		bic	ip, ip, #243
 2190              	.LVL163:
1482:n32g430_std_periph_driver/src/n32g430_tim.c ****     temp_ccmod1 |= (uint16_t)(input_channel_selection | (uint16_t)(input_channel_filter << (uint16_
 2191              		.loc 1 1482 5 is_stmt 1 view .LVU523
 2192              		.loc 1 1482 57 is_stmt 0 view .LVU524
 2193 0018 1B01     		lsls	r3, r3, #4
 2194              	.LVL164:
 2195              		.loc 1 1482 57 view .LVU525
 2196 001a 9BB2     		uxth	r3, r3
 2197              		.loc 1 1482 20 view .LVU526
 2198 001c 1343     		orrs	r3, r3, r2
 2199              		.loc 1 1482 17 view .LVU527
 2200 001e 4CEA030C 		orr	ip, ip, r3
 2201              	.LVL165:
1483:n32g430_std_periph_driver/src/n32g430_tim.c **** 
1484:n32g430_std_periph_driver/src/n32g430_tim.c ****     if ((TIMx == TIM1) || (TIMx == TIM8) || (TIMx == TIM2) || (TIMx == TIM3) || (TIMx == TIM4) || (
 2202              		.loc 1 1484 5 is_stmt 1 view .LVU528
 2203              		.loc 1 1484 8 is_stmt 0 view .LVU529
 2204 0022 134B     		ldr	r3, .L111
 2205 0024 9842     		cmp	r0, r3
 2206 0026 18D0     		beq	.L107
 2207              		.loc 1 1484 24 discriminator 1 view .LVU530
 2208 0028 03F50063 		add	r3, r3, #2048
 2209 002c 9842     		cmp	r0, r3
 2210 002e 14D0     		beq	.L107
 2211              		.loc 1 1484 42 discriminator 2 view .LVU531
 2212 0030 B0F1804F 		cmp	r0, #1073741824
 2213 0034 11D0     		beq	.L107
 2214              		.loc 1 1484 60 discriminator 3 view .LVU532
 2215 0036 A3F59833 		sub	r3, r3, #77824
 2216 003a 9842     		cmp	r0, r3
 2217 003c 0DD0     		beq	.L107
 2218              		.loc 1 1484 78 discriminator 4 view .LVU533
 2219 003e 03F58063 		add	r3, r3, #1024
ARM GAS  C:\Users\Dawn\AppData\Local\Temp\ccf7B1Wd.s 			page 64


 2220 0042 9842     		cmp	r0, r3
 2221 0044 09D0     		beq	.L107
 2222              		.loc 1 1484 96 discriminator 5 view .LVU534
 2223 0046 03F58063 		add	r3, r3, #1024
 2224 004a 9842     		cmp	r0, r3
 2225 004c 05D0     		beq	.L107
1485:n32g430_std_periph_driver/src/n32g430_tim.c ****     {
1486:n32g430_std_periph_driver/src/n32g430_tim.c ****         /* Select the Polarity and set the CC1E Bit */
1487:n32g430_std_periph_driver/src/n32g430_tim.c ****         temp_ccen &= (uint32_t) ~((uint32_t)(TIM_CC1P));
1488:n32g430_std_periph_driver/src/n32g430_tim.c ****         temp_ccen |= (uint32_t)(input_channel_polarity | (uint32_t)TIM_CC1EN);
1489:n32g430_std_periph_driver/src/n32g430_tim.c ****     }
1490:n32g430_std_periph_driver/src/n32g430_tim.c ****     else
1491:n32g430_std_periph_driver/src/n32g430_tim.c ****     {
1492:n32g430_std_periph_driver/src/n32g430_tim.c ****         /* Select the Polarity and set the CC1E Bit */
1493:n32g430_std_periph_driver/src/n32g430_tim.c ****         temp_ccen &= (uint32_t) ~((uint32_t)(TIM_CC1P | TIM_CC1NP));
 2226              		.loc 1 1493 9 is_stmt 1 view .LVU535
 2227              		.loc 1 1493 19 is_stmt 0 view .LVU536
 2228 004e 24F00A04 		bic	r4, r4, #10
 2229              	.LVL166:
1494:n32g430_std_periph_driver/src/n32g430_tim.c ****         temp_ccen |= (uint32_t)(input_channel_polarity | (uint32_t)TIM_CC1EN);
 2230              		.loc 1 1494 9 is_stmt 1 view .LVU537
 2231              		.loc 1 1494 22 is_stmt 0 view .LVU538
 2232 0052 41F00101 		orr	r1, r1, #1
 2233              	.LVL167:
 2234              		.loc 1 1494 19 view .LVU539
 2235 0056 2143     		orrs	r1, r1, r4
 2236 0058 04E0     		b	.L109
 2237              	.LVL168:
 2238              	.L107:
1487:n32g430_std_periph_driver/src/n32g430_tim.c ****         temp_ccen |= (uint32_t)(input_channel_polarity | (uint32_t)TIM_CC1EN);
 2239              		.loc 1 1487 9 is_stmt 1 view .LVU540
1487:n32g430_std_periph_driver/src/n32g430_tim.c ****         temp_ccen |= (uint32_t)(input_channel_polarity | (uint32_t)TIM_CC1EN);
 2240              		.loc 1 1487 19 is_stmt 0 view .LVU541
 2241 005a 24F00204 		bic	r4, r4, #2
 2242              	.LVL169:
1488:n32g430_std_periph_driver/src/n32g430_tim.c ****     }
 2243              		.loc 1 1488 9 is_stmt 1 view .LVU542
1488:n32g430_std_periph_driver/src/n32g430_tim.c ****     }
 2244              		.loc 1 1488 22 is_stmt 0 view .LVU543
 2245 005e 41F00101 		orr	r1, r1, #1
 2246              	.LVL170:
1488:n32g430_std_periph_driver/src/n32g430_tim.c ****     }
 2247              		.loc 1 1488 19 view .LVU544
 2248 0062 2143     		orrs	r1, r1, r4
 2249              	.LVL171:
 2250              	.L109:
1495:n32g430_std_periph_driver/src/n32g430_tim.c ****     }
1496:n32g430_std_periph_driver/src/n32g430_tim.c **** 
1497:n32g430_std_periph_driver/src/n32g430_tim.c ****     /* Write to TIMx CCMOD1 and CCEN registers */
1498:n32g430_std_periph_driver/src/n32g430_tim.c ****     TIMx->CCMOD1 = temp_ccmod1;
 2251              		.loc 1 1498 5 is_stmt 1 view .LVU545
 2252              		.loc 1 1498 18 is_stmt 0 view .LVU546
 2253 0064 A0F818C0 		strh	ip, [r0, #24]	@ movhi
1499:n32g430_std_periph_driver/src/n32g430_tim.c ****     TIMx->CCEN   = temp_ccen;
 2254              		.loc 1 1499 5 is_stmt 1 view .LVU547
 2255              		.loc 1 1499 18 is_stmt 0 view .LVU548
 2256 0068 0162     		str	r1, [r0, #32]
ARM GAS  C:\Users\Dawn\AppData\Local\Temp\ccf7B1Wd.s 			page 65


1500:n32g430_std_periph_driver/src/n32g430_tim.c **** }
 2257              		.loc 1 1500 1 view .LVU549
 2258 006a 10BC     		pop	{r4}
 2259              	.LCFI2:
 2260              		.cfi_restore 4
 2261              		.cfi_def_cfa_offset 0
 2262 006c 7047     		bx	lr
 2263              	.L112:
 2264 006e 00BF     		.align	2
 2265              	.L111:
 2266 0070 002C0140 		.word	1073818624
 2267              		.cfi_endproc
 2268              	.LFE191:
 2270              		.section	.text.Input_Channel2_Config,"ax",%progbits
 2271              		.align	1
 2272              		.global	Input_Channel2_Config
 2273              		.syntax unified
 2274              		.thumb
 2275              		.thumb_func
 2277              	Input_Channel2_Config:
 2278              	.LVL172:
 2279              	.LFB192:
1501:n32g430_std_periph_driver/src/n32g430_tim.c **** 
1502:n32g430_std_periph_driver/src/n32g430_tim.c **** /**
1503:n32g430_std_periph_driver/src/n32g430_tim.c **** *\*\name    Input_Channel2_Config
1504:n32g430_std_periph_driver/src/n32g430_tim.c **** *\*\fun     Configure the TI2 as Input.
1505:n32g430_std_periph_driver/src/n32g430_tim.c **** *\*\param   TIMx:
1506:n32g430_std_periph_driver/src/n32g430_tim.c **** *\*\          - TIM1
1507:n32g430_std_periph_driver/src/n32g430_tim.c **** *\*\          - TIM2
1508:n32g430_std_periph_driver/src/n32g430_tim.c **** *\*\          - TIM3
1509:n32g430_std_periph_driver/src/n32g430_tim.c **** *\*\          - TIM4
1510:n32g430_std_periph_driver/src/n32g430_tim.c **** *\*\          - TIM5
1511:n32g430_std_periph_driver/src/n32g430_tim.c **** *\*\          - TIM8
1512:n32g430_std_periph_driver/src/n32g430_tim.c **** *\*\param   input_channel_polarity The Input Polarity.
1513:n32g430_std_periph_driver/src/n32g430_tim.c **** *\*\  This parameter can be one of the following values:
1514:n32g430_std_periph_driver/src/n32g430_tim.c **** *\*\          - TIM_IC_POLARITY_RISING
1515:n32g430_std_periph_driver/src/n32g430_tim.c **** *\*\          - TIM_IC_POLARITY_FALLING
1516:n32g430_std_periph_driver/src/n32g430_tim.c **** *\*\param   input_channel_selection specifies the input to be used.
1517:n32g430_std_periph_driver/src/n32g430_tim.c **** *\*\  This parameter can be one of the following values:
1518:n32g430_std_periph_driver/src/n32g430_tim.c **** *\*\          - TIM_IC_SELECTION_DIRECTTI      TIM Input 2 is selected to be connected to IC2.
1519:n32g430_std_periph_driver/src/n32g430_tim.c **** *\*\          - TIM_IC_SELECTION_INDIRECTTI    TIM Input 2 is selected to be connected to IC1.
1520:n32g430_std_periph_driver/src/n32g430_tim.c **** *\*\          - TIM_IC_SELECTION_TRC           TIM Input 2 is selected to be connected to TRC.
1521:n32g430_std_periph_driver/src/n32g430_tim.c **** *\*\param   input_channel_filter Specifies the Input Capture Filter.
1522:n32g430_std_periph_driver/src/n32g430_tim.c **** *\*\            [0x00 0x0F]
1523:n32g430_std_periph_driver/src/n32g430_tim.c **** *\*\return  none
1524:n32g430_std_periph_driver/src/n32g430_tim.c **** **/
1525:n32g430_std_periph_driver/src/n32g430_tim.c **** void Input_Channel2_Config(TIM_Module* TIMx, uint16_t input_channel_polarity, 
1526:n32g430_std_periph_driver/src/n32g430_tim.c ****                            uint16_t input_channel_selection, uint16_t input_channel_filter)
1527:n32g430_std_periph_driver/src/n32g430_tim.c **** {
 2280              		.loc 1 1527 1 is_stmt 1 view -0
 2281              		.cfi_startproc
 2282              		@ args = 0, pretend = 0, frame = 0
 2283              		@ frame_needed = 0, uses_anonymous_args = 0
 2284              		.loc 1 1527 1 is_stmt 0 view .LVU551
 2285 0000 10B5     		push	{r4, lr}
 2286              	.LCFI3:
 2287              		.cfi_def_cfa_offset 8
ARM GAS  C:\Users\Dawn\AppData\Local\Temp\ccf7B1Wd.s 			page 66


 2288              		.cfi_offset 4, -8
 2289              		.cfi_offset 14, -4
1528:n32g430_std_periph_driver/src/n32g430_tim.c ****     uint16_t temp_ccmod1 = 0;
 2290              		.loc 1 1528 5 is_stmt 1 view .LVU552
 2291              	.LVL173:
1529:n32g430_std_periph_driver/src/n32g430_tim.c ****     uint32_t temp_ccen = 0, temp_value = 0;
 2292              		.loc 1 1529 5 view .LVU553
1530:n32g430_std_periph_driver/src/n32g430_tim.c ****     /* Disable the Channel 2: Reset the CC2E Bit */
1531:n32g430_std_periph_driver/src/n32g430_tim.c ****     TIMx->CCEN &= (uint32_t) ~((uint32_t)TIM_CC2EN);
 2293              		.loc 1 1531 5 view .LVU554
 2294              		.loc 1 1531 9 is_stmt 0 view .LVU555
 2295 0002 046A     		ldr	r4, [r0, #32]
 2296              		.loc 1 1531 16 view .LVU556
 2297 0004 24F01004 		bic	r4, r4, #16
 2298 0008 0462     		str	r4, [r0, #32]
1532:n32g430_std_periph_driver/src/n32g430_tim.c ****     temp_ccmod1 = TIMx->CCMOD1;
 2299              		.loc 1 1532 5 is_stmt 1 view .LVU557
 2300              		.loc 1 1532 17 is_stmt 0 view .LVU558
 2301 000a B0F818E0 		ldrh	lr, [r0, #24]
 2302              	.LVL174:
1533:n32g430_std_periph_driver/src/n32g430_tim.c ****     temp_ccen = TIMx->CCEN;
 2303              		.loc 1 1533 5 is_stmt 1 view .LVU559
 2304              		.loc 1 1533 15 is_stmt 0 view .LVU560
 2305 000e 046A     		ldr	r4, [r0, #32]
 2306              	.LVL175:
1534:n32g430_std_periph_driver/src/n32g430_tim.c ****     temp_value = (uint32_t)(input_channel_polarity << 4);
 2307              		.loc 1 1534 5 is_stmt 1 view .LVU561
 2308              		.loc 1 1534 16 is_stmt 0 view .LVU562
 2309 0010 4FEA011C 		lsl	ip, r1, #4
 2310              	.LVL176:
1535:n32g430_std_periph_driver/src/n32g430_tim.c ****     /* Select the Input and set the filter */
1536:n32g430_std_periph_driver/src/n32g430_tim.c ****     temp_ccmod1 &= (uint16_t)(((uint16_t) ~((uint16_t)TIM_IC2_SELECTION_MASK)) & ((uint16_t) ~((uin
 2311              		.loc 1 1536 5 is_stmt 1 view .LVU563
 2312              		.loc 1 1536 17 is_stmt 0 view .LVU564
 2313 0014 2EF4407E 		bic	lr, lr, #768
 2314              	.LVL177:
 2315              		.loc 1 1536 17 view .LVU565
 2316 0018 4FEA0E5E 		lsl	lr, lr, #20
 2317 001c 4FEA1E5E 		lsr	lr, lr, #20
 2318              	.LVL178:
1537:n32g430_std_periph_driver/src/n32g430_tim.c ****     temp_ccmod1 |= (uint16_t)(input_channel_filter << 12);
 2319              		.loc 1 1537 5 is_stmt 1 view .LVU566
 2320              		.loc 1 1537 20 is_stmt 0 view .LVU567
 2321 0020 1B03     		lsls	r3, r3, #12
 2322              	.LVL179:
 2323              		.loc 1 1537 20 view .LVU568
 2324 0022 9BB2     		uxth	r3, r3
 2325              		.loc 1 1537 17 view .LVU569
 2326 0024 43EA0E03 		orr	r3, r3, lr
 2327              	.LVL180:
1538:n32g430_std_periph_driver/src/n32g430_tim.c ****     temp_ccmod1 |= (uint16_t)(input_channel_selection << 8);
 2328              		.loc 1 1538 5 is_stmt 1 view .LVU570
 2329              		.loc 1 1538 20 is_stmt 0 view .LVU571
 2330 0028 1202     		lsls	r2, r2, #8
 2331              	.LVL181:
 2332              		.loc 1 1538 20 view .LVU572
 2333 002a 92B2     		uxth	r2, r2
ARM GAS  C:\Users\Dawn\AppData\Local\Temp\ccf7B1Wd.s 			page 67


 2334              		.loc 1 1538 17 view .LVU573
 2335 002c 1A43     		orrs	r2, r2, r3
 2336              	.LVL182:
1539:n32g430_std_periph_driver/src/n32g430_tim.c **** 
1540:n32g430_std_periph_driver/src/n32g430_tim.c ****     if ((TIMx == TIM1) || (TIMx == TIM8) || (TIMx == TIM2) || (TIMx == TIM3) || (TIMx == TIM4) || (
 2337              		.loc 1 1540 5 is_stmt 1 view .LVU574
 2338              		.loc 1 1540 8 is_stmt 0 view .LVU575
 2339 002e 124B     		ldr	r3, .L118
 2340 0030 9842     		cmp	r0, r3
 2341 0032 18D0     		beq	.L114
 2342              		.loc 1 1540 24 discriminator 1 view .LVU576
 2343 0034 03F50063 		add	r3, r3, #2048
 2344 0038 9842     		cmp	r0, r3
 2345 003a 14D0     		beq	.L114
 2346              		.loc 1 1540 42 discriminator 2 view .LVU577
 2347 003c B0F1804F 		cmp	r0, #1073741824
 2348 0040 11D0     		beq	.L114
 2349              		.loc 1 1540 60 discriminator 3 view .LVU578
 2350 0042 A3F59833 		sub	r3, r3, #77824
 2351 0046 9842     		cmp	r0, r3
 2352 0048 0DD0     		beq	.L114
 2353              		.loc 1 1540 78 discriminator 4 view .LVU579
 2354 004a 03F58063 		add	r3, r3, #1024
 2355 004e 9842     		cmp	r0, r3
 2356 0050 09D0     		beq	.L114
 2357              		.loc 1 1540 96 discriminator 5 view .LVU580
 2358 0052 03F58063 		add	r3, r3, #1024
 2359 0056 9842     		cmp	r0, r3
 2360 0058 05D0     		beq	.L114
1541:n32g430_std_periph_driver/src/n32g430_tim.c ****     {
1542:n32g430_std_periph_driver/src/n32g430_tim.c ****         /* Select the Polarity and set the CC2E Bit */
1543:n32g430_std_periph_driver/src/n32g430_tim.c ****         temp_ccen &= (uint32_t) ~((uint32_t)(TIM_CC2P));
1544:n32g430_std_periph_driver/src/n32g430_tim.c ****         temp_ccen |= (uint32_t)(temp_value | (uint32_t)TIM_CC2EN);
1545:n32g430_std_periph_driver/src/n32g430_tim.c ****     }
1546:n32g430_std_periph_driver/src/n32g430_tim.c ****     else
1547:n32g430_std_periph_driver/src/n32g430_tim.c ****     {
1548:n32g430_std_periph_driver/src/n32g430_tim.c ****         /* Select the Polarity and set the CC2E Bit */
1549:n32g430_std_periph_driver/src/n32g430_tim.c ****         temp_ccen &= (uint32_t) ~((uint32_t)(TIM_CC2P | TIM_CC2NP));
 2361              		.loc 1 1549 9 is_stmt 1 view .LVU581
 2362              		.loc 1 1549 19 is_stmt 0 view .LVU582
 2363 005a 24F0A004 		bic	r4, r4, #160
 2364              	.LVL183:
1550:n32g430_std_periph_driver/src/n32g430_tim.c ****         temp_ccen |= (uint32_t)(input_channel_polarity | (uint32_t)TIM_CC2EN);
 2365              		.loc 1 1550 9 is_stmt 1 view .LVU583
 2366              		.loc 1 1550 22 is_stmt 0 view .LVU584
 2367 005e 41F01001 		orr	r1, r1, #16
 2368              	.LVL184:
 2369              		.loc 1 1550 19 view .LVU585
 2370 0062 2143     		orrs	r1, r1, r4
 2371 0064 05E0     		b	.L116
 2372              	.LVL185:
 2373              	.L114:
1543:n32g430_std_periph_driver/src/n32g430_tim.c ****         temp_ccen |= (uint32_t)(temp_value | (uint32_t)TIM_CC2EN);
 2374              		.loc 1 1543 9 is_stmt 1 view .LVU586
1543:n32g430_std_periph_driver/src/n32g430_tim.c ****         temp_ccen |= (uint32_t)(temp_value | (uint32_t)TIM_CC2EN);
 2375              		.loc 1 1543 19 is_stmt 0 view .LVU587
 2376 0066 24F02004 		bic	r4, r4, #32
ARM GAS  C:\Users\Dawn\AppData\Local\Temp\ccf7B1Wd.s 			page 68


 2377              	.LVL186:
1544:n32g430_std_periph_driver/src/n32g430_tim.c ****     }
 2378              		.loc 1 1544 9 is_stmt 1 view .LVU588
1544:n32g430_std_periph_driver/src/n32g430_tim.c ****     }
 2379              		.loc 1 1544 19 is_stmt 0 view .LVU589
 2380 006a 4CEA0401 		orr	r1, ip, r4
 2381              	.LVL187:
1544:n32g430_std_periph_driver/src/n32g430_tim.c ****     }
 2382              		.loc 1 1544 19 view .LVU590
 2383 006e 41F01001 		orr	r1, r1, #16
 2384              	.LVL188:
 2385              	.L116:
1551:n32g430_std_periph_driver/src/n32g430_tim.c ****     }
1552:n32g430_std_periph_driver/src/n32g430_tim.c **** 
1553:n32g430_std_periph_driver/src/n32g430_tim.c ****     /* Write to TIMx CCMOD1 and CCEN registers */
1554:n32g430_std_periph_driver/src/n32g430_tim.c ****     TIMx->CCMOD1 = temp_ccmod1;
 2386              		.loc 1 1554 5 is_stmt 1 view .LVU591
 2387              		.loc 1 1554 18 is_stmt 0 view .LVU592
 2388 0072 0283     		strh	r2, [r0, #24]	@ movhi
1555:n32g430_std_periph_driver/src/n32g430_tim.c ****     TIMx->CCEN   = temp_ccen;
 2389              		.loc 1 1555 5 is_stmt 1 view .LVU593
 2390              		.loc 1 1555 18 is_stmt 0 view .LVU594
 2391 0074 0162     		str	r1, [r0, #32]
1556:n32g430_std_periph_driver/src/n32g430_tim.c **** }
 2392              		.loc 1 1556 1 view .LVU595
 2393 0076 10BD     		pop	{r4, pc}
 2394              	.L119:
 2395              		.align	2
 2396              	.L118:
 2397 0078 002C0140 		.word	1073818624
 2398              		.cfi_endproc
 2399              	.LFE192:
 2401              		.section	.text.Input_Channel3_Config,"ax",%progbits
 2402              		.align	1
 2403              		.global	Input_Channel3_Config
 2404              		.syntax unified
 2405              		.thumb
 2406              		.thumb_func
 2408              	Input_Channel3_Config:
 2409              	.LVL189:
 2410              	.LFB193:
1557:n32g430_std_periph_driver/src/n32g430_tim.c **** 
1558:n32g430_std_periph_driver/src/n32g430_tim.c **** 
1559:n32g430_std_periph_driver/src/n32g430_tim.c **** /**
1560:n32g430_std_periph_driver/src/n32g430_tim.c **** *\*\name    Input_Channel3_Config
1561:n32g430_std_periph_driver/src/n32g430_tim.c **** *\*\fun     Configure the TI3 as Input.
1562:n32g430_std_periph_driver/src/n32g430_tim.c **** *\*\param   TIMx:
1563:n32g430_std_periph_driver/src/n32g430_tim.c **** *\*\          - TIM1
1564:n32g430_std_periph_driver/src/n32g430_tim.c **** *\*\          - TIM2
1565:n32g430_std_periph_driver/src/n32g430_tim.c **** *\*\          - TIM3
1566:n32g430_std_periph_driver/src/n32g430_tim.c **** *\*\          - TIM4
1567:n32g430_std_periph_driver/src/n32g430_tim.c **** *\*\          - TIM5
1568:n32g430_std_periph_driver/src/n32g430_tim.c **** *\*\          - TIM8
1569:n32g430_std_periph_driver/src/n32g430_tim.c **** *\*\param   input_channel_polarity The Input Polarity.
1570:n32g430_std_periph_driver/src/n32g430_tim.c **** *\*\  This parameter can be one of the following values:
1571:n32g430_std_periph_driver/src/n32g430_tim.c **** *\*\          - TIM_IC_POLARITY_RISING
1572:n32g430_std_periph_driver/src/n32g430_tim.c **** *\*\          - TIM_IC_POLARITY_FALLING
ARM GAS  C:\Users\Dawn\AppData\Local\Temp\ccf7B1Wd.s 			page 69


1573:n32g430_std_periph_driver/src/n32g430_tim.c **** *\*\param   input_channel_selection specifies the input to be used.
1574:n32g430_std_periph_driver/src/n32g430_tim.c **** *\*\  This parameter can be one of the following values:
1575:n32g430_std_periph_driver/src/n32g430_tim.c **** *\*\          - TIM_IC_SELECTION_DIRECTTI      TIM Input 3 is selected to be connected to IC3.
1576:n32g430_std_periph_driver/src/n32g430_tim.c **** *\*\          - TIM_IC_SELECTION_INDIRECTTI    TIM Input 3 is selected to be connected to IC4.
1577:n32g430_std_periph_driver/src/n32g430_tim.c **** *\*\          - TIM_IC_SELECTION_TRC           TIM Input 3 is selected to be connected to TRC.
1578:n32g430_std_periph_driver/src/n32g430_tim.c **** *\*\param   input_channel_filter Specifies the Input Capture Filter.
1579:n32g430_std_periph_driver/src/n32g430_tim.c **** *\*\            [0x00 0x0F]
1580:n32g430_std_periph_driver/src/n32g430_tim.c **** *\*\return  none
1581:n32g430_std_periph_driver/src/n32g430_tim.c **** **/
1582:n32g430_std_periph_driver/src/n32g430_tim.c **** void Input_Channel3_Config(TIM_Module* TIMx, uint16_t input_channel_polarity, 
1583:n32g430_std_periph_driver/src/n32g430_tim.c ****                            uint16_t input_channel_selection, uint16_t input_channel_filter)
1584:n32g430_std_periph_driver/src/n32g430_tim.c **** {
 2411              		.loc 1 1584 1 is_stmt 1 view -0
 2412              		.cfi_startproc
 2413              		@ args = 0, pretend = 0, frame = 0
 2414              		@ frame_needed = 0, uses_anonymous_args = 0
 2415              		@ link register save eliminated.
 2416              		.loc 1 1584 1 is_stmt 0 view .LVU597
 2417 0000 30B4     		push	{r4, r5}
 2418              	.LCFI4:
 2419              		.cfi_def_cfa_offset 8
 2420              		.cfi_offset 4, -8
 2421              		.cfi_offset 5, -4
1585:n32g430_std_periph_driver/src/n32g430_tim.c ****     uint16_t temp_ccmod2 = 0;
 2422              		.loc 1 1585 5 is_stmt 1 view .LVU598
 2423              	.LVL190:
1586:n32g430_std_periph_driver/src/n32g430_tim.c ****     uint32_t temp_ccen = 0, temp_value = 0;
 2424              		.loc 1 1586 5 view .LVU599
1587:n32g430_std_periph_driver/src/n32g430_tim.c ****     /* Disable the Channel 3: Reset the CC3E Bit */
1588:n32g430_std_periph_driver/src/n32g430_tim.c ****     TIMx->CCEN &= (uint32_t) ~((uint32_t)TIM_CC3EN);
 2425              		.loc 1 1588 5 view .LVU600
 2426              		.loc 1 1588 9 is_stmt 0 view .LVU601
 2427 0002 046A     		ldr	r4, [r0, #32]
 2428              		.loc 1 1588 16 view .LVU602
 2429 0004 24F48074 		bic	r4, r4, #256
 2430 0008 0462     		str	r4, [r0, #32]
1589:n32g430_std_periph_driver/src/n32g430_tim.c ****     temp_ccmod2 = TIMx->CCMOD2;
 2431              		.loc 1 1589 5 is_stmt 1 view .LVU603
 2432              		.loc 1 1589 23 is_stmt 0 view .LVU604
 2433 000a C469     		ldr	r4, [r0, #28]
 2434              		.loc 1 1589 17 view .LVU605
 2435 000c 1FFA84FC 		uxth	ip, r4
 2436              	.LVL191:
1590:n32g430_std_periph_driver/src/n32g430_tim.c ****     temp_ccen = TIMx->CCEN;
 2437              		.loc 1 1590 5 is_stmt 1 view .LVU606
 2438              		.loc 1 1590 15 is_stmt 0 view .LVU607
 2439 0010 056A     		ldr	r5, [r0, #32]
 2440              	.LVL192:
1591:n32g430_std_periph_driver/src/n32g430_tim.c ****     temp_value = (uint32_t)(input_channel_polarity << 8);
 2441              		.loc 1 1591 5 is_stmt 1 view .LVU608
 2442              		.loc 1 1591 16 is_stmt 0 view .LVU609
 2443 0012 0C02     		lsls	r4, r1, #8
 2444              	.LVL193:
1592:n32g430_std_periph_driver/src/n32g430_tim.c ****     /* Select the Input and set the filter */
1593:n32g430_std_periph_driver/src/n32g430_tim.c ****     temp_ccmod2 &= (uint16_t)(((uint16_t) ~((uint16_t)TIM_IC3_SELECTION_MASK)) & ((uint16_t) ~((uin
 2445              		.loc 1 1593 5 is_stmt 1 view .LVU610
 2446              		.loc 1 1593 17 is_stmt 0 view .LVU611
ARM GAS  C:\Users\Dawn\AppData\Local\Temp\ccf7B1Wd.s 			page 70


 2447 0014 2CF0F30C 		bic	ip, ip, #243
 2448              	.LVL194:
1594:n32g430_std_periph_driver/src/n32g430_tim.c ****     temp_ccmod2 |= (uint16_t)(input_channel_selection | (uint16_t)(input_channel_filter << (uint16_
 2449              		.loc 1 1594 5 is_stmt 1 view .LVU612
 2450              		.loc 1 1594 57 is_stmt 0 view .LVU613
 2451 0018 1B01     		lsls	r3, r3, #4
 2452              	.LVL195:
 2453              		.loc 1 1594 57 view .LVU614
 2454 001a 9BB2     		uxth	r3, r3
 2455              		.loc 1 1594 20 view .LVU615
 2456 001c 1343     		orrs	r3, r3, r2
 2457              		.loc 1 1594 17 view .LVU616
 2458 001e 4CEA0303 		orr	r3, ip, r3
 2459              	.LVL196:
1595:n32g430_std_periph_driver/src/n32g430_tim.c **** 
1596:n32g430_std_periph_driver/src/n32g430_tim.c ****     if ((TIMx == TIM1) || (TIMx == TIM8) || (TIMx == TIM2) || (TIMx == TIM3) || (TIMx == TIM4) || (
 2460              		.loc 1 1596 5 is_stmt 1 view .LVU617
 2461              		.loc 1 1596 8 is_stmt 0 view .LVU618
 2462 0022 134A     		ldr	r2, .L125
 2463              	.LVL197:
 2464              		.loc 1 1596 8 view .LVU619
 2465 0024 9042     		cmp	r0, r2
 2466 0026 18D0     		beq	.L121
 2467              		.loc 1 1596 24 discriminator 1 view .LVU620
 2468 0028 02F50062 		add	r2, r2, #2048
 2469 002c 9042     		cmp	r0, r2
 2470 002e 14D0     		beq	.L121
 2471              		.loc 1 1596 42 discriminator 2 view .LVU621
 2472 0030 B0F1804F 		cmp	r0, #1073741824
 2473 0034 11D0     		beq	.L121
 2474              		.loc 1 1596 60 discriminator 3 view .LVU622
 2475 0036 A2F59832 		sub	r2, r2, #77824
 2476 003a 9042     		cmp	r0, r2
 2477 003c 0DD0     		beq	.L121
 2478              		.loc 1 1596 78 discriminator 4 view .LVU623
 2479 003e 02F58062 		add	r2, r2, #1024
 2480 0042 9042     		cmp	r0, r2
 2481 0044 09D0     		beq	.L121
 2482              		.loc 1 1596 96 discriminator 5 view .LVU624
 2483 0046 02F58062 		add	r2, r2, #1024
 2484 004a 9042     		cmp	r0, r2
 2485 004c 05D0     		beq	.L121
1597:n32g430_std_periph_driver/src/n32g430_tim.c ****     {
1598:n32g430_std_periph_driver/src/n32g430_tim.c ****         /* Select the Polarity and set the CC3E Bit */
1599:n32g430_std_periph_driver/src/n32g430_tim.c ****         temp_ccen &= (uint32_t) ~((uint32_t)(TIM_CC3P));
1600:n32g430_std_periph_driver/src/n32g430_tim.c ****         temp_ccen |= (uint32_t)(temp_value | (uint32_t)TIM_CC3EN);
1601:n32g430_std_periph_driver/src/n32g430_tim.c ****     }
1602:n32g430_std_periph_driver/src/n32g430_tim.c ****     else
1603:n32g430_std_periph_driver/src/n32g430_tim.c ****     {
1604:n32g430_std_periph_driver/src/n32g430_tim.c ****         /* Select the Polarity and set the CC3E Bit */
1605:n32g430_std_periph_driver/src/n32g430_tim.c ****         temp_ccen &= (uint32_t) ~((uint32_t)(TIM_CC3P | TIM_CC3NP));
 2486              		.loc 1 1605 9 is_stmt 1 view .LVU625
 2487              		.loc 1 1605 19 is_stmt 0 view .LVU626
 2488 004e 25F42065 		bic	r5, r5, #2560
 2489              	.LVL198:
1606:n32g430_std_periph_driver/src/n32g430_tim.c ****         temp_ccen |= (uint32_t)(input_channel_polarity | (uint32_t)TIM_CC3EN);
 2490              		.loc 1 1606 9 is_stmt 1 view .LVU627
ARM GAS  C:\Users\Dawn\AppData\Local\Temp\ccf7B1Wd.s 			page 71


 2491              		.loc 1 1606 22 is_stmt 0 view .LVU628
 2492 0052 41F48071 		orr	r1, r1, #256
 2493              	.LVL199:
 2494              		.loc 1 1606 19 view .LVU629
 2495 0056 2943     		orrs	r1, r1, r5
 2496 0058 05E0     		b	.L123
 2497              	.LVL200:
 2498              	.L121:
1599:n32g430_std_periph_driver/src/n32g430_tim.c ****         temp_ccen |= (uint32_t)(temp_value | (uint32_t)TIM_CC3EN);
 2499              		.loc 1 1599 9 is_stmt 1 view .LVU630
1599:n32g430_std_periph_driver/src/n32g430_tim.c ****         temp_ccen |= (uint32_t)(temp_value | (uint32_t)TIM_CC3EN);
 2500              		.loc 1 1599 19 is_stmt 0 view .LVU631
 2501 005a 25F40075 		bic	r5, r5, #512
 2502              	.LVL201:
1600:n32g430_std_periph_driver/src/n32g430_tim.c ****     }
 2503              		.loc 1 1600 9 is_stmt 1 view .LVU632
1600:n32g430_std_periph_driver/src/n32g430_tim.c ****     }
 2504              		.loc 1 1600 19 is_stmt 0 view .LVU633
 2505 005e 44EA0501 		orr	r1, r4, r5
 2506              	.LVL202:
1600:n32g430_std_periph_driver/src/n32g430_tim.c ****     }
 2507              		.loc 1 1600 19 view .LVU634
 2508 0062 41F48071 		orr	r1, r1, #256
 2509              	.LVL203:
 2510              	.L123:
1607:n32g430_std_periph_driver/src/n32g430_tim.c ****     }
1608:n32g430_std_periph_driver/src/n32g430_tim.c **** 
1609:n32g430_std_periph_driver/src/n32g430_tim.c ****     /* Write to TIMx CCMOD2 and CCEN registers */
1610:n32g430_std_periph_driver/src/n32g430_tim.c ****     TIMx->CCMOD2 = temp_ccmod2;
 2511              		.loc 1 1610 5 is_stmt 1 view .LVU635
 2512              		.loc 1 1610 18 is_stmt 0 view .LVU636
 2513 0066 C361     		str	r3, [r0, #28]
1611:n32g430_std_periph_driver/src/n32g430_tim.c ****     TIMx->CCEN   = temp_ccen;
 2514              		.loc 1 1611 5 is_stmt 1 view .LVU637
 2515              		.loc 1 1611 18 is_stmt 0 view .LVU638
 2516 0068 0162     		str	r1, [r0, #32]
1612:n32g430_std_periph_driver/src/n32g430_tim.c **** }
 2517              		.loc 1 1612 1 view .LVU639
 2518 006a 30BC     		pop	{r4, r5}
 2519              	.LCFI5:
 2520              		.cfi_restore 5
 2521              		.cfi_restore 4
 2522              		.cfi_def_cfa_offset 0
 2523              	.LVL204:
 2524              		.loc 1 1612 1 view .LVU640
 2525 006c 7047     		bx	lr
 2526              	.L126:
 2527 006e 00BF     		.align	2
 2528              	.L125:
 2529 0070 002C0140 		.word	1073818624
 2530              		.cfi_endproc
 2531              	.LFE193:
 2533              		.section	.text.Input_Channel4_Config,"ax",%progbits
 2534              		.align	1
 2535              		.global	Input_Channel4_Config
 2536              		.syntax unified
 2537              		.thumb
ARM GAS  C:\Users\Dawn\AppData\Local\Temp\ccf7B1Wd.s 			page 72


 2538              		.thumb_func
 2540              	Input_Channel4_Config:
 2541              	.LVL205:
 2542              	.LFB194:
1613:n32g430_std_periph_driver/src/n32g430_tim.c **** 
1614:n32g430_std_periph_driver/src/n32g430_tim.c **** /**
1615:n32g430_std_periph_driver/src/n32g430_tim.c **** *\*\name    Input_Channel4_Config
1616:n32g430_std_periph_driver/src/n32g430_tim.c **** *\*\fun     Configure the TI4 as Inputt.
1617:n32g430_std_periph_driver/src/n32g430_tim.c **** *\*\param   TIMx:
1618:n32g430_std_periph_driver/src/n32g430_tim.c **** *\*\          - TIM1
1619:n32g430_std_periph_driver/src/n32g430_tim.c **** *\*\          - TIM2
1620:n32g430_std_periph_driver/src/n32g430_tim.c **** *\*\          - TIM3
1621:n32g430_std_periph_driver/src/n32g430_tim.c **** *\*\          - TIM4
1622:n32g430_std_periph_driver/src/n32g430_tim.c **** *\*\          - TIM5
1623:n32g430_std_periph_driver/src/n32g430_tim.c **** *\*\          - TIM8
1624:n32g430_std_periph_driver/src/n32g430_tim.c **** *\*\param   input_channel_polarity The Input Polarity.
1625:n32g430_std_periph_driver/src/n32g430_tim.c **** *\*\  This parameter can be one of the following values:
1626:n32g430_std_periph_driver/src/n32g430_tim.c **** *\*\          - TIM_IC_POLARITY_RISING
1627:n32g430_std_periph_driver/src/n32g430_tim.c **** *\*\          - TIM_IC_POLARITY_FALLING
1628:n32g430_std_periph_driver/src/n32g430_tim.c **** *\*\param   input_channel_selection specifies the input to be used.
1629:n32g430_std_periph_driver/src/n32g430_tim.c **** *\*\  This parameter can be one of the following values:
1630:n32g430_std_periph_driver/src/n32g430_tim.c **** *\*\          - TIM_IC_SELECTION_DIRECTTI      TIM Input 4 is selected to be connected to IC4.
1631:n32g430_std_periph_driver/src/n32g430_tim.c **** *\*\          - TIM_IC_SELECTION_INDIRECTTI    TIM Input 4 is selected to be connected to IC3.
1632:n32g430_std_periph_driver/src/n32g430_tim.c **** *\*\          - TIM_IC_SELECTION_TRC           TIM Input 4 is selected to be connected to TRC.
1633:n32g430_std_periph_driver/src/n32g430_tim.c **** *\*\param   input_channel_filter Specifies the Input Capture Filter.
1634:n32g430_std_periph_driver/src/n32g430_tim.c **** *\*\            [0x00 0x0F]
1635:n32g430_std_periph_driver/src/n32g430_tim.c **** *\*\return  none
1636:n32g430_std_periph_driver/src/n32g430_tim.c **** **/
1637:n32g430_std_periph_driver/src/n32g430_tim.c **** void Input_Channel4_Config(TIM_Module* TIMx, uint16_t input_channel_polarity, 
1638:n32g430_std_periph_driver/src/n32g430_tim.c ****                            uint16_t input_channel_selection, uint16_t input_channel_filter)
1639:n32g430_std_periph_driver/src/n32g430_tim.c **** {
 2543              		.loc 1 1639 1 is_stmt 1 view -0
 2544              		.cfi_startproc
 2545              		@ args = 0, pretend = 0, frame = 0
 2546              		@ frame_needed = 0, uses_anonymous_args = 0
 2547              		.loc 1 1639 1 is_stmt 0 view .LVU642
 2548 0000 30B5     		push	{r4, r5, lr}
 2549              	.LCFI6:
 2550              		.cfi_def_cfa_offset 12
 2551              		.cfi_offset 4, -12
 2552              		.cfi_offset 5, -8
 2553              		.cfi_offset 14, -4
1640:n32g430_std_periph_driver/src/n32g430_tim.c ****     uint16_t temp_ccmod2 = 0;
 2554              		.loc 1 1640 5 is_stmt 1 view .LVU643
 2555              	.LVL206:
1641:n32g430_std_periph_driver/src/n32g430_tim.c ****     uint32_t temp_ccen = 0, temp_value = 0;
 2556              		.loc 1 1641 5 view .LVU644
1642:n32g430_std_periph_driver/src/n32g430_tim.c **** 
1643:n32g430_std_periph_driver/src/n32g430_tim.c ****     /* Disable the Channel 4: Reset the CC4E Bit */
1644:n32g430_std_periph_driver/src/n32g430_tim.c ****     TIMx->CCEN &= (uint32_t) ~((uint32_t)TIM_CC4EN);
 2557              		.loc 1 1644 5 view .LVU645
 2558              		.loc 1 1644 9 is_stmt 0 view .LVU646
 2559 0002 046A     		ldr	r4, [r0, #32]
 2560              		.loc 1 1644 16 view .LVU647
 2561 0004 24F48054 		bic	r4, r4, #4096
 2562 0008 0462     		str	r4, [r0, #32]
1645:n32g430_std_periph_driver/src/n32g430_tim.c ****     temp_ccmod2 = TIMx->CCMOD2;
ARM GAS  C:\Users\Dawn\AppData\Local\Temp\ccf7B1Wd.s 			page 73


 2563              		.loc 1 1645 5 is_stmt 1 view .LVU648
 2564              		.loc 1 1645 23 is_stmt 0 view .LVU649
 2565 000a C469     		ldr	r4, [r0, #28]
 2566              	.LVL207:
1646:n32g430_std_periph_driver/src/n32g430_tim.c ****     temp_ccen = TIMx->CCEN;
 2567              		.loc 1 1646 5 is_stmt 1 view .LVU650
 2568              		.loc 1 1646 15 is_stmt 0 view .LVU651
 2569 000c 056A     		ldr	r5, [r0, #32]
 2570              	.LVL208:
1647:n32g430_std_periph_driver/src/n32g430_tim.c ****     temp_value = (uint32_t)(input_channel_polarity << 12);
 2571              		.loc 1 1647 5 is_stmt 1 view .LVU652
 2572              		.loc 1 1647 16 is_stmt 0 view .LVU653
 2573 000e 4FEA013C 		lsl	ip, r1, #12
 2574              	.LVL209:
1648:n32g430_std_periph_driver/src/n32g430_tim.c ****     /* Select the Input and set the filter */
1649:n32g430_std_periph_driver/src/n32g430_tim.c ****     temp_ccmod2 &= (uint16_t)((uint16_t)(~(uint16_t)TIM_IC4_SELECTION_MASK) & ((uint16_t) ~((uint16
 2575              		.loc 1 1649 5 is_stmt 1 view .LVU654
 2576              		.loc 1 1649 17 is_stmt 0 view .LVU655
 2577 0012 40F6FF4E 		movw	lr, #3327
 2578 0016 04EA0E0E 		and	lr, r4, lr
 2579              	.LVL210:
1650:n32g430_std_periph_driver/src/n32g430_tim.c ****     temp_ccmod2 |= (uint16_t)(input_channel_selection << 8);
 2580              		.loc 1 1650 5 is_stmt 1 view .LVU656
 2581              		.loc 1 1650 20 is_stmt 0 view .LVU657
 2582 001a 1202     		lsls	r2, r2, #8
 2583              	.LVL211:
 2584              		.loc 1 1650 20 view .LVU658
 2585 001c 92B2     		uxth	r2, r2
 2586              		.loc 1 1650 17 view .LVU659
 2587 001e 42EA0E02 		orr	r2, r2, lr
 2588              	.LVL212:
1651:n32g430_std_periph_driver/src/n32g430_tim.c ****     temp_ccmod2 |= (uint16_t)(input_channel_filter << 12);
 2589              		.loc 1 1651 5 is_stmt 1 view .LVU660
 2590              		.loc 1 1651 20 is_stmt 0 view .LVU661
 2591 0022 1B03     		lsls	r3, r3, #12
 2592              	.LVL213:
 2593              		.loc 1 1651 20 view .LVU662
 2594 0024 9BB2     		uxth	r3, r3
 2595              		.loc 1 1651 17 view .LVU663
 2596 0026 1343     		orrs	r3, r3, r2
 2597              	.LVL214:
1652:n32g430_std_periph_driver/src/n32g430_tim.c **** 
1653:n32g430_std_periph_driver/src/n32g430_tim.c ****     if ((TIMx == TIM1) || (TIMx == TIM8) || (TIMx == TIM2) || (TIMx == TIM3) || (TIMx == TIM4) || (
 2598              		.loc 1 1653 5 is_stmt 1 view .LVU664
 2599              		.loc 1 1653 8 is_stmt 0 view .LVU665
 2600 0028 124A     		ldr	r2, .L132
 2601 002a 9042     		cmp	r0, r2
 2602 002c 18D0     		beq	.L128
 2603              		.loc 1 1653 24 discriminator 1 view .LVU666
 2604 002e 02F50062 		add	r2, r2, #2048
 2605 0032 9042     		cmp	r0, r2
 2606 0034 14D0     		beq	.L128
 2607              		.loc 1 1653 42 discriminator 2 view .LVU667
 2608 0036 B0F1804F 		cmp	r0, #1073741824
 2609 003a 11D0     		beq	.L128
 2610              		.loc 1 1653 60 discriminator 3 view .LVU668
 2611 003c A2F59832 		sub	r2, r2, #77824
ARM GAS  C:\Users\Dawn\AppData\Local\Temp\ccf7B1Wd.s 			page 74


 2612 0040 9042     		cmp	r0, r2
 2613 0042 0DD0     		beq	.L128
 2614              		.loc 1 1653 78 discriminator 4 view .LVU669
 2615 0044 02F58062 		add	r2, r2, #1024
 2616 0048 9042     		cmp	r0, r2
 2617 004a 09D0     		beq	.L128
 2618              		.loc 1 1653 96 discriminator 5 view .LVU670
 2619 004c 02F58062 		add	r2, r2, #1024
 2620 0050 9042     		cmp	r0, r2
 2621 0052 05D0     		beq	.L128
1654:n32g430_std_periph_driver/src/n32g430_tim.c ****     {
1655:n32g430_std_periph_driver/src/n32g430_tim.c ****         /* Select the Polarity and set the CC4E Bit */
1656:n32g430_std_periph_driver/src/n32g430_tim.c ****         temp_ccen &= (uint32_t) ~((uint32_t)(TIM_CC4P));
1657:n32g430_std_periph_driver/src/n32g430_tim.c ****         temp_ccen |= (uint32_t)(temp_value | (uint32_t)TIM_CC4EN);
1658:n32g430_std_periph_driver/src/n32g430_tim.c ****     }
1659:n32g430_std_periph_driver/src/n32g430_tim.c ****     else
1660:n32g430_std_periph_driver/src/n32g430_tim.c ****     {
1661:n32g430_std_periph_driver/src/n32g430_tim.c ****         /* Select the Polarity and set the CC4E Bit */
1662:n32g430_std_periph_driver/src/n32g430_tim.c ****         temp_ccen &= (uint32_t) ~((uint32_t)(TIM_CC4P));
 2622              		.loc 1 1662 9 is_stmt 1 view .LVU671
 2623              		.loc 1 1662 19 is_stmt 0 view .LVU672
 2624 0054 25F40055 		bic	r5, r5, #8192
 2625              	.LVL215:
1663:n32g430_std_periph_driver/src/n32g430_tim.c ****         temp_ccen |= (uint32_t)(input_channel_polarity | (uint32_t)TIM_CC4EN);
 2626              		.loc 1 1663 9 is_stmt 1 view .LVU673
 2627              		.loc 1 1663 22 is_stmt 0 view .LVU674
 2628 0058 41F48051 		orr	r1, r1, #4096
 2629              	.LVL216:
 2630              		.loc 1 1663 19 view .LVU675
 2631 005c 2943     		orrs	r1, r1, r5
 2632 005e 05E0     		b	.L130
 2633              	.LVL217:
 2634              	.L128:
