ARM GAS  C:\Users\Dawn\AppData\Local\Temp\cc40VLyf.s 			page 1


   1              		.cpu cortex-m4
   2              		.arch armv7e-m
   3              		.fpu softvfp
   4              		.eabi_attribute 23, 1
   5              		.eabi_attribute 24, 1
   6              		.eabi_attribute 25, 1
   7              		.eabi_attribute 26, 1
   8              		.eabi_attribute 30, 1
   9              		.eabi_attribute 34, 1
  10              		.eabi_attribute 18, 4
  11              		.file	"n32g430_i2c.c"
  12              		.text
  13              	.Ltext0:
  14              		.cfi_sections	.debug_frame
  15              		.file 1 "n32g430_std_periph_driver/src/n32g430_i2c.c"
  16              		.section	.text.I2C_Reset,"ax",%progbits
  17              		.align	1
  18              		.global	I2C_Reset
  19              		.syntax unified
  20              		.thumb
  21              		.thumb_func
  23              	I2C_Reset:
  24              	.LVL0:
  25              	.LFB123:
   1:n32g430_std_periph_driver/src/n32g430_i2c.c **** /**
   2:n32g430_std_periph_driver/src/n32g430_i2c.c **** *     Copyright (c) 2022, Nations Technologies Inc.
   3:n32g430_std_periph_driver/src/n32g430_i2c.c **** * 
   4:n32g430_std_periph_driver/src/n32g430_i2c.c **** *     All rights reserved.
   5:n32g430_std_periph_driver/src/n32g430_i2c.c **** *
   6:n32g430_std_periph_driver/src/n32g430_i2c.c **** *     This software is the exclusive property of Nations Technologies Inc. (Hereinafter 
   7:n32g430_std_periph_driver/src/n32g430_i2c.c **** * referred to as NATIONS). This software, and the product of NATIONS described herein 
   8:n32g430_std_periph_driver/src/n32g430_i2c.c **** * (Hereinafter referred to as the Product) are owned by NATIONS under the laws and treaties
   9:n32g430_std_periph_driver/src/n32g430_i2c.c **** * of the People's Republic of China and other applicable jurisdictions worldwide.
  10:n32g430_std_periph_driver/src/n32g430_i2c.c **** *
  11:n32g430_std_periph_driver/src/n32g430_i2c.c **** *     NATIONS does not grant any license under its patents, copyrights, trademarks, or other 
  12:n32g430_std_periph_driver/src/n32g430_i2c.c **** * intellectual property rights. Names and brands of third party may be mentioned or referred 
  13:n32g430_std_periph_driver/src/n32g430_i2c.c **** * thereto (if any) for identification purposes only.
  14:n32g430_std_periph_driver/src/n32g430_i2c.c **** *
  15:n32g430_std_periph_driver/src/n32g430_i2c.c **** *     NATIONS reserves the right to make changes, corrections, enhancements, modifications, and 
  16:n32g430_std_periph_driver/src/n32g430_i2c.c **** * improvements to this software at any time without notice. Please contact NATIONS and obtain 
  17:n32g430_std_periph_driver/src/n32g430_i2c.c **** * the latest version of this software before placing orders.
  18:n32g430_std_periph_driver/src/n32g430_i2c.c **** 
  19:n32g430_std_periph_driver/src/n32g430_i2c.c **** *     Although NATIONS has attempted to provide accurate and reliable information, NATIONS assumes 
  20:n32g430_std_periph_driver/src/n32g430_i2c.c **** * no responsibility for the accuracy and reliability of this software.
  21:n32g430_std_periph_driver/src/n32g430_i2c.c **** * 
  22:n32g430_std_periph_driver/src/n32g430_i2c.c **** *     It is the responsibility of the user of this software to properly design, program, and test 
  23:n32g430_std_periph_driver/src/n32g430_i2c.c **** * the functionality and safety of any application made of this information and any resulting produc
  24:n32g430_std_periph_driver/src/n32g430_i2c.c **** * In no event shall NATIONS be liable for any direct, indirect, incidental, special,exemplary, or 
  25:n32g430_std_periph_driver/src/n32g430_i2c.c **** * consequential damages arising in any way out of the use of this software or the Product.
  26:n32g430_std_periph_driver/src/n32g430_i2c.c **** *
  27:n32g430_std_periph_driver/src/n32g430_i2c.c **** *     NATIONS Products are neither intended nor warranted for usage in systems or equipment, any
  28:n32g430_std_periph_driver/src/n32g430_i2c.c **** * malfunction or failure of which may cause loss of human life, bodily injury or severe property 
  29:n32g430_std_periph_driver/src/n32g430_i2c.c **** * damage. Such applications are deemed, "Insecure Usage".
  30:n32g430_std_periph_driver/src/n32g430_i2c.c **** *
  31:n32g430_std_periph_driver/src/n32g430_i2c.c **** *     All Insecure Usage shall be made at user's risk. User shall indemnify NATIONS and hold NATION
  32:n32g430_std_periph_driver/src/n32g430_i2c.c **** * harmless from and against all claims, costs, damages, and other liabilities, arising from or rela
  33:n32g430_std_periph_driver/src/n32g430_i2c.c **** * to any customer's Insecure Usage.
ARM GAS  C:\Users\Dawn\AppData\Local\Temp\cc40VLyf.s 			page 2


  34:n32g430_std_periph_driver/src/n32g430_i2c.c **** 
  35:n32g430_std_periph_driver/src/n32g430_i2c.c **** *     Any express or implied warranty with regard to this software or the Product, including,but no
  36:n32g430_std_periph_driver/src/n32g430_i2c.c **** * limited to, the warranties of merchantability, fitness for a particular purpose and non-infringem
  37:n32g430_std_periph_driver/src/n32g430_i2c.c **** * are disclaimed to the fullest extent permitted by law.
  38:n32g430_std_periph_driver/src/n32g430_i2c.c **** 
  39:n32g430_std_periph_driver/src/n32g430_i2c.c **** *     Unless otherwise explicitly permitted by NATIONS, anyone may not duplicate, modify, transcrib
  40:n32g430_std_periph_driver/src/n32g430_i2c.c **** * or otherwise distribute this software for any purposes, in whole or in part.
  41:n32g430_std_periph_driver/src/n32g430_i2c.c **** *
  42:n32g430_std_periph_driver/src/n32g430_i2c.c **** *     NATIONS products and technologies shall not be used for or incorporated into any products or 
  43:n32g430_std_periph_driver/src/n32g430_i2c.c **** * whose manufacture, use, or sale is prohibited under any applicable domestic or foreign laws or re
  44:n32g430_std_periph_driver/src/n32g430_i2c.c **** * User shall comply with any applicable export control laws and regulations promulgated and adminis
  45:n32g430_std_periph_driver/src/n32g430_i2c.c **** * the governments of any countries asserting jurisdiction over the parties or transactions.
  46:n32g430_std_periph_driver/src/n32g430_i2c.c **** **/
  47:n32g430_std_periph_driver/src/n32g430_i2c.c **** 
  48:n32g430_std_periph_driver/src/n32g430_i2c.c **** /**
  49:n32g430_std_periph_driver/src/n32g430_i2c.c **** *\*\file n32g430_i2c.c
  50:n32g430_std_periph_driver/src/n32g430_i2c.c **** *\*\author Nations
  51:n32g430_std_periph_driver/src/n32g430_i2c.c **** *\*\version v1.0.0
  52:n32g430_std_periph_driver/src/n32g430_i2c.c **** *\*\copyright Copyright (c) 2022, Nations Technologies Inc. All rights reserved.
  53:n32g430_std_periph_driver/src/n32g430_i2c.c **** **/
  54:n32g430_std_periph_driver/src/n32g430_i2c.c **** #include "n32g430_i2c.h"
  55:n32g430_std_periph_driver/src/n32g430_i2c.c **** #include "n32g430_rcc.h"
  56:n32g430_std_periph_driver/src/n32g430_i2c.c **** 
  57:n32g430_std_periph_driver/src/n32g430_i2c.c **** //** I2C Private Defines **/
  58:n32g430_std_periph_driver/src/n32g430_i2c.c **** 
  59:n32g430_std_periph_driver/src/n32g430_i2c.c **** /** I2C Driving Functions Declaration **/
  60:n32g430_std_periph_driver/src/n32g430_i2c.c **** 
  61:n32g430_std_periph_driver/src/n32g430_i2c.c **** 
  62:n32g430_std_periph_driver/src/n32g430_i2c.c **** /**
  63:n32g430_std_periph_driver/src/n32g430_i2c.c **** *\*\name    I2C_Reset.
  64:n32g430_std_periph_driver/src/n32g430_i2c.c **** *\*\fun     Reset the I2Cx registers.
  65:n32g430_std_periph_driver/src/n32g430_i2c.c **** *\*\param   I2Cx :
  66:n32g430_std_periph_driver/src/n32g430_i2c.c **** *\*\          - I2C1
  67:n32g430_std_periph_driver/src/n32g430_i2c.c **** *\*\          - I2C2
  68:n32g430_std_periph_driver/src/n32g430_i2c.c **** *\*\return  none
  69:n32g430_std_periph_driver/src/n32g430_i2c.c **** **/
  70:n32g430_std_periph_driver/src/n32g430_i2c.c **** void I2C_Reset(I2C_Module* I2Cx)
  71:n32g430_std_periph_driver/src/n32g430_i2c.c **** {
  26              		.loc 1 71 1 view -0
  27              		.cfi_startproc
  28              		@ args = 0, pretend = 0, frame = 0
  29              		@ frame_needed = 0, uses_anonymous_args = 0
  30              		.loc 1 71 1 is_stmt 0 view .LVU1
  31 0000 08B5     		push	{r3, lr}
  32              	.LCFI0:
  33              		.cfi_def_cfa_offset 8
  34              		.cfi_offset 3, -8
  35              		.cfi_offset 14, -4
  72:n32g430_std_periph_driver/src/n32g430_i2c.c ****   
  73:n32g430_std_periph_driver/src/n32g430_i2c.c ****     if (I2Cx == I2C1)
  36              		.loc 1 73 5 is_stmt 1 view .LVU2
  37              		.loc 1 73 8 is_stmt 0 view .LVU3
  38 0002 064B     		ldr	r3, .L6
  39 0004 9842     		cmp	r0, r3
  40 0006 04D0     		beq	.L5
  74:n32g430_std_periph_driver/src/n32g430_i2c.c ****     {
  75:n32g430_std_periph_driver/src/n32g430_i2c.c ****         /* I2C1 Reset */
ARM GAS  C:\Users\Dawn\AppData\Local\Temp\cc40VLyf.s 			page 3


  76:n32g430_std_periph_driver/src/n32g430_i2c.c ****         RCC_APB1_Peripheral_Reset(RCC_APB1_PERIPH_I2C1);
  77:n32g430_std_periph_driver/src/n32g430_i2c.c ****     }
  78:n32g430_std_periph_driver/src/n32g430_i2c.c ****     else
  79:n32g430_std_periph_driver/src/n32g430_i2c.c ****     {
  80:n32g430_std_periph_driver/src/n32g430_i2c.c ****         /* I2C2 Reset */
  81:n32g430_std_periph_driver/src/n32g430_i2c.c ****         RCC_APB1_Peripheral_Reset(RCC_APB1_PERIPH_I2C2);
  41              		.loc 1 81 9 is_stmt 1 view .LVU4
  42 0008 4FF48000 		mov	r0, #4194304
  43              	.LVL1:
  44              		.loc 1 81 9 is_stmt 0 view .LVU5
  45 000c FFF7FEFF 		bl	RCC_APB1_Peripheral_Reset
  46              	.LVL2:
  47              	.L1:
  82:n32g430_std_periph_driver/src/n32g430_i2c.c ****     }
  83:n32g430_std_periph_driver/src/n32g430_i2c.c **** }
  48              		.loc 1 83 1 view .LVU6
  49 0010 08BD     		pop	{r3, pc}
  50              	.LVL3:
  51              	.L5:
  76:n32g430_std_periph_driver/src/n32g430_i2c.c ****     }
  52              		.loc 1 76 9 is_stmt 1 view .LVU7
  53 0012 4FF40010 		mov	r0, #2097152
  54              	.LVL4:
  76:n32g430_std_periph_driver/src/n32g430_i2c.c ****     }
  55              		.loc 1 76 9 is_stmt 0 view .LVU8
  56 0016 FFF7FEFF 		bl	RCC_APB1_Peripheral_Reset
  57              	.LVL5:
  58 001a F9E7     		b	.L1
  59              	.L7:
  60              		.align	2
  61              	.L6:
  62 001c 00540040 		.word	1073763328
  63              		.cfi_endproc
  64              	.LFE123:
  66              		.section	.text.I2C_Clock_Speed_Config,"ax",%progbits
  67              		.align	1
  68              		.global	I2C_Clock_Speed_Config
  69              		.syntax unified
  70              		.thumb
  71              		.thumb_func
  73              	I2C_Clock_Speed_Config:
  74              	.LVL6:
  75              	.LFB125:
  84:n32g430_std_periph_driver/src/n32g430_i2c.c **** 
  85:n32g430_std_periph_driver/src/n32g430_i2c.c **** /**
  86:n32g430_std_periph_driver/src/n32g430_i2c.c **** *\*\name    I2C_Initializes.
  87:n32g430_std_periph_driver/src/n32g430_i2c.c **** *\*\fun     Initializes the I2Cx peripheral according to the specified
  88:n32g430_std_periph_driver/src/n32g430_i2c.c **** *\*\        parameters in the I2C_InitParam
  89:n32g430_std_periph_driver/src/n32g430_i2c.c **** *\*\param   I2Cx :
  90:n32g430_std_periph_driver/src/n32g430_i2c.c **** *\*\          - I2C1
  91:n32g430_std_periph_driver/src/n32g430_i2c.c **** *\*\          - I2C2
  92:n32g430_std_periph_driver/src/n32g430_i2c.c **** *\*\param   I2C_InitParam :
  93:n32g430_std_periph_driver/src/n32g430_i2c.c **** *\*\          - ClkSpeed(common speed:100000(100KHz) - 400000(400KHz) - 1000000(1MHz)):
  94:n32g430_std_periph_driver/src/n32g430_i2c.c **** *\*\            - between 1 to 1000000 
  95:n32g430_std_periph_driver/src/n32g430_i2c.c **** *\*\          - BusMode:
  96:n32g430_std_periph_driver/src/n32g430_i2c.c **** *\*\            - I2C_BUSMODE_I2C
  97:n32g430_std_periph_driver/src/n32g430_i2c.c **** *\*\            - I2C_BUSMODE_SMBDEVICE
ARM GAS  C:\Users\Dawn\AppData\Local\Temp\cc40VLyf.s 			page 4


  98:n32g430_std_periph_driver/src/n32g430_i2c.c **** *\*\            - I2C_BUSMODE_SMBHOST
  99:n32g430_std_periph_driver/src/n32g430_i2c.c **** *\*\          - DutyCycle(If the ClkSpeed does not exceed 100KHz,duty is fixed at 1:1,
 100:n32g430_std_periph_driver/src/n32g430_i2c.c **** *\*\                      otherwise it can be configured as 2:1 or 16:9):
 101:n32g430_std_periph_driver/src/n32g430_i2c.c **** *\*\            - I2C_SMDUTYCYCLE_1  
 102:n32g430_std_periph_driver/src/n32g430_i2c.c **** *\*\            - I2C_FMDUTYCYCLE_16_9
 103:n32g430_std_periph_driver/src/n32g430_i2c.c **** *\*\            - I2C_FMDUTYCYCLE_2
 104:n32g430_std_periph_driver/src/n32g430_i2c.c **** *\*\          - OwnAddr1:
 105:n32g430_std_periph_driver/src/n32g430_i2c.c **** *\*\            - between 0 to 0x3FF 
 106:n32g430_std_periph_driver/src/n32g430_i2c.c **** *\*\          - AckEnable:
 107:n32g430_std_periph_driver/src/n32g430_i2c.c **** *\*\            - I2C_ACKEN
 108:n32g430_std_periph_driver/src/n32g430_i2c.c **** *\*\            - I2C_ACKDIS
 109:n32g430_std_periph_driver/src/n32g430_i2c.c **** *\*\          - AddrMode:
 110:n32g430_std_periph_driver/src/n32g430_i2c.c **** *\*\            - I2C_ADDR_MODE_7BIT
 111:n32g430_std_periph_driver/src/n32g430_i2c.c **** *\*\            - I2C_ADDR_MODE_10BIT
 112:n32g430_std_periph_driver/src/n32g430_i2c.c **** *\*\return  none
 113:n32g430_std_periph_driver/src/n32g430_i2c.c **** **/
 114:n32g430_std_periph_driver/src/n32g430_i2c.c **** void I2C_Initializes(I2C_Module* I2Cx, I2C_InitType* I2C_InitParam)
 115:n32g430_std_periph_driver/src/n32g430_i2c.c **** {
 116:n32g430_std_periph_driver/src/n32g430_i2c.c ****     I2C_Clock_Speed_Config(I2Cx, I2C_InitParam->ClkSpeed, I2C_InitParam->DutyCycle);
 117:n32g430_std_periph_driver/src/n32g430_i2c.c ****     I2C_Bus_Mode_Config(I2Cx, I2C_InitParam->BusMode);
 118:n32g430_std_periph_driver/src/n32g430_i2c.c ****     I2C_Acknowledgement_Config(I2Cx, I2C_InitParam->AckEnable);
 119:n32g430_std_periph_driver/src/n32g430_i2c.c ****     I2C_Addressing_Mode_Config(I2Cx, I2C_InitParam->AddrMode);
 120:n32g430_std_periph_driver/src/n32g430_i2c.c ****     I2C_Own_Addr1_Config(I2Cx, I2C_InitParam->OwnAddr1);
 121:n32g430_std_periph_driver/src/n32g430_i2c.c **** }
 122:n32g430_std_periph_driver/src/n32g430_i2c.c **** 
 123:n32g430_std_periph_driver/src/n32g430_i2c.c **** /**
 124:n32g430_std_periph_driver/src/n32g430_i2c.c **** *\*\name    I2C_Clock_Speed_Config.
 125:n32g430_std_periph_driver/src/n32g430_i2c.c **** *\*\fun     Initializes the clock speed.
 126:n32g430_std_periph_driver/src/n32g430_i2c.c **** *\*\param   I2Cx :
 127:n32g430_std_periph_driver/src/n32g430_i2c.c **** *\*\          - I2C1
 128:n32g430_std_periph_driver/src/n32g430_i2c.c **** *\*\          - I2C2
 129:n32g430_std_periph_driver/src/n32g430_i2c.c **** *\*\param   clk_speed 
 130:n32g430_std_periph_driver/src/n32g430_i2c.c **** *\*\          - between 1 to 1000000
 131:n32g430_std_periph_driver/src/n32g430_i2c.c **** *\*\param   duty_cycle:
 132:n32g430_std_periph_driver/src/n32g430_i2c.c **** *\*\          - I2C_SMDUTYCYCLE_1
 133:n32g430_std_periph_driver/src/n32g430_i2c.c **** *\*\          - I2C_FMDUTYCYCLE_16_9
 134:n32g430_std_periph_driver/src/n32g430_i2c.c **** *\*\          - I2C_FMDUTYCYCLE_2
 135:n32g430_std_periph_driver/src/n32g430_i2c.c **** *\*\return  none
 136:n32g430_std_periph_driver/src/n32g430_i2c.c **** **/
 137:n32g430_std_periph_driver/src/n32g430_i2c.c **** void I2C_Clock_Speed_Config(I2C_Module* I2Cx, uint32_t clk_speed, uint16_t duty_cycle)
 138:n32g430_std_periph_driver/src/n32g430_i2c.c **** {
  76              		.loc 1 138 1 is_stmt 1 view -0
  77              		.cfi_startproc
  78              		@ args = 0, pretend = 0, frame = 24
  79              		@ frame_needed = 0, uses_anonymous_args = 0
  80              		.loc 1 138 1 is_stmt 0 view .LVU10
  81 0000 70B5     		push	{r4, r5, r6, lr}
  82              	.LCFI1:
  83              		.cfi_def_cfa_offset 16
  84              		.cfi_offset 4, -16
  85              		.cfi_offset 5, -12
  86              		.cfi_offset 6, -8
  87              		.cfi_offset 14, -4
  88 0002 86B0     		sub	sp, sp, #24
  89              	.LCFI2:
  90              		.cfi_def_cfa_offset 40
  91 0004 0446     		mov	r4, r0
ARM GAS  C:\Users\Dawn\AppData\Local\Temp\cc40VLyf.s 			page 5


  92 0006 0D46     		mov	r5, r1
  93 0008 1646     		mov	r6, r2
 139:n32g430_std_periph_driver/src/n32g430_i2c.c ****     uint16_t temp_value = 0, freq_value = 0, speed_value = 0x04;
  94              		.loc 1 139 5 is_stmt 1 view .LVU11
  95              	.LVL7:
 140:n32g430_std_periph_driver/src/n32g430_i2c.c ****     uint32_t pclk_value  = 8000000, trise_value = 0;
  96              		.loc 1 140 5 view .LVU12
 141:n32g430_std_periph_driver/src/n32g430_i2c.c ****     RCC_ClocksType rcc_clocks;
  97              		.loc 1 141 5 view .LVU13
 142:n32g430_std_periph_driver/src/n32g430_i2c.c **** 
 143:n32g430_std_periph_driver/src/n32g430_i2c.c ****     /* Get APB1 frequency value */
 144:n32g430_std_periph_driver/src/n32g430_i2c.c ****     RCC_Clocks_Frequencies_Value_Get(&rcc_clocks);
  98              		.loc 1 144 5 view .LVU14
  99 000a 6846     		mov	r0, sp
 100              	.LVL8:
 101              		.loc 1 144 5 is_stmt 0 view .LVU15
 102 000c FFF7FEFF 		bl	RCC_Clocks_Frequencies_Value_Get
 103              	.LVL9:
 145:n32g430_std_periph_driver/src/n32g430_i2c.c **** 
 146:n32g430_std_periph_driver/src/n32g430_i2c.c ****     /** I2Cx CTRL2 config **/
 147:n32g430_std_periph_driver/src/n32g430_i2c.c ****     /* Get the I2Cx CTRL2 value */
 148:n32g430_std_periph_driver/src/n32g430_i2c.c ****     temp_value = I2Cx->CTRL2;
 104              		.loc 1 148 5 is_stmt 1 view .LVU16
 105              		.loc 1 148 16 is_stmt 0 view .LVU17
 106 0010 A388     		ldrh	r3, [r4, #4]
 107 0012 9BB2     		uxth	r3, r3
 108              	.LVL10:
 149:n32g430_std_periph_driver/src/n32g430_i2c.c ****     /* Clear frequency FREQ[5:0] bits */
 150:n32g430_std_periph_driver/src/n32g430_i2c.c ****     temp_value &= I2C_CLKFREQ_RESET;
 109              		.loc 1 150 5 is_stmt 1 view .LVU18
 110              		.loc 1 150 16 is_stmt 0 view .LVU19
 111 0014 23F03F03 		bic	r3, r3, #63
 112              	.LVL11:
 113              		.loc 1 150 16 view .LVU20
 114 0018 9BB2     		uxth	r3, r3
 115              	.LVL12:
 151:n32g430_std_periph_driver/src/n32g430_i2c.c ****     /* Get APB1 frequency value */
 152:n32g430_std_periph_driver/src/n32g430_i2c.c ****     pclk_value = rcc_clocks.Pclk1Freq;  
 116              		.loc 1 152 5 is_stmt 1 view .LVU21
 117              		.loc 1 152 16 is_stmt 0 view .LVU22
 118 001a 0298     		ldr	r0, [sp, #8]
 119              	.LVL13:
 153:n32g430_std_periph_driver/src/n32g430_i2c.c ****     /* Set frequency bits depending on APB1 pclk value */
 154:n32g430_std_periph_driver/src/n32g430_i2c.c ****     freq_value = (uint16_t)(pclk_value / 1000000);
 120              		.loc 1 154 5 is_stmt 1 view .LVU23
 121              		.loc 1 154 40 is_stmt 0 view .LVU24
 122 001c 3149     		ldr	r1, .L20
 123 001e A1FB0021 		umull	r2, r1, r1, r0
 124              		.loc 1 154 16 view .LVU25
 125 0022 8A0C     		lsrs	r2, r1, #18
 126              	.LVL14:
 155:n32g430_std_periph_driver/src/n32g430_i2c.c ****     if (freq_value > APB1_FREQ_MAX_VALUE) 
 127              		.loc 1 155 5 is_stmt 1 view .LVU26
 128              		.loc 1 155 8 is_stmt 0 view .LVU27
 129 0024 B1F5040F 		cmp	r1, #8650752
 130 0028 00D3     		bcc	.L9
 156:n32g430_std_periph_driver/src/n32g430_i2c.c ****     {
ARM GAS  C:\Users\Dawn\AppData\Local\Temp\cc40VLyf.s 			page 6


 157:n32g430_std_periph_driver/src/n32g430_i2c.c ****         freq_value = APB1_FREQ_MAX_VALUE;
 131              		.loc 1 157 20 view .LVU28
 132 002a 2022     		movs	r2, #32
 133              	.LVL15:
 134              	.L9:
 158:n32g430_std_periph_driver/src/n32g430_i2c.c ****     }
 159:n32g430_std_periph_driver/src/n32g430_i2c.c ****     /* Write to I2Cx CTRL2 */
 160:n32g430_std_periph_driver/src/n32g430_i2c.c ****     temp_value |= freq_value;
 135              		.loc 1 160 5 is_stmt 1 view .LVU29
 136              		.loc 1 160 16 is_stmt 0 view .LVU30
 137 002c 1343     		orrs	r3, r3, r2
 138              	.LVL16:
 161:n32g430_std_periph_driver/src/n32g430_i2c.c ****     I2Cx->CTRL2 = temp_value;
 139              		.loc 1 161 5 is_stmt 1 view .LVU31
 140              		.loc 1 161 17 is_stmt 0 view .LVU32
 141 002e A380     		strh	r3, [r4, #4]	@ movhi
 162:n32g430_std_periph_driver/src/n32g430_i2c.c ****    
 163:n32g430_std_periph_driver/src/n32g430_i2c.c ****     /** I2Cx CLKCTRL config **/
 164:n32g430_std_periph_driver/src/n32g430_i2c.c ****     /* Disable the selected I2C peripheral to configure TMRISE */
 165:n32g430_std_periph_driver/src/n32g430_i2c.c ****     I2Cx->CTRL1 &= I2C_EN_RESET;  
 142              		.loc 1 165 5 is_stmt 1 view .LVU33
 143              		.loc 1 165 9 is_stmt 0 view .LVU34
 144 0030 2188     		ldrh	r1, [r4]
 145 0032 89B2     		uxth	r1, r1
 146              		.loc 1 165 17 view .LVU35
 147 0034 21F00101 		bic	r1, r1, #1
 148 0038 89B2     		uxth	r1, r1
 149 003a 2180     		strh	r1, [r4]	@ movhi
 166:n32g430_std_periph_driver/src/n32g430_i2c.c ****     /* Get the I2Cx TMRISE value */
 167:n32g430_std_periph_driver/src/n32g430_i2c.c ****     trise_value = I2Cx->TMRISE;    
 150              		.loc 1 167 5 is_stmt 1 view .LVU36
 151              		.loc 1 167 17 is_stmt 0 view .LVU37
 152 003c 216A     		ldr	r1, [r4, #32]
 153              	.LVL17:
 168:n32g430_std_periph_driver/src/n32g430_i2c.c ****     /* Clear TMRISE[5:0] bits */
 169:n32g430_std_periph_driver/src/n32g430_i2c.c ****     trise_value &= (~I2C_TMRISE_MASK);
 154              		.loc 1 169 5 is_stmt 1 view .LVU38
 155              		.loc 1 169 17 is_stmt 0 view .LVU39
 156 003e 21F03F01 		bic	r1, r1, #63
 157              	.LVL18:
 170:n32g430_std_periph_driver/src/n32g430_i2c.c ****     /* Reset temp_value */
 171:n32g430_std_periph_driver/src/n32g430_i2c.c ****     /* Clear CLKCTRL:FSMODE, DUTY and CLKCTRL[11:0] bits */
 172:n32g430_std_periph_driver/src/n32g430_i2c.c ****     temp_value = 0;
 158              		.loc 1 172 5 is_stmt 1 view .LVU40
 173:n32g430_std_periph_driver/src/n32g430_i2c.c ****     
 174:n32g430_std_periph_driver/src/n32g430_i2c.c ****     /*If the ClkSpeed does not exceed 100KHz, mode(FSMODE[bit15]) is standard, duty is fixed at 1:1
 175:n32g430_std_periph_driver/src/n32g430_i2c.c ****     /* Configure speed in SM(standard mode) */
 176:n32g430_std_periph_driver/src/n32g430_i2c.c ****     if (clk_speed <= CLK_SPEED_100K)
 159              		.loc 1 176 5 view .LVU41
 160              		.loc 1 176 8 is_stmt 0 view .LVU42
 161 0042 294B     		ldr	r3, .L20+4
 162 0044 9D42     		cmp	r5, r3
 163 0046 13D8     		bhi	.L10
 177:n32g430_std_periph_driver/src/n32g430_i2c.c ****     {
 178:n32g430_std_periph_driver/src/n32g430_i2c.c ****         /* Standard mode speed calculate: Tlow/Thigh = 1 */
 179:n32g430_std_periph_driver/src/n32g430_i2c.c ****         speed_value = (uint16_t)(pclk_value / (clk_speed * 2)); 
 164              		.loc 1 179 9 is_stmt 1 view .LVU43
ARM GAS  C:\Users\Dawn\AppData\Local\Temp\cc40VLyf.s 			page 7


 165              		.loc 1 179 58 is_stmt 0 view .LVU44
 166 0048 6B00     		lsls	r3, r5, #1
 167              		.loc 1 179 45 view .LVU45
 168 004a B0FBF3F3 		udiv	r3, r0, r3
 169              		.loc 1 179 21 view .LVU46
 170 004e 9BB2     		uxth	r3, r3
 171              	.LVL19:
 180:n32g430_std_periph_driver/src/n32g430_i2c.c ****         /* Test if CLKCTRL value is under 0x4*/
 181:n32g430_std_periph_driver/src/n32g430_i2c.c ****         if (speed_value < SM_CLKCTRL_LOW_LIMIT)
 172              		.loc 1 181 9 is_stmt 1 view .LVU47
 173              		.loc 1 181 12 is_stmt 0 view .LVU48
 174 0050 032B     		cmp	r3, #3
 175 0052 00D8     		bhi	.L11
 182:n32g430_std_periph_driver/src/n32g430_i2c.c ****         {
 183:n32g430_std_periph_driver/src/n32g430_i2c.c ****             /* Set minimum allowed value */
 184:n32g430_std_periph_driver/src/n32g430_i2c.c ****             speed_value = SM_CLKCTRL_LOW_LIMIT;
 176              		.loc 1 184 25 view .LVU49
 177 0054 0423     		movs	r3, #4
 178              	.LVL20:
 179              	.L11:
 185:n32g430_std_periph_driver/src/n32g430_i2c.c ****         }
 186:n32g430_std_periph_driver/src/n32g430_i2c.c ****         /* Set speed value for standard mode */
 187:n32g430_std_periph_driver/src/n32g430_i2c.c ****         temp_value |= speed_value;   
 180              		.loc 1 187 9 is_stmt 1 view .LVU50
 188:n32g430_std_periph_driver/src/n32g430_i2c.c ****         /* Set Maximum Rise Time for standard mode */
 189:n32g430_std_periph_driver/src/n32g430_i2c.c ****         trise_value |= ((freq_value + 1) & I2C_TMRISE_MASK);         
 181              		.loc 1 189 9 view .LVU51
 182              		.loc 1 189 37 is_stmt 0 view .LVU52
 183 0056 0132     		adds	r2, r2, #1
 184              	.LVL21:
 185              		.loc 1 189 42 view .LVU53
 186 0058 02F03F02 		and	r2, r2, #63
 187              	.LVL22:
 188              		.loc 1 189 21 view .LVU54
 189 005c 0A43     		orrs	r2, r2, r1
 190              	.LVL23:
 191              	.L12:
 190:n32g430_std_periph_driver/src/n32g430_i2c.c ****     }
 191:n32g430_std_periph_driver/src/n32g430_i2c.c ****     /*If ClkSpeed exceeds 100KHz, mode(FSMODE[bit15]) is fast, duty(DUTY[bit14]) can be configured 
 192:n32g430_std_periph_driver/src/n32g430_i2c.c ****     /* Configure speed in FM(fast mode) */
 193:n32g430_std_periph_driver/src/n32g430_i2c.c ****     else 
 194:n32g430_std_periph_driver/src/n32g430_i2c.c ****     {
 195:n32g430_std_periph_driver/src/n32g430_i2c.c ****         if (duty_cycle != I2C_FMDUTYCYCLE_16_9)
 196:n32g430_std_periph_driver/src/n32g430_i2c.c ****         {
 197:n32g430_std_periph_driver/src/n32g430_i2c.c ****             /* Fast mode speed calculate: Tlow/Thigh = 2 */
 198:n32g430_std_periph_driver/src/n32g430_i2c.c ****             speed_value = (uint16_t)(pclk_value / (clk_speed * 3));
 199:n32g430_std_periph_driver/src/n32g430_i2c.c ****         }
 200:n32g430_std_periph_driver/src/n32g430_i2c.c ****         else /*duty_cycle == I2C_FMDUTYCYCLE_16_9*/
 201:n32g430_std_periph_driver/src/n32g430_i2c.c ****         {
 202:n32g430_std_periph_driver/src/n32g430_i2c.c ****             /* Fast mode speed calculate: Tlow/Thigh = 16/9 */
 203:n32g430_std_periph_driver/src/n32g430_i2c.c ****             speed_value = (uint16_t)(pclk_value / (clk_speed * 25));
 204:n32g430_std_periph_driver/src/n32g430_i2c.c ****             /* Set DUTY bit */
 205:n32g430_std_periph_driver/src/n32g430_i2c.c ****             speed_value |= I2C_FMDUTYCYCLE_16_9;
 206:n32g430_std_periph_driver/src/n32g430_i2c.c ****         }
 207:n32g430_std_periph_driver/src/n32g430_i2c.c **** 
 208:n32g430_std_periph_driver/src/n32g430_i2c.c ****         /* Test if CLKCTRL value is under 0x1*/
 209:n32g430_std_periph_driver/src/n32g430_i2c.c ****         if ((speed_value & I2C_CLKCTRL_SET) < FM_CLKCTRL_LOW_LIMIT)
ARM GAS  C:\Users\Dawn\AppData\Local\Temp\cc40VLyf.s 			page 8


 210:n32g430_std_periph_driver/src/n32g430_i2c.c ****         {
 211:n32g430_std_periph_driver/src/n32g430_i2c.c ****             /* Set minimum allowed value */
 212:n32g430_std_periph_driver/src/n32g430_i2c.c ****             speed_value |= (uint16_t)FM_CLKCTRL_LOW_LIMIT;
 213:n32g430_std_periph_driver/src/n32g430_i2c.c ****         }
 214:n32g430_std_periph_driver/src/n32g430_i2c.c ****         /* Set speed value and set F/S bit for fast mode */
 215:n32g430_std_periph_driver/src/n32g430_i2c.c ****         temp_value |= (uint16_t)(speed_value | I2C_FSMODE_SET);
 216:n32g430_std_periph_driver/src/n32g430_i2c.c ****         
 217:n32g430_std_periph_driver/src/n32g430_i2c.c ****         /* Set Maximum Rise Time for fast mode */
 218:n32g430_std_periph_driver/src/n32g430_i2c.c ****         /* if APB1 frequency is 32MHz,period = 1/32*1000ns,so trise_value = period/TRISE+1=32*TRISE
 219:n32g430_std_periph_driver/src/n32g430_i2c.c ****         if(clk_speed <= CLK_SPEED_400K)   /* 100KHz~400KHz */ 
 220:n32g430_std_periph_driver/src/n32g430_i2c.c ****         {
 221:n32g430_std_periph_driver/src/n32g430_i2c.c ****             trise_value |= (((uint16_t)(((freq_value * (uint16_t)FM_TRISE_400K) / (uint16_t)1000) +
 222:n32g430_std_periph_driver/src/n32g430_i2c.c ****         }
 223:n32g430_std_periph_driver/src/n32g430_i2c.c ****         else  /* 400KHz~1MHz */ 
 224:n32g430_std_periph_driver/src/n32g430_i2c.c ****         {
 225:n32g430_std_periph_driver/src/n32g430_i2c.c ****             trise_value |= (((uint16_t)(((freq_value * (uint16_t)FM_TRISE_1M) / (uint16_t)1000) + (
 226:n32g430_std_periph_driver/src/n32g430_i2c.c ****         }
 227:n32g430_std_periph_driver/src/n32g430_i2c.c ****     }
 228:n32g430_std_periph_driver/src/n32g430_i2c.c ****     /* Write to I2Cx TMRISE */
 229:n32g430_std_periph_driver/src/n32g430_i2c.c ****     I2Cx->TMRISE = trise_value;
 192              		.loc 1 229 5 is_stmt 1 view .LVU55
 193              		.loc 1 229 18 is_stmt 0 view .LVU56
 194 005e 2262     		str	r2, [r4, #32]
 230:n32g430_std_periph_driver/src/n32g430_i2c.c ****     /* Write to I2Cx CLKCTRL */
 231:n32g430_std_periph_driver/src/n32g430_i2c.c ****     I2Cx->CLKCTRL = temp_value; 
 195              		.loc 1 231 5 is_stmt 1 view .LVU57
 196              		.loc 1 231 19 is_stmt 0 view .LVU58
 197 0060 A383     		strh	r3, [r4, #28]	@ movhi
 232:n32g430_std_periph_driver/src/n32g430_i2c.c ****     /* Enable the selected I2C peripheral */
 233:n32g430_std_periph_driver/src/n32g430_i2c.c ****     I2Cx->CTRL1 |= I2C_EN_SET;
 198              		.loc 1 233 5 is_stmt 1 view .LVU59
 199              		.loc 1 233 9 is_stmt 0 view .LVU60
 200 0062 2388     		ldrh	r3, [r4]
 201              	.LVL24:
 202              		.loc 1 233 9 view .LVU61
 203 0064 9BB2     		uxth	r3, r3
 204              		.loc 1 233 17 view .LVU62
 205 0066 43F00103 		orr	r3, r3, #1
 206 006a 2380     		strh	r3, [r4]	@ movhi
 207              	.LVL25:
 234:n32g430_std_periph_driver/src/n32g430_i2c.c **** }
 208              		.loc 1 234 1 view .LVU63
 209 006c 06B0     		add	sp, sp, #24
 210              	.LCFI3:
 211              		.cfi_remember_state
 212              		.cfi_def_cfa_offset 16
 213              		@ sp needed
 214 006e 70BD     		pop	{r4, r5, r6, pc}
 215              	.LVL26:
 216              	.L10:
 217              	.LCFI4:
 218              		.cfi_restore_state
 195:n32g430_std_periph_driver/src/n32g430_i2c.c ****         {
 219              		.loc 1 195 9 is_stmt 1 view .LVU64
 195:n32g430_std_periph_driver/src/n32g430_i2c.c ****         {
 220              		.loc 1 195 12 is_stmt 0 view .LVU65
 221 0070 B6F5804F 		cmp	r6, #16384
ARM GAS  C:\Users\Dawn\AppData\Local\Temp\cc40VLyf.s 			page 9


 222 0074 1DD0     		beq	.L13
 198:n32g430_std_periph_driver/src/n32g430_i2c.c ****         }
 223              		.loc 1 198 13 is_stmt 1 view .LVU66
 198:n32g430_std_periph_driver/src/n32g430_i2c.c ****         }
 224              		.loc 1 198 62 is_stmt 0 view .LVU67
 225 0076 05EB4503 		add	r3, r5, r5, lsl #1
 198:n32g430_std_periph_driver/src/n32g430_i2c.c ****         }
 226              		.loc 1 198 49 view .LVU68
 227 007a B0FBF3F3 		udiv	r3, r0, r3
 198:n32g430_std_periph_driver/src/n32g430_i2c.c ****         }
 228              		.loc 1 198 25 view .LVU69
 229 007e 9BB2     		uxth	r3, r3
 230              	.LVL27:
 231              	.L14:
 209:n32g430_std_periph_driver/src/n32g430_i2c.c ****         {
 232              		.loc 1 209 9 is_stmt 1 view .LVU70
 209:n32g430_std_periph_driver/src/n32g430_i2c.c ****         {
 233              		.loc 1 209 12 is_stmt 0 view .LVU71
 234 0080 C3F30B00 		ubfx	r0, r3, #0, #12
 235              	.LVL28:
 209:n32g430_std_periph_driver/src/n32g430_i2c.c ****         {
 236              		.loc 1 209 12 view .LVU72
 237 0084 08B9     		cbnz	r0, .L15
 212:n32g430_std_periph_driver/src/n32g430_i2c.c ****         }
 238              		.loc 1 212 13 is_stmt 1 view .LVU73
 212:n32g430_std_periph_driver/src/n32g430_i2c.c ****         }
 239              		.loc 1 212 25 is_stmt 0 view .LVU74
 240 0086 43F00103 		orr	r3, r3, #1
 241              	.LVL29:
 242              	.L15:
 215:n32g430_std_periph_driver/src/n32g430_i2c.c ****         
 243              		.loc 1 215 9 is_stmt 1 view .LVU75
 215:n32g430_std_periph_driver/src/n32g430_i2c.c ****         
 244              		.loc 1 215 20 is_stmt 0 view .LVU76
 245 008a 43F40043 		orr	r3, r3, #32768
 246              	.LVL30:
 219:n32g430_std_periph_driver/src/n32g430_i2c.c ****         {
 247              		.loc 1 219 9 is_stmt 1 view .LVU77
 219:n32g430_std_periph_driver/src/n32g430_i2c.c ****         {
 248              		.loc 1 219 11 is_stmt 0 view .LVU78
 249 008e 1748     		ldr	r0, .L20+8
 250 0090 8542     		cmp	r5, r0
 251 0092 18D8     		bhi	.L16
 221:n32g430_std_periph_driver/src/n32g430_i2c.c ****         }
 252              		.loc 1 221 13 is_stmt 1 view .LVU79
 221:n32g430_std_periph_driver/src/n32g430_i2c.c ****         }
 253              		.loc 1 221 54 is_stmt 0 view .LVU80
 254 0094 4FF49670 		mov	r0, #300
 255 0098 00FB02F2 		mul	r2, r0, r2
 256              	.LVL31:
 221:n32g430_std_periph_driver/src/n32g430_i2c.c ****         }
 257              		.loc 1 221 81 view .LVU81
 258 009c 1448     		ldr	r0, .L20+12
 259 009e 80FB0250 		smull	r5, r0, r0, r2
 260              	.LVL32:
 221:n32g430_std_periph_driver/src/n32g430_i2c.c ****         }
 261              		.loc 1 221 81 view .LVU82
ARM GAS  C:\Users\Dawn\AppData\Local\Temp\cc40VLyf.s 			page 10


 262 00a2 D217     		asrs	r2, r2, #31
 263 00a4 C2EBA012 		rsb	r2, r2, r0, asr #6
 221:n32g430_std_periph_driver/src/n32g430_i2c.c ****         }
 264              		.loc 1 221 30 view .LVU83
 265 00a8 0132     		adds	r2, r2, #1
 221:n32g430_std_periph_driver/src/n32g430_i2c.c ****         }
 266              		.loc 1 221 115 view .LVU84
 267 00aa 02F03F02 		and	r2, r2, #63
 221:n32g430_std_periph_driver/src/n32g430_i2c.c ****         }
 268              		.loc 1 221 25 view .LVU85
 269 00ae 0A43     		orrs	r2, r2, r1
 270              	.LVL33:
 221:n32g430_std_periph_driver/src/n32g430_i2c.c ****         }
 271              		.loc 1 221 25 view .LVU86
 272 00b0 D5E7     		b	.L12
 273              	.LVL34:
 274              	.L13:
 203:n32g430_std_periph_driver/src/n32g430_i2c.c ****             /* Set DUTY bit */
 275              		.loc 1 203 13 is_stmt 1 view .LVU87
 203:n32g430_std_periph_driver/src/n32g430_i2c.c ****             /* Set DUTY bit */
 276              		.loc 1 203 62 is_stmt 0 view .LVU88
 277 00b2 05EB8503 		add	r3, r5, r5, lsl #2
 278 00b6 03EB8303 		add	r3, r3, r3, lsl #2
 203:n32g430_std_periph_driver/src/n32g430_i2c.c ****             /* Set DUTY bit */
 279              		.loc 1 203 49 view .LVU89
 280 00ba B0FBF3F3 		udiv	r3, r0, r3
 203:n32g430_std_periph_driver/src/n32g430_i2c.c ****             /* Set DUTY bit */
 281              		.loc 1 203 25 view .LVU90
 282 00be 9BB2     		uxth	r3, r3
 283              	.LVL35:
 205:n32g430_std_periph_driver/src/n32g430_i2c.c ****         }
 284              		.loc 1 205 13 is_stmt 1 view .LVU91
 205:n32g430_std_periph_driver/src/n32g430_i2c.c ****         }
 285              		.loc 1 205 25 is_stmt 0 view .LVU92
 286 00c0 43F48043 		orr	r3, r3, #16384
 287              	.LVL36:
 205:n32g430_std_periph_driver/src/n32g430_i2c.c ****         }
 288              		.loc 1 205 25 view .LVU93
 289 00c4 DCE7     		b	.L14
 290              	.LVL37:
 291              	.L16:
 225:n32g430_std_periph_driver/src/n32g430_i2c.c ****         }
 292              		.loc 1 225 13 is_stmt 1 view .LVU94
 225:n32g430_std_periph_driver/src/n32g430_i2c.c ****         }
 293              		.loc 1 225 54 is_stmt 0 view .LVU95
 294 00c6 C2EB0212 		rsb	r2, r2, r2, lsl #4
 295              	.LVL38:
 225:n32g430_std_periph_driver/src/n32g430_i2c.c ****         }
 296              		.loc 1 225 54 view .LVU96
 297 00ca D200     		lsls	r2, r2, #3
 225:n32g430_std_periph_driver/src/n32g430_i2c.c ****         }
 298              		.loc 1 225 79 view .LVU97
 299 00cc 0848     		ldr	r0, .L20+12
 300 00ce 80FB0250 		smull	r5, r0, r0, r2
 301              	.LVL39:
 225:n32g430_std_periph_driver/src/n32g430_i2c.c ****         }
 302              		.loc 1 225 79 view .LVU98
ARM GAS  C:\Users\Dawn\AppData\Local\Temp\cc40VLyf.s 			page 11


 303 00d2 D217     		asrs	r2, r2, #31
 304 00d4 C2EBA012 		rsb	r2, r2, r0, asr #6
 225:n32g430_std_periph_driver/src/n32g430_i2c.c ****         }
 305              		.loc 1 225 30 view .LVU99
 306 00d8 0132     		adds	r2, r2, #1
 225:n32g430_std_periph_driver/src/n32g430_i2c.c ****         }
 307              		.loc 1 225 113 view .LVU100
 308 00da 02F03F02 		and	r2, r2, #63
 225:n32g430_std_periph_driver/src/n32g430_i2c.c ****         }
 309              		.loc 1 225 25 view .LVU101
 310 00de 0A43     		orrs	r2, r2, r1
 311 00e0 BDE7     		b	.L12
 312              	.L21:
 313 00e2 00BF     		.align	2
 314              	.L20:
 315 00e4 83DE1B43 		.word	1125899907
 316 00e8 A0860100 		.word	100000
 317 00ec 801A0600 		.word	400000
 318 00f0 D34D6210 		.word	274877907
 319              		.cfi_endproc
 320              	.LFE125:
 322              		.section	.text.I2C_Bus_Mode_Config,"ax",%progbits
 323              		.align	1
 324              		.global	I2C_Bus_Mode_Config
 325              		.syntax unified
 326              		.thumb
 327              		.thumb_func
 329              	I2C_Bus_Mode_Config:
 330              	.LVL40:
 331              	.LFB126:
 235:n32g430_std_periph_driver/src/n32g430_i2c.c **** 
 236:n32g430_std_periph_driver/src/n32g430_i2c.c **** /**
 237:n32g430_std_periph_driver/src/n32g430_i2c.c **** *\*\name    I2C_Bus_Mode_Config.
 238:n32g430_std_periph_driver/src/n32g430_i2c.c **** *\*\fun     Initializes the bus mode.
 239:n32g430_std_periph_driver/src/n32g430_i2c.c **** *\*\param   I2Cx :
 240:n32g430_std_periph_driver/src/n32g430_i2c.c **** *\*\          - I2C1
 241:n32g430_std_periph_driver/src/n32g430_i2c.c **** *\*\          - I2C2
 242:n32g430_std_periph_driver/src/n32g430_i2c.c **** *\*\param   mode
 243:n32g430_std_periph_driver/src/n32g430_i2c.c **** *\*\          - I2C_BUSMODE_I2C
 244:n32g430_std_periph_driver/src/n32g430_i2c.c **** *\*\          - I2C_BUSMODE_SMBDEVICE
 245:n32g430_std_periph_driver/src/n32g430_i2c.c **** *\*\          - I2C_BUSMODE_SMBHOST
 246:n32g430_std_periph_driver/src/n32g430_i2c.c **** *\*\return  none
 247:n32g430_std_periph_driver/src/n32g430_i2c.c **** **/
 248:n32g430_std_periph_driver/src/n32g430_i2c.c **** void I2C_Bus_Mode_Config(I2C_Module* I2Cx, uint16_t mode)
 249:n32g430_std_periph_driver/src/n32g430_i2c.c **** {
 332              		.loc 1 249 1 is_stmt 1 view -0
 333              		.cfi_startproc
 334              		@ args = 0, pretend = 0, frame = 0
 335              		@ frame_needed = 0, uses_anonymous_args = 0
 336              		@ link register save eliminated.
 250:n32g430_std_periph_driver/src/n32g430_i2c.c ****     uint16_t temp_value = 0;
 337              		.loc 1 250 5 view .LVU103
 251:n32g430_std_periph_driver/src/n32g430_i2c.c **** 
 252:n32g430_std_periph_driver/src/n32g430_i2c.c ****     /* Get the I2Cx CTRL1 value */
 253:n32g430_std_periph_driver/src/n32g430_i2c.c ****     temp_value = I2Cx->CTRL1;
 338              		.loc 1 253 5 view .LVU104
 339              		.loc 1 253 16 is_stmt 0 view .LVU105
ARM GAS  C:\Users\Dawn\AppData\Local\Temp\cc40VLyf.s 			page 12


 340 0000 0388     		ldrh	r3, [r0]
 341 0002 9BB2     		uxth	r3, r3
 342              	.LVL41:
 254:n32g430_std_periph_driver/src/n32g430_i2c.c ****     /* Clear SMBTYPE and SMBUS bits */
 255:n32g430_std_periph_driver/src/n32g430_i2c.c ****     temp_value &= I2C_BUSMODE_CLR_MASK;
 343              		.loc 1 255 5 is_stmt 1 view .LVU106
 344              		.loc 1 255 16 is_stmt 0 view .LVU107
 345 0004 23F00A03 		bic	r3, r3, #10
 346              	.LVL42:
 256:n32g430_std_periph_driver/src/n32g430_i2c.c ****     /* Set SMBTYPE and SMBUS bits according to mode value */
 257:n32g430_std_periph_driver/src/n32g430_i2c.c ****     temp_value |= (uint16_t)((uint32_t)mode);
 347              		.loc 1 257 5 is_stmt 1 view .LVU108
 348              		.loc 1 257 16 is_stmt 0 view .LVU109
 349 0008 0B43     		orrs	r3, r3, r1
 350              	.LVL43:
 258:n32g430_std_periph_driver/src/n32g430_i2c.c ****     /* Set I2Cx CTRL1 */
 259:n32g430_std_periph_driver/src/n32g430_i2c.c ****     I2Cx->CTRL1 = temp_value;
 351              		.loc 1 259 5 is_stmt 1 view .LVU110
 352              		.loc 1 259 17 is_stmt 0 view .LVU111
 353 000a 0380     		strh	r3, [r0]	@ movhi
 260:n32g430_std_periph_driver/src/n32g430_i2c.c **** }
 354              		.loc 1 260 1 view .LVU112
 355 000c 7047     		bx	lr
 356              		.cfi_endproc
 357              	.LFE126:
 359              		.section	.text.I2C_Acknowledgement_Config,"ax",%progbits
 360              		.align	1
 361              		.global	I2C_Acknowledgement_Config
 362              		.syntax unified
 363              		.thumb
 364              		.thumb_func
 366              	I2C_Acknowledgement_Config:
 367              	.LVL44:
 368              	.LFB127:
 261:n32g430_std_periph_driver/src/n32g430_i2c.c **** 
 262:n32g430_std_periph_driver/src/n32g430_i2c.c **** /**
 263:n32g430_std_periph_driver/src/n32g430_i2c.c **** *\*\name    I2C_Acknowledgement_Config.
 264:n32g430_std_periph_driver/src/n32g430_i2c.c **** *\*\fun     Initializes the acknowledgement.
 265:n32g430_std_periph_driver/src/n32g430_i2c.c **** *\*\param   I2Cx :
 266:n32g430_std_periph_driver/src/n32g430_i2c.c **** *\*\          - I2C1
 267:n32g430_std_periph_driver/src/n32g430_i2c.c **** *\*\          - I2C2
 268:n32g430_std_periph_driver/src/n32g430_i2c.c **** *\*\param   ack
 269:n32g430_std_periph_driver/src/n32g430_i2c.c **** *\*\          - I2C_ACKEN
 270:n32g430_std_periph_driver/src/n32g430_i2c.c **** *\*\          - I2C_ACKDIS
 271:n32g430_std_periph_driver/src/n32g430_i2c.c **** *\*\return  none
 272:n32g430_std_periph_driver/src/n32g430_i2c.c **** **/
 273:n32g430_std_periph_driver/src/n32g430_i2c.c **** void I2C_Acknowledgement_Config(I2C_Module* I2Cx, uint16_t ack)
 274:n32g430_std_periph_driver/src/n32g430_i2c.c **** {
 369              		.loc 1 274 1 is_stmt 1 view -0
 370              		.cfi_startproc
 371              		@ args = 0, pretend = 0, frame = 0
 372              		@ frame_needed = 0, uses_anonymous_args = 0
 373              		@ link register save eliminated.
 275:n32g430_std_periph_driver/src/n32g430_i2c.c ****     uint16_t temp_value = 0;
 374              		.loc 1 275 5 view .LVU114
 276:n32g430_std_periph_driver/src/n32g430_i2c.c **** 
 277:n32g430_std_periph_driver/src/n32g430_i2c.c ****     /* Get the I2Cx CTRL1 value */
ARM GAS  C:\Users\Dawn\AppData\Local\Temp\cc40VLyf.s 			page 13


 278:n32g430_std_periph_driver/src/n32g430_i2c.c ****     temp_value = I2Cx->CTRL1;
 375              		.loc 1 278 5 view .LVU115
 376              		.loc 1 278 16 is_stmt 0 view .LVU116
 377 0000 0388     		ldrh	r3, [r0]
 378 0002 9BB2     		uxth	r3, r3
 379              	.LVL45:
 279:n32g430_std_periph_driver/src/n32g430_i2c.c ****     /* Clear ACKEN bits */
 280:n32g430_std_periph_driver/src/n32g430_i2c.c ****     temp_value &= I2C_ACKEN_CLR_MASK;
 380              		.loc 1 280 5 is_stmt 1 view .LVU117
 381              		.loc 1 280 16 is_stmt 0 view .LVU118
 382 0004 23F48063 		bic	r3, r3, #1024
 383              	.LVL46:
 281:n32g430_std_periph_driver/src/n32g430_i2c.c ****     /* Set ACKEN bits according to ack value */
 282:n32g430_std_periph_driver/src/n32g430_i2c.c ****     temp_value |= (uint16_t)((uint32_t)ack);
 384              		.loc 1 282 5 is_stmt 1 view .LVU119
 385              		.loc 1 282 16 is_stmt 0 view .LVU120
 386 0008 0B43     		orrs	r3, r3, r1
 387              	.LVL47:
 283:n32g430_std_periph_driver/src/n32g430_i2c.c ****     /* Set I2Cx CTRL1 */
 284:n32g430_std_periph_driver/src/n32g430_i2c.c ****     I2Cx->CTRL1 = temp_value;
 388              		.loc 1 284 5 is_stmt 1 view .LVU121
 389              		.loc 1 284 17 is_stmt 0 view .LVU122
 390 000a 0380     		strh	r3, [r0]	@ movhi
 285:n32g430_std_periph_driver/src/n32g430_i2c.c **** }
 391              		.loc 1 285 1 view .LVU123
 392 000c 7047     		bx	lr
 393              		.cfi_endproc
 394              	.LFE127:
 396              		.section	.text.I2C_Addressing_Mode_Config,"ax",%progbits
 397              		.align	1
 398              		.global	I2C_Addressing_Mode_Config
 399              		.syntax unified
 400              		.thumb
 401              		.thumb_func
 403              	I2C_Addressing_Mode_Config:
 404              	.LVL48:
 405              	.LFB128:
 286:n32g430_std_periph_driver/src/n32g430_i2c.c **** 
 287:n32g430_std_periph_driver/src/n32g430_i2c.c **** /**
 288:n32g430_std_periph_driver/src/n32g430_i2c.c **** *\*\name    I2C_Addressing_Mode_Config.
 289:n32g430_std_periph_driver/src/n32g430_i2c.c **** *\*\fun     Initializes addressing mode.
 290:n32g430_std_periph_driver/src/n32g430_i2c.c **** *\*\param   I2Cx :
 291:n32g430_std_periph_driver/src/n32g430_i2c.c **** *\*\          - I2C1
 292:n32g430_std_periph_driver/src/n32g430_i2c.c **** *\*\          - I2C2
 293:n32g430_std_periph_driver/src/n32g430_i2c.c **** *\*\param   mode
 294:n32g430_std_periph_driver/src/n32g430_i2c.c **** *\*\          - I2C_ADDR_MODE_7BIT
 295:n32g430_std_periph_driver/src/n32g430_i2c.c **** *\*\          - I2C_ADDR_MODE_10BIT
 296:n32g430_std_periph_driver/src/n32g430_i2c.c **** *\*\return  none
 297:n32g430_std_periph_driver/src/n32g430_i2c.c **** **/
 298:n32g430_std_periph_driver/src/n32g430_i2c.c **** void I2C_Addressing_Mode_Config(I2C_Module* I2Cx, uint16_t mode)
 299:n32g430_std_periph_driver/src/n32g430_i2c.c **** {
 406              		.loc 1 299 1 is_stmt 1 view -0
 407              		.cfi_startproc
 408              		@ args = 0, pretend = 0, frame = 0
 409              		@ frame_needed = 0, uses_anonymous_args = 0
 410              		@ link register save eliminated.
 300:n32g430_std_periph_driver/src/n32g430_i2c.c ****     uint16_t temp_value = 0;
ARM GAS  C:\Users\Dawn\AppData\Local\Temp\cc40VLyf.s 			page 14


 411              		.loc 1 300 5 view .LVU125
 301:n32g430_std_periph_driver/src/n32g430_i2c.c **** 
 302:n32g430_std_periph_driver/src/n32g430_i2c.c ****     /* Get the I2Cx OADDR1 value */
 303:n32g430_std_periph_driver/src/n32g430_i2c.c ****     temp_value = I2Cx->OADDR1;
 412              		.loc 1 303 5 view .LVU126
 413              		.loc 1 303 16 is_stmt 0 view .LVU127
 414 0000 0389     		ldrh	r3, [r0, #8]
 415              	.LVL49:
 304:n32g430_std_periph_driver/src/n32g430_i2c.c ****     /* Clear ADDRMODE bits */
 305:n32g430_std_periph_driver/src/n32g430_i2c.c ****     temp_value &= I2C_ADDRMODE_CLR_MASK;
 416              		.loc 1 305 5 is_stmt 1 view .LVU128
 417              		.loc 1 305 16 is_stmt 0 view .LVU129
 418 0002 C3F30E03 		ubfx	r3, r3, #0, #15
 419              	.LVL50:
 306:n32g430_std_periph_driver/src/n32g430_i2c.c ****     /* Set ACKEN bits according to mode value */
 307:n32g430_std_periph_driver/src/n32g430_i2c.c ****     temp_value |= mode;
 420              		.loc 1 307 5 is_stmt 1 view .LVU130
 421              		.loc 1 307 16 is_stmt 0 view .LVU131
 422 0006 0B43     		orrs	r3, r3, r1
 423              	.LVL51:
 308:n32g430_std_periph_driver/src/n32g430_i2c.c ****     /* Set I2Cx OADDR1 */
 309:n32g430_std_periph_driver/src/n32g430_i2c.c ****     I2Cx->OADDR1 = temp_value;
 424              		.loc 1 309 5 is_stmt 1 view .LVU132
 425              		.loc 1 309 18 is_stmt 0 view .LVU133
 426 0008 0381     		strh	r3, [r0, #8]	@ movhi
 310:n32g430_std_periph_driver/src/n32g430_i2c.c **** }
 427              		.loc 1 310 1 view .LVU134
 428 000a 7047     		bx	lr
 429              		.cfi_endproc
 430              	.LFE128:
 432              		.section	.text.I2C_Own_Addr1_Config,"ax",%progbits
 433              		.align	1
 434              		.global	I2C_Own_Addr1_Config
 435              		.syntax unified
 436              		.thumb
 437              		.thumb_func
 439              	I2C_Own_Addr1_Config:
 440              	.LVL52:
 441              	.LFB129:
 311:n32g430_std_periph_driver/src/n32g430_i2c.c **** 
 312:n32g430_std_periph_driver/src/n32g430_i2c.c **** /**
 313:n32g430_std_periph_driver/src/n32g430_i2c.c **** *\*\name    I2C_Own_Addr1_Config.
 314:n32g430_std_periph_driver/src/n32g430_i2c.c **** *\*\fun     Initializes the own address.
 315:n32g430_std_periph_driver/src/n32g430_i2c.c **** *\*\param   I2Cx :
 316:n32g430_std_periph_driver/src/n32g430_i2c.c **** *\*\          - I2C1
 317:n32g430_std_periph_driver/src/n32g430_i2c.c **** *\*\          - I2C2
 318:n32g430_std_periph_driver/src/n32g430_i2c.c **** *\*\param   addr1    between 0 to 0x3FF
 319:n32g430_std_periph_driver/src/n32g430_i2c.c **** *\*\return  none
 320:n32g430_std_periph_driver/src/n32g430_i2c.c **** **/
 321:n32g430_std_periph_driver/src/n32g430_i2c.c **** void I2C_Own_Addr1_Config(I2C_Module* I2Cx, uint16_t addr1)
 322:n32g430_std_periph_driver/src/n32g430_i2c.c **** {
 442              		.loc 1 322 1 is_stmt 1 view -0
 443              		.cfi_startproc
 444              		@ args = 0, pretend = 0, frame = 0
 445              		@ frame_needed = 0, uses_anonymous_args = 0
 446              		@ link register save eliminated.
 323:n32g430_std_periph_driver/src/n32g430_i2c.c ****     uint16_t temp_value = 0;
ARM GAS  C:\Users\Dawn\AppData\Local\Temp\cc40VLyf.s 			page 15


 447              		.loc 1 323 5 view .LVU136
 324:n32g430_std_periph_driver/src/n32g430_i2c.c **** 
 325:n32g430_std_periph_driver/src/n32g430_i2c.c ****     /* Get the I2Cx OADDR1 value */
 326:n32g430_std_periph_driver/src/n32g430_i2c.c ****     temp_value = I2Cx->OADDR1;
 448              		.loc 1 326 5 view .LVU137
 449              		.loc 1 326 16 is_stmt 0 view .LVU138
 450 0000 0389     		ldrh	r3, [r0, #8]
 451              	.LVL53:
 327:n32g430_std_periph_driver/src/n32g430_i2c.c ****     /* Clear ADDRMODE bits */
 328:n32g430_std_periph_driver/src/n32g430_i2c.c ****     temp_value &= I2C_OADDR_CLR_MASK;
 452              		.loc 1 328 5 is_stmt 1 view .LVU139
 453              		.loc 1 328 16 is_stmt 0 view .LVU140
 454 0002 03F47C43 		and	r3, r3, #64512
 455              	.LVL54:
 329:n32g430_std_periph_driver/src/n32g430_i2c.c ****     /* Set ACKEN bits according to mode value */
 330:n32g430_std_periph_driver/src/n32g430_i2c.c ****     temp_value |= addr1;
 456              		.loc 1 330 5 is_stmt 1 view .LVU141
 457              		.loc 1 330 16 is_stmt 0 view .LVU142
 458 0006 0B43     		orrs	r3, r3, r1
 459              	.LVL55:
 331:n32g430_std_periph_driver/src/n32g430_i2c.c ****     /* Set I2Cx OADDR1 */
 332:n32g430_std_periph_driver/src/n32g430_i2c.c ****     I2Cx->OADDR1 = temp_value;
 460              		.loc 1 332 5 is_stmt 1 view .LVU143
 461              		.loc 1 332 18 is_stmt 0 view .LVU144
 462 0008 0381     		strh	r3, [r0, #8]	@ movhi
 333:n32g430_std_periph_driver/src/n32g430_i2c.c **** 
 334:n32g430_std_periph_driver/src/n32g430_i2c.c **** }
 463              		.loc 1 334 1 view .LVU145
 464 000a 7047     		bx	lr
 465              		.cfi_endproc
 466              	.LFE129:
 468              		.section	.text.I2C_Initializes,"ax",%progbits
 469              		.align	1
 470              		.global	I2C_Initializes
 471              		.syntax unified
 472              		.thumb
 473              		.thumb_func
 475              	I2C_Initializes:
 476              	.LVL56:
 477              	.LFB124:
 115:n32g430_std_periph_driver/src/n32g430_i2c.c ****     I2C_Clock_Speed_Config(I2Cx, I2C_InitParam->ClkSpeed, I2C_InitParam->DutyCycle);
 478              		.loc 1 115 1 is_stmt 1 view -0
 479              		.cfi_startproc
 480              		@ args = 0, pretend = 0, frame = 0
 481              		@ frame_needed = 0, uses_anonymous_args = 0
 115:n32g430_std_periph_driver/src/n32g430_i2c.c ****     I2C_Clock_Speed_Config(I2Cx, I2C_InitParam->ClkSpeed, I2C_InitParam->DutyCycle);
 482              		.loc 1 115 1 is_stmt 0 view .LVU147
 483 0000 38B5     		push	{r3, r4, r5, lr}
 484              	.LCFI5:
 485              		.cfi_def_cfa_offset 16
 486              		.cfi_offset 3, -16
 487              		.cfi_offset 4, -12
 488              		.cfi_offset 5, -8
 489              		.cfi_offset 14, -4
 490 0002 0546     		mov	r5, r0
 491 0004 0C46     		mov	r4, r1
 116:n32g430_std_periph_driver/src/n32g430_i2c.c ****     I2C_Bus_Mode_Config(I2Cx, I2C_InitParam->BusMode);
ARM GAS  C:\Users\Dawn\AppData\Local\Temp\cc40VLyf.s 			page 16


 492              		.loc 1 116 5 is_stmt 1 view .LVU148
 493 0006 CA88     		ldrh	r2, [r1, #6]
 494 0008 0968     		ldr	r1, [r1]
 495              	.LVL57:
 116:n32g430_std_periph_driver/src/n32g430_i2c.c ****     I2C_Bus_Mode_Config(I2Cx, I2C_InitParam->BusMode);
 496              		.loc 1 116 5 is_stmt 0 view .LVU149
 497 000a FFF7FEFF 		bl	I2C_Clock_Speed_Config
 498              	.LVL58:
 117:n32g430_std_periph_driver/src/n32g430_i2c.c ****     I2C_Acknowledgement_Config(I2Cx, I2C_InitParam->AckEnable);
 499              		.loc 1 117 5 is_stmt 1 view .LVU150
 500 000e A188     		ldrh	r1, [r4, #4]
 501 0010 2846     		mov	r0, r5
 502 0012 FFF7FEFF 		bl	I2C_Bus_Mode_Config
 503              	.LVL59:
 118:n32g430_std_periph_driver/src/n32g430_i2c.c ****     I2C_Addressing_Mode_Config(I2Cx, I2C_InitParam->AddrMode);
 504              		.loc 1 118 5 view .LVU151
 505 0016 6189     		ldrh	r1, [r4, #10]
 506 0018 2846     		mov	r0, r5
 507 001a FFF7FEFF 		bl	I2C_Acknowledgement_Config
 508              	.LVL60:
 119:n32g430_std_periph_driver/src/n32g430_i2c.c ****     I2C_Own_Addr1_Config(I2Cx, I2C_InitParam->OwnAddr1);
 509              		.loc 1 119 5 view .LVU152
 510 001e A189     		ldrh	r1, [r4, #12]
 511 0020 2846     		mov	r0, r5
 512 0022 FFF7FEFF 		bl	I2C_Addressing_Mode_Config
 513              	.LVL61:
 120:n32g430_std_periph_driver/src/n32g430_i2c.c **** }
 514              		.loc 1 120 5 view .LVU153
 515 0026 2189     		ldrh	r1, [r4, #8]
 516 0028 2846     		mov	r0, r5
 517 002a FFF7FEFF 		bl	I2C_Own_Addr1_Config
 518              	.LVL62:
 121:n32g430_std_periph_driver/src/n32g430_i2c.c **** 
 519              		.loc 1 121 1 is_stmt 0 view .LVU154
 520 002e 38BD     		pop	{r3, r4, r5, pc}
 121:n32g430_std_periph_driver/src/n32g430_i2c.c **** 
 521              		.loc 1 121 1 view .LVU155
 522              		.cfi_endproc
 523              	.LFE124:
 525              		.section	.text.I2C_Initializes_Structure,"ax",%progbits
 526              		.align	1
 527              		.global	I2C_Initializes_Structure
 528              		.syntax unified
 529              		.thumb
 530              		.thumb_func
 532              	I2C_Initializes_Structure:
 533              	.LVL63:
 534              	.LFB130:
 335:n32g430_std_periph_driver/src/n32g430_i2c.c **** 
 336:n32g430_std_periph_driver/src/n32g430_i2c.c **** /**
 337:n32g430_std_periph_driver/src/n32g430_i2c.c **** *\*\name    I2C_Initializes_Structure.
 338:n32g430_std_periph_driver/src/n32g430_i2c.c **** *\*\fun     Fills each I2C_InitStruct member with its default value.
 339:n32g430_std_periph_driver/src/n32g430_i2c.c **** *\*\param   I2C_InitStruct :
 340:n32g430_std_periph_driver/src/n32g430_i2c.c **** *\*\          - ClkSpeed
 341:n32g430_std_periph_driver/src/n32g430_i2c.c **** *\*\          - BusMode
 342:n32g430_std_periph_driver/src/n32g430_i2c.c **** *\*\          - DutyCycle
 343:n32g430_std_periph_driver/src/n32g430_i2c.c **** *\*\          - OwnAddr1
ARM GAS  C:\Users\Dawn\AppData\Local\Temp\cc40VLyf.s 			page 17


 344:n32g430_std_periph_driver/src/n32g430_i2c.c **** *\*\          - AckEnable
 345:n32g430_std_periph_driver/src/n32g430_i2c.c **** *\*\          - AddrMode
 346:n32g430_std_periph_driver/src/n32g430_i2c.c **** *\*\return  none
 347:n32g430_std_periph_driver/src/n32g430_i2c.c **** **/
 348:n32g430_std_periph_driver/src/n32g430_i2c.c **** void I2C_Initializes_Structure(I2C_InitType* I2C_InitStruct)
 349:n32g430_std_periph_driver/src/n32g430_i2c.c **** {
 535              		.loc 1 349 1 is_stmt 1 view -0
 536              		.cfi_startproc
 537              		@ args = 0, pretend = 0, frame = 0
 538              		@ frame_needed = 0, uses_anonymous_args = 0
 539              		@ link register save eliminated.
 350:n32g430_std_periph_driver/src/n32g430_i2c.c ****     /*---------------- Reset I2C init structure parameters values ----------------*/
 351:n32g430_std_periph_driver/src/n32g430_i2c.c ****     /* initialize the ClkSpeed member */
 352:n32g430_std_periph_driver/src/n32g430_i2c.c ****     I2C_InitStruct->ClkSpeed = 5000;
 540              		.loc 1 352 5 view .LVU157
 541              		.loc 1 352 30 is_stmt 0 view .LVU158
 542 0000 41F28833 		movw	r3, #5000
 543 0004 0360     		str	r3, [r0]
 353:n32g430_std_periph_driver/src/n32g430_i2c.c ****     /* Initialize the BusMode member */
 354:n32g430_std_periph_driver/src/n32g430_i2c.c ****     I2C_InitStruct->BusMode = I2C_BUSMODE_I2C;
 544              		.loc 1 354 5 is_stmt 1 view .LVU159
 545              		.loc 1 354 29 is_stmt 0 view .LVU160
 546 0006 0023     		movs	r3, #0
 547 0008 8380     		strh	r3, [r0, #4]	@ movhi
 355:n32g430_std_periph_driver/src/n32g430_i2c.c ****     /* Initialize the DutyCycle member */
 356:n32g430_std_periph_driver/src/n32g430_i2c.c ****     I2C_InitStruct->DutyCycle = I2C_FMDUTYCYCLE_2;
 548              		.loc 1 356 5 is_stmt 1 view .LVU161
 549              		.loc 1 356 31 is_stmt 0 view .LVU162
 550 000a 4BF6FF72 		movw	r2, #49151
 551 000e C280     		strh	r2, [r0, #6]	@ movhi
 357:n32g430_std_periph_driver/src/n32g430_i2c.c ****     /* Initialize the OwnAddr1 member */
 358:n32g430_std_periph_driver/src/n32g430_i2c.c ****     I2C_InitStruct->OwnAddr1 = 0;
 552              		.loc 1 358 5 is_stmt 1 view .LVU163
 553              		.loc 1 358 30 is_stmt 0 view .LVU164
 554 0010 0381     		strh	r3, [r0, #8]	@ movhi
 359:n32g430_std_periph_driver/src/n32g430_i2c.c ****     /* Initialize the AckEnable member */
 360:n32g430_std_periph_driver/src/n32g430_i2c.c ****     I2C_InitStruct->AckEnable = I2C_ACKDIS;
 555              		.loc 1 360 5 is_stmt 1 view .LVU165
 556              		.loc 1 360 31 is_stmt 0 view .LVU166
 557 0012 4381     		strh	r3, [r0, #10]	@ movhi
 361:n32g430_std_periph_driver/src/n32g430_i2c.c ****     /* Initialize the AddrMode member */
 362:n32g430_std_periph_driver/src/n32g430_i2c.c ****     I2C_InitStruct->AddrMode = I2C_ADDR_MODE_7BIT;
 558              		.loc 1 362 5 is_stmt 1 view .LVU167
 559              		.loc 1 362 30 is_stmt 0 view .LVU168
 560 0014 4FF48043 		mov	r3, #16384
 561 0018 8381     		strh	r3, [r0, #12]	@ movhi
 363:n32g430_std_periph_driver/src/n32g430_i2c.c **** }
 562              		.loc 1 363 1 view .LVU169
 563 001a 7047     		bx	lr
 564              		.cfi_endproc
 565              	.LFE130:
 567              		.section	.text.I2C_ON,"ax",%progbits
 568              		.align	1
 569              		.global	I2C_ON
 570              		.syntax unified
 571              		.thumb
 572              		.thumb_func
ARM GAS  C:\Users\Dawn\AppData\Local\Temp\cc40VLyf.s 			page 18


 574              	I2C_ON:
 575              	.LVL64:
 576              	.LFB131:
 364:n32g430_std_periph_driver/src/n32g430_i2c.c **** 
 365:n32g430_std_periph_driver/src/n32g430_i2c.c **** /**
 366:n32g430_std_periph_driver/src/n32g430_i2c.c **** *\*\name    I2C_ON.
 367:n32g430_std_periph_driver/src/n32g430_i2c.c **** *\*\fun     I2Cx turn ON.
 368:n32g430_std_periph_driver/src/n32g430_i2c.c **** *\*\param   I2Cx :
 369:n32g430_std_periph_driver/src/n32g430_i2c.c **** *\*\          - I2C1
 370:n32g430_std_periph_driver/src/n32g430_i2c.c **** *\*\          - I2C2
 371:n32g430_std_periph_driver/src/n32g430_i2c.c **** *\*\return  none
 372:n32g430_std_periph_driver/src/n32g430_i2c.c **** **/
 373:n32g430_std_periph_driver/src/n32g430_i2c.c **** void I2C_ON(I2C_Module* I2Cx)
 374:n32g430_std_periph_driver/src/n32g430_i2c.c **** {
 577              		.loc 1 374 1 is_stmt 1 view -0
 578              		.cfi_startproc
 579              		@ args = 0, pretend = 0, frame = 0
 580              		@ frame_needed = 0, uses_anonymous_args = 0
 581              		@ link register save eliminated.
 375:n32g430_std_periph_driver/src/n32g430_i2c.c ****     /* Enable the selected I2C peripheral */
 376:n32g430_std_periph_driver/src/n32g430_i2c.c ****     I2Cx->CTRL1 |= I2C_EN_SET;  
 582              		.loc 1 376 5 view .LVU171
 583              		.loc 1 376 9 is_stmt 0 view .LVU172
 584 0000 0388     		ldrh	r3, [r0]
 585 0002 9BB2     		uxth	r3, r3
 586              		.loc 1 376 17 view .LVU173
 587 0004 43F00103 		orr	r3, r3, #1
 588 0008 0380     		strh	r3, [r0]	@ movhi
 377:n32g430_std_periph_driver/src/n32g430_i2c.c **** }
 589              		.loc 1 377 1 view .LVU174
 590 000a 7047     		bx	lr
 591              		.cfi_endproc
 592              	.LFE131:
 594              		.section	.text.I2C_OFF,"ax",%progbits
 595              		.align	1
 596              		.global	I2C_OFF
 597              		.syntax unified
 598              		.thumb
 599              		.thumb_func
 601              	I2C_OFF:
 602              	.LVL65:
 603              	.LFB132:
 378:n32g430_std_periph_driver/src/n32g430_i2c.c **** 
 379:n32g430_std_periph_driver/src/n32g430_i2c.c **** /**
 380:n32g430_std_periph_driver/src/n32g430_i2c.c **** *\*\name    I2C_OFF.
 381:n32g430_std_periph_driver/src/n32g430_i2c.c **** *\*\fun     I2Cx turn OFF.
 382:n32g430_std_periph_driver/src/n32g430_i2c.c **** *\*\param   I2Cx :
 383:n32g430_std_periph_driver/src/n32g430_i2c.c **** *\*\          - I2C1
 384:n32g430_std_periph_driver/src/n32g430_i2c.c **** *\*\          - I2C2
 385:n32g430_std_periph_driver/src/n32g430_i2c.c **** *\*\return  none
 386:n32g430_std_periph_driver/src/n32g430_i2c.c **** **/
 387:n32g430_std_periph_driver/src/n32g430_i2c.c **** void I2C_OFF(I2C_Module* I2Cx)
 388:n32g430_std_periph_driver/src/n32g430_i2c.c **** {
 604              		.loc 1 388 1 is_stmt 1 view -0
 605              		.cfi_startproc
 606              		@ args = 0, pretend = 0, frame = 0
 607              		@ frame_needed = 0, uses_anonymous_args = 0
ARM GAS  C:\Users\Dawn\AppData\Local\Temp\cc40VLyf.s 			page 19


 608              		@ link register save eliminated.
 389:n32g430_std_periph_driver/src/n32g430_i2c.c ****     /* Disable the selected I2C peripheral */
 390:n32g430_std_periph_driver/src/n32g430_i2c.c ****     I2Cx->CTRL1 &= I2C_EN_RESET;   
 609              		.loc 1 390 5 view .LVU176
 610              		.loc 1 390 9 is_stmt 0 view .LVU177
 611 0000 0388     		ldrh	r3, [r0]
 612 0002 9BB2     		uxth	r3, r3
 613              		.loc 1 390 17 view .LVU178
 614 0004 23F00103 		bic	r3, r3, #1
 615 0008 9BB2     		uxth	r3, r3
 616 000a 0380     		strh	r3, [r0]	@ movhi
 391:n32g430_std_periph_driver/src/n32g430_i2c.c **** }
 617              		.loc 1 391 1 view .LVU179
 618 000c 7047     		bx	lr
 619              		.cfi_endproc
 620              	.LFE132:
 622              		.section	.text.I2C_DMA_Transfer_Enable,"ax",%progbits
 623              		.align	1
 624              		.global	I2C_DMA_Transfer_Enable
 625              		.syntax unified
 626              		.thumb
 627              		.thumb_func
 629              	I2C_DMA_Transfer_Enable:
 630              	.LVL66:
 631              	.LFB133:
 392:n32g430_std_periph_driver/src/n32g430_i2c.c **** 
 393:n32g430_std_periph_driver/src/n32g430_i2c.c **** /**
 394:n32g430_std_periph_driver/src/n32g430_i2c.c **** *\*\name    I2C_DMA_Transfer_Enable.
 395:n32g430_std_periph_driver/src/n32g430_i2c.c **** *\*\fun     Enable I2C DMA transfer.
 396:n32g430_std_periph_driver/src/n32g430_i2c.c **** *\*\param   I2Cx :
 397:n32g430_std_periph_driver/src/n32g430_i2c.c **** *\*\          - I2C1
 398:n32g430_std_periph_driver/src/n32g430_i2c.c **** *\*\          - I2C2
 399:n32g430_std_periph_driver/src/n32g430_i2c.c **** *\*\return  none
 400:n32g430_std_periph_driver/src/n32g430_i2c.c **** **/
 401:n32g430_std_periph_driver/src/n32g430_i2c.c **** void I2C_DMA_Transfer_Enable(I2C_Module* I2Cx)
 402:n32g430_std_periph_driver/src/n32g430_i2c.c **** {
 632              		.loc 1 402 1 is_stmt 1 view -0
 633              		.cfi_startproc
 634              		@ args = 0, pretend = 0, frame = 0
 635              		@ frame_needed = 0, uses_anonymous_args = 0
 636              		@ link register save eliminated.
 403:n32g430_std_periph_driver/src/n32g430_i2c.c ****     /* Set the I2C_CTRL2 DMAEN bit to enable DMA transfer */
 404:n32g430_std_periph_driver/src/n32g430_i2c.c ****     I2Cx->CTRL2 |= I2C_DMAEN_SET;
 637              		.loc 1 404 5 view .LVU181
 638              		.loc 1 404 9 is_stmt 0 view .LVU182
 639 0000 8388     		ldrh	r3, [r0, #4]
 640 0002 9BB2     		uxth	r3, r3
 641              		.loc 1 404 17 view .LVU183
 642 0004 43F40063 		orr	r3, r3, #2048
 643 0008 8380     		strh	r3, [r0, #4]	@ movhi
 405:n32g430_std_periph_driver/src/n32g430_i2c.c **** }
 644              		.loc 1 405 1 view .LVU184
 645 000a 7047     		bx	lr
 646              		.cfi_endproc
 647              	.LFE133:
 649              		.section	.text.I2C_DMA_Transfer_Disable,"ax",%progbits
 650              		.align	1
ARM GAS  C:\Users\Dawn\AppData\Local\Temp\cc40VLyf.s 			page 20


 651              		.global	I2C_DMA_Transfer_Disable
 652              		.syntax unified
 653              		.thumb
 654              		.thumb_func
 656              	I2C_DMA_Transfer_Disable:
 657              	.LVL67:
 658              	.LFB134:
 406:n32g430_std_periph_driver/src/n32g430_i2c.c **** 
 407:n32g430_std_periph_driver/src/n32g430_i2c.c **** /**
 408:n32g430_std_periph_driver/src/n32g430_i2c.c **** *\*\name    I2C_DMA_Transfer_Disable.
 409:n32g430_std_periph_driver/src/n32g430_i2c.c **** *\*\fun     Disable I2C DMA transfer.
 410:n32g430_std_periph_driver/src/n32g430_i2c.c **** *\*\param   I2Cx :
 411:n32g430_std_periph_driver/src/n32g430_i2c.c **** *\*\          - I2C1
 412:n32g430_std_periph_driver/src/n32g430_i2c.c **** *\*\          - I2C2
 413:n32g430_std_periph_driver/src/n32g430_i2c.c **** *\*\return  none
 414:n32g430_std_periph_driver/src/n32g430_i2c.c **** **/
 415:n32g430_std_periph_driver/src/n32g430_i2c.c **** void I2C_DMA_Transfer_Disable(I2C_Module* I2Cx)
 416:n32g430_std_periph_driver/src/n32g430_i2c.c **** {
 659              		.loc 1 416 1 is_stmt 1 view -0
 660              		.cfi_startproc
 661              		@ args = 0, pretend = 0, frame = 0
 662              		@ frame_needed = 0, uses_anonymous_args = 0
 663              		@ link register save eliminated.
 417:n32g430_std_periph_driver/src/n32g430_i2c.c ****     /* Clean the I2C_CTRL2 DMAEN bit to disable DMA transfer */
 418:n32g430_std_periph_driver/src/n32g430_i2c.c ****     I2Cx->CTRL2 &= I2C_DMAEN_RESET;
 664              		.loc 1 418 5 view .LVU186
 665              		.loc 1 418 9 is_stmt 0 view .LVU187
 666 0000 8388     		ldrh	r3, [r0, #4]
 667 0002 9BB2     		uxth	r3, r3
 668              		.loc 1 418 17 view .LVU188
 669 0004 23F40063 		bic	r3, r3, #2048
 670 0008 9BB2     		uxth	r3, r3
 671 000a 8380     		strh	r3, [r0, #4]	@ movhi
 419:n32g430_std_periph_driver/src/n32g430_i2c.c **** }
 672              		.loc 1 419 1 view .LVU189
 673 000c 7047     		bx	lr
 674              		.cfi_endproc
 675              	.LFE134:
 677              		.section	.text.I2C_DMA_Last_Transfer_Enable,"ax",%progbits
 678              		.align	1
 679              		.global	I2C_DMA_Last_Transfer_Enable
 680              		.syntax unified
 681              		.thumb
 682              		.thumb_func
 684              	I2C_DMA_Last_Transfer_Enable:
 685              	.LVL68:
 686              	.LFB135:
 420:n32g430_std_periph_driver/src/n32g430_i2c.c **** 
 421:n32g430_std_periph_driver/src/n32g430_i2c.c **** /**
 422:n32g430_std_periph_driver/src/n32g430_i2c.c **** *\*\name    I2C_DMA_Last_Transfer_Enable.
 423:n32g430_std_periph_driver/src/n32g430_i2c.c **** *\*\fun     Enable I2C DMA last transfer.
 424:n32g430_std_periph_driver/src/n32g430_i2c.c **** *\*\param   I2Cx :
 425:n32g430_std_periph_driver/src/n32g430_i2c.c **** *\*\          - I2C1
 426:n32g430_std_periph_driver/src/n32g430_i2c.c **** *\*\          - I2C2
 427:n32g430_std_periph_driver/src/n32g430_i2c.c **** *\*\return  none
 428:n32g430_std_periph_driver/src/n32g430_i2c.c **** **/
 429:n32g430_std_periph_driver/src/n32g430_i2c.c **** void I2C_DMA_Last_Transfer_Enable(I2C_Module* I2Cx)
ARM GAS  C:\Users\Dawn\AppData\Local\Temp\cc40VLyf.s 			page 21


 430:n32g430_std_periph_driver/src/n32g430_i2c.c **** {   
 687              		.loc 1 430 1 is_stmt 1 view -0
 688              		.cfi_startproc
 689              		@ args = 0, pretend = 0, frame = 0
 690              		@ frame_needed = 0, uses_anonymous_args = 0
 691              		@ link register save eliminated.
 431:n32g430_std_periph_driver/src/n32g430_i2c.c ****     /* Next DMA transfer is the last transfer */
 432:n32g430_std_periph_driver/src/n32g430_i2c.c ****     I2Cx->CTRL2 |= I2C_DMALAST_SET;
 692              		.loc 1 432 5 view .LVU191
 693              		.loc 1 432 9 is_stmt 0 view .LVU192
 694 0000 8388     		ldrh	r3, [r0, #4]
 695 0002 9BB2     		uxth	r3, r3
 696              		.loc 1 432 17 view .LVU193
 697 0004 43F48053 		orr	r3, r3, #4096
 698 0008 8380     		strh	r3, [r0, #4]	@ movhi
 433:n32g430_std_periph_driver/src/n32g430_i2c.c **** }
 699              		.loc 1 433 1 view .LVU194
 700 000a 7047     		bx	lr
 701              		.cfi_endproc
 702              	.LFE135:
 704              		.section	.text.I2C_DMA_Last_Transfer_Disable,"ax",%progbits
 705              		.align	1
 706              		.global	I2C_DMA_Last_Transfer_Disable
 707              		.syntax unified
 708              		.thumb
 709              		.thumb_func
 711              	I2C_DMA_Last_Transfer_Disable:
 712              	.LVL69:
 713              	.LFB136:
 434:n32g430_std_periph_driver/src/n32g430_i2c.c **** 
 435:n32g430_std_periph_driver/src/n32g430_i2c.c **** /**
 436:n32g430_std_periph_driver/src/n32g430_i2c.c **** *\*\name    I2C_DMA_Last_Transfer_Disable.
 437:n32g430_std_periph_driver/src/n32g430_i2c.c **** *\*\fun     Disable I2C DMA last transfer.
 438:n32g430_std_periph_driver/src/n32g430_i2c.c **** *\*\param   I2Cx :
 439:n32g430_std_periph_driver/src/n32g430_i2c.c **** *\*\          - I2C1
 440:n32g430_std_periph_driver/src/n32g430_i2c.c **** *\*\          - I2C2
 441:n32g430_std_periph_driver/src/n32g430_i2c.c **** *\*\return  none
 442:n32g430_std_periph_driver/src/n32g430_i2c.c **** **/
 443:n32g430_std_periph_driver/src/n32g430_i2c.c **** void I2C_DMA_Last_Transfer_Disable(I2C_Module* I2Cx)
 444:n32g430_std_periph_driver/src/n32g430_i2c.c **** {   
 714              		.loc 1 444 1 is_stmt 1 view -0
 715              		.cfi_startproc
 716              		@ args = 0, pretend = 0, frame = 0
 717              		@ frame_needed = 0, uses_anonymous_args = 0
 718              		@ link register save eliminated.
 445:n32g430_std_periph_driver/src/n32g430_i2c.c ****     /* Next DMA transfer is not the last transfer */
 446:n32g430_std_periph_driver/src/n32g430_i2c.c ****     I2Cx->CTRL2 &= I2C_DMALAST_RESET;
 719              		.loc 1 446 5 view .LVU196
 720              		.loc 1 446 9 is_stmt 0 view .LVU197
 721 0000 8388     		ldrh	r3, [r0, #4]
 722 0002 9BB2     		uxth	r3, r3
 723              		.loc 1 446 17 view .LVU198
 724 0004 23F48053 		bic	r3, r3, #4096
 725 0008 9BB2     		uxth	r3, r3
 726 000a 8380     		strh	r3, [r0, #4]	@ movhi
 447:n32g430_std_periph_driver/src/n32g430_i2c.c **** }
 727              		.loc 1 447 1 view .LVU199
ARM GAS  C:\Users\Dawn\AppData\Local\Temp\cc40VLyf.s 			page 22


 728 000c 7047     		bx	lr
 729              		.cfi_endproc
 730              	.LFE136:
 732              		.section	.text.I2C_Generate_Start_Enable,"ax",%progbits
 733              		.align	1
 734              		.global	I2C_Generate_Start_Enable
 735              		.syntax unified
 736              		.thumb
 737              		.thumb_func
 739              	I2C_Generate_Start_Enable:
 740              	.LVL70:
 741              	.LFB137:
 448:n32g430_std_periph_driver/src/n32g430_i2c.c **** 
 449:n32g430_std_periph_driver/src/n32g430_i2c.c **** /**
 450:n32g430_std_periph_driver/src/n32g430_i2c.c **** *\*\name    I2C_Generate_Start_Enable.
 451:n32g430_std_periph_driver/src/n32g430_i2c.c **** *\*\fun     Enable Generate a START condition.
 452:n32g430_std_periph_driver/src/n32g430_i2c.c **** *\*\param   I2Cx :
 453:n32g430_std_periph_driver/src/n32g430_i2c.c **** *\*\          - I2C1
 454:n32g430_std_periph_driver/src/n32g430_i2c.c **** *\*\          - I2C2
 455:n32g430_std_periph_driver/src/n32g430_i2c.c **** *\*\return  none
 456:n32g430_std_periph_driver/src/n32g430_i2c.c **** **/
 457:n32g430_std_periph_driver/src/n32g430_i2c.c **** void I2C_Generate_Start_Enable(I2C_Module* I2Cx)
 458:n32g430_std_periph_driver/src/n32g430_i2c.c **** {   
 742              		.loc 1 458 1 is_stmt 1 view -0
 743              		.cfi_startproc
 744              		@ args = 0, pretend = 0, frame = 0
 745              		@ frame_needed = 0, uses_anonymous_args = 0
 746              		@ link register save eliminated.
 459:n32g430_std_periph_driver/src/n32g430_i2c.c ****     /* Generate a START condition */
 460:n32g430_std_periph_driver/src/n32g430_i2c.c ****     I2Cx->CTRL1 |= I2C_START_SET;
 747              		.loc 1 460 5 view .LVU201
 748              		.loc 1 460 9 is_stmt 0 view .LVU202
 749 0000 0388     		ldrh	r3, [r0]
 750 0002 9BB2     		uxth	r3, r3
 751              		.loc 1 460 17 view .LVU203
 752 0004 43F48073 		orr	r3, r3, #256
 753 0008 0380     		strh	r3, [r0]	@ movhi
 461:n32g430_std_periph_driver/src/n32g430_i2c.c **** }
 754              		.loc 1 461 1 view .LVU204
 755 000a 7047     		bx	lr
 756              		.cfi_endproc
 757              	.LFE137:
 759              		.section	.text.I2C_Generate_Start_Disable,"ax",%progbits
 760              		.align	1
 761              		.global	I2C_Generate_Start_Disable
 762              		.syntax unified
 763              		.thumb
 764              		.thumb_func
 766              	I2C_Generate_Start_Disable:
 767              	.LVL71:
 768              	.LFB138:
 462:n32g430_std_periph_driver/src/n32g430_i2c.c **** 
 463:n32g430_std_periph_driver/src/n32g430_i2c.c **** /**
 464:n32g430_std_periph_driver/src/n32g430_i2c.c **** *\*\name    I2C_Generate_Start_Disable.
 465:n32g430_std_periph_driver/src/n32g430_i2c.c **** *\*\fun     Disable the START condition generation.
 466:n32g430_std_periph_driver/src/n32g430_i2c.c **** *\*\param   I2Cx :
 467:n32g430_std_periph_driver/src/n32g430_i2c.c **** *\*\          - I2C1
ARM GAS  C:\Users\Dawn\AppData\Local\Temp\cc40VLyf.s 			page 23


 468:n32g430_std_periph_driver/src/n32g430_i2c.c **** *\*\          - I2C2
 469:n32g430_std_periph_driver/src/n32g430_i2c.c **** *\*\return  none
 470:n32g430_std_periph_driver/src/n32g430_i2c.c **** **/
 471:n32g430_std_periph_driver/src/n32g430_i2c.c **** void I2C_Generate_Start_Disable(I2C_Module* I2Cx)
 472:n32g430_std_periph_driver/src/n32g430_i2c.c **** {   
 769              		.loc 1 472 1 is_stmt 1 view -0
 770              		.cfi_startproc
 771              		@ args = 0, pretend = 0, frame = 0
 772              		@ frame_needed = 0, uses_anonymous_args = 0
 773              		@ link register save eliminated.
 473:n32g430_std_periph_driver/src/n32g430_i2c.c ****     /* Disable the START condition generation */
 474:n32g430_std_periph_driver/src/n32g430_i2c.c ****     I2Cx->CTRL1 &= I2C_START_RESET;
 774              		.loc 1 474 5 view .LVU206
 775              		.loc 1 474 9 is_stmt 0 view .LVU207
 776 0000 0388     		ldrh	r3, [r0]
 777 0002 9BB2     		uxth	r3, r3
 778              		.loc 1 474 17 view .LVU208
 779 0004 23F48073 		bic	r3, r3, #256
 780 0008 9BB2     		uxth	r3, r3
 781 000a 0380     		strh	r3, [r0]	@ movhi
 475:n32g430_std_periph_driver/src/n32g430_i2c.c **** }
 782              		.loc 1 475 1 view .LVU209
 783 000c 7047     		bx	lr
 784              		.cfi_endproc
 785              	.LFE138:
 787              		.section	.text.I2C_Generate_Stop_Enable,"ax",%progbits
 788              		.align	1
 789              		.global	I2C_Generate_Stop_Enable
 790              		.syntax unified
 791              		.thumb
 792              		.thumb_func
 794              	I2C_Generate_Stop_Enable:
 795              	.LVL72:
 796              	.LFB139:
 476:n32g430_std_periph_driver/src/n32g430_i2c.c **** 
 477:n32g430_std_periph_driver/src/n32g430_i2c.c **** /**
 478:n32g430_std_periph_driver/src/n32g430_i2c.c **** *\*\name    I2C_Generate_Stop_Enable.
 479:n32g430_std_periph_driver/src/n32g430_i2c.c **** *\*\fun     Enable Generate a STOP condition.
 480:n32g430_std_periph_driver/src/n32g430_i2c.c **** *\*\param   I2Cx :
 481:n32g430_std_periph_driver/src/n32g430_i2c.c **** *\*\          - I2C1
 482:n32g430_std_periph_driver/src/n32g430_i2c.c **** *\*\          - I2C2
 483:n32g430_std_periph_driver/src/n32g430_i2c.c **** *\*\return  none
 484:n32g430_std_periph_driver/src/n32g430_i2c.c **** **/
 485:n32g430_std_periph_driver/src/n32g430_i2c.c **** void I2C_Generate_Stop_Enable(I2C_Module* I2Cx)
 486:n32g430_std_periph_driver/src/n32g430_i2c.c **** {   
 797              		.loc 1 486 1 is_stmt 1 view -0
 798              		.cfi_startproc
 799              		@ args = 0, pretend = 0, frame = 0
 800              		@ frame_needed = 0, uses_anonymous_args = 0
 801              		@ link register save eliminated.
 487:n32g430_std_periph_driver/src/n32g430_i2c.c ****     /* Generate a STOP condition */
 488:n32g430_std_periph_driver/src/n32g430_i2c.c ****     I2Cx->CTRL1 |= I2C_STOP_SET;
 802              		.loc 1 488 5 view .LVU211
 803              		.loc 1 488 9 is_stmt 0 view .LVU212
 804 0000 0388     		ldrh	r3, [r0]
 805 0002 9BB2     		uxth	r3, r3
 806              		.loc 1 488 17 view .LVU213
ARM GAS  C:\Users\Dawn\AppData\Local\Temp\cc40VLyf.s 			page 24


 807 0004 43F40073 		orr	r3, r3, #512
 808 0008 0380     		strh	r3, [r0]	@ movhi
 489:n32g430_std_periph_driver/src/n32g430_i2c.c **** }
 809              		.loc 1 489 1 view .LVU214
 810 000a 7047     		bx	lr
 811              		.cfi_endproc
 812              	.LFE139:
 814              		.section	.text.I2C_Generate_Stop_Disable,"ax",%progbits
 815              		.align	1
 816              		.global	I2C_Generate_Stop_Disable
 817              		.syntax unified
 818              		.thumb
 819              		.thumb_func
 821              	I2C_Generate_Stop_Disable:
 822              	.LVL73:
 823              	.LFB140:
 490:n32g430_std_periph_driver/src/n32g430_i2c.c **** 
 491:n32g430_std_periph_driver/src/n32g430_i2c.c **** /**
 492:n32g430_std_periph_driver/src/n32g430_i2c.c **** *\*\name    I2C_Generate_Stop_Disable.
 493:n32g430_std_periph_driver/src/n32g430_i2c.c **** *\*\fun     Disable the STOP condition generation.
 494:n32g430_std_periph_driver/src/n32g430_i2c.c **** *\*\param   I2Cx :
 495:n32g430_std_periph_driver/src/n32g430_i2c.c **** *\*\          - I2C1
 496:n32g430_std_periph_driver/src/n32g430_i2c.c **** *\*\          - I2C2
 497:n32g430_std_periph_driver/src/n32g430_i2c.c **** *\*\return  none
 498:n32g430_std_periph_driver/src/n32g430_i2c.c **** **/
 499:n32g430_std_periph_driver/src/n32g430_i2c.c **** void I2C_Generate_Stop_Disable(I2C_Module* I2Cx)
 500:n32g430_std_periph_driver/src/n32g430_i2c.c **** {   
 824              		.loc 1 500 1 is_stmt 1 view -0
 825              		.cfi_startproc
 826              		@ args = 0, pretend = 0, frame = 0
 827              		@ frame_needed = 0, uses_anonymous_args = 0
 828              		@ link register save eliminated.
 501:n32g430_std_periph_driver/src/n32g430_i2c.c ****     /* Disable the STOP condition generation */
 502:n32g430_std_periph_driver/src/n32g430_i2c.c ****     I2Cx->CTRL1 &= I2C_STOP_RESET;
 829              		.loc 1 502 5 view .LVU216
 830              		.loc 1 502 9 is_stmt 0 view .LVU217
 831 0000 0388     		ldrh	r3, [r0]
 832 0002 9BB2     		uxth	r3, r3
 833              		.loc 1 502 17 view .LVU218
 834 0004 23F40073 		bic	r3, r3, #512
 835 0008 9BB2     		uxth	r3, r3
 836 000a 0380     		strh	r3, [r0]	@ movhi
 503:n32g430_std_periph_driver/src/n32g430_i2c.c **** }
 837              		.loc 1 503 1 view .LVU219
 838 000c 7047     		bx	lr
 839              		.cfi_endproc
 840              	.LFE140:
 842              		.section	.text.I2C_Acknowledg_Enable,"ax",%progbits
 843              		.align	1
 844              		.global	I2C_Acknowledg_Enable
 845              		.syntax unified
 846              		.thumb
 847              		.thumb_func
 849              	I2C_Acknowledg_Enable:
 850              	.LVL74:
 851              	.LFB141:
 504:n32g430_std_periph_driver/src/n32g430_i2c.c **** 
ARM GAS  C:\Users\Dawn\AppData\Local\Temp\cc40VLyf.s 			page 25


 505:n32g430_std_periph_driver/src/n32g430_i2c.c **** /**
 506:n32g430_std_periph_driver/src/n32g430_i2c.c **** *\*\name    I2C_Acknowledg_Enable.
 507:n32g430_std_periph_driver/src/n32g430_i2c.c **** *\*\fun     Enable the acknowledgement.
 508:n32g430_std_periph_driver/src/n32g430_i2c.c **** *\*\param   I2Cx :
 509:n32g430_std_periph_driver/src/n32g430_i2c.c **** *\*\          - I2C1
 510:n32g430_std_periph_driver/src/n32g430_i2c.c **** *\*\          - I2C2
 511:n32g430_std_periph_driver/src/n32g430_i2c.c **** *\*\return  none
 512:n32g430_std_periph_driver/src/n32g430_i2c.c **** **/
 513:n32g430_std_periph_driver/src/n32g430_i2c.c **** void I2C_Acknowledg_Enable(I2C_Module* I2Cx)
 514:n32g430_std_periph_driver/src/n32g430_i2c.c **** {
 852              		.loc 1 514 1 is_stmt 1 view -0
 853              		.cfi_startproc
 854              		@ args = 0, pretend = 0, frame = 0
 855              		@ frame_needed = 0, uses_anonymous_args = 0
 856              		@ link register save eliminated.
 515:n32g430_std_periph_driver/src/n32g430_i2c.c ****    /* Enable the acknowledgement */
 516:n32g430_std_periph_driver/src/n32g430_i2c.c ****    I2Cx->CTRL1 |= I2C_ACK_SET;
 857              		.loc 1 516 4 view .LVU221
 858              		.loc 1 516 8 is_stmt 0 view .LVU222
 859 0000 0388     		ldrh	r3, [r0]
 860 0002 9BB2     		uxth	r3, r3
 861              		.loc 1 516 16 view .LVU223
 862 0004 43F48063 		orr	r3, r3, #1024
 863 0008 0380     		strh	r3, [r0]	@ movhi
 517:n32g430_std_periph_driver/src/n32g430_i2c.c **** }
 864              		.loc 1 517 1 view .LVU224
 865 000a 7047     		bx	lr
 866              		.cfi_endproc
 867              	.LFE141:
 869              		.section	.text.I2C_Acknowledg_Disable,"ax",%progbits
 870              		.align	1
 871              		.global	I2C_Acknowledg_Disable
 872              		.syntax unified
 873              		.thumb
 874              		.thumb_func
 876              	I2C_Acknowledg_Disable:
 877              	.LVL75:
 878              	.LFB142:
 518:n32g430_std_periph_driver/src/n32g430_i2c.c **** 
 519:n32g430_std_periph_driver/src/n32g430_i2c.c **** /**
 520:n32g430_std_periph_driver/src/n32g430_i2c.c **** *\*\name    I2C_Acknowledg_Disable.
 521:n32g430_std_periph_driver/src/n32g430_i2c.c **** *\*\fun     Disable the acknowledgement.
 522:n32g430_std_periph_driver/src/n32g430_i2c.c **** *\*\param   I2Cx :
 523:n32g430_std_periph_driver/src/n32g430_i2c.c **** *\*\          - I2C1
 524:n32g430_std_periph_driver/src/n32g430_i2c.c **** *\*\          - I2C2
 525:n32g430_std_periph_driver/src/n32g430_i2c.c **** *\*\return  none
 526:n32g430_std_periph_driver/src/n32g430_i2c.c **** **/
 527:n32g430_std_periph_driver/src/n32g430_i2c.c **** void I2C_Acknowledg_Disable(I2C_Module* I2Cx)
 528:n32g430_std_periph_driver/src/n32g430_i2c.c **** {
 879              		.loc 1 528 1 is_stmt 1 view -0
 880              		.cfi_startproc
 881              		@ args = 0, pretend = 0, frame = 0
 882              		@ frame_needed = 0, uses_anonymous_args = 0
 883              		@ link register save eliminated.
 529:n32g430_std_periph_driver/src/n32g430_i2c.c ****    /* Disable the acknowledgement */
 530:n32g430_std_periph_driver/src/n32g430_i2c.c ****    I2Cx->CTRL1 &= I2C_ACK_RESET;
 884              		.loc 1 530 4 view .LVU226
ARM GAS  C:\Users\Dawn\AppData\Local\Temp\cc40VLyf.s 			page 26


 885              		.loc 1 530 8 is_stmt 0 view .LVU227
 886 0000 0388     		ldrh	r3, [r0]
 887 0002 9BB2     		uxth	r3, r3
 888              		.loc 1 530 16 view .LVU228
 889 0004 23F48063 		bic	r3, r3, #1024
 890 0008 9BB2     		uxth	r3, r3
 891 000a 0380     		strh	r3, [r0]	@ movhi
 531:n32g430_std_periph_driver/src/n32g430_i2c.c **** }
 892              		.loc 1 531 1 view .LVU229
 893 000c 7047     		bx	lr
 894              		.cfi_endproc
 895              	.LFE142:
 897              		.section	.text.I2C_Own_Addr2_Set,"ax",%progbits
 898              		.align	1
 899              		.global	I2C_Own_Addr2_Set
 900              		.syntax unified
 901              		.thumb
 902              		.thumb_func
 904              	I2C_Own_Addr2_Set:
 905              	.LVL76:
 906              	.LFB143:
 532:n32g430_std_periph_driver/src/n32g430_i2c.c **** 
 533:n32g430_std_periph_driver/src/n32g430_i2c.c **** /**
 534:n32g430_std_periph_driver/src/n32g430_i2c.c **** *\*\name    I2C_Own_Addr2_Set.
 535:n32g430_std_periph_driver/src/n32g430_i2c.c **** *\*\fun     Set the specified I2C own address2.
 536:n32g430_std_periph_driver/src/n32g430_i2c.c **** *\*\param   I2Cx :
 537:n32g430_std_periph_driver/src/n32g430_i2c.c **** *\*\          - I2C1
 538:n32g430_std_periph_driver/src/n32g430_i2c.c **** *\*\          - I2C2
 539:n32g430_std_periph_driver/src/n32g430_i2c.c **** *\*\param   address
 540:n32g430_std_periph_driver/src/n32g430_i2c.c **** *\*\          - 7bit I2C own address2
 541:n32g430_std_periph_driver/src/n32g430_i2c.c **** *\*\return  none
 542:n32g430_std_periph_driver/src/n32g430_i2c.c **** **/
 543:n32g430_std_periph_driver/src/n32g430_i2c.c **** void I2C_Own_Addr2_Set(I2C_Module* I2Cx, uint8_t address)
 544:n32g430_std_periph_driver/src/n32g430_i2c.c **** {
 907              		.loc 1 544 1 is_stmt 1 view -0
 908              		.cfi_startproc
 909              		@ args = 0, pretend = 0, frame = 0
 910              		@ frame_needed = 0, uses_anonymous_args = 0
 911              		@ link register save eliminated.
 545:n32g430_std_periph_driver/src/n32g430_i2c.c ****     uint16_t temp_value = 0;
 912              		.loc 1 545 5 view .LVU231
 546:n32g430_std_periph_driver/src/n32g430_i2c.c **** 
 547:n32g430_std_periph_driver/src/n32g430_i2c.c ****     /* Get the old register value */
 548:n32g430_std_periph_driver/src/n32g430_i2c.c ****     temp_value = I2Cx->OADDR2;
 913              		.loc 1 548 5 view .LVU232
 914              		.loc 1 548 16 is_stmt 0 view .LVU233
 915 0000 8389     		ldrh	r3, [r0, #12]
 916 0002 9BB2     		uxth	r3, r3
 917              	.LVL77:
 549:n32g430_std_periph_driver/src/n32g430_i2c.c **** 
 550:n32g430_std_periph_driver/src/n32g430_i2c.c ****     /* Reset I2Cx Own address2 bit [7:1] */
 551:n32g430_std_periph_driver/src/n32g430_i2c.c ****     temp_value &= I2C_ADDR2_RESET;
 918              		.loc 1 551 5 is_stmt 1 view .LVU234
 919              		.loc 1 551 16 is_stmt 0 view .LVU235
 920 0004 23F0FE03 		bic	r3, r3, #254
 921              	.LVL78:
 552:n32g430_std_periph_driver/src/n32g430_i2c.c **** 
ARM GAS  C:\Users\Dawn\AppData\Local\Temp\cc40VLyf.s 			page 27


 553:n32g430_std_periph_driver/src/n32g430_i2c.c ****     /* Set I2Cx Own address2 */
 554:n32g430_std_periph_driver/src/n32g430_i2c.c ****     temp_value |= (uint16_t)((uint16_t)address & I2C_ADDR2_SET);
 922              		.loc 1 554 5 is_stmt 1 view .LVU236
 923              		.loc 1 554 16 is_stmt 0 view .LVU237
 924 0008 01F0FE01 		and	r1, r1, #254
 925              	.LVL79:
 926              		.loc 1 554 16 view .LVU238
 927 000c 0B43     		orrs	r3, r3, r1
 928              	.LVL80:
 555:n32g430_std_periph_driver/src/n32g430_i2c.c **** 
 556:n32g430_std_periph_driver/src/n32g430_i2c.c ****     /* Store the new register value */
 557:n32g430_std_periph_driver/src/n32g430_i2c.c ****     I2Cx->OADDR2 = temp_value;
 929              		.loc 1 557 5 is_stmt 1 view .LVU239
 930              		.loc 1 557 18 is_stmt 0 view .LVU240
 931 000e 8381     		strh	r3, [r0, #12]	@ movhi
 558:n32g430_std_periph_driver/src/n32g430_i2c.c **** }
 932              		.loc 1 558 1 view .LVU241
 933 0010 7047     		bx	lr
 934              		.cfi_endproc
 935              	.LFE143:
 937              		.section	.text.I2C_Dual_Addr_Enable,"ax",%progbits
 938              		.align	1
 939              		.global	I2C_Dual_Addr_Enable
 940              		.syntax unified
 941              		.thumb
 942              		.thumb_func
 944              	I2C_Dual_Addr_Enable:
 945              	.LVL81:
 946              	.LFB144:
 559:n32g430_std_periph_driver/src/n32g430_i2c.c **** 
 560:n32g430_std_periph_driver/src/n32g430_i2c.c **** /**
 561:n32g430_std_periph_driver/src/n32g430_i2c.c **** *\*\name    I2C_Dual_Addr_Enable.
 562:n32g430_std_periph_driver/src/n32g430_i2c.c **** *\*\fun     Enables the specified I2C dual addressing mode.
 563:n32g430_std_periph_driver/src/n32g430_i2c.c **** *\*\param   I2Cx :
 564:n32g430_std_periph_driver/src/n32g430_i2c.c **** *\*\          - I2C1
 565:n32g430_std_periph_driver/src/n32g430_i2c.c **** *\*\          - I2C2
 566:n32g430_std_periph_driver/src/n32g430_i2c.c **** *\*\return  none
 567:n32g430_std_periph_driver/src/n32g430_i2c.c **** **/
 568:n32g430_std_periph_driver/src/n32g430_i2c.c **** void I2C_Dual_Addr_Enable(I2C_Module* I2Cx)
 569:n32g430_std_periph_driver/src/n32g430_i2c.c **** {
 947              		.loc 1 569 1 is_stmt 1 view -0
 948              		.cfi_startproc
 949              		@ args = 0, pretend = 0, frame = 0
 950              		@ frame_needed = 0, uses_anonymous_args = 0
 951              		@ link register save eliminated.
 570:n32g430_std_periph_driver/src/n32g430_i2c.c ****     /* Enable dual addressing mode */
 571:n32g430_std_periph_driver/src/n32g430_i2c.c ****     I2Cx->OADDR2 |= I2C_DUALEN_SET;
 952              		.loc 1 571 5 view .LVU243
 953              		.loc 1 571 9 is_stmt 0 view .LVU244
 954 0000 8389     		ldrh	r3, [r0, #12]
 955 0002 9BB2     		uxth	r3, r3
 956              		.loc 1 571 18 view .LVU245
 957 0004 43F00103 		orr	r3, r3, #1
 958 0008 8381     		strh	r3, [r0, #12]	@ movhi
 572:n32g430_std_periph_driver/src/n32g430_i2c.c **** }
 959              		.loc 1 572 1 view .LVU246
 960 000a 7047     		bx	lr
ARM GAS  C:\Users\Dawn\AppData\Local\Temp\cc40VLyf.s 			page 28


 961              		.cfi_endproc
 962              	.LFE144:
 964              		.section	.text.I2C_Dual_Addr_Disable,"ax",%progbits
 965              		.align	1
 966              		.global	I2C_Dual_Addr_Disable
 967              		.syntax unified
 968              		.thumb
 969              		.thumb_func
 971              	I2C_Dual_Addr_Disable:
 972              	.LVL82:
 973              	.LFB145:
 573:n32g430_std_periph_driver/src/n32g430_i2c.c **** 
 574:n32g430_std_periph_driver/src/n32g430_i2c.c **** /**
 575:n32g430_std_periph_driver/src/n32g430_i2c.c **** *\*\name    I2C_Dual_Addr_Disable.
 576:n32g430_std_periph_driver/src/n32g430_i2c.c **** *\*\fun     Disable the specified I2C dual addressing mode.
 577:n32g430_std_periph_driver/src/n32g430_i2c.c **** *\*\param   I2Cx :
 578:n32g430_std_periph_driver/src/n32g430_i2c.c **** *\*\          - I2C1
 579:n32g430_std_periph_driver/src/n32g430_i2c.c **** *\*\          - I2C2
 580:n32g430_std_periph_driver/src/n32g430_i2c.c **** *\*\return  none
 581:n32g430_std_periph_driver/src/n32g430_i2c.c **** **/
 582:n32g430_std_periph_driver/src/n32g430_i2c.c **** void I2C_Dual_Addr_Disable(I2C_Module* I2Cx)
 583:n32g430_std_periph_driver/src/n32g430_i2c.c **** {
 974              		.loc 1 583 1 is_stmt 1 view -0
 975              		.cfi_startproc
 976              		@ args = 0, pretend = 0, frame = 0
 977              		@ frame_needed = 0, uses_anonymous_args = 0
 978              		@ link register save eliminated.
 584:n32g430_std_periph_driver/src/n32g430_i2c.c ****     /* Disable dual addressing mode */
 585:n32g430_std_periph_driver/src/n32g430_i2c.c ****     I2Cx->OADDR2 &= I2C_DUALEN_RESET;
 979              		.loc 1 585 5 view .LVU248
 980              		.loc 1 585 9 is_stmt 0 view .LVU249
 981 0000 8389     		ldrh	r3, [r0, #12]
 982 0002 9BB2     		uxth	r3, r3
 983              		.loc 1 585 18 view .LVU250
 984 0004 23F00103 		bic	r3, r3, #1
 985 0008 9BB2     		uxth	r3, r3
 986 000a 8381     		strh	r3, [r0, #12]	@ movhi
 586:n32g430_std_periph_driver/src/n32g430_i2c.c **** }
 987              		.loc 1 586 1 view .LVU251
 988 000c 7047     		bx	lr
 989              		.cfi_endproc
 990              	.LFE145:
 992              		.section	.text.I2C_General_Call_Enable,"ax",%progbits
 993              		.align	1
 994              		.global	I2C_General_Call_Enable
 995              		.syntax unified
 996              		.thumb
 997              		.thumb_func
 999              	I2C_General_Call_Enable:
 1000              	.LVL83:
 1001              	.LFB146:
 587:n32g430_std_periph_driver/src/n32g430_i2c.c **** 
 588:n32g430_std_periph_driver/src/n32g430_i2c.c **** /**
 589:n32g430_std_periph_driver/src/n32g430_i2c.c **** *\*\name    I2C_General_Call_Enable.
 590:n32g430_std_periph_driver/src/n32g430_i2c.c **** *\*\fun     Enables the specified I2C general call feature.
 591:n32g430_std_periph_driver/src/n32g430_i2c.c **** *\*\param   I2Cx :
 592:n32g430_std_periph_driver/src/n32g430_i2c.c **** *\*\          - I2C1
ARM GAS  C:\Users\Dawn\AppData\Local\Temp\cc40VLyf.s 			page 29


 593:n32g430_std_periph_driver/src/n32g430_i2c.c **** *\*\          - I2C2
 594:n32g430_std_periph_driver/src/n32g430_i2c.c **** *\*\return  none
 595:n32g430_std_periph_driver/src/n32g430_i2c.c **** **/
 596:n32g430_std_periph_driver/src/n32g430_i2c.c **** void I2C_General_Call_Enable(I2C_Module* I2Cx)
 597:n32g430_std_periph_driver/src/n32g430_i2c.c **** {
 1002              		.loc 1 597 1 is_stmt 1 view -0
 1003              		.cfi_startproc
 1004              		@ args = 0, pretend = 0, frame = 0
 1005              		@ frame_needed = 0, uses_anonymous_args = 0
 1006              		@ link register save eliminated.
 598:n32g430_std_periph_driver/src/n32g430_i2c.c ****     /* Enable generall call */
 599:n32g430_std_periph_driver/src/n32g430_i2c.c ****     I2Cx->CTRL1 |= I2C_GCEN_SET;
 1007              		.loc 1 599 5 view .LVU253
 1008              		.loc 1 599 9 is_stmt 0 view .LVU254
 1009 0000 0388     		ldrh	r3, [r0]
 1010 0002 9BB2     		uxth	r3, r3
 1011              		.loc 1 599 17 view .LVU255
 1012 0004 43F04003 		orr	r3, r3, #64
 1013 0008 0380     		strh	r3, [r0]	@ movhi
 600:n32g430_std_periph_driver/src/n32g430_i2c.c **** }
 1014              		.loc 1 600 1 view .LVU256
 1015 000a 7047     		bx	lr
 1016              		.cfi_endproc
 1017              	.LFE146:
 1019              		.section	.text.I2C_General_Call_Disable,"ax",%progbits
 1020              		.align	1
 1021              		.global	I2C_General_Call_Disable
 1022              		.syntax unified
 1023              		.thumb
 1024              		.thumb_func
 1026              	I2C_General_Call_Disable:
 1027              	.LVL84:
 1028              	.LFB147:
 601:n32g430_std_periph_driver/src/n32g430_i2c.c **** 
 602:n32g430_std_periph_driver/src/n32g430_i2c.c **** /**
 603:n32g430_std_periph_driver/src/n32g430_i2c.c **** *\*\name    I2C_General_Call_Disable.
 604:n32g430_std_periph_driver/src/n32g430_i2c.c **** *\*\fun     Disable the specified I2C general call feature.
 605:n32g430_std_periph_driver/src/n32g430_i2c.c **** *\*\param   I2Cx :
 606:n32g430_std_periph_driver/src/n32g430_i2c.c **** *\*\          - I2C1
 607:n32g430_std_periph_driver/src/n32g430_i2c.c **** *\*\          - I2C2
 608:n32g430_std_periph_driver/src/n32g430_i2c.c **** *\*\return  none
 609:n32g430_std_periph_driver/src/n32g430_i2c.c **** **/
 610:n32g430_std_periph_driver/src/n32g430_i2c.c **** void I2C_General_Call_Disable(I2C_Module* I2Cx)
 611:n32g430_std_periph_driver/src/n32g430_i2c.c **** {
 1029              		.loc 1 611 1 is_stmt 1 view -0
 1030              		.cfi_startproc
 1031              		@ args = 0, pretend = 0, frame = 0
 1032              		@ frame_needed = 0, uses_anonymous_args = 0
 1033              		@ link register save eliminated.
 612:n32g430_std_periph_driver/src/n32g430_i2c.c ****     /* Disable generall call */
 613:n32g430_std_periph_driver/src/n32g430_i2c.c ****     I2Cx->CTRL1 &= I2C_GCEN_RESET;
 1034              		.loc 1 613 5 view .LVU258
 1035              		.loc 1 613 9 is_stmt 0 view .LVU259
 1036 0000 0388     		ldrh	r3, [r0]
 1037 0002 9BB2     		uxth	r3, r3
 1038              		.loc 1 613 17 view .LVU260
 1039 0004 23F04003 		bic	r3, r3, #64
ARM GAS  C:\Users\Dawn\AppData\Local\Temp\cc40VLyf.s 			page 30


 1040 0008 9BB2     		uxth	r3, r3
 1041 000a 0380     		strh	r3, [r0]	@ movhi
 614:n32g430_std_periph_driver/src/n32g430_i2c.c **** }
 1042              		.loc 1 614 1 view .LVU261
 1043 000c 7047     		bx	lr
 1044              		.cfi_endproc
 1045              	.LFE147:
 1047              		.section	.text.I2C_Interrupts_Enable,"ax",%progbits
 1048              		.align	1
 1049              		.global	I2C_Interrupts_Enable
 1050              		.syntax unified
 1051              		.thumb
 1052              		.thumb_func
 1054              	I2C_Interrupts_Enable:
 1055              	.LVL85:
 1056              	.LFB148:
 615:n32g430_std_periph_driver/src/n32g430_i2c.c **** 
 616:n32g430_std_periph_driver/src/n32g430_i2c.c **** /**
 617:n32g430_std_periph_driver/src/n32g430_i2c.c **** *\*\name    I2C_Interrupts_Enable.
 618:n32g430_std_periph_driver/src/n32g430_i2c.c **** *\*\fun     Enables the specified I2C interrupts.
 619:n32g430_std_periph_driver/src/n32g430_i2c.c **** *\*\param   I2Cx :
 620:n32g430_std_periph_driver/src/n32g430_i2c.c **** *\*\          - I2C1
 621:n32g430_std_periph_driver/src/n32g430_i2c.c **** *\*\          - I2C2
 622:n32g430_std_periph_driver/src/n32g430_i2c.c **** *\*\param   I2C_IT :
 623:n32g430_std_periph_driver/src/n32g430_i2c.c **** *\*\          - I2C_INT_BUF Buffer interrupt mask
 624:n32g430_std_periph_driver/src/n32g430_i2c.c **** *\*\          - I2C_INT_EVENT Event interrupt mask
 625:n32g430_std_periph_driver/src/n32g430_i2c.c **** *\*\          - I2C_INT_ERR Error interrupt mask
 626:n32g430_std_periph_driver/src/n32g430_i2c.c **** *\*\return  none
 627:n32g430_std_periph_driver/src/n32g430_i2c.c **** **/
 628:n32g430_std_periph_driver/src/n32g430_i2c.c **** void I2C_Interrupts_Enable(I2C_Module* I2Cx, uint16_t I2C_IT)
 629:n32g430_std_periph_driver/src/n32g430_i2c.c **** {
 1057              		.loc 1 629 1 is_stmt 1 view -0
 1058              		.cfi_startproc
 1059              		@ args = 0, pretend = 0, frame = 0
 1060              		@ frame_needed = 0, uses_anonymous_args = 0
 1061              		@ link register save eliminated.
 630:n32g430_std_periph_driver/src/n32g430_i2c.c ****     /* Enable the selected I2C interrupts */
 631:n32g430_std_periph_driver/src/n32g430_i2c.c ****     I2Cx->CTRL2 |= I2C_IT;
 1062              		.loc 1 631 5 view .LVU263
 1063              		.loc 1 631 9 is_stmt 0 view .LVU264
 1064 0000 8388     		ldrh	r3, [r0, #4]
 1065 0002 9BB2     		uxth	r3, r3
 1066              		.loc 1 631 17 view .LVU265
 1067 0004 0B43     		orrs	r3, r3, r1
 1068 0006 8380     		strh	r3, [r0, #4]	@ movhi
 632:n32g430_std_periph_driver/src/n32g430_i2c.c **** }
 1069              		.loc 1 632 1 view .LVU266
 1070 0008 7047     		bx	lr
 1071              		.cfi_endproc
 1072              	.LFE148:
 1074              		.section	.text.I2C_Interrupts_Disable,"ax",%progbits
 1075              		.align	1
 1076              		.global	I2C_Interrupts_Disable
 1077              		.syntax unified
 1078              		.thumb
 1079              		.thumb_func
 1081              	I2C_Interrupts_Disable:
ARM GAS  C:\Users\Dawn\AppData\Local\Temp\cc40VLyf.s 			page 31


 1082              	.LVL86:
 1083              	.LFB149:
 633:n32g430_std_periph_driver/src/n32g430_i2c.c **** 
 634:n32g430_std_periph_driver/src/n32g430_i2c.c **** /**
 635:n32g430_std_periph_driver/src/n32g430_i2c.c **** *\*\name    I2C_Interrupts_Disable.
 636:n32g430_std_periph_driver/src/n32g430_i2c.c **** *\*\fun     Disables the specified I2C interrupts.
 637:n32g430_std_periph_driver/src/n32g430_i2c.c **** *\*\param   I2Cx :
 638:n32g430_std_periph_driver/src/n32g430_i2c.c **** *\*\          - I2C1
 639:n32g430_std_periph_driver/src/n32g430_i2c.c **** *\*\          - I2C2
 640:n32g430_std_periph_driver/src/n32g430_i2c.c **** *\*\param   I2C_IT :
 641:n32g430_std_periph_driver/src/n32g430_i2c.c **** *\*\          - I2C_INT_BUF Buffer interrupt mask
 642:n32g430_std_periph_driver/src/n32g430_i2c.c **** *\*\          - I2C_INT_EVENT Event interrupt mask
 643:n32g430_std_periph_driver/src/n32g430_i2c.c **** *\*\          - I2C_INT_ERR Error interrupt mask
 644:n32g430_std_periph_driver/src/n32g430_i2c.c **** *\*\return  none
 645:n32g430_std_periph_driver/src/n32g430_i2c.c **** **/
 646:n32g430_std_periph_driver/src/n32g430_i2c.c **** void I2C_Interrupts_Disable(I2C_Module* I2Cx, uint16_t I2C_IT)
 647:n32g430_std_periph_driver/src/n32g430_i2c.c **** {
 1084              		.loc 1 647 1 is_stmt 1 view -0
 1085              		.cfi_startproc
 1086              		@ args = 0, pretend = 0, frame = 0
 1087              		@ frame_needed = 0, uses_anonymous_args = 0
 1088              		@ link register save eliminated.
 648:n32g430_std_periph_driver/src/n32g430_i2c.c ****     /* Disable the selected I2C interrupts */
 649:n32g430_std_periph_driver/src/n32g430_i2c.c ****     I2Cx->CTRL2 &= (uint16_t)~I2C_IT;
 1089              		.loc 1 649 5 view .LVU268
 1090              		.loc 1 649 9 is_stmt 0 view .LVU269
 1091 0000 8388     		ldrh	r3, [r0, #4]
 1092              		.loc 1 649 20 view .LVU270
 1093 0002 C943     		mvns	r1, r1
 1094              	.LVL87:
 1095              		.loc 1 649 20 view .LVU271
 1096 0004 89B2     		uxth	r1, r1
 1097              	.LVL88:
 1098              		.loc 1 649 17 view .LVU272
 1099 0006 1940     		ands	r1, r1, r3
 1100 0008 8180     		strh	r1, [r0, #4]	@ movhi
 650:n32g430_std_periph_driver/src/n32g430_i2c.c **** }
 1101              		.loc 1 650 1 view .LVU273
 1102 000a 7047     		bx	lr
 1103              		.cfi_endproc
 1104              	.LFE149:
 1106              		.section	.text.I2C_Data_Send,"ax",%progbits
 1107              		.align	1
 1108              		.global	I2C_Data_Send
 1109              		.syntax unified
 1110              		.thumb
 1111              		.thumb_func
 1113              	I2C_Data_Send:
 1114              	.LVL89:
 1115              	.LFB150:
 651:n32g430_std_periph_driver/src/n32g430_i2c.c **** 
 652:n32g430_std_periph_driver/src/n32g430_i2c.c **** /**
 653:n32g430_std_periph_driver/src/n32g430_i2c.c **** *\*\name    I2C_Data_Send.
 654:n32g430_std_periph_driver/src/n32g430_i2c.c **** *\*\fun     Sends a data byte through the I2Cx peripheral.
 655:n32g430_std_periph_driver/src/n32g430_i2c.c **** *\*\param   I2Cx :
 656:n32g430_std_periph_driver/src/n32g430_i2c.c **** *\*\          - I2C1
 657:n32g430_std_periph_driver/src/n32g430_i2c.c **** *\*\          - I2C2
ARM GAS  C:\Users\Dawn\AppData\Local\Temp\cc40VLyf.s 			page 32


 658:n32g430_std_periph_driver/src/n32g430_i2c.c **** *\*\param   data
 659:n32g430_std_periph_driver/src/n32g430_i2c.c **** *\*\return  none
 660:n32g430_std_periph_driver/src/n32g430_i2c.c **** **/
 661:n32g430_std_periph_driver/src/n32g430_i2c.c **** void I2C_Data_Send(I2C_Module* I2Cx, uint8_t data)
 662:n32g430_std_periph_driver/src/n32g430_i2c.c **** {
 1116              		.loc 1 662 1 is_stmt 1 view -0
 1117              		.cfi_startproc
 1118              		@ args = 0, pretend = 0, frame = 0
 1119              		@ frame_needed = 0, uses_anonymous_args = 0
 1120              		@ link register save eliminated.
 663:n32g430_std_periph_driver/src/n32g430_i2c.c ****     /* Write in the DAT register the data to be sent */
 664:n32g430_std_periph_driver/src/n32g430_i2c.c ****     I2Cx->DAT = data;
 1121              		.loc 1 664 5 view .LVU275
 1122              		.loc 1 664 15 is_stmt 0 view .LVU276
 1123 0000 0182     		strh	r1, [r0, #16]	@ movhi
 665:n32g430_std_periph_driver/src/n32g430_i2c.c **** }
 1124              		.loc 1 665 1 view .LVU277
 1125 0002 7047     		bx	lr
 1126              		.cfi_endproc
 1127              	.LFE150:
 1129              		.section	.text.I2C_Data_Recv,"ax",%progbits
 1130              		.align	1
 1131              		.global	I2C_Data_Recv
 1132              		.syntax unified
 1133              		.thumb
 1134              		.thumb_func
 1136              	I2C_Data_Recv:
 1137              	.LVL90:
 1138              	.LFB151:
 666:n32g430_std_periph_driver/src/n32g430_i2c.c **** 
 667:n32g430_std_periph_driver/src/n32g430_i2c.c **** /**
 668:n32g430_std_periph_driver/src/n32g430_i2c.c **** *\*\name    I2C_Data_Recv.
 669:n32g430_std_periph_driver/src/n32g430_i2c.c **** *\*\fun     Returns the most recent received data by the I2Cx peripheral.
 670:n32g430_std_periph_driver/src/n32g430_i2c.c **** *\*\param   I2Cx :
 671:n32g430_std_periph_driver/src/n32g430_i2c.c **** *\*\          - I2C1
 672:n32g430_std_periph_driver/src/n32g430_i2c.c **** *\*\          - I2C2
 673:n32g430_std_periph_driver/src/n32g430_i2c.c **** *\*\return  The value of the received data
 674:n32g430_std_periph_driver/src/n32g430_i2c.c **** **/
 675:n32g430_std_periph_driver/src/n32g430_i2c.c **** uint8_t I2C_Data_Recv(I2C_Module* I2Cx)
 676:n32g430_std_periph_driver/src/n32g430_i2c.c **** {
 1139              		.loc 1 676 1 is_stmt 1 view -0
 1140              		.cfi_startproc
 1141              		@ args = 0, pretend = 0, frame = 0
 1142              		@ frame_needed = 0, uses_anonymous_args = 0
 1143              		@ link register save eliminated.
 677:n32g430_std_periph_driver/src/n32g430_i2c.c ****     /* Return the data in the DAT register */
 678:n32g430_std_periph_driver/src/n32g430_i2c.c ****     return (uint8_t)I2Cx->DAT;
 1144              		.loc 1 678 5 view .LVU279
 1145              		.loc 1 678 25 is_stmt 0 view .LVU280
 1146 0000 008A     		ldrh	r0, [r0, #16]
 1147              	.LVL91:
 679:n32g430_std_periph_driver/src/n32g430_i2c.c **** }
 1148              		.loc 1 679 1 view .LVU281
 1149 0002 C0B2     		uxtb	r0, r0
 1150 0004 7047     		bx	lr
 1151              		.cfi_endproc
 1152              	.LFE151:
ARM GAS  C:\Users\Dawn\AppData\Local\Temp\cc40VLyf.s 			page 33


 1154              		.section	.text.I2C_7bit_Addr_Send,"ax",%progbits
 1155              		.align	1
 1156              		.global	I2C_7bit_Addr_Send
 1157              		.syntax unified
 1158              		.thumb
 1159              		.thumb_func
 1161              	I2C_7bit_Addr_Send:
 1162              	.LVL92:
 1163              	.LFB152:
 680:n32g430_std_periph_driver/src/n32g430_i2c.c **** 
 681:n32g430_std_periph_driver/src/n32g430_i2c.c **** /**
 682:n32g430_std_periph_driver/src/n32g430_i2c.c **** *\*\name    I2C_7bit_Addr_Send.
 683:n32g430_std_periph_driver/src/n32g430_i2c.c **** *\*\fun     Transmits the address byte to select the slave device.
 684:n32g430_std_periph_driver/src/n32g430_i2c.c **** *\*\param   I2Cx :
 685:n32g430_std_periph_driver/src/n32g430_i2c.c **** *\*\          - I2C1
 686:n32g430_std_periph_driver/src/n32g430_i2c.c **** *\*\          - I2C2
 687:n32g430_std_periph_driver/src/n32g430_i2c.c **** *\*\param   address
 688:n32g430_std_periph_driver/src/n32g430_i2c.c **** *\*\param   mode :
 689:n32g430_std_periph_driver/src/n32g430_i2c.c **** *\*\          - I2C_DIRECTION_SEND Transmitter mode
 690:n32g430_std_periph_driver/src/n32g430_i2c.c **** *\*\          - I2C_DIRECTION_RECV Receiver mode
 691:n32g430_std_periph_driver/src/n32g430_i2c.c **** *\*\return  none
 692:n32g430_std_periph_driver/src/n32g430_i2c.c **** **/
 693:n32g430_std_periph_driver/src/n32g430_i2c.c **** void I2C_7bit_Addr_Send(I2C_Module* I2Cx, uint8_t address, uint8_t mode)
 694:n32g430_std_periph_driver/src/n32g430_i2c.c **** {
 1164              		.loc 1 694 1 is_stmt 1 view -0
 1165              		.cfi_startproc
 1166              		@ args = 0, pretend = 0, frame = 0
 1167              		@ frame_needed = 0, uses_anonymous_args = 0
 1168              		@ link register save eliminated.
 695:n32g430_std_periph_driver/src/n32g430_i2c.c ****     /* Test on the direction to set/reset the read/write bit */
 696:n32g430_std_periph_driver/src/n32g430_i2c.c ****     if (mode == I2C_DIRECTION_RECV)
 1169              		.loc 1 696 5 view .LVU283
 1170              		.loc 1 696 8 is_stmt 0 view .LVU284
 1171 0000 012A     		cmp	r2, #1
 1172 0002 03D0     		beq	.L53
 697:n32g430_std_periph_driver/src/n32g430_i2c.c ****     {
 698:n32g430_std_periph_driver/src/n32g430_i2c.c ****         /* Set the address bit0 for read */
 699:n32g430_std_periph_driver/src/n32g430_i2c.c ****         address |= I2C_ADDR0_SET;
 700:n32g430_std_periph_driver/src/n32g430_i2c.c ****     }
 701:n32g430_std_periph_driver/src/n32g430_i2c.c ****     else
 702:n32g430_std_periph_driver/src/n32g430_i2c.c ****     {
 703:n32g430_std_periph_driver/src/n32g430_i2c.c ****         /* Reset the address bit0 for write */
 704:n32g430_std_periph_driver/src/n32g430_i2c.c ****         address &= I2C_ADDR0_RESET;
 1173              		.loc 1 704 9 is_stmt 1 view .LVU285
 1174              		.loc 1 704 17 is_stmt 0 view .LVU286
 1175 0004 01F0FE01 		and	r1, r1, #254
 1176              	.LVL93:
 1177              	.L52:
 705:n32g430_std_periph_driver/src/n32g430_i2c.c ****     }
 706:n32g430_std_periph_driver/src/n32g430_i2c.c ****     /* Send the address */
 707:n32g430_std_periph_driver/src/n32g430_i2c.c ****     I2Cx->DAT = address;
 1178              		.loc 1 707 5 is_stmt 1 view .LVU287
 1179              		.loc 1 707 15 is_stmt 0 view .LVU288
 1180 0008 0182     		strh	r1, [r0, #16]	@ movhi
 708:n32g430_std_periph_driver/src/n32g430_i2c.c **** }
 1181              		.loc 1 708 1 view .LVU289
 1182 000a 7047     		bx	lr
ARM GAS  C:\Users\Dawn\AppData\Local\Temp\cc40VLyf.s 			page 34


 1183              	.L53:
 699:n32g430_std_periph_driver/src/n32g430_i2c.c ****     }
 1184              		.loc 1 699 9 is_stmt 1 view .LVU290
 699:n32g430_std_periph_driver/src/n32g430_i2c.c ****     }
 1185              		.loc 1 699 17 is_stmt 0 view .LVU291
 1186 000c 41F00101 		orr	r1, r1, #1
 1187              	.LVL94:
 699:n32g430_std_periph_driver/src/n32g430_i2c.c ****     }
 1188              		.loc 1 699 17 view .LVU292
 1189 0010 FAE7     		b	.L52
 1190              		.cfi_endproc
 1191              	.LFE152:
 1193              		.section	.text.I2C_Register_Value_Get,"ax",%progbits
 1194              		.align	1
 1195              		.global	I2C_Register_Value_Get
 1196              		.syntax unified
 1197              		.thumb
 1198              		.thumb_func
 1200              	I2C_Register_Value_Get:
 1201              	.LVL95:
 1202              	.LFB153:
 709:n32g430_std_periph_driver/src/n32g430_i2c.c **** 
 710:n32g430_std_periph_driver/src/n32g430_i2c.c **** /**
 711:n32g430_std_periph_driver/src/n32g430_i2c.c **** *\*\name    I2C_Register_Value_Get.
 712:n32g430_std_periph_driver/src/n32g430_i2c.c **** *\*\fun     Reads the specified I2C register and returns its value.
 713:n32g430_std_periph_driver/src/n32g430_i2c.c **** *\*\param   I2Cx :
 714:n32g430_std_periph_driver/src/n32g430_i2c.c **** *\*\          - I2C1
 715:n32g430_std_periph_driver/src/n32g430_i2c.c **** *\*\          - I2C2
 716:n32g430_std_periph_driver/src/n32g430_i2c.c **** *\*\param   I2C_Register :
 717:n32g430_std_periph_driver/src/n32g430_i2c.c **** *\*\          - I2C_REG_CTRL1 CTRL1 register
 718:n32g430_std_periph_driver/src/n32g430_i2c.c **** *\*\          - I2C_REG_CTRL2 CTRL2 register
 719:n32g430_std_periph_driver/src/n32g430_i2c.c **** *\*\          - I2C_REG_OADDR1 OADDR1 register
 720:n32g430_std_periph_driver/src/n32g430_i2c.c **** *\*\          - I2C_REG_OADDR2 OADDR2 register
 721:n32g430_std_periph_driver/src/n32g430_i2c.c **** *\*\          - I2C_REG_DAT DAT register
 722:n32g430_std_periph_driver/src/n32g430_i2c.c **** *\*\          - I2C_REG_STS1 STS1 register
 723:n32g430_std_periph_driver/src/n32g430_i2c.c **** *\*\          - I2C_REG_STS2 STS2 register
 724:n32g430_std_periph_driver/src/n32g430_i2c.c **** *\*\          - I2C_REG_CLKCTRL CLKCTRL register
 725:n32g430_std_periph_driver/src/n32g430_i2c.c **** *\*\          - I2C_REG_TMRISE TMRISE register
 726:n32g430_std_periph_driver/src/n32g430_i2c.c **** *\*\return  none
 727:n32g430_std_periph_driver/src/n32g430_i2c.c **** **/
 728:n32g430_std_periph_driver/src/n32g430_i2c.c **** uint16_t I2C_Register_Value_Get(I2C_Module* I2Cx, uint8_t I2C_Register)
 729:n32g430_std_periph_driver/src/n32g430_i2c.c **** {
 1203              		.loc 1 729 1 is_stmt 1 view -0
 1204              		.cfi_startproc
 1205              		@ args = 0, pretend = 0, frame = 8
 1206              		@ frame_needed = 0, uses_anonymous_args = 0
 1207              		@ link register save eliminated.
 1208              		.loc 1 729 1 is_stmt 0 view .LVU294
 1209 0000 82B0     		sub	sp, sp, #8
 1210              	.LCFI6:
 1211              		.cfi_def_cfa_offset 8
 730:n32g430_std_periph_driver/src/n32g430_i2c.c ****     __IO uint32_t temp_value = 0;
 1212              		.loc 1 730 5 is_stmt 1 view .LVU295
 1213              		.loc 1 730 19 is_stmt 0 view .LVU296
 1214 0002 0023     		movs	r3, #0
 1215 0004 0193     		str	r3, [sp, #4]
 731:n32g430_std_periph_driver/src/n32g430_i2c.c ****     temp_value = (uint32_t)I2Cx;
ARM GAS  C:\Users\Dawn\AppData\Local\Temp\cc40VLyf.s 			page 35


 1216              		.loc 1 731 5 is_stmt 1 view .LVU297
 1217              		.loc 1 731 16 is_stmt 0 view .LVU298
 1218 0006 0190     		str	r0, [sp, #4]
 732:n32g430_std_periph_driver/src/n32g430_i2c.c ****     temp_value += I2C_Register;
 1219              		.loc 1 732 5 is_stmt 1 view .LVU299
 1220              		.loc 1 732 16 is_stmt 0 view .LVU300
 1221 0008 019B     		ldr	r3, [sp, #4]
 1222 000a 1944     		add	r1, r1, r3
 1223              	.LVL96:
 1224              		.loc 1 732 16 view .LVU301
 1225 000c 0191     		str	r1, [sp, #4]
 733:n32g430_std_periph_driver/src/n32g430_i2c.c **** 
 734:n32g430_std_periph_driver/src/n32g430_i2c.c ****     /* Return the selected register value */
 735:n32g430_std_periph_driver/src/n32g430_i2c.c ****     return (*(__IO uint16_t*)temp_value);
 1226              		.loc 1 735 5 is_stmt 1 view .LVU302
 1227              		.loc 1 735 14 is_stmt 0 view .LVU303
 1228 000e 019B     		ldr	r3, [sp, #4]
 1229              		.loc 1 735 13 view .LVU304
 1230 0010 1888     		ldrh	r0, [r3]
 1231              	.LVL97:
 736:n32g430_std_periph_driver/src/n32g430_i2c.c **** }
 1232              		.loc 1 736 1 view .LVU305
 1233 0012 80B2     		uxth	r0, r0
 1234 0014 02B0     		add	sp, sp, #8
 1235              	.LCFI7:
 1236              		.cfi_def_cfa_offset 0
 1237              		@ sp needed
 1238 0016 7047     		bx	lr
 1239              		.cfi_endproc
 1240              	.LFE153:
 1242              		.section	.text.I2C_Software_Reset_Enable,"ax",%progbits
 1243              		.align	1
 1244              		.global	I2C_Software_Reset_Enable
 1245              		.syntax unified
 1246              		.thumb
 1247              		.thumb_func
 1249              	I2C_Software_Reset_Enable:
 1250              	.LVL98:
 1251              	.LFB154:
 737:n32g430_std_periph_driver/src/n32g430_i2c.c **** 
 738:n32g430_std_periph_driver/src/n32g430_i2c.c **** /**
 739:n32g430_std_periph_driver/src/n32g430_i2c.c **** *\*\name    I2C_Software_Reset_Enable.
 740:n32g430_std_periph_driver/src/n32g430_i2c.c **** *\*\fun     Enables the specified I2C software reset.
 741:n32g430_std_periph_driver/src/n32g430_i2c.c **** *\*\param   I2Cx :
 742:n32g430_std_periph_driver/src/n32g430_i2c.c **** *\*\          - I2C1
 743:n32g430_std_periph_driver/src/n32g430_i2c.c **** *\*\          - I2C2
 744:n32g430_std_periph_driver/src/n32g430_i2c.c **** *\*\return  none
 745:n32g430_std_periph_driver/src/n32g430_i2c.c **** **/
 746:n32g430_std_periph_driver/src/n32g430_i2c.c **** void I2C_Software_Reset_Enable(I2C_Module* I2Cx)
 747:n32g430_std_periph_driver/src/n32g430_i2c.c **** {
 1252              		.loc 1 747 1 is_stmt 1 view -0
 1253              		.cfi_startproc
 1254              		@ args = 0, pretend = 0, frame = 0
 1255              		@ frame_needed = 0, uses_anonymous_args = 0
 1256              		@ link register save eliminated.
 748:n32g430_std_periph_driver/src/n32g430_i2c.c ****     /* Peripheral under reset */
 749:n32g430_std_periph_driver/src/n32g430_i2c.c ****     I2Cx->CTRL1 |= I2C_SWRESET_SET;
ARM GAS  C:\Users\Dawn\AppData\Local\Temp\cc40VLyf.s 			page 36


 1257              		.loc 1 749 5 view .LVU307
 1258              		.loc 1 749 9 is_stmt 0 view .LVU308
 1259 0000 0388     		ldrh	r3, [r0]
 1260              		.loc 1 749 17 view .LVU309
 1261 0002 6FEA4343 		mvn	r3, r3, lsl #17
 1262 0006 6FEA5343 		mvn	r3, r3, lsr #17
 1263 000a 9BB2     		uxth	r3, r3
 1264 000c 0380     		strh	r3, [r0]	@ movhi
 750:n32g430_std_periph_driver/src/n32g430_i2c.c **** }
 1265              		.loc 1 750 1 view .LVU310
 1266 000e 7047     		bx	lr
 1267              		.cfi_endproc
 1268              	.LFE154:
 1270              		.section	.text.I2C_Software_Reset_Disable,"ax",%progbits
 1271              		.align	1
 1272              		.global	I2C_Software_Reset_Disable
 1273              		.syntax unified
 1274              		.thumb
 1275              		.thumb_func
 1277              	I2C_Software_Reset_Disable:
 1278              	.LVL99:
 1279              	.LFB155:
 751:n32g430_std_periph_driver/src/n32g430_i2c.c **** 
 752:n32g430_std_periph_driver/src/n32g430_i2c.c **** /**
 753:n32g430_std_periph_driver/src/n32g430_i2c.c **** *\*\name    I2C_Software_Reset_Disable.
 754:n32g430_std_periph_driver/src/n32g430_i2c.c **** *\*\fun     Disables the specified I2C software reset.
 755:n32g430_std_periph_driver/src/n32g430_i2c.c **** *\*\param   I2Cx :
 756:n32g430_std_periph_driver/src/n32g430_i2c.c **** *\*\          - I2C1
 757:n32g430_std_periph_driver/src/n32g430_i2c.c **** *\*\          - I2C2
 758:n32g430_std_periph_driver/src/n32g430_i2c.c **** *\*\return  none
 759:n32g430_std_periph_driver/src/n32g430_i2c.c **** **/
 760:n32g430_std_periph_driver/src/n32g430_i2c.c **** void I2C_Software_Reset_Disable(I2C_Module* I2Cx)
 761:n32g430_std_periph_driver/src/n32g430_i2c.c **** {
 1280              		.loc 1 761 1 is_stmt 1 view -0
 1281              		.cfi_startproc
 1282              		@ args = 0, pretend = 0, frame = 0
 1283              		@ frame_needed = 0, uses_anonymous_args = 0
 1284              		@ link register save eliminated.
 762:n32g430_std_periph_driver/src/n32g430_i2c.c ****     /* Peripheral not under reset */
 763:n32g430_std_periph_driver/src/n32g430_i2c.c ****     I2Cx->CTRL1 &= I2C_SWRESET_RESET;
 1285              		.loc 1 763 5 view .LVU312
 1286              		.loc 1 763 9 is_stmt 0 view .LVU313
 1287 0000 0388     		ldrh	r3, [r0]
 1288              		.loc 1 763 17 view .LVU314
 1289 0002 C3F30E03 		ubfx	r3, r3, #0, #15
 1290 0006 0380     		strh	r3, [r0]	@ movhi
 764:n32g430_std_periph_driver/src/n32g430_i2c.c **** }
 1291              		.loc 1 764 1 view .LVU315
 1292 0008 7047     		bx	lr
 1293              		.cfi_endproc
 1294              	.LFE155:
 1296              		.section	.text.I2C_NACK_Position_Set,"ax",%progbits
 1297              		.align	1
 1298              		.global	I2C_NACK_Position_Set
 1299              		.syntax unified
 1300              		.thumb
 1301              		.thumb_func
ARM GAS  C:\Users\Dawn\AppData\Local\Temp\cc40VLyf.s 			page 37


 1303              	I2C_NACK_Position_Set:
 1304              	.LVL100:
 1305              	.LFB156:
 765:n32g430_std_periph_driver/src/n32g430_i2c.c **** 
 766:n32g430_std_periph_driver/src/n32g430_i2c.c **** /**
 767:n32g430_std_periph_driver/src/n32g430_i2c.c **** *\*\name    I2C_NACK_Position_Set.
 768:n32g430_std_periph_driver/src/n32g430_i2c.c **** *\*\fun     Selects the specified I2C NACK position in master receiver mode.
 769:n32g430_std_periph_driver/src/n32g430_i2c.c **** *\*\        This function is useful in I2C Master Receiver mode when the number
 770:n32g430_std_periph_driver/src/n32g430_i2c.c **** *\*\        of data to be received is equal to 2. In this case, this function
 771:n32g430_std_periph_driver/src/n32g430_i2c.c **** *\*\        should be called (with parameter I2C_NACK_POS_NEXT) before data
 772:n32g430_std_periph_driver/src/n32g430_i2c.c **** *\*\        reception starts,as described in the 2-byte reception procedure
 773:n32g430_std_periph_driver/src/n32g430_i2c.c **** *\*\        recommended in Reference Manual in Section: Master receiver.
 774:n32g430_std_periph_driver/src/n32g430_i2c.c **** *\*\param   I2Cx :
 775:n32g430_std_periph_driver/src/n32g430_i2c.c **** *\*\          - I2C1
 776:n32g430_std_periph_driver/src/n32g430_i2c.c **** *\*\          - I2C2
 777:n32g430_std_periph_driver/src/n32g430_i2c.c **** *\*\param   position :
 778:n32g430_std_periph_driver/src/n32g430_i2c.c **** *\*\          - I2C_NACK_POS_NEXT Indicates that the next byte will be the last received byte.
 779:n32g430_std_periph_driver/src/n32g430_i2c.c **** *\*\          - I2C_NACK_POS_CURRENT Indicates that current byte is the last received byte.
 780:n32g430_std_periph_driver/src/n32g430_i2c.c **** *\*\note    This function configures the same bit (POS) as I2C_PEC_Position_Set()
 781:n32g430_std_periph_driver/src/n32g430_i2c.c **** *\*\        but is intended to be used in I2C mode while I2C_PEC_Position_Set()
 782:n32g430_std_periph_driver/src/n32g430_i2c.c **** *\*\        is intended to used in SMBUS mode.
 783:n32g430_std_periph_driver/src/n32g430_i2c.c **** *\*\return  none
 784:n32g430_std_periph_driver/src/n32g430_i2c.c **** **/
 785:n32g430_std_periph_driver/src/n32g430_i2c.c **** void I2C_NACK_Position_Set(I2C_Module* I2Cx, uint16_t position)
 786:n32g430_std_periph_driver/src/n32g430_i2c.c **** {
 1306              		.loc 1 786 1 is_stmt 1 view -0
 1307              		.cfi_startproc
 1308              		@ args = 0, pretend = 0, frame = 0
 1309              		@ frame_needed = 0, uses_anonymous_args = 0
 1310              		@ link register save eliminated.
 787:n32g430_std_periph_driver/src/n32g430_i2c.c ****     if (position == I2C_NACK_POS_NEXT)
 1311              		.loc 1 787 5 view .LVU317
 1312              		.loc 1 787 8 is_stmt 0 view .LVU318
 1313 0000 B1F5006F 		cmp	r1, #2048
 1314 0004 06D0     		beq	.L61
 788:n32g430_std_periph_driver/src/n32g430_i2c.c ****     {
 789:n32g430_std_periph_driver/src/n32g430_i2c.c ****         /* Next byte in shift register is the last received byte */
 790:n32g430_std_periph_driver/src/n32g430_i2c.c ****         I2Cx->CTRL1 |= I2C_NACK_POS_NEXT;
 791:n32g430_std_periph_driver/src/n32g430_i2c.c ****     }
 792:n32g430_std_periph_driver/src/n32g430_i2c.c ****     else
 793:n32g430_std_periph_driver/src/n32g430_i2c.c ****     {
 794:n32g430_std_periph_driver/src/n32g430_i2c.c ****         /* Current byte in shift register is the last received byte */
 795:n32g430_std_periph_driver/src/n32g430_i2c.c ****         I2Cx->CTRL1 &= I2C_NACK_POS_CURRENT;
 1315              		.loc 1 795 9 is_stmt 1 view .LVU319
 1316              		.loc 1 795 13 is_stmt 0 view .LVU320
 1317 0006 0388     		ldrh	r3, [r0]
 1318 0008 9BB2     		uxth	r3, r3
 1319              		.loc 1 795 21 view .LVU321
 1320 000a 23F40063 		bic	r3, r3, #2048
 1321 000e 9BB2     		uxth	r3, r3
 1322 0010 0380     		strh	r3, [r0]	@ movhi
 796:n32g430_std_periph_driver/src/n32g430_i2c.c ****     }
 797:n32g430_std_periph_driver/src/n32g430_i2c.c **** }
 1323              		.loc 1 797 1 view .LVU322
 1324 0012 7047     		bx	lr
 1325              	.L61:
 790:n32g430_std_periph_driver/src/n32g430_i2c.c ****     }
ARM GAS  C:\Users\Dawn\AppData\Local\Temp\cc40VLyf.s 			page 38


 1326              		.loc 1 790 9 is_stmt 1 view .LVU323
 790:n32g430_std_periph_driver/src/n32g430_i2c.c ****     }
 1327              		.loc 1 790 13 is_stmt 0 view .LVU324
 1328 0014 0388     		ldrh	r3, [r0]
 1329 0016 9BB2     		uxth	r3, r3
 790:n32g430_std_periph_driver/src/n32g430_i2c.c ****     }
 1330              		.loc 1 790 21 view .LVU325
 1331 0018 43F40063 		orr	r3, r3, #2048
 1332 001c 0380     		strh	r3, [r0]	@ movhi
 1333 001e 7047     		bx	lr
 1334              		.cfi_endproc
 1335              	.LFE156:
 1337              		.section	.text.I2C_SMBus_Alert_Pin_Set,"ax",%progbits
 1338              		.align	1
 1339              		.global	I2C_SMBus_Alert_Pin_Set
 1340              		.syntax unified
 1341              		.thumb
 1342              		.thumb_func
 1344              	I2C_SMBus_Alert_Pin_Set:
 1345              	.LVL101:
 1346              	.LFB157:
 798:n32g430_std_periph_driver/src/n32g430_i2c.c **** 
 799:n32g430_std_periph_driver/src/n32g430_i2c.c **** /**
 800:n32g430_std_periph_driver/src/n32g430_i2c.c **** *\*\name    I2C_SMBus_Alert_Pin_Set.
 801:n32g430_std_periph_driver/src/n32g430_i2c.c **** *\*\fun     Set the SMBus Alert pin high or low for the specified I2C.
 802:n32g430_std_periph_driver/src/n32g430_i2c.c **** *\*\param   I2Cx :
 803:n32g430_std_periph_driver/src/n32g430_i2c.c **** *\*\          - I2C1
 804:n32g430_std_periph_driver/src/n32g430_i2c.c **** *\*\          - I2C2
 805:n32g430_std_periph_driver/src/n32g430_i2c.c **** *\*\param   polarity :
 806:n32g430_std_periph_driver/src/n32g430_i2c.c **** *\*\          - I2C_SMBALERT_LOW SMBAlert pin driven low
 807:n32g430_std_periph_driver/src/n32g430_i2c.c **** *\*\          - I2C_SMBALERT_HIGH SMBAlert pin driven high
 808:n32g430_std_periph_driver/src/n32g430_i2c.c **** *\*\return  none
 809:n32g430_std_periph_driver/src/n32g430_i2c.c **** **/
 810:n32g430_std_periph_driver/src/n32g430_i2c.c **** void I2C_SMBus_Alert_Pin_Set(I2C_Module* I2Cx, uint16_t polarity)
 811:n32g430_std_periph_driver/src/n32g430_i2c.c **** {
 1347              		.loc 1 811 1 is_stmt 1 view -0
 1348              		.cfi_startproc
 1349              		@ args = 0, pretend = 0, frame = 0
 1350              		@ frame_needed = 0, uses_anonymous_args = 0
 1351              		@ link register save eliminated.
 812:n32g430_std_periph_driver/src/n32g430_i2c.c ****     if (polarity == I2C_SMBALERT_LOW)
 1352              		.loc 1 812 5 view .LVU327
 1353              		.loc 1 812 8 is_stmt 0 view .LVU328
 1354 0000 B1F5005F 		cmp	r1, #8192
 1355 0004 06D0     		beq	.L65
 813:n32g430_std_periph_driver/src/n32g430_i2c.c ****     {
 814:n32g430_std_periph_driver/src/n32g430_i2c.c ****         /* Drive the SMBusAlert pin Low */
 815:n32g430_std_periph_driver/src/n32g430_i2c.c ****         I2Cx->CTRL1 |= I2C_SMBALERT_LOW;
 816:n32g430_std_periph_driver/src/n32g430_i2c.c ****     }
 817:n32g430_std_periph_driver/src/n32g430_i2c.c ****     else
 818:n32g430_std_periph_driver/src/n32g430_i2c.c ****     {
 819:n32g430_std_periph_driver/src/n32g430_i2c.c ****         /* Drive the SMBusAlert pin High  */
 820:n32g430_std_periph_driver/src/n32g430_i2c.c ****         I2Cx->CTRL1 &= I2C_SMBALERT_HIGH;
 1356              		.loc 1 820 9 is_stmt 1 view .LVU329
 1357              		.loc 1 820 13 is_stmt 0 view .LVU330
 1358 0006 0388     		ldrh	r3, [r0]
 1359 0008 9BB2     		uxth	r3, r3
ARM GAS  C:\Users\Dawn\AppData\Local\Temp\cc40VLyf.s 			page 39


 1360              		.loc 1 820 21 view .LVU331
 1361 000a 23F40053 		bic	r3, r3, #8192
 1362 000e 9BB2     		uxth	r3, r3
 1363 0010 0380     		strh	r3, [r0]	@ movhi
 821:n32g430_std_periph_driver/src/n32g430_i2c.c ****     }
 822:n32g430_std_periph_driver/src/n32g430_i2c.c **** }
 1364              		.loc 1 822 1 view .LVU332
 1365 0012 7047     		bx	lr
 1366              	.L65:
 815:n32g430_std_periph_driver/src/n32g430_i2c.c ****     }
 1367              		.loc 1 815 9 is_stmt 1 view .LVU333
 815:n32g430_std_periph_driver/src/n32g430_i2c.c ****     }
 1368              		.loc 1 815 13 is_stmt 0 view .LVU334
 1369 0014 0388     		ldrh	r3, [r0]
 1370 0016 9BB2     		uxth	r3, r3
 815:n32g430_std_periph_driver/src/n32g430_i2c.c ****     }
 1371              		.loc 1 815 21 view .LVU335
 1372 0018 43F40053 		orr	r3, r3, #8192
 1373 001c 0380     		strh	r3, [r0]	@ movhi
 1374 001e 7047     		bx	lr
 1375              		.cfi_endproc
 1376              	.LFE157:
 1378              		.section	.text.I2C_PEC_Send_Enable,"ax",%progbits
 1379              		.align	1
 1380              		.global	I2C_PEC_Send_Enable
 1381              		.syntax unified
 1382              		.thumb
 1383              		.thumb_func
 1385              	I2C_PEC_Send_Enable:
 1386              	.LVL102:
 1387              	.LFB158:
 823:n32g430_std_periph_driver/src/n32g430_i2c.c **** 
 824:n32g430_std_periph_driver/src/n32g430_i2c.c **** /**
 825:n32g430_std_periph_driver/src/n32g430_i2c.c **** *\*\name    I2C_PEC_Send_Enable.
 826:n32g430_std_periph_driver/src/n32g430_i2c.c **** *\*\fun     Enables the specified I2C PEC transfer.
 827:n32g430_std_periph_driver/src/n32g430_i2c.c **** *\*\param   I2Cx :
 828:n32g430_std_periph_driver/src/n32g430_i2c.c **** *\*\          - I2C1
 829:n32g430_std_periph_driver/src/n32g430_i2c.c **** *\*\          - I2C2
 830:n32g430_std_periph_driver/src/n32g430_i2c.c **** *\*\return  none
 831:n32g430_std_periph_driver/src/n32g430_i2c.c **** **/
 832:n32g430_std_periph_driver/src/n32g430_i2c.c **** void I2C_PEC_Send_Enable(I2C_Module* I2Cx)
 833:n32g430_std_periph_driver/src/n32g430_i2c.c **** {
 1388              		.loc 1 833 1 is_stmt 1 view -0
 1389              		.cfi_startproc
 1390              		@ args = 0, pretend = 0, frame = 0
 1391              		@ frame_needed = 0, uses_anonymous_args = 0
 1392              		@ link register save eliminated.
 834:n32g430_std_periph_driver/src/n32g430_i2c.c ****     /* Enable the selected I2C PEC transmission */
 835:n32g430_std_periph_driver/src/n32g430_i2c.c ****     I2Cx->CTRL1 |= I2C_PEC_SET;
 1393              		.loc 1 835 5 view .LVU337
 1394              		.loc 1 835 9 is_stmt 0 view .LVU338
 1395 0000 0388     		ldrh	r3, [r0]
 1396 0002 9BB2     		uxth	r3, r3
 1397              		.loc 1 835 17 view .LVU339
 1398 0004 43F48053 		orr	r3, r3, #4096
 1399 0008 0380     		strh	r3, [r0]	@ movhi
 836:n32g430_std_periph_driver/src/n32g430_i2c.c **** }
ARM GAS  C:\Users\Dawn\AppData\Local\Temp\cc40VLyf.s 			page 40


 1400              		.loc 1 836 1 view .LVU340
 1401 000a 7047     		bx	lr
 1402              		.cfi_endproc
 1403              	.LFE158:
 1405              		.section	.text.I2C_PEC_Send_Disable,"ax",%progbits
 1406              		.align	1
 1407              		.global	I2C_PEC_Send_Disable
 1408              		.syntax unified
 1409              		.thumb
 1410              		.thumb_func
 1412              	I2C_PEC_Send_Disable:
 1413              	.LVL103:
 1414              	.LFB159:
 837:n32g430_std_periph_driver/src/n32g430_i2c.c **** 
 838:n32g430_std_periph_driver/src/n32g430_i2c.c **** /**
 839:n32g430_std_periph_driver/src/n32g430_i2c.c **** *\*\name    I2C_PEC_Send_Disable.
 840:n32g430_std_periph_driver/src/n32g430_i2c.c **** *\*\fun     Disables the specified I2C PEC transfer.
 841:n32g430_std_periph_driver/src/n32g430_i2c.c **** *\*\param   I2Cx :
 842:n32g430_std_periph_driver/src/n32g430_i2c.c **** *\*\          - I2C1
 843:n32g430_std_periph_driver/src/n32g430_i2c.c **** *\*\          - I2C2
 844:n32g430_std_periph_driver/src/n32g430_i2c.c **** *\*\return  none
 845:n32g430_std_periph_driver/src/n32g430_i2c.c **** **/
 846:n32g430_std_periph_driver/src/n32g430_i2c.c **** void I2C_PEC_Send_Disable(I2C_Module* I2Cx)
 847:n32g430_std_periph_driver/src/n32g430_i2c.c **** {
 1415              		.loc 1 847 1 is_stmt 1 view -0
 1416              		.cfi_startproc
 1417              		@ args = 0, pretend = 0, frame = 0
 1418              		@ frame_needed = 0, uses_anonymous_args = 0
 1419              		@ link register save eliminated.
 848:n32g430_std_periph_driver/src/n32g430_i2c.c ****     /* Disable the selected I2C PEC transmission */
 849:n32g430_std_periph_driver/src/n32g430_i2c.c ****     I2Cx->CTRL1 &= I2C_PEC_RESET;
 1420              		.loc 1 849 5 view .LVU342
 1421              		.loc 1 849 9 is_stmt 0 view .LVU343
 1422 0000 0388     		ldrh	r3, [r0]
 1423 0002 9BB2     		uxth	r3, r3
 1424              		.loc 1 849 17 view .LVU344
 1425 0004 23F48053 		bic	r3, r3, #4096
 1426 0008 9BB2     		uxth	r3, r3
 1427 000a 0380     		strh	r3, [r0]	@ movhi
 850:n32g430_std_periph_driver/src/n32g430_i2c.c **** }
 1428              		.loc 1 850 1 view .LVU345
 1429 000c 7047     		bx	lr
 1430              		.cfi_endproc
 1431              	.LFE159:
 1433              		.section	.text.I2C_PEC_Position_Set,"ax",%progbits
 1434              		.align	1
 1435              		.global	I2C_PEC_Position_Set
 1436              		.syntax unified
 1437              		.thumb
 1438              		.thumb_func
 1440              	I2C_PEC_Position_Set:
 1441              	.LVL104:
 1442              	.LFB160:
 851:n32g430_std_periph_driver/src/n32g430_i2c.c **** 
 852:n32g430_std_periph_driver/src/n32g430_i2c.c **** /**
 853:n32g430_std_periph_driver/src/n32g430_i2c.c **** *\*\name    I2C_NACK_Position_Set.
 854:n32g430_std_periph_driver/src/n32g430_i2c.c **** *\*\fun     Selects the specified I2C PEC position.
ARM GAS  C:\Users\Dawn\AppData\Local\Temp\cc40VLyf.s 			page 41


 855:n32g430_std_periph_driver/src/n32g430_i2c.c **** *\*\param   I2Cx :
 856:n32g430_std_periph_driver/src/n32g430_i2c.c **** *\*\          - I2C1
 857:n32g430_std_periph_driver/src/n32g430_i2c.c **** *\*\          - I2C2
 858:n32g430_std_periph_driver/src/n32g430_i2c.c **** *\*\param   position :
 859:n32g430_std_periph_driver/src/n32g430_i2c.c **** *\*\          - I2C_PEC_POS_NEXT Indicates that the next byte is PEC
 860:n32g430_std_periph_driver/src/n32g430_i2c.c **** *\*\          - I2C_PEC_POS_CURRENT Indicates that current byte is PEC
 861:n32g430_std_periph_driver/src/n32g430_i2c.c **** *\*\note    This function configures the same bit (POS) as I2C_NACK_Position_Set()
 862:n32g430_std_periph_driver/src/n32g430_i2c.c **** *\*\        but is intended to be used in SMBUS mode while I2C_NACK_Position_Set()
 863:n32g430_std_periph_driver/src/n32g430_i2c.c **** *\*\        is intended to used in I2C mode.
 864:n32g430_std_periph_driver/src/n32g430_i2c.c **** *\*\return  none
 865:n32g430_std_periph_driver/src/n32g430_i2c.c **** **/
 866:n32g430_std_periph_driver/src/n32g430_i2c.c **** void I2C_PEC_Position_Set(I2C_Module* I2Cx, uint16_t position)
 867:n32g430_std_periph_driver/src/n32g430_i2c.c **** {
 1443              		.loc 1 867 1 is_stmt 1 view -0
 1444              		.cfi_startproc
 1445              		@ args = 0, pretend = 0, frame = 0
 1446              		@ frame_needed = 0, uses_anonymous_args = 0
 1447              		@ link register save eliminated.
 868:n32g430_std_periph_driver/src/n32g430_i2c.c ****     if (position == I2C_PEC_POS_NEXT)
 1448              		.loc 1 868 5 view .LVU347
 1449              		.loc 1 868 8 is_stmt 0 view .LVU348
 1450 0000 B1F5006F 		cmp	r1, #2048
 1451 0004 06D0     		beq	.L71
 869:n32g430_std_periph_driver/src/n32g430_i2c.c ****     {
 870:n32g430_std_periph_driver/src/n32g430_i2c.c ****         /* Next byte in shift register is PEC */
 871:n32g430_std_periph_driver/src/n32g430_i2c.c ****         I2Cx->CTRL1 |= I2C_PEC_POS_NEXT;
 872:n32g430_std_periph_driver/src/n32g430_i2c.c ****     }
 873:n32g430_std_periph_driver/src/n32g430_i2c.c ****     else
 874:n32g430_std_periph_driver/src/n32g430_i2c.c ****     {
 875:n32g430_std_periph_driver/src/n32g430_i2c.c ****         /* Current byte in shift register is PEC */
 876:n32g430_std_periph_driver/src/n32g430_i2c.c ****         I2Cx->CTRL1 &= I2C_PEC_POS_CURRENT;
 1452              		.loc 1 876 9 is_stmt 1 view .LVU349
 1453              		.loc 1 876 13 is_stmt 0 view .LVU350
 1454 0006 0388     		ldrh	r3, [r0]
 1455 0008 9BB2     		uxth	r3, r3
 1456              		.loc 1 876 21 view .LVU351
 1457 000a 23F40063 		bic	r3, r3, #2048
 1458 000e 9BB2     		uxth	r3, r3
 1459 0010 0380     		strh	r3, [r0]	@ movhi
 877:n32g430_std_periph_driver/src/n32g430_i2c.c ****     }
 878:n32g430_std_periph_driver/src/n32g430_i2c.c **** }
 1460              		.loc 1 878 1 view .LVU352
 1461 0012 7047     		bx	lr
 1462              	.L71:
 871:n32g430_std_periph_driver/src/n32g430_i2c.c ****     }
 1463              		.loc 1 871 9 is_stmt 1 view .LVU353
 871:n32g430_std_periph_driver/src/n32g430_i2c.c ****     }
 1464              		.loc 1 871 13 is_stmt 0 view .LVU354
 1465 0014 0388     		ldrh	r3, [r0]
 1466 0016 9BB2     		uxth	r3, r3
 871:n32g430_std_periph_driver/src/n32g430_i2c.c ****     }
 1467              		.loc 1 871 21 view .LVU355
 1468 0018 43F40063 		orr	r3, r3, #2048
 1469 001c 0380     		strh	r3, [r0]	@ movhi
 1470 001e 7047     		bx	lr
 1471              		.cfi_endproc
 1472              	.LFE160:
ARM GAS  C:\Users\Dawn\AppData\Local\Temp\cc40VLyf.s 			page 42


 1474              		.section	.text.I2C_PEC_Compute_Enable,"ax",%progbits
 1475              		.align	1
 1476              		.global	I2C_PEC_Compute_Enable
 1477              		.syntax unified
 1478              		.thumb
 1479              		.thumb_func
 1481              	I2C_PEC_Compute_Enable:
 1482              	.LVL105:
 1483              	.LFB161:
 879:n32g430_std_periph_driver/src/n32g430_i2c.c **** 
 880:n32g430_std_periph_driver/src/n32g430_i2c.c **** /**
 881:n32g430_std_periph_driver/src/n32g430_i2c.c **** *\*\name    I2C_PEC_Compute_Enable.
 882:n32g430_std_periph_driver/src/n32g430_i2c.c **** *\*\fun     Enables PEC value compute.
 883:n32g430_std_periph_driver/src/n32g430_i2c.c **** *\*\param   I2Cx :
 884:n32g430_std_periph_driver/src/n32g430_i2c.c **** *\*\          - I2C1
 885:n32g430_std_periph_driver/src/n32g430_i2c.c **** *\*\          - I2C2
 886:n32g430_std_periph_driver/src/n32g430_i2c.c **** *\*\return  none
 887:n32g430_std_periph_driver/src/n32g430_i2c.c **** **/
 888:n32g430_std_periph_driver/src/n32g430_i2c.c **** void I2C_PEC_Compute_Enable(I2C_Module* I2Cx)
 889:n32g430_std_periph_driver/src/n32g430_i2c.c **** {
 1484              		.loc 1 889 1 is_stmt 1 view -0
 1485              		.cfi_startproc
 1486              		@ args = 0, pretend = 0, frame = 0
 1487              		@ frame_needed = 0, uses_anonymous_args = 0
 1488              		@ link register save eliminated.
 890:n32g430_std_periph_driver/src/n32g430_i2c.c ****     /* Enable the selected I2C PEC calculation */
 891:n32g430_std_periph_driver/src/n32g430_i2c.c ****     I2Cx->CTRL1 |= I2C_PECEN_SET;
 1489              		.loc 1 891 5 view .LVU357
 1490              		.loc 1 891 9 is_stmt 0 view .LVU358
 1491 0000 0388     		ldrh	r3, [r0]
 1492 0002 9BB2     		uxth	r3, r3
 1493              		.loc 1 891 17 view .LVU359
 1494 0004 43F02003 		orr	r3, r3, #32
 1495 0008 0380     		strh	r3, [r0]	@ movhi
 892:n32g430_std_periph_driver/src/n32g430_i2c.c **** }
 1496              		.loc 1 892 1 view .LVU360
 1497 000a 7047     		bx	lr
 1498              		.cfi_endproc
 1499              	.LFE161:
 1501              		.section	.text.I2C_PEC_Compute_Disable,"ax",%progbits
 1502              		.align	1
 1503              		.global	I2C_PEC_Compute_Disable
 1504              		.syntax unified
 1505              		.thumb
 1506              		.thumb_func
 1508              	I2C_PEC_Compute_Disable:
 1509              	.LVL106:
 1510              	.LFB162:
 893:n32g430_std_periph_driver/src/n32g430_i2c.c **** 
 894:n32g430_std_periph_driver/src/n32g430_i2c.c **** /**
 895:n32g430_std_periph_driver/src/n32g430_i2c.c **** *\*\name    I2C_PEC_Compute_Disable.
 896:n32g430_std_periph_driver/src/n32g430_i2c.c **** *\*\fun     Disables PEC value compute.
 897:n32g430_std_periph_driver/src/n32g430_i2c.c **** *\*\param   I2Cx :
 898:n32g430_std_periph_driver/src/n32g430_i2c.c **** *\*\          - I2C1
 899:n32g430_std_periph_driver/src/n32g430_i2c.c **** *\*\          - I2C2
 900:n32g430_std_periph_driver/src/n32g430_i2c.c **** *\*\return  none
 901:n32g430_std_periph_driver/src/n32g430_i2c.c **** **/
ARM GAS  C:\Users\Dawn\AppData\Local\Temp\cc40VLyf.s 			page 43


 902:n32g430_std_periph_driver/src/n32g430_i2c.c **** void I2C_PEC_Compute_Disable(I2C_Module* I2Cx)
 903:n32g430_std_periph_driver/src/n32g430_i2c.c **** {
 1511              		.loc 1 903 1 is_stmt 1 view -0
 1512              		.cfi_startproc
 1513              		@ args = 0, pretend = 0, frame = 0
 1514              		@ frame_needed = 0, uses_anonymous_args = 0
 1515              		@ link register save eliminated.
 904:n32g430_std_periph_driver/src/n32g430_i2c.c ****     /* Disable the selected I2C PEC calculation */
 905:n32g430_std_periph_driver/src/n32g430_i2c.c ****     I2Cx->CTRL1 &= I2C_PECEN_RESET;
 1516              		.loc 1 905 5 view .LVU362
 1517              		.loc 1 905 9 is_stmt 0 view .LVU363
 1518 0000 0388     		ldrh	r3, [r0]
 1519 0002 9BB2     		uxth	r3, r3
 1520              		.loc 1 905 17 view .LVU364
 1521 0004 23F02003 		bic	r3, r3, #32
 1522 0008 9BB2     		uxth	r3, r3
 1523 000a 0380     		strh	r3, [r0]	@ movhi
 906:n32g430_std_periph_driver/src/n32g430_i2c.c **** }
 1524              		.loc 1 906 1 view .LVU365
 1525 000c 7047     		bx	lr
 1526              		.cfi_endproc
 1527              	.LFE162:
 1529              		.section	.text.I2C_PEC_Get,"ax",%progbits
 1530              		.align	1
 1531              		.global	I2C_PEC_Get
 1532              		.syntax unified
 1533              		.thumb
 1534              		.thumb_func
 1536              	I2C_PEC_Get:
 1537              	.LVL107:
 1538              	.LFB163:
 907:n32g430_std_periph_driver/src/n32g430_i2c.c **** 
 908:n32g430_std_periph_driver/src/n32g430_i2c.c **** /**
 909:n32g430_std_periph_driver/src/n32g430_i2c.c **** *\*\name    I2C_PEC_Get.
 910:n32g430_std_periph_driver/src/n32g430_i2c.c **** *\*\fun     Get the PEC value for the specified I2C.
 911:n32g430_std_periph_driver/src/n32g430_i2c.c **** *\*\param   I2Cx :
 912:n32g430_std_periph_driver/src/n32g430_i2c.c **** *\*\          - I2C1
 913:n32g430_std_periph_driver/src/n32g430_i2c.c **** *\*\          - I2C2
 914:n32g430_std_periph_driver/src/n32g430_i2c.c **** *\*\return  The PEC value
 915:n32g430_std_periph_driver/src/n32g430_i2c.c **** **/
 916:n32g430_std_periph_driver/src/n32g430_i2c.c **** uint8_t I2C_PEC_Get(I2C_Module* I2Cx)
 917:n32g430_std_periph_driver/src/n32g430_i2c.c **** {
 1539              		.loc 1 917 1 is_stmt 1 view -0
 1540              		.cfi_startproc
 1541              		@ args = 0, pretend = 0, frame = 0
 1542              		@ frame_needed = 0, uses_anonymous_args = 0
 1543              		@ link register save eliminated.
 918:n32g430_std_periph_driver/src/n32g430_i2c.c ****     /* Return the selected I2C PEC value */
 919:n32g430_std_periph_driver/src/n32g430_i2c.c ****     return ((I2Cx->STS2) >> 8);
 1544              		.loc 1 919 5 view .LVU367
 1545              		.loc 1 919 18 is_stmt 0 view .LVU368
 1546 0000 008B     		ldrh	r0, [r0, #24]
 1547              	.LVL108:
 920:n32g430_std_periph_driver/src/n32g430_i2c.c **** }
 1548              		.loc 1 920 1 view .LVU369
 1549 0002 C0F30720 		ubfx	r0, r0, #8, #8
 1550 0006 7047     		bx	lr
ARM GAS  C:\Users\Dawn\AppData\Local\Temp\cc40VLyf.s 			page 44


 1551              		.cfi_endproc
 1552              	.LFE163:
 1554              		.section	.text.I2C_ARP_Enable,"ax",%progbits
 1555              		.align	1
 1556              		.global	I2C_ARP_Enable
 1557              		.syntax unified
 1558              		.thumb
 1559              		.thumb_func
 1561              	I2C_ARP_Enable:
 1562              	.LVL109:
 1563              	.LFB164:
 921:n32g430_std_periph_driver/src/n32g430_i2c.c **** 
 922:n32g430_std_periph_driver/src/n32g430_i2c.c **** /**
 923:n32g430_std_periph_driver/src/n32g430_i2c.c **** *\*\name    I2C_ARP_Enable.
 924:n32g430_std_periph_driver/src/n32g430_i2c.c **** *\*\fun     Enables the specified I2C ARP.
 925:n32g430_std_periph_driver/src/n32g430_i2c.c **** *\*\param   I2Cx :
 926:n32g430_std_periph_driver/src/n32g430_i2c.c **** *\*\          - I2C1
 927:n32g430_std_periph_driver/src/n32g430_i2c.c **** *\*\          - I2C2
 928:n32g430_std_periph_driver/src/n32g430_i2c.c **** *\*\return  none
 929:n32g430_std_periph_driver/src/n32g430_i2c.c **** **/
 930:n32g430_std_periph_driver/src/n32g430_i2c.c **** void I2C_ARP_Enable(I2C_Module* I2Cx)
 931:n32g430_std_periph_driver/src/n32g430_i2c.c **** {
 1564              		.loc 1 931 1 is_stmt 1 view -0
 1565              		.cfi_startproc
 1566              		@ args = 0, pretend = 0, frame = 0
 1567              		@ frame_needed = 0, uses_anonymous_args = 0
 1568              		@ link register save eliminated.
 932:n32g430_std_periph_driver/src/n32g430_i2c.c ****     /* Enable the selected I2C ARP */
 933:n32g430_std_periph_driver/src/n32g430_i2c.c ****     I2Cx->CTRL1 |= I2C_ARPEN_SET; 
 1569              		.loc 1 933 5 view .LVU371
 1570              		.loc 1 933 9 is_stmt 0 view .LVU372
 1571 0000 0388     		ldrh	r3, [r0]
 1572 0002 9BB2     		uxth	r3, r3
 1573              		.loc 1 933 17 view .LVU373
 1574 0004 43F01003 		orr	r3, r3, #16
 1575 0008 0380     		strh	r3, [r0]	@ movhi
 934:n32g430_std_periph_driver/src/n32g430_i2c.c **** }
 1576              		.loc 1 934 1 view .LVU374
 1577 000a 7047     		bx	lr
 1578              		.cfi_endproc
 1579              	.LFE164:
 1581              		.section	.text.I2C_ARP_Disable,"ax",%progbits
 1582              		.align	1
 1583              		.global	I2C_ARP_Disable
 1584              		.syntax unified
 1585              		.thumb
 1586              		.thumb_func
 1588              	I2C_ARP_Disable:
 1589              	.LVL110:
 1590              	.LFB165:
 935:n32g430_std_periph_driver/src/n32g430_i2c.c **** 
 936:n32g430_std_periph_driver/src/n32g430_i2c.c **** /**
 937:n32g430_std_periph_driver/src/n32g430_i2c.c **** *\*\name    I2C_ARP_Disable.
 938:n32g430_std_periph_driver/src/n32g430_i2c.c **** *\*\fun     Disables the specified I2C ARP.
 939:n32g430_std_periph_driver/src/n32g430_i2c.c **** *\*\param   I2Cx :
 940:n32g430_std_periph_driver/src/n32g430_i2c.c **** *\*\          - I2C1
 941:n32g430_std_periph_driver/src/n32g430_i2c.c **** *\*\          - I2C2
ARM GAS  C:\Users\Dawn\AppData\Local\Temp\cc40VLyf.s 			page 45


 942:n32g430_std_periph_driver/src/n32g430_i2c.c **** *\*\return  none
 943:n32g430_std_periph_driver/src/n32g430_i2c.c **** **/
 944:n32g430_std_periph_driver/src/n32g430_i2c.c **** void I2C_ARP_Disable(I2C_Module* I2Cx)
 945:n32g430_std_periph_driver/src/n32g430_i2c.c **** {
 1591              		.loc 1 945 1 is_stmt 1 view -0
 1592              		.cfi_startproc
 1593              		@ args = 0, pretend = 0, frame = 0
 1594              		@ frame_needed = 0, uses_anonymous_args = 0
 1595              		@ link register save eliminated.
 946:n32g430_std_periph_driver/src/n32g430_i2c.c ****     /* Disable the selected I2C ARP */
 947:n32g430_std_periph_driver/src/n32g430_i2c.c ****     I2Cx->CTRL1 &= I2C_ARPEN_RESET;
 1596              		.loc 1 947 5 view .LVU376
 1597              		.loc 1 947 9 is_stmt 0 view .LVU377
 1598 0000 0388     		ldrh	r3, [r0]
 1599 0002 9BB2     		uxth	r3, r3
 1600              		.loc 1 947 17 view .LVU378
 1601 0004 23F01003 		bic	r3, r3, #16
 1602 0008 9BB2     		uxth	r3, r3
 1603 000a 0380     		strh	r3, [r0]	@ movhi
 948:n32g430_std_periph_driver/src/n32g430_i2c.c **** }
 1604              		.loc 1 948 1 view .LVU379
 1605 000c 7047     		bx	lr
 1606              		.cfi_endproc
 1607              	.LFE165:
 1609              		.section	.text.I2C_Extend_Clock_Enable,"ax",%progbits
 1610              		.align	1
 1611              		.global	I2C_Extend_Clock_Enable
 1612              		.syntax unified
 1613              		.thumb
 1614              		.thumb_func
 1616              	I2C_Extend_Clock_Enable:
 1617              	.LVL111:
 1618              	.LFB166:
 949:n32g430_std_periph_driver/src/n32g430_i2c.c **** 
 950:n32g430_std_periph_driver/src/n32g430_i2c.c **** /**
 951:n32g430_std_periph_driver/src/n32g430_i2c.c **** *\*\name    I2C_Extend_Clock_Enable.
 952:n32g430_std_periph_driver/src/n32g430_i2c.c **** *\*\fun     Enables the specified I2C clock extending.
 953:n32g430_std_periph_driver/src/n32g430_i2c.c **** *\*\param   I2Cx :
 954:n32g430_std_periph_driver/src/n32g430_i2c.c **** *\*\          - I2C1
 955:n32g430_std_periph_driver/src/n32g430_i2c.c **** *\*\          - I2C2
 956:n32g430_std_periph_driver/src/n32g430_i2c.c **** *\*\return  none
 957:n32g430_std_periph_driver/src/n32g430_i2c.c **** **/
 958:n32g430_std_periph_driver/src/n32g430_i2c.c **** void I2C_Extend_Clock_Enable(I2C_Module* I2Cx)
 959:n32g430_std_periph_driver/src/n32g430_i2c.c **** {
 1619              		.loc 1 959 1 is_stmt 1 view -0
 1620              		.cfi_startproc
 1621              		@ args = 0, pretend = 0, frame = 0
 1622              		@ frame_needed = 0, uses_anonymous_args = 0
 1623              		@ link register save eliminated.
 960:n32g430_std_periph_driver/src/n32g430_i2c.c ****     /* Enable the selected I2C Clock extending */
 961:n32g430_std_periph_driver/src/n32g430_i2c.c ****     I2Cx->CTRL1 &= I2C_NOEXTEND_RESET; 
 1624              		.loc 1 961 5 view .LVU381
 1625              		.loc 1 961 9 is_stmt 0 view .LVU382
 1626 0000 0388     		ldrh	r3, [r0]
 1627 0002 9BB2     		uxth	r3, r3
 1628              		.loc 1 961 17 view .LVU383
 1629 0004 23F08003 		bic	r3, r3, #128
ARM GAS  C:\Users\Dawn\AppData\Local\Temp\cc40VLyf.s 			page 46


 1630 0008 9BB2     		uxth	r3, r3
 1631 000a 0380     		strh	r3, [r0]	@ movhi
 962:n32g430_std_periph_driver/src/n32g430_i2c.c **** }
 1632              		.loc 1 962 1 view .LVU384
 1633 000c 7047     		bx	lr
 1634              		.cfi_endproc
 1635              	.LFE166:
 1637              		.section	.text.I2C_Extend_Clock_Disable,"ax",%progbits
 1638              		.align	1
 1639              		.global	I2C_Extend_Clock_Disable
 1640              		.syntax unified
 1641              		.thumb
 1642              		.thumb_func
 1644              	I2C_Extend_Clock_Disable:
 1645              	.LVL112:
 1646              	.LFB167:
 963:n32g430_std_periph_driver/src/n32g430_i2c.c **** 
 964:n32g430_std_periph_driver/src/n32g430_i2c.c **** /**
 965:n32g430_std_periph_driver/src/n32g430_i2c.c **** *\*\name    I2C_Extend_Clock_Disable.
 966:n32g430_std_periph_driver/src/n32g430_i2c.c **** *\*\fun     Disables the specified I2C clock extending.
 967:n32g430_std_periph_driver/src/n32g430_i2c.c **** *\*\param   I2Cx :
 968:n32g430_std_periph_driver/src/n32g430_i2c.c **** *\*\          - I2C1
 969:n32g430_std_periph_driver/src/n32g430_i2c.c **** *\*\          - I2C2
 970:n32g430_std_periph_driver/src/n32g430_i2c.c **** *\*\return  none
 971:n32g430_std_periph_driver/src/n32g430_i2c.c **** **/
 972:n32g430_std_periph_driver/src/n32g430_i2c.c **** void I2C_Extend_Clock_Disable(I2C_Module* I2Cx)
 973:n32g430_std_periph_driver/src/n32g430_i2c.c **** {
 1647              		.loc 1 973 1 is_stmt 1 view -0
 1648              		.cfi_startproc
 1649              		@ args = 0, pretend = 0, frame = 0
 1650              		@ frame_needed = 0, uses_anonymous_args = 0
 1651              		@ link register save eliminated.
 974:n32g430_std_periph_driver/src/n32g430_i2c.c ****     /* Disable the selected I2C Clock extending */
 975:n32g430_std_periph_driver/src/n32g430_i2c.c ****     I2Cx->CTRL1 |= I2C_NOEXTEND_SET;
 1652              		.loc 1 975 5 view .LVU386
 1653              		.loc 1 975 9 is_stmt 0 view .LVU387
 1654 0000 0388     		ldrh	r3, [r0]
 1655 0002 9BB2     		uxth	r3, r3
 1656              		.loc 1 975 17 view .LVU388
 1657 0004 43F08003 		orr	r3, r3, #128
 1658 0008 0380     		strh	r3, [r0]	@ movhi
 976:n32g430_std_periph_driver/src/n32g430_i2c.c **** }
 1659              		.loc 1 976 1 view .LVU389
 1660 000a 7047     		bx	lr
 1661              		.cfi_endproc
 1662              	.LFE167:
 1664              		.section	.text.I2C_Fast_Mode_Duty_Cycle_Set,"ax",%progbits
 1665              		.align	1
 1666              		.global	I2C_Fast_Mode_Duty_Cycle_Set
 1667              		.syntax unified
 1668              		.thumb
 1669              		.thumb_func
 1671              	I2C_Fast_Mode_Duty_Cycle_Set:
 1672              	.LVL113:
 1673              	.LFB168:
 977:n32g430_std_periph_driver/src/n32g430_i2c.c **** 
 978:n32g430_std_periph_driver/src/n32g430_i2c.c **** /**
ARM GAS  C:\Users\Dawn\AppData\Local\Temp\cc40VLyf.s 			page 47


 979:n32g430_std_periph_driver/src/n32g430_i2c.c **** *\*\name    I2C_Fast_Mode_Duty_Cycle_Set.
 980:n32g430_std_periph_driver/src/n32g430_i2c.c **** *\*\fun     Set the specified I2C fast mode duty cycle.
 981:n32g430_std_periph_driver/src/n32g430_i2c.c **** *\*\param   I2Cx :
 982:n32g430_std_periph_driver/src/n32g430_i2c.c **** *\*\          - I2C1
 983:n32g430_std_periph_driver/src/n32g430_i2c.c **** *\*\          - I2C2
 984:n32g430_std_periph_driver/src/n32g430_i2c.c **** *\*\param   duty_cycle :
 985:n32g430_std_periph_driver/src/n32g430_i2c.c **** *\*\          - I2C_FMDUTYCYCLE_2 I2C fast mode Tlow/Thigh = 2
 986:n32g430_std_periph_driver/src/n32g430_i2c.c **** *\*\          - I2C_FMDUTYCYCLE_16_9 I2C fast mode Tlow/Thigh = 16/9
 987:n32g430_std_periph_driver/src/n32g430_i2c.c **** *\*\return  none
 988:n32g430_std_periph_driver/src/n32g430_i2c.c **** **/
 989:n32g430_std_periph_driver/src/n32g430_i2c.c **** void I2C_Fast_Mode_Duty_Cycle_Set(I2C_Module* I2Cx, uint16_t duty_cycle)
 990:n32g430_std_periph_driver/src/n32g430_i2c.c **** {
 1674              		.loc 1 990 1 is_stmt 1 view -0
 1675              		.cfi_startproc
 1676              		@ args = 0, pretend = 0, frame = 0
 1677              		@ frame_needed = 0, uses_anonymous_args = 0
 1678              		@ link register save eliminated.
 991:n32g430_std_periph_driver/src/n32g430_i2c.c ****     if (duty_cycle == I2C_FMDUTYCYCLE_16_9)
 1679              		.loc 1 991 5 view .LVU391
 1680              		.loc 1 991 8 is_stmt 0 view .LVU392
 1681 0000 B1F5804F 		cmp	r1, #16384
 1682 0004 06D0     		beq	.L82
 992:n32g430_std_periph_driver/src/n32g430_i2c.c ****     {
 993:n32g430_std_periph_driver/src/n32g430_i2c.c ****         /* I2C fast mode Tlow/Thigh=16/9 */
 994:n32g430_std_periph_driver/src/n32g430_i2c.c ****         I2Cx->CLKCTRL |= I2C_FMDUTYCYCLE_16_9;
 995:n32g430_std_periph_driver/src/n32g430_i2c.c ****         
 996:n32g430_std_periph_driver/src/n32g430_i2c.c ****     }
 997:n32g430_std_periph_driver/src/n32g430_i2c.c ****     else
 998:n32g430_std_periph_driver/src/n32g430_i2c.c ****     {
 999:n32g430_std_periph_driver/src/n32g430_i2c.c ****         /* I2C fast mode Tlow/Thigh=2 */
1000:n32g430_std_periph_driver/src/n32g430_i2c.c ****         I2Cx->CLKCTRL &= I2C_FMDUTYCYCLE_2;
 1683              		.loc 1 1000 9 is_stmt 1 view .LVU393
 1684              		.loc 1 1000 13 is_stmt 0 view .LVU394
 1685 0006 838B     		ldrh	r3, [r0, #28]
 1686 0008 9BB2     		uxth	r3, r3
 1687              		.loc 1 1000 23 view .LVU395
 1688 000a 23F48043 		bic	r3, r3, #16384
 1689 000e 9BB2     		uxth	r3, r3
 1690 0010 8383     		strh	r3, [r0, #28]	@ movhi
1001:n32g430_std_periph_driver/src/n32g430_i2c.c ****     }
1002:n32g430_std_periph_driver/src/n32g430_i2c.c **** }
 1691              		.loc 1 1002 1 view .LVU396
 1692 0012 7047     		bx	lr
 1693              	.L82:
 994:n32g430_std_periph_driver/src/n32g430_i2c.c ****         
 1694              		.loc 1 994 9 is_stmt 1 view .LVU397
 994:n32g430_std_periph_driver/src/n32g430_i2c.c ****         
 1695              		.loc 1 994 13 is_stmt 0 view .LVU398
 1696 0014 838B     		ldrh	r3, [r0, #28]
 1697 0016 9BB2     		uxth	r3, r3
 994:n32g430_std_periph_driver/src/n32g430_i2c.c ****         
 1698              		.loc 1 994 23 view .LVU399
 1699 0018 43F48043 		orr	r3, r3, #16384
 1700 001c 8383     		strh	r3, [r0, #28]	@ movhi
 1701 001e 7047     		bx	lr
 1702              		.cfi_endproc
 1703              	.LFE168:
ARM GAS  C:\Users\Dawn\AppData\Local\Temp\cc40VLyf.s 			page 48


 1705              		.section	.text.I2C_SDA_Digital_Filter_Width_Set,"ax",%progbits
 1706              		.align	1
 1707              		.global	I2C_SDA_Digital_Filter_Width_Set
 1708              		.syntax unified
 1709              		.thumb
 1710              		.thumb_func
 1712              	I2C_SDA_Digital_Filter_Width_Set:
 1713              	.LVL114:
 1714              	.LFB169:
1003:n32g430_std_periph_driver/src/n32g430_i2c.c **** 
1004:n32g430_std_periph_driver/src/n32g430_i2c.c **** /**
1005:n32g430_std_periph_driver/src/n32g430_i2c.c **** *\*\name    I2C_Digital_Filter_Width_Set.
1006:n32g430_std_periph_driver/src/n32g430_i2c.c **** *\*\fun     SDA digital filter width selection.
1007:n32g430_std_periph_driver/src/n32g430_i2c.c **** *\*\param   I2Cx :
1008:n32g430_std_periph_driver/src/n32g430_i2c.c **** *\*\          - I2C1
1009:n32g430_std_periph_driver/src/n32g430_i2c.c **** *\*\          - I2C2
1010:n32g430_std_periph_driver/src/n32g430_i2c.c **** *\*\param   width :
1011:n32g430_std_periph_driver/src/n32g430_i2c.c **** *\*\          - 0x00 ~ 0x0F     The numbers of pclk cycles(width is 0x00: Disable the digital filte
1012:n32g430_std_periph_driver/src/n32g430_i2c.c **** *\*\return  none
1013:n32g430_std_periph_driver/src/n32g430_i2c.c **** **/
1014:n32g430_std_periph_driver/src/n32g430_i2c.c **** void I2C_SDA_Digital_Filter_Width_Set(I2C_Module* I2Cx, uint8_t width)
1015:n32g430_std_periph_driver/src/n32g430_i2c.c **** {
 1715              		.loc 1 1015 1 is_stmt 1 view -0
 1716              		.cfi_startproc
 1717              		@ args = 0, pretend = 0, frame = 0
 1718              		@ frame_needed = 0, uses_anonymous_args = 0
 1719              		@ link register save eliminated.
1016:n32g430_std_periph_driver/src/n32g430_i2c.c ****     uint32_t temp_value = 0;
 1720              		.loc 1 1016 5 view .LVU401
1017:n32g430_std_periph_driver/src/n32g430_i2c.c **** 
1018:n32g430_std_periph_driver/src/n32g430_i2c.c ****     temp_value = I2Cx->TMRISE;
 1721              		.loc 1 1018 5 view .LVU402
 1722              		.loc 1 1018 16 is_stmt 0 view .LVU403
 1723 0000 036A     		ldr	r3, [r0, #32]
 1724              	.LVL115:
1019:n32g430_std_periph_driver/src/n32g430_i2c.c ****     /* Clear SDADFW[3:0] bits */
1020:n32g430_std_periph_driver/src/n32g430_i2c.c ****     temp_value &= I2C_SDADFW_MASK;
 1725              		.loc 1 1020 5 is_stmt 1 view .LVU404
 1726              		.loc 1 1020 16 is_stmt 0 view .LVU405
 1727 0002 23F47013 		bic	r3, r3, #3932160
 1728              	.LVL116:
1021:n32g430_std_periph_driver/src/n32g430_i2c.c ****     /* Set SDADFW[3:0] bits according to width value */
1022:n32g430_std_periph_driver/src/n32g430_i2c.c ****     temp_value |= ((uint32_t)width << RCC_TMRISE_SDADFW_OFFSET);
 1729              		.loc 1 1022 5 is_stmt 1 view .LVU406
 1730              		.loc 1 1022 16 is_stmt 0 view .LVU407
 1731 0006 43EA8143 		orr	r3, r3, r1, lsl #18
 1732              	.LVL117:
1023:n32g430_std_periph_driver/src/n32g430_i2c.c ****     /* Store the new value */
1024:n32g430_std_periph_driver/src/n32g430_i2c.c ****     I2Cx->TMRISE = temp_value;
 1733              		.loc 1 1024 5 is_stmt 1 view .LVU408
 1734              		.loc 1 1024 18 is_stmt 0 view .LVU409
 1735 000a 0362     		str	r3, [r0, #32]
1025:n32g430_std_periph_driver/src/n32g430_i2c.c ****     
1026:n32g430_std_periph_driver/src/n32g430_i2c.c **** }
 1736              		.loc 1 1026 1 view .LVU410
 1737 000c 7047     		bx	lr
 1738              		.cfi_endproc
ARM GAS  C:\Users\Dawn\AppData\Local\Temp\cc40VLyf.s 			page 49


 1739              	.LFE169:
 1741              		.section	.text.I2C_SCL_Digital_Filter_Width_Set,"ax",%progbits
 1742              		.align	1
 1743              		.global	I2C_SCL_Digital_Filter_Width_Set
 1744              		.syntax unified
 1745              		.thumb
 1746              		.thumb_func
 1748              	I2C_SCL_Digital_Filter_Width_Set:
 1749              	.LVL118:
 1750              	.LFB170:
1027:n32g430_std_periph_driver/src/n32g430_i2c.c **** 
1028:n32g430_std_periph_driver/src/n32g430_i2c.c **** /**
1029:n32g430_std_periph_driver/src/n32g430_i2c.c **** *\*\name    I2C_SCL_Digital_Filter_Width_Set.
1030:n32g430_std_periph_driver/src/n32g430_i2c.c **** *\*\fun     SCL digital filter width selection.
1031:n32g430_std_periph_driver/src/n32g430_i2c.c **** *\*\param   I2Cx :
1032:n32g430_std_periph_driver/src/n32g430_i2c.c **** *\*\          - I2C1
1033:n32g430_std_periph_driver/src/n32g430_i2c.c **** *\*\          - I2C2
1034:n32g430_std_periph_driver/src/n32g430_i2c.c **** *\*\param   width :
1035:n32g430_std_periph_driver/src/n32g430_i2c.c **** *\*\          - 0x00            Disable the digital filter.
1036:n32g430_std_periph_driver/src/n32g430_i2c.c **** *\*\          - 0x01 ~ 0x0F     The numbers of pclk cycles.
1037:n32g430_std_periph_driver/src/n32g430_i2c.c **** *\*\return  none
1038:n32g430_std_periph_driver/src/n32g430_i2c.c **** **/
1039:n32g430_std_periph_driver/src/n32g430_i2c.c **** void I2C_SCL_Digital_Filter_Width_Set(I2C_Module* I2Cx, uint8_t width)
1040:n32g430_std_periph_driver/src/n32g430_i2c.c **** {
 1751              		.loc 1 1040 1 is_stmt 1 view -0
 1752              		.cfi_startproc
 1753              		@ args = 0, pretend = 0, frame = 0
 1754              		@ frame_needed = 0, uses_anonymous_args = 0
 1755              		@ link register save eliminated.
1041:n32g430_std_periph_driver/src/n32g430_i2c.c ****     uint32_t temp_value = 0;
 1756              		.loc 1 1041 5 view .LVU412
1042:n32g430_std_periph_driver/src/n32g430_i2c.c **** 
1043:n32g430_std_periph_driver/src/n32g430_i2c.c ****     temp_value = I2Cx->TMRISE;
 1757              		.loc 1 1043 5 view .LVU413
 1758              		.loc 1 1043 16 is_stmt 0 view .LVU414
 1759 0000 036A     		ldr	r3, [r0, #32]
 1760              	.LVL119:
1044:n32g430_std_periph_driver/src/n32g430_i2c.c ****     /* Clear SCLDFW[3:0] bits */
1045:n32g430_std_periph_driver/src/n32g430_i2c.c ****     temp_value &= I2C_SCLDFW_MASK;
 1761              		.loc 1 1045 5 is_stmt 1 view .LVU415
 1762              		.loc 1 1045 16 is_stmt 0 view .LVU416
 1763 0002 23F07073 		bic	r3, r3, #62914560
 1764              	.LVL120:
1046:n32g430_std_periph_driver/src/n32g430_i2c.c ****     /* Set SCLDFW[3:0] bits according to width value */
1047:n32g430_std_periph_driver/src/n32g430_i2c.c ****     temp_value |= ((uint32_t)width << RCC_TMRISE_SCLDFW_OFFSET);
 1765              		.loc 1 1047 5 is_stmt 1 view .LVU417
 1766              		.loc 1 1047 16 is_stmt 0 view .LVU418
 1767 0006 43EA8153 		orr	r3, r3, r1, lsl #22
 1768              	.LVL121:
1048:n32g430_std_periph_driver/src/n32g430_i2c.c ****     /* Store the new value */
1049:n32g430_std_periph_driver/src/n32g430_i2c.c ****     I2Cx->TMRISE = temp_value;
 1769              		.loc 1 1049 5 is_stmt 1 view .LVU419
 1770              		.loc 1 1049 18 is_stmt 0 view .LVU420
 1771 000a 0362     		str	r3, [r0, #32]
1050:n32g430_std_periph_driver/src/n32g430_i2c.c ****     
1051:n32g430_std_periph_driver/src/n32g430_i2c.c **** }
 1772              		.loc 1 1051 1 view .LVU421
ARM GAS  C:\Users\Dawn\AppData\Local\Temp\cc40VLyf.s 			page 50


 1773 000c 7047     		bx	lr
 1774              		.cfi_endproc
 1775              	.LFE170:
 1777              		.section	.text.I2C_SDA_Analog_Filter_Width_Set,"ax",%progbits
 1778              		.align	1
 1779              		.global	I2C_SDA_Analog_Filter_Width_Set
 1780              		.syntax unified
 1781              		.thumb
 1782              		.thumb_func
 1784              	I2C_SDA_Analog_Filter_Width_Set:
 1785              	.LVL122:
 1786              	.LFB171:
1052:n32g430_std_periph_driver/src/n32g430_i2c.c **** 
1053:n32g430_std_periph_driver/src/n32g430_i2c.c **** /**
1054:n32g430_std_periph_driver/src/n32g430_i2c.c **** *\*\name    I2C_SDA_Analog_Filter_Width_Set.
1055:n32g430_std_periph_driver/src/n32g430_i2c.c **** *\*\fun     SDA analog filter width selection.
1056:n32g430_std_periph_driver/src/n32g430_i2c.c **** *\*\param   I2Cx :
1057:n32g430_std_periph_driver/src/n32g430_i2c.c **** *\*\          - I2C1
1058:n32g430_std_periph_driver/src/n32g430_i2c.c **** *\*\          - I2C2
1059:n32g430_std_periph_driver/src/n32g430_i2c.c **** *\*\param   width :
1060:n32g430_std_periph_driver/src/n32g430_i2c.c **** *\*\        - I2C_ANALOG_FILTER_WIDTH_5NS   
1061:n32g430_std_periph_driver/src/n32g430_i2c.c **** *\*\        - I2C_ANALOG_FILTER_WIDTH_15NS  
1062:n32g430_std_periph_driver/src/n32g430_i2c.c **** *\*\        - I2C_ANALOG_FILTER_WIDTH_25NS  
1063:n32g430_std_periph_driver/src/n32g430_i2c.c **** *\*\        - I2C_ANALOG_FILTER_WIDTH_35NS  
1064:n32g430_std_periph_driver/src/n32g430_i2c.c **** *\*\return  none
1065:n32g430_std_periph_driver/src/n32g430_i2c.c **** **/
1066:n32g430_std_periph_driver/src/n32g430_i2c.c **** void I2C_SDA_Analog_Filter_Width_Set(I2C_Module* I2Cx, uint32_t width)
1067:n32g430_std_periph_driver/src/n32g430_i2c.c **** {
 1787              		.loc 1 1067 1 is_stmt 1 view -0
 1788              		.cfi_startproc
 1789              		@ args = 0, pretend = 0, frame = 0
 1790              		@ frame_needed = 0, uses_anonymous_args = 0
 1791              		@ link register save eliminated.
1068:n32g430_std_periph_driver/src/n32g430_i2c.c ****     uint32_t temp_value = 0;
 1792              		.loc 1 1068 5 view .LVU423
1069:n32g430_std_periph_driver/src/n32g430_i2c.c **** 
1070:n32g430_std_periph_driver/src/n32g430_i2c.c ****     temp_value = I2Cx->TMRISE;
 1793              		.loc 1 1070 5 view .LVU424
 1794              		.loc 1 1070 16 is_stmt 0 view .LVU425
 1795 0000 036A     		ldr	r3, [r0, #32]
 1796              	.LVL123:
1071:n32g430_std_periph_driver/src/n32g430_i2c.c ****     /* Clear SDAAFW[1:0] bits */
1072:n32g430_std_periph_driver/src/n32g430_i2c.c ****     temp_value &= I2C_SDAAFW_MASK;
 1797              		.loc 1 1072 5 is_stmt 1 view .LVU426
 1798              		.loc 1 1072 16 is_stmt 0 view .LVU427
 1799 0002 23F04063 		bic	r3, r3, #201326592
 1800              	.LVL124:
1073:n32g430_std_periph_driver/src/n32g430_i2c.c ****     /* Set SDAAFW[1:0] bits according to width value */
1074:n32g430_std_periph_driver/src/n32g430_i2c.c ****     temp_value |= width;
 1801              		.loc 1 1074 5 is_stmt 1 view .LVU428
 1802              		.loc 1 1074 16 is_stmt 0 view .LVU429
 1803 0006 0B43     		orrs	r3, r3, r1
 1804              	.LVL125:
1075:n32g430_std_periph_driver/src/n32g430_i2c.c ****     /* Store the new value */
1076:n32g430_std_periph_driver/src/n32g430_i2c.c ****     I2Cx->TMRISE = temp_value;
 1805              		.loc 1 1076 5 is_stmt 1 view .LVU430
 1806              		.loc 1 1076 18 is_stmt 0 view .LVU431
ARM GAS  C:\Users\Dawn\AppData\Local\Temp\cc40VLyf.s 			page 51


 1807 0008 0362     		str	r3, [r0, #32]
1077:n32g430_std_periph_driver/src/n32g430_i2c.c ****     
1078:n32g430_std_periph_driver/src/n32g430_i2c.c **** }
 1808              		.loc 1 1078 1 view .LVU432
 1809 000a 7047     		bx	lr
 1810              		.cfi_endproc
 1811              	.LFE171:
 1813              		.section	.text.I2C_SDA_Analog_Filter_Enable,"ax",%progbits
 1814              		.align	1
 1815              		.global	I2C_SDA_Analog_Filter_Enable
 1816              		.syntax unified
 1817              		.thumb
 1818              		.thumb_func
 1820              	I2C_SDA_Analog_Filter_Enable:
 1821              	.LVL126:
 1822              	.LFB172:
1079:n32g430_std_periph_driver/src/n32g430_i2c.c **** 
1080:n32g430_std_periph_driver/src/n32g430_i2c.c **** /**
1081:n32g430_std_periph_driver/src/n32g430_i2c.c **** *\*\name    I2C_SDA_Analog_Filter_Enable.
1082:n32g430_std_periph_driver/src/n32g430_i2c.c **** *\*\fun     Enables the SDA analog filter.
1083:n32g430_std_periph_driver/src/n32g430_i2c.c **** *\*\param   I2Cx :
1084:n32g430_std_periph_driver/src/n32g430_i2c.c **** *\*\          - I2C1
1085:n32g430_std_periph_driver/src/n32g430_i2c.c **** *\*\          - I2C2
1086:n32g430_std_periph_driver/src/n32g430_i2c.c **** *\*\return  none
1087:n32g430_std_periph_driver/src/n32g430_i2c.c **** **/
1088:n32g430_std_periph_driver/src/n32g430_i2c.c **** void I2C_SDA_Analog_Filter_Enable(I2C_Module* I2Cx)
1089:n32g430_std_periph_driver/src/n32g430_i2c.c **** {
 1823              		.loc 1 1089 1 is_stmt 1 view -0
 1824              		.cfi_startproc
 1825              		@ args = 0, pretend = 0, frame = 0
 1826              		@ frame_needed = 0, uses_anonymous_args = 0
 1827              		@ link register save eliminated.
1090:n32g430_std_periph_driver/src/n32g430_i2c.c ****     /* Enable the SDA analog filter */
1091:n32g430_std_periph_driver/src/n32g430_i2c.c ****     I2Cx->TMRISE &= I2C_SDAAFENN_RESET;
 1828              		.loc 1 1091 5 view .LVU434
 1829              		.loc 1 1091 9 is_stmt 0 view .LVU435
 1830 0000 036A     		ldr	r3, [r0, #32]
 1831              		.loc 1 1091 18 view .LVU436
 1832 0002 23F08053 		bic	r3, r3, #268435456
 1833 0006 0362     		str	r3, [r0, #32]
1092:n32g430_std_periph_driver/src/n32g430_i2c.c **** }
 1834              		.loc 1 1092 1 view .LVU437
 1835 0008 7047     		bx	lr
 1836              		.cfi_endproc
 1837              	.LFE172:
 1839              		.section	.text.I2C_SDA_Analog_Filter_Disable,"ax",%progbits
 1840              		.align	1
 1841              		.global	I2C_SDA_Analog_Filter_Disable
 1842              		.syntax unified
 1843              		.thumb
 1844              		.thumb_func
 1846              	I2C_SDA_Analog_Filter_Disable:
 1847              	.LVL127:
 1848              	.LFB173:
1093:n32g430_std_periph_driver/src/n32g430_i2c.c **** 
1094:n32g430_std_periph_driver/src/n32g430_i2c.c **** /**
1095:n32g430_std_periph_driver/src/n32g430_i2c.c **** *\*\name    I2C_SDA_Analog_Filter_Disable.
ARM GAS  C:\Users\Dawn\AppData\Local\Temp\cc40VLyf.s 			page 52


1096:n32g430_std_periph_driver/src/n32g430_i2c.c **** *\*\fun     Disables the SDA analog filter.
1097:n32g430_std_periph_driver/src/n32g430_i2c.c **** *\*\param   I2Cx :
1098:n32g430_std_periph_driver/src/n32g430_i2c.c **** *\*\          - I2C1
1099:n32g430_std_periph_driver/src/n32g430_i2c.c **** *\*\          - I2C2
1100:n32g430_std_periph_driver/src/n32g430_i2c.c **** *\*\return  none
1101:n32g430_std_periph_driver/src/n32g430_i2c.c **** **/
1102:n32g430_std_periph_driver/src/n32g430_i2c.c **** void I2C_SDA_Analog_Filter_Disable(I2C_Module* I2Cx)
1103:n32g430_std_periph_driver/src/n32g430_i2c.c **** {
 1849              		.loc 1 1103 1 is_stmt 1 view -0
 1850              		.cfi_startproc
 1851              		@ args = 0, pretend = 0, frame = 0
 1852              		@ frame_needed = 0, uses_anonymous_args = 0
 1853              		@ link register save eliminated.
1104:n32g430_std_periph_driver/src/n32g430_i2c.c ****     /* Disable the SDA analog filter */
1105:n32g430_std_periph_driver/src/n32g430_i2c.c ****     I2Cx->TMRISE |= I2C_SDAAFENN_SET;
 1854              		.loc 1 1105 5 view .LVU439
 1855              		.loc 1 1105 9 is_stmt 0 view .LVU440
 1856 0000 036A     		ldr	r3, [r0, #32]
 1857              		.loc 1 1105 18 view .LVU441
 1858 0002 43F08053 		orr	r3, r3, #268435456
 1859 0006 0362     		str	r3, [r0, #32]
1106:n32g430_std_periph_driver/src/n32g430_i2c.c **** }
 1860              		.loc 1 1106 1 view .LVU442
 1861 0008 7047     		bx	lr
 1862              		.cfi_endproc
 1863              	.LFE173:
 1865              		.section	.text.I2C_SCL_Analog_Filter_Width_Set,"ax",%progbits
 1866              		.align	1
 1867              		.global	I2C_SCL_Analog_Filter_Width_Set
 1868              		.syntax unified
 1869              		.thumb
 1870              		.thumb_func
 1872              	I2C_SCL_Analog_Filter_Width_Set:
 1873              	.LVL128:
 1874              	.LFB174:
1107:n32g430_std_periph_driver/src/n32g430_i2c.c **** 
1108:n32g430_std_periph_driver/src/n32g430_i2c.c **** /**
1109:n32g430_std_periph_driver/src/n32g430_i2c.c **** *\*\name    I2C_SCL_Analog_Filter_Width_Set.
1110:n32g430_std_periph_driver/src/n32g430_i2c.c **** *\*\fun     SCL analog filter width selection.
1111:n32g430_std_periph_driver/src/n32g430_i2c.c **** *\*\param   I2Cx :
1112:n32g430_std_periph_driver/src/n32g430_i2c.c **** *\*\          - I2C1
1113:n32g430_std_periph_driver/src/n32g430_i2c.c **** *\*\          - I2C2
1114:n32g430_std_periph_driver/src/n32g430_i2c.c **** *\*\param   width :
1115:n32g430_std_periph_driver/src/n32g430_i2c.c **** *\*\        - I2C_ANALOG_FILTER_WIDTH_5NS   
1116:n32g430_std_periph_driver/src/n32g430_i2c.c **** *\*\        - I2C_ANALOG_FILTER_WIDTH_15NS  
1117:n32g430_std_periph_driver/src/n32g430_i2c.c **** *\*\        - I2C_ANALOG_FILTER_WIDTH_25NS  
1118:n32g430_std_periph_driver/src/n32g430_i2c.c **** *\*\        - I2C_ANALOG_FILTER_WIDTH_35NS  
1119:n32g430_std_periph_driver/src/n32g430_i2c.c **** *\*\return  none
1120:n32g430_std_periph_driver/src/n32g430_i2c.c **** **/
1121:n32g430_std_periph_driver/src/n32g430_i2c.c **** void I2C_SCL_Analog_Filter_Width_Set(I2C_Module* I2Cx, uint32_t width)
1122:n32g430_std_periph_driver/src/n32g430_i2c.c **** {
 1875              		.loc 1 1122 1 is_stmt 1 view -0
 1876              		.cfi_startproc
 1877              		@ args = 0, pretend = 0, frame = 0
 1878              		@ frame_needed = 0, uses_anonymous_args = 0
 1879              		@ link register save eliminated.
1123:n32g430_std_periph_driver/src/n32g430_i2c.c ****     uint32_t temp_value = 0;
ARM GAS  C:\Users\Dawn\AppData\Local\Temp\cc40VLyf.s 			page 53


 1880              		.loc 1 1123 5 view .LVU444
1124:n32g430_std_periph_driver/src/n32g430_i2c.c **** 
1125:n32g430_std_periph_driver/src/n32g430_i2c.c ****     temp_value = I2Cx->TMRISE;
 1881              		.loc 1 1125 5 view .LVU445
 1882              		.loc 1 1125 16 is_stmt 0 view .LVU446
 1883 0000 036A     		ldr	r3, [r0, #32]
 1884              	.LVL129:
1126:n32g430_std_periph_driver/src/n32g430_i2c.c ****     /* Clear SCLAFW[1:0] bits */
1127:n32g430_std_periph_driver/src/n32g430_i2c.c ****     temp_value &= I2C_SCLAFW_MASK;
 1885              		.loc 1 1127 5 is_stmt 1 view .LVU447
 1886              		.loc 1 1127 16 is_stmt 0 view .LVU448
 1887 0002 23F0C043 		bic	r3, r3, #1610612736
 1888              	.LVL130:
1128:n32g430_std_periph_driver/src/n32g430_i2c.c ****     /* Set SCLAFW[1:0] bits according to width value */
1129:n32g430_std_periph_driver/src/n32g430_i2c.c ****     temp_value |= (width << RCC_SDAAFW_SCLAFW_OFFSET);
 1889              		.loc 1 1129 5 is_stmt 1 view .LVU449
 1890              		.loc 1 1129 16 is_stmt 0 view .LVU450
 1891 0006 43EAC103 		orr	r3, r3, r1, lsl #3
 1892              	.LVL131:
1130:n32g430_std_periph_driver/src/n32g430_i2c.c ****     /* Store the new value */
1131:n32g430_std_periph_driver/src/n32g430_i2c.c ****     I2Cx->TMRISE = temp_value;
 1893              		.loc 1 1131 5 is_stmt 1 view .LVU451
 1894              		.loc 1 1131 18 is_stmt 0 view .LVU452
 1895 000a 0362     		str	r3, [r0, #32]
1132:n32g430_std_periph_driver/src/n32g430_i2c.c ****     
1133:n32g430_std_periph_driver/src/n32g430_i2c.c **** }
 1896              		.loc 1 1133 1 view .LVU453
 1897 000c 7047     		bx	lr
 1898              		.cfi_endproc
 1899              	.LFE174:
 1901              		.section	.text.I2C_SCL_Analog_Filter_Enable,"ax",%progbits
 1902              		.align	1
 1903              		.global	I2C_SCL_Analog_Filter_Enable
 1904              		.syntax unified
 1905              		.thumb
 1906              		.thumb_func
 1908              	I2C_SCL_Analog_Filter_Enable:
 1909              	.LVL132:
 1910              	.LFB175:
1134:n32g430_std_periph_driver/src/n32g430_i2c.c **** 
1135:n32g430_std_periph_driver/src/n32g430_i2c.c **** /**
1136:n32g430_std_periph_driver/src/n32g430_i2c.c **** *\*\name    I2C_SCL_Analog_Filter_Enable.
1137:n32g430_std_periph_driver/src/n32g430_i2c.c **** *\*\fun     Enables the SCL analog filter.
1138:n32g430_std_periph_driver/src/n32g430_i2c.c **** *\*\param   I2Cx :
1139:n32g430_std_periph_driver/src/n32g430_i2c.c **** *\*\          - I2C1
1140:n32g430_std_periph_driver/src/n32g430_i2c.c **** *\*\          - I2C2
1141:n32g430_std_periph_driver/src/n32g430_i2c.c **** *\*\return  none
1142:n32g430_std_periph_driver/src/n32g430_i2c.c **** **/
1143:n32g430_std_periph_driver/src/n32g430_i2c.c **** void I2C_SCL_Analog_Filter_Enable(I2C_Module* I2Cx)
1144:n32g430_std_periph_driver/src/n32g430_i2c.c **** {
 1911              		.loc 1 1144 1 is_stmt 1 view -0
 1912              		.cfi_startproc
 1913              		@ args = 0, pretend = 0, frame = 0
 1914              		@ frame_needed = 0, uses_anonymous_args = 0
 1915              		@ link register save eliminated.
1145:n32g430_std_periph_driver/src/n32g430_i2c.c ****     /* Enable the SCL analog filter */
1146:n32g430_std_periph_driver/src/n32g430_i2c.c ****     I2Cx->TMRISE &= I2C_SCLAFENN_RESET;
ARM GAS  C:\Users\Dawn\AppData\Local\Temp\cc40VLyf.s 			page 54


 1916              		.loc 1 1146 5 view .LVU455
 1917              		.loc 1 1146 9 is_stmt 0 view .LVU456
 1918 0000 036A     		ldr	r3, [r0, #32]
 1919              		.loc 1 1146 18 view .LVU457
 1920 0002 23F00043 		bic	r3, r3, #-2147483648
 1921 0006 0362     		str	r3, [r0, #32]
1147:n32g430_std_periph_driver/src/n32g430_i2c.c **** }
 1922              		.loc 1 1147 1 view .LVU458
 1923 0008 7047     		bx	lr
 1924              		.cfi_endproc
 1925              	.LFE175:
 1927              		.section	.text.I2C_SCL_Analog_Filter_Disable,"ax",%progbits
 1928              		.align	1
 1929              		.global	I2C_SCL_Analog_Filter_Disable
 1930              		.syntax unified
 1931              		.thumb
 1932              		.thumb_func
 1934              	I2C_SCL_Analog_Filter_Disable:
 1935              	.LVL133:
 1936              	.LFB176:
1148:n32g430_std_periph_driver/src/n32g430_i2c.c **** 
1149:n32g430_std_periph_driver/src/n32g430_i2c.c **** /**
1150:n32g430_std_periph_driver/src/n32g430_i2c.c **** *\*\name    I2C_SCL_Analog_Filter_Disable.
1151:n32g430_std_periph_driver/src/n32g430_i2c.c **** *\*\fun     Disables the SCL analog filter.
1152:n32g430_std_periph_driver/src/n32g430_i2c.c **** *\*\param   I2Cx :
1153:n32g430_std_periph_driver/src/n32g430_i2c.c **** *\*\          - I2C1
1154:n32g430_std_periph_driver/src/n32g430_i2c.c **** *\*\          - I2C2
1155:n32g430_std_periph_driver/src/n32g430_i2c.c **** *\*\return  none
1156:n32g430_std_periph_driver/src/n32g430_i2c.c **** **/
1157:n32g430_std_periph_driver/src/n32g430_i2c.c **** void I2C_SCL_Analog_Filter_Disable(I2C_Module* I2Cx)
1158:n32g430_std_periph_driver/src/n32g430_i2c.c **** {
 1937              		.loc 1 1158 1 is_stmt 1 view -0
 1938              		.cfi_startproc
 1939              		@ args = 0, pretend = 0, frame = 0
 1940              		@ frame_needed = 0, uses_anonymous_args = 0
 1941              		@ link register save eliminated.
1159:n32g430_std_periph_driver/src/n32g430_i2c.c ****     /* Disable the SCL analog filter */
1160:n32g430_std_periph_driver/src/n32g430_i2c.c ****     I2Cx->TMRISE |= I2C_SCLAFENN_SET;
 1942              		.loc 1 1160 5 view .LVU460
 1943              		.loc 1 1160 9 is_stmt 0 view .LVU461
 1944 0000 036A     		ldr	r3, [r0, #32]
 1945              		.loc 1 1160 18 view .LVU462
 1946 0002 43F00043 		orr	r3, r3, #-2147483648
 1947 0006 0362     		str	r3, [r0, #32]
1161:n32g430_std_periph_driver/src/n32g430_i2c.c **** }
 1948              		.loc 1 1161 1 view .LVU463
 1949 0008 7047     		bx	lr
 1950              		.cfi_endproc
 1951              	.LFE176:
 1953              		.section	.text.I2C_Event_Check,"ax",%progbits
 1954              		.align	1
 1955              		.global	I2C_Event_Check
 1956              		.syntax unified
 1957              		.thumb
 1958              		.thumb_func
 1960              	I2C_Event_Check:
 1961              	.LVL134:
ARM GAS  C:\Users\Dawn\AppData\Local\Temp\cc40VLyf.s 			page 55


 1962              	.LFB177:
1162:n32g430_std_periph_driver/src/n32g430_i2c.c **** 
1163:n32g430_std_periph_driver/src/n32g430_i2c.c **** /**
1164:n32g430_std_periph_driver/src/n32g430_i2c.c **** *\*\brief I2C State Monitoring Functions
1165:n32g430_std_periph_driver/src/n32g430_i2c.c **** *\*\      This I2C driver provides three different ways for I2C state monitoring
1166:n32g430_std_periph_driver/src/n32g430_i2c.c **** *\*\      depending on the application requirements and constraints:
1167:n32g430_std_periph_driver/src/n32g430_i2c.c **** *\*\
1168:n32g430_std_periph_driver/src/n32g430_i2c.c **** *\*\
1169:n32g430_std_periph_driver/src/n32g430_i2c.c **** *\*\ 1) Basic state monitoring:
1170:n32g430_std_periph_driver/src/n32g430_i2c.c **** *\*\    Using I2C_Event_Check() function:
1171:n32g430_std_periph_driver/src/n32g430_i2c.c **** *\*\    It compares the status registers (STS1 and STS2) content to a given event
1172:n32g430_std_periph_driver/src/n32g430_i2c.c **** *\*\    (can be the combination of one or more flags).
1173:n32g430_std_periph_driver/src/n32g430_i2c.c **** *\*\    It returns SUCCESS if the current status includes the given flags
1174:n32g430_std_periph_driver/src/n32g430_i2c.c **** *\*\    and returns ERROR if one or more flags are missing in the current status.
1175:n32g430_std_periph_driver/src/n32g430_i2c.c **** *\*\    - When to use:
1176:n32g430_std_periph_driver/src/n32g430_i2c.c **** *\*\      - This function is suitable for most applications as well as for startup
1177:n32g430_std_periph_driver/src/n32g430_i2c.c **** *\*\      activity since the events are fully described in the product reference manual.
1178:n32g430_std_periph_driver/src/n32g430_i2c.c **** *\*\      - It is also suitable for users who need to define their own events.
1179:n32g430_std_periph_driver/src/n32g430_i2c.c **** *\*\    - Limitations:
1180:n32g430_std_periph_driver/src/n32g430_i2c.c **** *\*\      - If an error occurs (ie. error flags are set besides to the monitored flags),
1181:n32g430_std_periph_driver/src/n32g430_i2c.c **** *\*\        the I2C_Event_Check() function may return SUCCESS despite the communication
1182:n32g430_std_periph_driver/src/n32g430_i2c.c **** *\*\        hold or corrupted real state.
1183:n32g430_std_periph_driver/src/n32g430_i2c.c **** *\*\        In this case, it is advised to use error interrupts to monitor the error
1184:n32g430_std_periph_driver/src/n32g430_i2c.c **** *\*\        events and handle them in the interrupt IRQ handler.
1185:n32g430_std_periph_driver/src/n32g430_i2c.c **** *\*\
1186:n32g430_std_periph_driver/src/n32g430_i2c.c **** *\*\note
1187:n32g430_std_periph_driver/src/n32g430_i2c.c **** *\*\        For error management, it is advised to use the following functions:
1188:n32g430_std_periph_driver/src/n32g430_i2c.c **** *\*\          - I2C_ConfigInt() to configure and enable the error interrupts (I2C_INT_ERR).
1189:n32g430_std_periph_driver/src/n32g430_i2c.c **** *\*\          - I2Cx_ER_IRQHandler() which is called when the error interrupt occurs.
1190:n32g430_std_periph_driver/src/n32g430_i2c.c **** *\*\            Where x is the peripheral instance (I2C1, I2C2 ...)
1191:n32g430_std_periph_driver/src/n32g430_i2c.c **** *\*\          - I2C_Flag_Status_Get() or I2C_GetIntStatus() to be called into I2Cx_ER_IRQHandler()
1192:n32g430_std_periph_driver/src/n32g430_i2c.c **** *\*\            in order to determine which error occured.
1193:n32g430_std_periph_driver/src/n32g430_i2c.c **** *\*\          - I2C_Flag_Status_Clear() or I2C_ClrIntPendingBit() and/or I2C_EnableSoftwareReset()
1194:n32g430_std_periph_driver/src/n32g430_i2c.c **** *\*\            and/or I2C_Generate_Stop_Enable() in order to clear the error flag and source,
1195:n32g430_std_periph_driver/src/n32g430_i2c.c **** *\*\            and return to correct communication status.
1196:n32g430_std_periph_driver/src/n32g430_i2c.c **** *\*\
1197:n32g430_std_periph_driver/src/n32g430_i2c.c **** *\*\
1198:n32g430_std_periph_driver/src/n32g430_i2c.c **** *\*\  2) Advanced state monitoring:
1199:n32g430_std_periph_driver/src/n32g430_i2c.c **** *\*\     Using the function I2C_Last_Event_Get() which returns the image of both status
1200:n32g430_std_periph_driver/src/n32g430_i2c.c **** *\*\     registers in a single word (uint32_t) (Status Register 2 value is shifted left
1201:n32g430_std_periph_driver/src/n32g430_i2c.c **** *\*\     by 16 bits and concatenated to Status Register 1).
1202:n32g430_std_periph_driver/src/n32g430_i2c.c **** *\*\     - When to use:
1203:n32g430_std_periph_driver/src/n32g430_i2c.c **** *\*\       - This function is suitable for the same applications above but it allows to
1204:n32g430_std_periph_driver/src/n32g430_i2c.c **** *\*\         overcome the mentioned limitation of I2C_Flag_Status_Get() function.
1205:n32g430_std_periph_driver/src/n32g430_i2c.c **** *\*\         The returned value could be compared to events already defined in the
1206:n32g430_std_periph_driver/src/n32g430_i2c.c **** *\*\         library (n32g430_i2c.h) or to custom values defined by user.
1207:n32g430_std_periph_driver/src/n32g430_i2c.c **** *\*\       - This function is suitable when multiple flags are monitored at the same time.
1208:n32g430_std_periph_driver/src/n32g430_i2c.c **** *\*\       - At the opposite of I2C_Event_Check() function, this function allows user to
1209:n32g430_std_periph_driver/src/n32g430_i2c.c **** *\*\         choose when an event is accepted (when all events flags are set and no
1210:n32g430_std_periph_driver/src/n32g430_i2c.c **** *\*\         other flags are set or just when the needed flags are set like
1211:n32g430_std_periph_driver/src/n32g430_i2c.c **** *\*\         I2C_Event_Check() function).
1212:n32g430_std_periph_driver/src/n32g430_i2c.c **** *\*\     - Limitations:
1213:n32g430_std_periph_driver/src/n32g430_i2c.c **** *\*\       - User may need to define his own events.
1214:n32g430_std_periph_driver/src/n32g430_i2c.c **** *\*\       - Same remark concerning the error management is applicable for this
1215:n32g430_std_periph_driver/src/n32g430_i2c.c **** *\*\         function if user decides to check only regular communication flags (and
1216:n32g430_std_periph_driver/src/n32g430_i2c.c **** *\*\         ignores error flags).
1217:n32g430_std_periph_driver/src/n32g430_i2c.c **** *\*\
ARM GAS  C:\Users\Dawn\AppData\Local\Temp\cc40VLyf.s 			page 56


1218:n32g430_std_periph_driver/src/n32g430_i2c.c **** *\*\
1219:n32g430_std_periph_driver/src/n32g430_i2c.c **** *\*\  3) Flag-based state monitoring:
1220:n32g430_std_periph_driver/src/n32g430_i2c.c **** *\*\     Using the function I2C_Flag_Status_Get() which simply returns the status of
1221:n32g430_std_periph_driver/src/n32g430_i2c.c **** *\*\     one single flag (ie. I2C_FLAG_RXDATNE ...).
1222:n32g430_std_periph_driver/src/n32g430_i2c.c **** *\*\     - When to use:
1223:n32g430_std_periph_driver/src/n32g430_i2c.c **** *\*\        - This function could be used for specific applications or in debug phase.
1224:n32g430_std_periph_driver/src/n32g430_i2c.c **** *\*\        - It is suitable when only one flag checking is needed (most I2C events
1225:n32g430_std_periph_driver/src/n32g430_i2c.c **** *\*\          are monitored through multiple flags).
1226:n32g430_std_periph_driver/src/n32g430_i2c.c **** *\*\     - Limitations:
1227:n32g430_std_periph_driver/src/n32g430_i2c.c **** *\*\        - When calling this function, the Status register is accessed. Some flags are
1228:n32g430_std_periph_driver/src/n32g430_i2c.c **** *\*\          cleared when the status register is accessed. So checking the status
1229:n32g430_std_periph_driver/src/n32g430_i2c.c **** *\*\          of one Flag, may clear other ones.
1230:n32g430_std_periph_driver/src/n32g430_i2c.c **** *\*\        - Function may need to be called twice or more in order to monitor one
1231:n32g430_std_periph_driver/src/n32g430_i2c.c **** *\*\          single event.
1232:n32g430_std_periph_driver/src/n32g430_i2c.c **** *\*\
1233:n32g430_std_periph_driver/src/n32g430_i2c.c **** *\*\  For detailed description of Events, please refer to section I2C_Events in
1234:n32g430_std_periph_driver/src/n32g430_i2c.c **** *\*\  n32g430_i2c.h file.
1235:n32g430_std_periph_driver/src/n32g430_i2c.c **** *\*\
1236:n32g430_std_periph_driver/src/n32g430_i2c.c **** **/
1237:n32g430_std_periph_driver/src/n32g430_i2c.c **** 
1238:n32g430_std_periph_driver/src/n32g430_i2c.c **** 
1239:n32g430_std_periph_driver/src/n32g430_i2c.c **** /**
1240:n32g430_std_periph_driver/src/n32g430_i2c.c **** *\*\name    I2C_Event_Check.
1241:n32g430_std_periph_driver/src/n32g430_i2c.c **** *\*\fun     Checks whether the last I2Cx Event is equal to the one passed as parameter.
1242:n32g430_std_periph_driver/src/n32g430_i2c.c **** *\*\param   I2Cx :
1243:n32g430_std_periph_driver/src/n32g430_i2c.c **** *\*\          - I2C1
1244:n32g430_std_periph_driver/src/n32g430_i2c.c **** *\*\          - I2C2
1245:n32g430_std_periph_driver/src/n32g430_i2c.c **** *\*\param   I2C_event :
1246:n32g430_std_periph_driver/src/n32g430_i2c.c **** *\*\          - I2C_EVT_SLAVE_SEND_ADDR_MATCHED                 EV1
1247:n32g430_std_periph_driver/src/n32g430_i2c.c **** *\*\          - I2C_EVT_SLAVE_RECV_ADDR_MATCHED                 EV1
1248:n32g430_std_periph_driver/src/n32g430_i2c.c **** *\*\          - I2C_EVT_SLAVE_SEND_ADDR2_MATCHED                EV1
1249:n32g430_std_periph_driver/src/n32g430_i2c.c **** *\*\          - I2C_EVT_SLAVE_RECV_ADDR2_MATCHED                EV1
1250:n32g430_std_periph_driver/src/n32g430_i2c.c **** *\*\          - I2C_EVT_SLAVE_GCALLADDR_MATCHED                 EV1
1251:n32g430_std_periph_driver/src/n32g430_i2c.c **** *\*\          - I2C_EVT_SLAVE_DATA_RECVD                        EV2
1252:n32g430_std_periph_driver/src/n32g430_i2c.c **** *\*\          - (I2C_EVT_SLAVE_DATA_RECVD | I2C_FLAG_DUALFLAG)  EV2
1253:n32g430_std_periph_driver/src/n32g430_i2c.c **** *\*\          - (I2C_EVT_SLAVE_DATA_RECVD | I2C_FLAG_GCALLADDR) EV2
1254:n32g430_std_periph_driver/src/n32g430_i2c.c **** *\*\          - I2C_EVT_SLAVE_DATA_SENDED                       EV3
1255:n32g430_std_periph_driver/src/n32g430_i2c.c **** *\*\          - (I2C_EVT_SLAVE_DATA_SENDED | I2C_FLAG_DUALFLAG) EV3
1256:n32g430_std_periph_driver/src/n32g430_i2c.c **** *\*\          - (I2C_EVT_SLAVE_DATA_SENDED | I2C_FLAG_GCALLADDR)EV3
1257:n32g430_std_periph_driver/src/n32g430_i2c.c **** *\*\          - I2C_EVT_SLAVE_ACK_MISS                          EV3_2
1258:n32g430_std_periph_driver/src/n32g430_i2c.c **** *\*\          - I2C_EVT_SLAVE_STOP_RECVD                        EV4
1259:n32g430_std_periph_driver/src/n32g430_i2c.c **** *\*\          - I2C_EVT_MASTER_MODE_FLAG                        EV5
1260:n32g430_std_periph_driver/src/n32g430_i2c.c **** *\*\          - I2C_EVT_MASTER_TXMODE_FLAG                      EV6
1261:n32g430_std_periph_driver/src/n32g430_i2c.c **** *\*\          - I2C_EVT_MASTER_RXMODE_FLAG                      EV6
1262:n32g430_std_periph_driver/src/n32g430_i2c.c **** *\*\          - I2C_EVT_MASTER_DATA_RECVD_FLAG                  EV7
1263:n32g430_std_periph_driver/src/n32g430_i2c.c **** *\*\          - I2C_EVT_MASTER_DATA_SENDING                     EV8
1264:n32g430_std_periph_driver/src/n32g430_i2c.c **** *\*\          - I2C_EVT_MASTER_DATA_SENDED                      EV8_2
1265:n32g430_std_periph_driver/src/n32g430_i2c.c **** *\*\          - I2C_EVT_MASTER_MODE_ADDRESS10_FLAG              EV9
1266:n32g430_std_periph_driver/src/n32g430_i2c.c **** *\*\note    For detailed description of Events, please refer to section
1267:n32g430_std_periph_driver/src/n32g430_i2c.c **** *\*\        I2C_Events in n32g430_i2c.h file.
1268:n32g430_std_periph_driver/src/n32g430_i2c.c **** *\*\return  SUCCESS or ERROR
1269:n32g430_std_periph_driver/src/n32g430_i2c.c **** **/
1270:n32g430_std_periph_driver/src/n32g430_i2c.c **** ErrorStatus I2C_Event_Check(I2C_Module* I2Cx, uint32_t I2C_event)
1271:n32g430_std_periph_driver/src/n32g430_i2c.c **** {
 1963              		.loc 1 1271 1 is_stmt 1 view -0
 1964              		.cfi_startproc
 1965              		@ args = 0, pretend = 0, frame = 0
ARM GAS  C:\Users\Dawn\AppData\Local\Temp\cc40VLyf.s 			page 57


 1966              		@ frame_needed = 0, uses_anonymous_args = 0
 1967              		@ link register save eliminated.
1272:n32g430_std_periph_driver/src/n32g430_i2c.c ****     uint32_t le_value = 0;
 1968              		.loc 1 1272 5 view .LVU465
1273:n32g430_std_periph_driver/src/n32g430_i2c.c ****     uint32_t flag1 = 0, flag2 = 0;
 1969              		.loc 1 1273 5 view .LVU466
1274:n32g430_std_periph_driver/src/n32g430_i2c.c **** 
1275:n32g430_std_periph_driver/src/n32g430_i2c.c ****     /* Read the I2Cx status register */
1276:n32g430_std_periph_driver/src/n32g430_i2c.c ****     flag1 = I2Cx->STS1;
 1970              		.loc 1 1276 5 view .LVU467
 1971              		.loc 1 1276 17 is_stmt 0 view .LVU468
 1972 0000 838A     		ldrh	r3, [r0, #20]
 1973 0002 9BB2     		uxth	r3, r3
 1974              	.LVL135:
1277:n32g430_std_periph_driver/src/n32g430_i2c.c ****     flag2 = I2Cx->STS2;
 1975              		.loc 1 1277 5 is_stmt 1 view .LVU469
 1976              		.loc 1 1277 17 is_stmt 0 view .LVU470
 1977 0004 028B     		ldrh	r2, [r0, #24]
 1978              	.LVL136:
1278:n32g430_std_periph_driver/src/n32g430_i2c.c ****     flag2 = flag2 << RCC_FLAG_STS2_OFFSET;
 1979              		.loc 1 1278 5 is_stmt 1 view .LVU471
1279:n32g430_std_periph_driver/src/n32g430_i2c.c **** 
1280:n32g430_std_periph_driver/src/n32g430_i2c.c ****     /* Get the last event value from I2C status register */
1281:n32g430_std_periph_driver/src/n32g430_i2c.c ****     le_value = (flag1 | flag2) & FLAG_MASK;
 1980              		.loc 1 1281 5 view .LVU472
 1981              		.loc 1 1281 23 is_stmt 0 view .LVU473
 1982 0006 43EA0243 		orr	r3, r3, r2, lsl #16
 1983              	.LVL137:
 1984              		.loc 1 1281 14 view .LVU474
 1985 000a 23F07F43 		bic	r3, r3, #-16777216
 1986              	.LVL138:
1282:n32g430_std_periph_driver/src/n32g430_i2c.c **** 
1283:n32g430_std_periph_driver/src/n32g430_i2c.c ****     /* Check whether the last event contains the I2C_event */
1284:n32g430_std_periph_driver/src/n32g430_i2c.c ****     if ((le_value & I2C_event) == I2C_event)
 1987              		.loc 1 1284 5 is_stmt 1 view .LVU475
 1988              		.loc 1 1284 8 is_stmt 0 view .LVU476
 1989 000e 9943     		bics	r1, r1, r3
 1990              	.LVL139:
 1991              		.loc 1 1284 8 view .LVU477
 1992 0010 01D0     		beq	.L94
1285:n32g430_std_periph_driver/src/n32g430_i2c.c ****     {
1286:n32g430_std_periph_driver/src/n32g430_i2c.c ****         /* Return SUCCESS: last event is equal to I2C_event */
1287:n32g430_std_periph_driver/src/n32g430_i2c.c ****         return SUCCESS;
1288:n32g430_std_periph_driver/src/n32g430_i2c.c ****     }
1289:n32g430_std_periph_driver/src/n32g430_i2c.c ****     else
1290:n32g430_std_periph_driver/src/n32g430_i2c.c ****     {
1291:n32g430_std_periph_driver/src/n32g430_i2c.c ****         /* Return ERROR: last event is different from I2C_event */
1292:n32g430_std_periph_driver/src/n32g430_i2c.c ****         return ERROR;
 1993              		.loc 1 1292 16 view .LVU478
 1994 0012 0020     		movs	r0, #0
 1995              	.LVL140:
1293:n32g430_std_periph_driver/src/n32g430_i2c.c ****     }
1294:n32g430_std_periph_driver/src/n32g430_i2c.c **** }
 1996              		.loc 1 1294 1 view .LVU479
 1997 0014 7047     		bx	lr
 1998              	.LVL141:
 1999              	.L94:
ARM GAS  C:\Users\Dawn\AppData\Local\Temp\cc40VLyf.s 			page 58


1287:n32g430_std_periph_driver/src/n32g430_i2c.c ****     }
 2000              		.loc 1 1287 16 view .LVU480
 2001 0016 0120     		movs	r0, #1
 2002              	.LVL142:
1287:n32g430_std_periph_driver/src/n32g430_i2c.c ****     }
 2003              		.loc 1 1287 16 view .LVU481
 2004 0018 7047     		bx	lr
 2005              		.cfi_endproc
 2006              	.LFE177:
 2008              		.section	.text.I2C_Last_Event_Get,"ax",%progbits
 2009              		.align	1
 2010              		.global	I2C_Last_Event_Get
 2011              		.syntax unified
 2012              		.thumb
 2013              		.thumb_func
 2015              	I2C_Last_Event_Get:
 2016              	.LVL143:
 2017              	.LFB178:
1295:n32g430_std_periph_driver/src/n32g430_i2c.c **** 
1296:n32g430_std_periph_driver/src/n32g430_i2c.c **** /**
1297:n32g430_std_periph_driver/src/n32g430_i2c.c **** *\*\name    I2C_Last_Event_Get.
1298:n32g430_std_periph_driver/src/n32g430_i2c.c **** *\*\fun     Returns the last I2Cx Event.
1299:n32g430_std_periph_driver/src/n32g430_i2c.c **** *\*\param   I2Cx :
1300:n32g430_std_periph_driver/src/n32g430_i2c.c **** *\*\          - I2C1
1301:n32g430_std_periph_driver/src/n32g430_i2c.c **** *\*\          - I2C2
1302:n32g430_std_periph_driver/src/n32g430_i2c.c **** *\*\note    For detailed description of Events, please refer to section
1303:n32g430_std_periph_driver/src/n32g430_i2c.c **** *\*\        I2C_Events in n32g430_i2c.h file.
1304:n32g430_std_periph_driver/src/n32g430_i2c.c **** *\*\return  The last event
1305:n32g430_std_periph_driver/src/n32g430_i2c.c **** **/
1306:n32g430_std_periph_driver/src/n32g430_i2c.c **** uint32_t I2C_Last_Event_Get(I2C_Module* I2Cx)
1307:n32g430_std_periph_driver/src/n32g430_i2c.c **** {
 2018              		.loc 1 1307 1 is_stmt 1 view -0
 2019              		.cfi_startproc
 2020              		@ args = 0, pretend = 0, frame = 0
 2021              		@ frame_needed = 0, uses_anonymous_args = 0
 2022              		@ link register save eliminated.
1308:n32g430_std_periph_driver/src/n32g430_i2c.c ****     uint32_t flag1 = 0, flag2 = 0;
 2023              		.loc 1 1308 5 view .LVU483
1309:n32g430_std_periph_driver/src/n32g430_i2c.c **** 
1310:n32g430_std_periph_driver/src/n32g430_i2c.c ****     /* Read the I2Cx status register */
1311:n32g430_std_periph_driver/src/n32g430_i2c.c ****     flag1 = I2Cx->STS1;
 2024              		.loc 1 1311 5 view .LVU484
 2025              		.loc 1 1311 17 is_stmt 0 view .LVU485
 2026 0000 838A     		ldrh	r3, [r0, #20]
 2027 0002 9BB2     		uxth	r3, r3
 2028              	.LVL144:
1312:n32g430_std_periph_driver/src/n32g430_i2c.c ****     flag2 = I2Cx->STS2;
 2029              		.loc 1 1312 5 is_stmt 1 view .LVU486
 2030              		.loc 1 1312 17 is_stmt 0 view .LVU487
 2031 0004 028B     		ldrh	r2, [r0, #24]
 2032              	.LVL145:
1313:n32g430_std_periph_driver/src/n32g430_i2c.c ****     flag2 = flag2 << RCC_FLAG_STS2_OFFSET;
 2033              		.loc 1 1313 5 is_stmt 1 view .LVU488
1314:n32g430_std_periph_driver/src/n32g430_i2c.c **** 
1315:n32g430_std_periph_driver/src/n32g430_i2c.c ****     /* Return the last event value from I2C status register */
1316:n32g430_std_periph_driver/src/n32g430_i2c.c ****     return (flag1 | flag2) & FLAG_MASK;
 2034              		.loc 1 1316 5 view .LVU489
ARM GAS  C:\Users\Dawn\AppData\Local\Temp\cc40VLyf.s 			page 59


 2035              		.loc 1 1316 19 is_stmt 0 view .LVU490
 2036 0006 43EA0240 		orr	r0, r3, r2, lsl #16
 2037              	.LVL146:
1317:n32g430_std_periph_driver/src/n32g430_i2c.c **** }
 2038              		.loc 1 1317 1 view .LVU491
 2039 000a 20F07F40 		bic	r0, r0, #-16777216
 2040 000e 7047     		bx	lr
 2041              		.cfi_endproc
 2042              	.LFE178:
 2044              		.section	.text.I2C_Flag_Status_Get,"ax",%progbits
 2045              		.align	1
 2046              		.global	I2C_Flag_Status_Get
 2047              		.syntax unified
 2048              		.thumb
 2049              		.thumb_func
 2051              	I2C_Flag_Status_Get:
 2052              	.LVL147:
 2053              	.LFB179:
1318:n32g430_std_periph_driver/src/n32g430_i2c.c **** 
1319:n32g430_std_periph_driver/src/n32g430_i2c.c **** /**
1320:n32g430_std_periph_driver/src/n32g430_i2c.c **** *\*\name    I2C_Flag_Status_Get.
1321:n32g430_std_periph_driver/src/n32g430_i2c.c **** *\*\fun     Checks whether the specified I2C flag is set or not.
1322:n32g430_std_periph_driver/src/n32g430_i2c.c **** *\*\param   I2Cx :
1323:n32g430_std_periph_driver/src/n32g430_i2c.c **** *\*\          - I2C1
1324:n32g430_std_periph_driver/src/n32g430_i2c.c **** *\*\          - I2C2
1325:n32g430_std_periph_driver/src/n32g430_i2c.c **** *\*\param   I2C_flag :
1326:n32g430_std_periph_driver/src/n32g430_i2c.c **** *\*\          - I2C_FLAG_DUALFLAG     Dual flag (Slave mode)
1327:n32g430_std_periph_driver/src/n32g430_i2c.c **** *\*\          - I2C_FLAG_SMBHADDR     SMBus host header (Slave mode)
1328:n32g430_std_periph_driver/src/n32g430_i2c.c **** *\*\          - I2C_FLAG_SMBDADDR     SMBus default header (Slave mode)
1329:n32g430_std_periph_driver/src/n32g430_i2c.c **** *\*\          - I2C_FLAG_GCALLADDR    General call header flag (Slave mode)
1330:n32g430_std_periph_driver/src/n32g430_i2c.c **** *\*\          - I2C_FLAG_TRF          Transmitter/Receiver flag
1331:n32g430_std_periph_driver/src/n32g430_i2c.c **** *\*\          - I2C_FLAG_BUSY         Bus busy flag
1332:n32g430_std_periph_driver/src/n32g430_i2c.c **** *\*\          - I2C_FLAG_MSMODE       Master/Slave flag
1333:n32g430_std_periph_driver/src/n32g430_i2c.c **** *\*\          - I2C_FLAG_SMBALERT     SMBus Alert flag
1334:n32g430_std_periph_driver/src/n32g430_i2c.c **** *\*\          - I2C_FLAG_TIMOUT       Timeout or Tlow error flag
1335:n32g430_std_periph_driver/src/n32g430_i2c.c **** *\*\          - I2C_FLAG_PECERR       PEC error in reception flag
1336:n32g430_std_periph_driver/src/n32g430_i2c.c **** *\*\          - I2C_FLAG_OVERRUN      Overrun/Underrun flag (Slave mode)
1337:n32g430_std_periph_driver/src/n32g430_i2c.c **** *\*\          - I2C_FLAG_ACKFAIL      Acknowledge failure flag
1338:n32g430_std_periph_driver/src/n32g430_i2c.c **** *\*\          - I2C_FLAG_ARLOST       Arbitration lost flag (Master mode)
1339:n32g430_std_periph_driver/src/n32g430_i2c.c **** *\*\          - I2C_FLAG_BUSERR       Bus error flag
1340:n32g430_std_periph_driver/src/n32g430_i2c.c **** *\*\          - I2C_FLAG_TXDATE       Data register empty flag (Transmitter)
1341:n32g430_std_periph_driver/src/n32g430_i2c.c **** *\*\          - I2C_FLAG_RXDATNE      Data register not empty (Receiver) flag
1342:n32g430_std_periph_driver/src/n32g430_i2c.c **** *\*\          - I2C_FLAG_STOPF        Stop detection flag (Slave mode)
1343:n32g430_std_periph_driver/src/n32g430_i2c.c **** *\*\          - I2C_FLAG_ADDR10F      10-bit header sent flag (Master mode)
1344:n32g430_std_periph_driver/src/n32g430_i2c.c **** *\*\          - I2C_FLAG_BYTEF        Byte transfer finished flag
1345:n32g430_std_periph_driver/src/n32g430_i2c.c **** *\*\          - I2C_FLAG_ADDRF        Address sent flag (Master mode) "ADSL"
1346:n32g430_std_periph_driver/src/n32g430_i2c.c **** *\*\                                  Address matched flag (Slave mode)"ENDA"
1347:n32g430_std_periph_driver/src/n32g430_i2c.c **** *\*\          - I2C_FLAG_STARTBF      Start bit flag (Master mode)
1348:n32g430_std_periph_driver/src/n32g430_i2c.c **** *\*\return  SET or RESET
1349:n32g430_std_periph_driver/src/n32g430_i2c.c **** **/
1350:n32g430_std_periph_driver/src/n32g430_i2c.c **** FlagStatus I2C_Flag_Status_Get(I2C_Module* I2Cx, uint32_t I2C_flag)
1351:n32g430_std_periph_driver/src/n32g430_i2c.c **** {
 2054              		.loc 1 1351 1 is_stmt 1 view -0
 2055              		.cfi_startproc
 2056              		@ args = 0, pretend = 0, frame = 8
 2057              		@ frame_needed = 0, uses_anonymous_args = 0
 2058              		@ link register save eliminated.
ARM GAS  C:\Users\Dawn\AppData\Local\Temp\cc40VLyf.s 			page 60


 2059              		.loc 1 1351 1 is_stmt 0 view .LVU493
 2060 0000 82B0     		sub	sp, sp, #8
 2061              	.LCFI8:
 2062              		.cfi_def_cfa_offset 8
1352:n32g430_std_periph_driver/src/n32g430_i2c.c ****     __IO uint32_t temp_value0 = 0, temp_value1 = 0;
 2063              		.loc 1 1352 5 is_stmt 1 view .LVU494
 2064              		.loc 1 1352 19 is_stmt 0 view .LVU495
 2065 0002 0023     		movs	r3, #0
 2066 0004 0193     		str	r3, [sp, #4]
 2067              		.loc 1 1352 36 view .LVU496
 2068 0006 0093     		str	r3, [sp]
1353:n32g430_std_periph_driver/src/n32g430_i2c.c **** 
1354:n32g430_std_periph_driver/src/n32g430_i2c.c ****     /* Get the I2Cx peripheral base address */
1355:n32g430_std_periph_driver/src/n32g430_i2c.c ****     temp_value0 = (uint32_t)I2Cx;
 2069              		.loc 1 1355 5 is_stmt 1 view .LVU497
 2070              		.loc 1 1355 17 is_stmt 0 view .LVU498
 2071 0008 0190     		str	r0, [sp, #4]
1356:n32g430_std_periph_driver/src/n32g430_i2c.c **** 
1357:n32g430_std_periph_driver/src/n32g430_i2c.c ****     /* Read flag register index */
1358:n32g430_std_periph_driver/src/n32g430_i2c.c ****     temp_value1 = I2C_flag >> RCC_FLAG_GET_OFFSET;
 2072              		.loc 1 1358 5 is_stmt 1 view .LVU499
 2073              		.loc 1 1358 28 is_stmt 0 view .LVU500
 2074 000a 0B0F     		lsrs	r3, r1, #28
 2075              		.loc 1 1358 17 view .LVU501
 2076 000c 0093     		str	r3, [sp]
1359:n32g430_std_periph_driver/src/n32g430_i2c.c **** 
1360:n32g430_std_periph_driver/src/n32g430_i2c.c ****     /* Get bit[23:0] of the flag */
1361:n32g430_std_periph_driver/src/n32g430_i2c.c ****     I2C_flag &= FLAG_MASK;
 2077              		.loc 1 1361 5 is_stmt 1 view .LVU502
 2078              		.loc 1 1361 14 is_stmt 0 view .LVU503
 2079 000e 21F07F41 		bic	r1, r1, #-16777216
 2080              	.LVL148:
1362:n32g430_std_periph_driver/src/n32g430_i2c.c **** 
1363:n32g430_std_periph_driver/src/n32g430_i2c.c ****     if (temp_value1 == 0)
 2081              		.loc 1 1363 5 is_stmt 1 view .LVU504
 2082              		.loc 1 1363 21 is_stmt 0 view .LVU505
 2083 0012 009B     		ldr	r3, [sp]
 2084              		.loc 1 1363 8 view .LVU506
 2085 0014 53B9     		cbnz	r3, .L97
1364:n32g430_std_periph_driver/src/n32g430_i2c.c ****     {
1365:n32g430_std_periph_driver/src/n32g430_i2c.c ****         /* Flag in I2Cx STS2 Register */
1366:n32g430_std_periph_driver/src/n32g430_i2c.c ****         I2C_flag = (uint32_t)(I2C_flag >> RCC_FLAG_STS2_OFFSET);
 2086              		.loc 1 1366 9 is_stmt 1 view .LVU507
 2087              		.loc 1 1366 18 is_stmt 0 view .LVU508
 2088 0016 090C     		lsrs	r1, r1, #16
 2089              	.LVL149:
1367:n32g430_std_periph_driver/src/n32g430_i2c.c ****         /* Get the I2Cx STS2 register address */
1368:n32g430_std_periph_driver/src/n32g430_i2c.c ****         temp_value0 += 0x18;
 2090              		.loc 1 1368 9 is_stmt 1 view .LVU509
 2091              		.loc 1 1368 21 is_stmt 0 view .LVU510
 2092 0018 019B     		ldr	r3, [sp, #4]
 2093 001a 1833     		adds	r3, r3, #24
 2094 001c 0193     		str	r3, [sp, #4]
 2095              	.L98:
1369:n32g430_std_periph_driver/src/n32g430_i2c.c ****     }
1370:n32g430_std_periph_driver/src/n32g430_i2c.c ****     else
1371:n32g430_std_periph_driver/src/n32g430_i2c.c ****     {
ARM GAS  C:\Users\Dawn\AppData\Local\Temp\cc40VLyf.s 			page 61


1372:n32g430_std_periph_driver/src/n32g430_i2c.c ****         /* Get the I2Cx STS1 register address */
1373:n32g430_std_periph_driver/src/n32g430_i2c.c ****         temp_value0 += 0x14;
1374:n32g430_std_periph_driver/src/n32g430_i2c.c ****     }
1375:n32g430_std_periph_driver/src/n32g430_i2c.c **** 
1376:n32g430_std_periph_driver/src/n32g430_i2c.c ****     if (((*(__IO uint32_t*)temp_value0) & I2C_flag) == (uint32_t)RESET)
 2096              		.loc 1 1376 5 is_stmt 1 view .LVU511
 2097              		.loc 1 1376 12 is_stmt 0 view .LVU512
 2098 001e 019B     		ldr	r3, [sp, #4]
 2099              		.loc 1 1376 11 view .LVU513
 2100 0020 1B68     		ldr	r3, [r3]
 2101              		.loc 1 1376 8 view .LVU514
 2102 0022 0B42     		tst	r3, r1
 2103 0024 06D1     		bne	.L100
1377:n32g430_std_periph_driver/src/n32g430_i2c.c ****     {
1378:n32g430_std_periph_driver/src/n32g430_i2c.c ****         /* I2C_flag is reset */
1379:n32g430_std_periph_driver/src/n32g430_i2c.c ****         return RESET;
 2104              		.loc 1 1379 16 view .LVU515
 2105 0026 0020     		movs	r0, #0
 2106              	.LVL150:
 2107              	.L99:
1380:n32g430_std_periph_driver/src/n32g430_i2c.c ****     }
1381:n32g430_std_periph_driver/src/n32g430_i2c.c ****     else
1382:n32g430_std_periph_driver/src/n32g430_i2c.c ****     {
1383:n32g430_std_periph_driver/src/n32g430_i2c.c ****         /* I2C_flag is set */
1384:n32g430_std_periph_driver/src/n32g430_i2c.c ****         return SET;
1385:n32g430_std_periph_driver/src/n32g430_i2c.c ****     }
1386:n32g430_std_periph_driver/src/n32g430_i2c.c **** }
 2108              		.loc 1 1386 1 view .LVU516
 2109 0028 02B0     		add	sp, sp, #8
 2110              	.LCFI9:
 2111              		.cfi_remember_state
 2112              		.cfi_def_cfa_offset 0
 2113              		@ sp needed
 2114 002a 7047     		bx	lr
 2115              	.LVL151:
 2116              	.L97:
 2117              	.LCFI10:
 2118              		.cfi_restore_state
1373:n32g430_std_periph_driver/src/n32g430_i2c.c ****     }
 2119              		.loc 1 1373 9 is_stmt 1 view .LVU517
1373:n32g430_std_periph_driver/src/n32g430_i2c.c ****     }
 2120              		.loc 1 1373 21 is_stmt 0 view .LVU518
 2121 002c 019B     		ldr	r3, [sp, #4]
 2122 002e 1433     		adds	r3, r3, #20
 2123 0030 0193     		str	r3, [sp, #4]
 2124 0032 F4E7     		b	.L98
 2125              	.L100:
1384:n32g430_std_periph_driver/src/n32g430_i2c.c ****     }
 2126              		.loc 1 1384 16 view .LVU519
 2127 0034 0120     		movs	r0, #1
 2128              	.LVL152:
1384:n32g430_std_periph_driver/src/n32g430_i2c.c ****     }
 2129              		.loc 1 1384 16 view .LVU520
 2130 0036 F7E7     		b	.L99
 2131              		.cfi_endproc
 2132              	.LFE179:
 2134              		.section	.text.I2C_Flag_Status_Clear,"ax",%progbits
ARM GAS  C:\Users\Dawn\AppData\Local\Temp\cc40VLyf.s 			page 62


 2135              		.align	1
 2136              		.global	I2C_Flag_Status_Clear
 2137              		.syntax unified
 2138              		.thumb
 2139              		.thumb_func
 2141              	I2C_Flag_Status_Clear:
 2142              	.LVL153:
 2143              	.LFB180:
1387:n32g430_std_periph_driver/src/n32g430_i2c.c **** 
1388:n32g430_std_periph_driver/src/n32g430_i2c.c **** /**
1389:n32g430_std_periph_driver/src/n32g430_i2c.c **** *\*\name    I2C_Flag_Status_Clear.
1390:n32g430_std_periph_driver/src/n32g430_i2c.c **** *\*\fun     Clears the I2Cx's flags.
1391:n32g430_std_periph_driver/src/n32g430_i2c.c **** *\*\param   I2Cx :
1392:n32g430_std_periph_driver/src/n32g430_i2c.c **** *\*\          - I2C1
1393:n32g430_std_periph_driver/src/n32g430_i2c.c **** *\*\          - I2C2
1394:n32g430_std_periph_driver/src/n32g430_i2c.c **** *\*\param   I2C_flag :
1395:n32g430_std_periph_driver/src/n32g430_i2c.c **** *\*\          - I2C_FLAG_SMBALERT    SMBus Alert flag
1396:n32g430_std_periph_driver/src/n32g430_i2c.c **** *\*\          - I2C_FLAG_TIMOUT      Timeout or Tlow error flag
1397:n32g430_std_periph_driver/src/n32g430_i2c.c **** *\*\          - I2C_FLAG_PECERR      PEC error in reception flag
1398:n32g430_std_periph_driver/src/n32g430_i2c.c **** *\*\          - I2C_FLAG_OVERRUN     Overrun/Underrun flag (Slave mode)
1399:n32g430_std_periph_driver/src/n32g430_i2c.c **** *\*\          - I2C_FLAG_ACKFAIL     Acknowledge failure flag
1400:n32g430_std_periph_driver/src/n32g430_i2c.c **** *\*\          - I2C_FLAG_ARLOST      Arbitration lost flag (Master mode)
1401:n32g430_std_periph_driver/src/n32g430_i2c.c **** *\*\          - I2C_FLAG_BUSERR      Bus error flag
1402:n32g430_std_periph_driver/src/n32g430_i2c.c **** *\*\note    - STOPF (STOP detection) is cleared by software sequence: a read operation
1403:n32g430_std_periph_driver/src/n32g430_i2c.c **** *\*\          to I2C_STS1 register (I2C_Flag_Get()) followed by a write operation
1404:n32g430_std_periph_driver/src/n32g430_i2c.c **** *\*\          to I2C_CTRL1 register (I2C_ON() to re-enable the I2C peripheral).
1405:n32g430_std_periph_driver/src/n32g430_i2c.c **** *\*\        - ADD10 (10-bit header sent) is cleared by software sequence: a read
1406:n32g430_std_periph_driver/src/n32g430_i2c.c **** *\*\          operation to I2C_STS1 (I2C_Flag_Get()) followed by writing the
1407:n32g430_std_periph_driver/src/n32g430_i2c.c **** *\*\          second byte of the address in DAT register.
1408:n32g430_std_periph_driver/src/n32g430_i2c.c **** *\*\        - BTF (Byte Transfer Finished) is cleared by software sequence: a read
1409:n32g430_std_periph_driver/src/n32g430_i2c.c **** *\*\          operation to I2C_STS1 register (I2C_Flag_Get()) followed by a
1410:n32g430_std_periph_driver/src/n32g430_i2c.c **** *\*\          read/write to I2C_DAT register (I2C_Data_Send()).
1411:n32g430_std_periph_driver/src/n32g430_i2c.c **** *\*\        - ADDR (Address sent) is cleared by software sequence: a read operation to
1412:n32g430_std_periph_driver/src/n32g430_i2c.c **** *\*\          I2C_STS1 register (I2C_Flag_Get()) followed by a read operation to
1413:n32g430_std_periph_driver/src/n32g430_i2c.c **** *\*\          I2C_STS2 register ((void)(I2Cx->STS2)).
1414:n32g430_std_periph_driver/src/n32g430_i2c.c **** *\*\        - SB (Start Bit) is cleared software sequence: a read operation to I2C_STS1
1415:n32g430_std_periph_driver/src/n32g430_i2c.c **** *\*\          register (I2C_Flag_Get()) followed by a write operation to I2C_DAT
1416:n32g430_std_periph_driver/src/n32g430_i2c.c **** *\*\          register (I2C_Data_Send()).
1417:n32g430_std_periph_driver/src/n32g430_i2c.c **** *\*\return  none
1418:n32g430_std_periph_driver/src/n32g430_i2c.c **** **/
1419:n32g430_std_periph_driver/src/n32g430_i2c.c **** void I2C_Flag_Status_Clear(I2C_Module* I2Cx, uint32_t I2C_flag)
1420:n32g430_std_periph_driver/src/n32g430_i2c.c **** {
 2144              		.loc 1 1420 1 is_stmt 1 view -0
 2145              		.cfi_startproc
 2146              		@ args = 0, pretend = 0, frame = 0
 2147              		@ frame_needed = 0, uses_anonymous_args = 0
 2148              		@ link register save eliminated.
1421:n32g430_std_periph_driver/src/n32g430_i2c.c ****     uint32_t temp_value = 0;
 2149              		.loc 1 1421 5 view .LVU522
1422:n32g430_std_periph_driver/src/n32g430_i2c.c **** 
1423:n32g430_std_periph_driver/src/n32g430_i2c.c ****     /* Get the I2C flag position */
1424:n32g430_std_periph_driver/src/n32g430_i2c.c ****     temp_value = I2C_flag & FLAG_MASK;
 2150              		.loc 1 1424 5 view .LVU523
 2151              		.loc 1 1424 16 is_stmt 0 view .LVU524
 2152 0000 21F07F41 		bic	r1, r1, #-16777216
 2153              	.LVL154:
1425:n32g430_std_periph_driver/src/n32g430_i2c.c ****     /* Clear the selected I2C flag */
ARM GAS  C:\Users\Dawn\AppData\Local\Temp\cc40VLyf.s 			page 63


1426:n32g430_std_periph_driver/src/n32g430_i2c.c ****     I2Cx->STS1 = (uint16_t)~temp_value;
 2154              		.loc 1 1426 5 is_stmt 1 view .LVU525
 2155              		.loc 1 1426 18 is_stmt 0 view .LVU526
 2156 0004 C943     		mvns	r1, r1
 2157              	.LVL155:
 2158              		.loc 1 1426 18 view .LVU527
 2159 0006 89B2     		uxth	r1, r1
 2160              	.LVL156:
 2161              		.loc 1 1426 16 view .LVU528
 2162 0008 8182     		strh	r1, [r0, #20]	@ movhi
1427:n32g430_std_periph_driver/src/n32g430_i2c.c **** }
 2163              		.loc 1 1427 1 view .LVU529
 2164 000a 7047     		bx	lr
 2165              		.cfi_endproc
 2166              	.LFE180:
 2168              		.section	.text.I2C_Interrupt_Status_Get,"ax",%progbits
 2169              		.align	1
 2170              		.global	I2C_Interrupt_Status_Get
 2171              		.syntax unified
 2172              		.thumb
 2173              		.thumb_func
 2175              	I2C_Interrupt_Status_Get:
 2176              	.LVL157:
 2177              	.LFB181:
1428:n32g430_std_periph_driver/src/n32g430_i2c.c **** 
1429:n32g430_std_periph_driver/src/n32g430_i2c.c **** /**
1430:n32g430_std_periph_driver/src/n32g430_i2c.c **** *\*\name    I2C_Interrupt_Status_Get.
1431:n32g430_std_periph_driver/src/n32g430_i2c.c **** *\*\fun     Checks whether the specified I2C interrupt has occurred or not.
1432:n32g430_std_periph_driver/src/n32g430_i2c.c **** *\*\param   I2Cx :
1433:n32g430_std_periph_driver/src/n32g430_i2c.c **** *\*\          - I2C1
1434:n32g430_std_periph_driver/src/n32g430_i2c.c **** *\*\          - I2C2
1435:n32g430_std_periph_driver/src/n32g430_i2c.c **** *\*\param   Interrupt :
1436:n32g430_std_periph_driver/src/n32g430_i2c.c **** *\*\          - I2C_INT_SMBALERT    SMBus Alert flag
1437:n32g430_std_periph_driver/src/n32g430_i2c.c **** *\*\          - I2C_INT_TIMOUT      Timeout or Tlow error flag
1438:n32g430_std_periph_driver/src/n32g430_i2c.c **** *\*\          - I2C_INT_PECERR      PEC error in reception flag
1439:n32g430_std_periph_driver/src/n32g430_i2c.c **** *\*\          - I2C_INT_OVERRUN     Overrun/Underrun flag (Slave mode)
1440:n32g430_std_periph_driver/src/n32g430_i2c.c **** *\*\          - I2C_INT_ACKFAIL     Acknowledge failure flag
1441:n32g430_std_periph_driver/src/n32g430_i2c.c **** *\*\          - I2C_INT_ARLOST      Arbitration lost flag (Master mode)
1442:n32g430_std_periph_driver/src/n32g430_i2c.c **** *\*\          - I2C_INT_BUSERR      Bus error flag
1443:n32g430_std_periph_driver/src/n32g430_i2c.c **** *\*\          - I2C_INT_TXDATE      Data register empty flag (Transmitter)
1444:n32g430_std_periph_driver/src/n32g430_i2c.c **** *\*\          - I2C_INT_RXDATNE     Data register not empty (Receiver) flag
1445:n32g430_std_periph_driver/src/n32g430_i2c.c **** *\*\          - I2C_INT_STOPF       Stop detection flag (Slave mode)
1446:n32g430_std_periph_driver/src/n32g430_i2c.c **** *\*\          - I2C_INT_ADDR10F     10-bit header sent flag (Master mode)
1447:n32g430_std_periph_driver/src/n32g430_i2c.c **** *\*\          - I2C_INT_BYTEF       Byte transfer finished flag
1448:n32g430_std_periph_driver/src/n32g430_i2c.c **** *\*\          - I2C_INT_ADDRF       Address sent flag (Master mode) "ADSL"
1449:n32g430_std_periph_driver/src/n32g430_i2c.c **** *\*\                                Address matched flag (Slave mode)"ENDAD"
1450:n32g430_std_periph_driver/src/n32g430_i2c.c **** *\*\          - I2C_INT_STARTBF     Start bit flag (Master mode)
1451:n32g430_std_periph_driver/src/n32g430_i2c.c **** *\*\return  SET or RESET
1452:n32g430_std_periph_driver/src/n32g430_i2c.c **** **/
1453:n32g430_std_periph_driver/src/n32g430_i2c.c **** INTStatus I2C_Interrupt_Status_Get(I2C_Module* I2Cx, uint32_t Interrupt)
1454:n32g430_std_periph_driver/src/n32g430_i2c.c **** {
 2178              		.loc 1 1454 1 is_stmt 1 view -0
 2179              		.cfi_startproc
 2180              		@ args = 0, pretend = 0, frame = 0
 2181              		@ frame_needed = 0, uses_anonymous_args = 0
 2182              		@ link register save eliminated.
1455:n32g430_std_periph_driver/src/n32g430_i2c.c ****     uint32_t temp_value = 0;
ARM GAS  C:\Users\Dawn\AppData\Local\Temp\cc40VLyf.s 			page 64


 2183              		.loc 1 1455 5 view .LVU531
1456:n32g430_std_periph_driver/src/n32g430_i2c.c **** 
1457:n32g430_std_periph_driver/src/n32g430_i2c.c ****     /* Check if the interrupt source is enabled or not */
1458:n32g430_std_periph_driver/src/n32g430_i2c.c ****     temp_value = (uint32_t)(((Interrupt & INTEN_MASK) >> 16) & (I2Cx->CTRL2));
 2184              		.loc 1 1458 5 view .LVU532
 2185              		.loc 1 1458 69 is_stmt 0 view .LVU533
 2186 0000 8388     		ldrh	r3, [r0, #4]
 2187              		.loc 1 1458 18 view .LVU534
 2188 0002 03EA1143 		and	r3, r3, r1, lsr #16
 2189              		.loc 1 1458 16 view .LVU535
 2190 0006 03F4E063 		and	r3, r3, #1792
 2191              	.LVL158:
1459:n32g430_std_periph_driver/src/n32g430_i2c.c **** 
1460:n32g430_std_periph_driver/src/n32g430_i2c.c ****     /* Get bit[23:0] of the flag */
1461:n32g430_std_periph_driver/src/n32g430_i2c.c ****     Interrupt &= FLAG_MASK;
 2192              		.loc 1 1461 5 is_stmt 1 view .LVU536
1462:n32g430_std_periph_driver/src/n32g430_i2c.c **** 
1463:n32g430_std_periph_driver/src/n32g430_i2c.c ****     /* Check the status of the specified I2C flag */
1464:n32g430_std_periph_driver/src/n32g430_i2c.c ****     if (((I2Cx->STS1 & Interrupt) != (uint32_t)RESET) && temp_value)
 2193              		.loc 1 1464 5 view .LVU537
 2194              		.loc 1 1464 15 is_stmt 0 view .LVU538
 2195 000a 828A     		ldrh	r2, [r0, #20]
 2196 000c 92B2     		uxth	r2, r2
 2197              		.loc 1 1464 8 view .LVU539
 2198 000e 1142     		tst	r1, r2
 2199 0010 02D0     		beq	.L105
 2200              		.loc 1 1464 55 discriminator 1 view .LVU540
 2201 0012 1BB9     		cbnz	r3, .L106
1465:n32g430_std_periph_driver/src/n32g430_i2c.c ****     {
1466:n32g430_std_periph_driver/src/n32g430_i2c.c ****         /* Interrupt is set */
1467:n32g430_std_periph_driver/src/n32g430_i2c.c ****         return SET;
1468:n32g430_std_periph_driver/src/n32g430_i2c.c ****     }
1469:n32g430_std_periph_driver/src/n32g430_i2c.c ****     else
1470:n32g430_std_periph_driver/src/n32g430_i2c.c ****     {
1471:n32g430_std_periph_driver/src/n32g430_i2c.c ****         /* Interrupt is reset */
1472:n32g430_std_periph_driver/src/n32g430_i2c.c ****         return RESET;
 2202              		.loc 1 1472 16 view .LVU541
 2203 0014 0020     		movs	r0, #0
 2204              	.LVL159:
 2205              		.loc 1 1472 16 view .LVU542
 2206 0016 7047     		bx	lr
 2207              	.LVL160:
 2208              	.L105:
 2209              		.loc 1 1472 16 view .LVU543
 2210 0018 0020     		movs	r0, #0
 2211              	.LVL161:
 2212              		.loc 1 1472 16 view .LVU544
 2213 001a 7047     		bx	lr
 2214              	.LVL162:
 2215              	.L106:
1467:n32g430_std_periph_driver/src/n32g430_i2c.c ****     }
 2216              		.loc 1 1467 16 view .LVU545
 2217 001c 0120     		movs	r0, #1
 2218              	.LVL163:
1473:n32g430_std_periph_driver/src/n32g430_i2c.c ****     }
1474:n32g430_std_periph_driver/src/n32g430_i2c.c **** }
 2219              		.loc 1 1474 1 view .LVU546
ARM GAS  C:\Users\Dawn\AppData\Local\Temp\cc40VLyf.s 			page 65


 2220 001e 7047     		bx	lr
 2221              		.cfi_endproc
 2222              	.LFE181:
 2224              		.section	.text.I2C_Interrupt_Statu_Clear,"ax",%progbits
 2225              		.align	1
 2226              		.global	I2C_Interrupt_Statu_Clear
 2227              		.syntax unified
 2228              		.thumb
 2229              		.thumb_func
 2231              	I2C_Interrupt_Statu_Clear:
 2232              	.LVL164:
 2233              	.LFB182:
1475:n32g430_std_periph_driver/src/n32g430_i2c.c **** 
1476:n32g430_std_periph_driver/src/n32g430_i2c.c **** /**
1477:n32g430_std_periph_driver/src/n32g430_i2c.c **** *\*\name    I2C_Interrupt_Statu_Clear.
1478:n32g430_std_periph_driver/src/n32g430_i2c.c **** *\*\fun     Clears the I2Cx's interrupt statu bits.
1479:n32g430_std_periph_driver/src/n32g430_i2c.c **** *\*\param   I2Cx :
1480:n32g430_std_periph_driver/src/n32g430_i2c.c **** *\*\          - I2C1
1481:n32g430_std_periph_driver/src/n32g430_i2c.c **** *\*\          - I2C2
1482:n32g430_std_periph_driver/src/n32g430_i2c.c **** *\*\param   Interrupt :
1483:n32g430_std_periph_driver/src/n32g430_i2c.c **** *\*\          - I2C_INT_SMBALERT    SMBus Alert flag
1484:n32g430_std_periph_driver/src/n32g430_i2c.c **** *\*\          - I2C_INT_TIMOUT      Timeout or Tlow error flag
1485:n32g430_std_periph_driver/src/n32g430_i2c.c **** *\*\          - I2C_INT_PECERR      PEC error in reception flag
1486:n32g430_std_periph_driver/src/n32g430_i2c.c **** *\*\          - I2C_INT_OVERRUN     Overrun/Underrun flag (Slave mode)
1487:n32g430_std_periph_driver/src/n32g430_i2c.c **** *\*\          - I2C_INT_ACKFAIL     Acknowledge failure flag
1488:n32g430_std_periph_driver/src/n32g430_i2c.c **** *\*\          - I2C_INT_ARLOST      Arbitration lost flag (Master mode)
1489:n32g430_std_periph_driver/src/n32g430_i2c.c **** *\*\          - I2C_INT_BUSERR      Bus error flag
1490:n32g430_std_periph_driver/src/n32g430_i2c.c **** *\*\note    - STOPF (STOP detection) is cleared by software sequence: a read operation
1491:n32g430_std_periph_driver/src/n32g430_i2c.c **** *\*\          to I2C_STS1 register (I2C_Flag_Get()) followed by a write operation
1492:n32g430_std_periph_driver/src/n32g430_i2c.c **** *\*\          to I2C_CTRL1 register (I2C_ON() to re-enable the I2C peripheral).
1493:n32g430_std_periph_driver/src/n32g430_i2c.c **** *\*\        - ADD10 (10-bit header sent) is cleared by software sequence: a read
1494:n32g430_std_periph_driver/src/n32g430_i2c.c **** *\*\          operation to I2C_STS1 (I2C_Flag_Get()) followed by writing the
1495:n32g430_std_periph_driver/src/n32g430_i2c.c **** *\*\          second byte of the address in DAT register.
1496:n32g430_std_periph_driver/src/n32g430_i2c.c **** *\*\        - BTF (Byte Transfer Finished) is cleared by software sequence: a read
1497:n32g430_std_periph_driver/src/n32g430_i2c.c **** *\*\          operation to I2C_STS1 register (I2C_Flag_Get()) followed by a
1498:n32g430_std_periph_driver/src/n32g430_i2c.c **** *\*\          read/write to I2C_DAT register (I2C_Data_Send()).
1499:n32g430_std_periph_driver/src/n32g430_i2c.c **** *\*\        - ADDR (Address sent) is cleared by software sequence: a read operation to
1500:n32g430_std_periph_driver/src/n32g430_i2c.c **** *\*\          I2C_STS1 register (I2C_Flag_Get()) followed by a read operation to
1501:n32g430_std_periph_driver/src/n32g430_i2c.c **** *\*\          I2C_STS2 register ((void)(I2Cx->STS2)).
1502:n32g430_std_periph_driver/src/n32g430_i2c.c **** *\*\        - SB (Start Bit) is cleared software sequence: a read operation to I2C_STS1
1503:n32g430_std_periph_driver/src/n32g430_i2c.c **** *\*\          register (I2C_Flag_Get()) followed by a write operation to I2C_DAT
1504:n32g430_std_periph_driver/src/n32g430_i2c.c **** *\*\          register (I2C_Data_Send()).
1505:n32g430_std_periph_driver/src/n32g430_i2c.c **** *\*\return  none
1506:n32g430_std_periph_driver/src/n32g430_i2c.c **** **/
1507:n32g430_std_periph_driver/src/n32g430_i2c.c **** void I2C_Interrupt_Statu_Clear(I2C_Module* I2Cx, uint32_t Interrupt)
1508:n32g430_std_periph_driver/src/n32g430_i2c.c **** {
 2234              		.loc 1 1508 1 is_stmt 1 view -0
 2235              		.cfi_startproc
 2236              		@ args = 0, pretend = 0, frame = 0
 2237              		@ frame_needed = 0, uses_anonymous_args = 0
 2238              		@ link register save eliminated.
1509:n32g430_std_periph_driver/src/n32g430_i2c.c ****     uint32_t temp_value = 0;
 2239              		.loc 1 1509 5 view .LVU548
1510:n32g430_std_periph_driver/src/n32g430_i2c.c **** 
1511:n32g430_std_periph_driver/src/n32g430_i2c.c ****     /* Get the I2C flag position */
1512:n32g430_std_periph_driver/src/n32g430_i2c.c ****     temp_value = Interrupt & FLAG_MASK;
 2240              		.loc 1 1512 5 view .LVU549
ARM GAS  C:\Users\Dawn\AppData\Local\Temp\cc40VLyf.s 			page 66


 2241              		.loc 1 1512 16 is_stmt 0 view .LVU550
 2242 0000 21F07F41 		bic	r1, r1, #-16777216
 2243              	.LVL165:
1513:n32g430_std_periph_driver/src/n32g430_i2c.c ****     /* Clear the selected I2C flag */
1514:n32g430_std_periph_driver/src/n32g430_i2c.c ****     I2Cx->STS1 = (uint16_t)~temp_value;
 2244              		.loc 1 1514 5 is_stmt 1 view .LVU551
 2245              		.loc 1 1514 18 is_stmt 0 view .LVU552
 2246 0004 C943     		mvns	r1, r1
 2247              	.LVL166:
 2248              		.loc 1 1514 18 view .LVU553
 2249 0006 89B2     		uxth	r1, r1
 2250              	.LVL167:
 2251              		.loc 1 1514 16 view .LVU554
 2252 0008 8182     		strh	r1, [r0, #20]	@ movhi
1515:n32g430_std_periph_driver/src/n32g430_i2c.c **** }
 2253              		.loc 1 1515 1 view .LVU555
 2254 000a 7047     		bx	lr
 2255              		.cfi_endproc
 2256              	.LFE182:
 2258              		.text
 2259              	.Letext0:
 2260              		.file 2 "D:/Tools/arm-gnu-toolchain/arm-none-eabi/include/machine/_default_types.h"
 2261              		.file 3 "D:/Tools/arm-gnu-toolchain/arm-none-eabi/include/sys/_stdint.h"
 2262              		.file 4 "CMSIS/device/n32g430.h"
 2263              		.file 5 "n32g430_std_periph_driver/inc/n32g430_rcc.h"
 2264              		.file 6 "n32g430_std_periph_driver/inc/n32g430_i2c.h"
ARM GAS  C:\Users\Dawn\AppData\Local\Temp\cc40VLyf.s 			page 67

