ARM GAS  C:\Users\Dawn\AppData\Local\Temp\ccf7B1Wd.s 			page 1


   1              		.cpu cortex-m4
   2              		.arch armv7e-m
   3              		.fpu softvfp
   4              		.eabi_attribute 23, 1
   5              		.eabi_attribute 24, 1
   6              		.eabi_attribute 25, 1
   7              		.eabi_attribute 26, 1
   8              		.eabi_attribute 30, 1
   9              		.eabi_attribute 34, 1
  10              		.eabi_attribute 18, 4
  11              		.file	"n32g430_tim.c"
  12              		.text
  13              	.Ltext0:
  14              		.cfi_sections	.debug_frame
  15              		.file 1 "n32g430_std_periph_driver/src/n32g430_tim.c"
  16              		.section	.text.TIM_Reset,"ax",%progbits
  17              		.align	1
  18              		.global	TIM_Reset
  19              		.syntax unified
  20              		.thumb
  21              		.thumb_func
  23              	TIM_Reset:
  24              	.LVL0:
  25              	.LFB123:
   1:n32g430_std_periph_driver/src/n32g430_tim.c **** /**
   2:n32g430_std_periph_driver/src/n32g430_tim.c **** *     Copyright (c) 2022, Nations Technologies Inc.
   3:n32g430_std_periph_driver/src/n32g430_tim.c **** * 
   4:n32g430_std_periph_driver/src/n32g430_tim.c **** *     All rights reserved.
   5:n32g430_std_periph_driver/src/n32g430_tim.c **** *
   6:n32g430_std_periph_driver/src/n32g430_tim.c **** *     This software is the exclusive property of Nations Technologies Inc. (Hereinafter 
   7:n32g430_std_periph_driver/src/n32g430_tim.c **** * referred to as NATIONS). This software, and the product of NATIONS described herein 
   8:n32g430_std_periph_driver/src/n32g430_tim.c **** * (Hereinafter referred to as the Product) are owned by NATIONS under the laws and treaties
   9:n32g430_std_periph_driver/src/n32g430_tim.c **** * of the People's Republic of China and other applicable jurisdictions worldwide.
  10:n32g430_std_periph_driver/src/n32g430_tim.c **** *
  11:n32g430_std_periph_driver/src/n32g430_tim.c **** *     NATIONS does not grant any license under its patents, copyrights, trademarks, or other 
  12:n32g430_std_periph_driver/src/n32g430_tim.c **** * intellectual property rights. Names and brands of third party may be mentioned or referred 
  13:n32g430_std_periph_driver/src/n32g430_tim.c **** * thereto (if any) for identification purposes only.
  14:n32g430_std_periph_driver/src/n32g430_tim.c **** *
  15:n32g430_std_periph_driver/src/n32g430_tim.c **** *     NATIONS reserves the right to make changes, corrections, enhancements, modifications, and 
  16:n32g430_std_periph_driver/src/n32g430_tim.c **** * improvements to this software at any time without notice. Please contact NATIONS and obtain 
  17:n32g430_std_periph_driver/src/n32g430_tim.c **** * the latest version of this software before placing orders.
  18:n32g430_std_periph_driver/src/n32g430_tim.c **** 
  19:n32g430_std_periph_driver/src/n32g430_tim.c **** *     Although NATIONS has attempted to provide accurate and reliable information, NATIONS assumes 
  20:n32g430_std_periph_driver/src/n32g430_tim.c **** * no responsibility for the accuracy and reliability of this software.
  21:n32g430_std_periph_driver/src/n32g430_tim.c **** * 
  22:n32g430_std_periph_driver/src/n32g430_tim.c **** *     It is the responsibility of the user of this software to properly design, program, and test 
  23:n32g430_std_periph_driver/src/n32g430_tim.c **** * the functionality and safety of any application made of this information and any resulting produc
  24:n32g430_std_periph_driver/src/n32g430_tim.c **** * In no event shall NATIONS be liable for any direct, indirect, incidental, special,exemplary, or 
  25:n32g430_std_periph_driver/src/n32g430_tim.c **** * consequential damages arising in any way out of the use of this software or the Product.
  26:n32g430_std_periph_driver/src/n32g430_tim.c **** *
  27:n32g430_std_periph_driver/src/n32g430_tim.c **** *     NATIONS Products are neither intended nor warranted for usage in systems or equipment, any
  28:n32g430_std_periph_driver/src/n32g430_tim.c **** * malfunction or failure of which may cause loss of human life, bodily injury or severe property 
  29:n32g430_std_periph_driver/src/n32g430_tim.c **** * damage. Such applications are deemed, "Insecure Usage".
  30:n32g430_std_periph_driver/src/n32g430_tim.c **** *
  31:n32g430_std_periph_driver/src/n32g430_tim.c **** *     All Insecure Usage shall be made at user's risk. User shall indemnify NATIONS and hold NATION
  32:n32g430_std_periph_driver/src/n32g430_tim.c **** * harmless from and against all claims, costs, damages, and other liabilities, arising from or rela
  33:n32g430_std_periph_driver/src/n32g430_tim.c **** * to any customer's Insecure Usage.
ARM GAS  C:\Users\Dawn\AppData\Local\Temp\ccf7B1Wd.s 			page 2


  34:n32g430_std_periph_driver/src/n32g430_tim.c **** 
  35:n32g430_std_periph_driver/src/n32g430_tim.c **** *     Any express or implied warranty with regard to this software or the Product, including,but no
  36:n32g430_std_periph_driver/src/n32g430_tim.c **** * limited to, the warranties of merchantability, fitness for a particular purpose and non-infringem
  37:n32g430_std_periph_driver/src/n32g430_tim.c **** * are disclaimed to the fullest extent permitted by law.
  38:n32g430_std_periph_driver/src/n32g430_tim.c **** 
  39:n32g430_std_periph_driver/src/n32g430_tim.c **** *     Unless otherwise explicitly permitted by NATIONS, anyone may not duplicate, modify, transcrib
  40:n32g430_std_periph_driver/src/n32g430_tim.c **** * or otherwise distribute this software for any purposes, in whole or in part.
  41:n32g430_std_periph_driver/src/n32g430_tim.c **** *
  42:n32g430_std_periph_driver/src/n32g430_tim.c **** *     NATIONS products and technologies shall not be used for or incorporated into any products or 
  43:n32g430_std_periph_driver/src/n32g430_tim.c **** * whose manufacture, use, or sale is prohibited under any applicable domestic or foreign laws or re
  44:n32g430_std_periph_driver/src/n32g430_tim.c **** * User shall comply with any applicable export control laws and regulations promulgated and adminis
  45:n32g430_std_periph_driver/src/n32g430_tim.c **** * the governments of any countries asserting jurisdiction over the parties or transactions.
  46:n32g430_std_periph_driver/src/n32g430_tim.c **** **/
  47:n32g430_std_periph_driver/src/n32g430_tim.c **** 
  48:n32g430_std_periph_driver/src/n32g430_tim.c **** /**
  49:n32g430_std_periph_driver/src/n32g430_tim.c **** *\*\file n32g430_tim.c
  50:n32g430_std_periph_driver/src/n32g430_tim.c **** *\*\author Nations
  51:n32g430_std_periph_driver/src/n32g430_tim.c **** *\*\version v1.0.1
  52:n32g430_std_periph_driver/src/n32g430_tim.c **** *\*\copyright Copyright (c) 2022, Nations Technologies Inc. All rights reserved.
  53:n32g430_std_periph_driver/src/n32g430_tim.c **** **/
  54:n32g430_std_periph_driver/src/n32g430_tim.c **** #include "n32g430_tim.h"
  55:n32g430_std_periph_driver/src/n32g430_tim.c **** #include "n32g430_rcc.h"
  56:n32g430_std_periph_driver/src/n32g430_tim.c **** 
  57:n32g430_std_periph_driver/src/n32g430_tim.c **** /**
  58:n32g430_std_periph_driver/src/n32g430_tim.c **** *\*\name    TIM_Reset.
  59:n32g430_std_periph_driver/src/n32g430_tim.c **** *\*\fun     Reset the TIM registers.
  60:n32g430_std_periph_driver/src/n32g430_tim.c **** *\*\param   TIMx :
  61:n32g430_std_periph_driver/src/n32g430_tim.c **** *\*\          - TIM1
  62:n32g430_std_periph_driver/src/n32g430_tim.c **** *\*\          - TIM2
  63:n32g430_std_periph_driver/src/n32g430_tim.c **** *\*\          - TIM3
  64:n32g430_std_periph_driver/src/n32g430_tim.c **** *\*\          - TIM4
  65:n32g430_std_periph_driver/src/n32g430_tim.c **** *\*\          - TIM5
  66:n32g430_std_periph_driver/src/n32g430_tim.c **** *\*\          - TIM6
  67:n32g430_std_periph_driver/src/n32g430_tim.c **** *\*\          - TIM8
  68:n32g430_std_periph_driver/src/n32g430_tim.c **** *\*\return  none
  69:n32g430_std_periph_driver/src/n32g430_tim.c **** **/
  70:n32g430_std_periph_driver/src/n32g430_tim.c **** void TIM_Reset(TIM_Module* TIMx)
  71:n32g430_std_periph_driver/src/n32g430_tim.c **** {
  26              		.loc 1 71 1 view -0
  27              		.cfi_startproc
  28              		@ args = 0, pretend = 0, frame = 0
  29              		@ frame_needed = 0, uses_anonymous_args = 0
  30              		.loc 1 71 1 is_stmt 0 view .LVU1
  31 0000 08B5     		push	{r3, lr}
  32              	.LCFI0:
  33              		.cfi_def_cfa_offset 8
  34              		.cfi_offset 3, -8
  35              		.cfi_offset 14, -4
  72:n32g430_std_periph_driver/src/n32g430_tim.c **** 
  73:n32g430_std_periph_driver/src/n32g430_tim.c ****     if (TIMx == TIM1)
  36              		.loc 1 73 5 is_stmt 1 view .LVU2
  37              		.loc 1 73 8 is_stmt 0 view .LVU3
  38 0002 1A4B     		ldr	r3, .L17
  39 0004 9842     		cmp	r0, r3
  40 0006 12D0     		beq	.L10
  74:n32g430_std_periph_driver/src/n32g430_tim.c ****     {
  75:n32g430_std_periph_driver/src/n32g430_tim.c ****         RCC_APB2_Peripheral_Reset(RCC_APB2_PERIPH_TIM1);
ARM GAS  C:\Users\Dawn\AppData\Local\Temp\ccf7B1Wd.s 			page 3


  76:n32g430_std_periph_driver/src/n32g430_tim.c ****     }
  77:n32g430_std_periph_driver/src/n32g430_tim.c ****     else if (TIMx == TIM2)
  41              		.loc 1 77 10 is_stmt 1 view .LVU4
  42              		.loc 1 77 13 is_stmt 0 view .LVU5
  43 0008 B0F1804F 		cmp	r0, #1073741824
  44 000c 14D0     		beq	.L11
  78:n32g430_std_periph_driver/src/n32g430_tim.c ****     {
  79:n32g430_std_periph_driver/src/n32g430_tim.c ****         RCC_APB1_Peripheral_Reset(RCC_APB1_PERIPH_TIM2);
  80:n32g430_std_periph_driver/src/n32g430_tim.c ****     }
  81:n32g430_std_periph_driver/src/n32g430_tim.c ****     else if (TIMx == TIM3)
  45              		.loc 1 81 10 is_stmt 1 view .LVU6
  46              		.loc 1 81 13 is_stmt 0 view .LVU7
  47 000e 184B     		ldr	r3, .L17+4
  48 0010 9842     		cmp	r0, r3
  49 0012 15D0     		beq	.L12
  82:n32g430_std_periph_driver/src/n32g430_tim.c ****     {
  83:n32g430_std_periph_driver/src/n32g430_tim.c ****         RCC_APB1_Peripheral_Reset(RCC_APB1_PERIPH_TIM3);
  84:n32g430_std_periph_driver/src/n32g430_tim.c ****     }
  85:n32g430_std_periph_driver/src/n32g430_tim.c ****     else if (TIMx == TIM4)
  50              		.loc 1 85 10 is_stmt 1 view .LVU8
  51              		.loc 1 85 13 is_stmt 0 view .LVU9
  52 0014 174B     		ldr	r3, .L17+8
  53 0016 9842     		cmp	r0, r3
  54 0018 16D0     		beq	.L13
  86:n32g430_std_periph_driver/src/n32g430_tim.c ****     {
  87:n32g430_std_periph_driver/src/n32g430_tim.c ****         RCC_APB1_Peripheral_Reset(RCC_APB1_PERIPH_TIM4);
  88:n32g430_std_periph_driver/src/n32g430_tim.c ****     }
  89:n32g430_std_periph_driver/src/n32g430_tim.c ****     else if (TIMx == TIM5)
  55              		.loc 1 89 10 is_stmt 1 view .LVU10
  56              		.loc 1 89 13 is_stmt 0 view .LVU11
  57 001a 174B     		ldr	r3, .L17+12
  58 001c 9842     		cmp	r0, r3
  59 001e 17D0     		beq	.L14
  90:n32g430_std_periph_driver/src/n32g430_tim.c ****     {
  91:n32g430_std_periph_driver/src/n32g430_tim.c ****         RCC_APB1_Peripheral_Reset(RCC_APB1_PERIPH_TIM5);
  92:n32g430_std_periph_driver/src/n32g430_tim.c ****     }
  93:n32g430_std_periph_driver/src/n32g430_tim.c ****     else if (TIMx == TIM6)
  60              		.loc 1 93 10 is_stmt 1 view .LVU12
  61              		.loc 1 93 13 is_stmt 0 view .LVU13
  62 0020 164B     		ldr	r3, .L17+16
  63 0022 9842     		cmp	r0, r3
  64 0024 18D0     		beq	.L15
  94:n32g430_std_periph_driver/src/n32g430_tim.c ****     {
  95:n32g430_std_periph_driver/src/n32g430_tim.c ****         RCC_APB1_Peripheral_Reset(RCC_APB1_PERIPH_TIM6);
  96:n32g430_std_periph_driver/src/n32g430_tim.c ****     }
  97:n32g430_std_periph_driver/src/n32g430_tim.c **** 
  98:n32g430_std_periph_driver/src/n32g430_tim.c ****     else if (TIMx == TIM8)
  65              		.loc 1 98 10 is_stmt 1 view .LVU14
  66              		.loc 1 98 13 is_stmt 0 view .LVU15
  67 0026 164B     		ldr	r3, .L17+20
  68 0028 9842     		cmp	r0, r3
  69 002a 19D0     		beq	.L16
  70              	.LVL1:
  71              	.L1:
  99:n32g430_std_periph_driver/src/n32g430_tim.c ****     {
 100:n32g430_std_periph_driver/src/n32g430_tim.c ****         RCC_APB2_Peripheral_Reset(RCC_APB2_PERIPH_TIM8);
 101:n32g430_std_periph_driver/src/n32g430_tim.c ****     }
ARM GAS  C:\Users\Dawn\AppData\Local\Temp\ccf7B1Wd.s 			page 4


 102:n32g430_std_periph_driver/src/n32g430_tim.c **** }
  72              		.loc 1 102 1 view .LVU16
  73 002c 08BD     		pop	{r3, pc}
  74              	.LVL2:
  75              	.L10:
  75:n32g430_std_periph_driver/src/n32g430_tim.c ****     }
  76              		.loc 1 75 9 is_stmt 1 view .LVU17
  77 002e 4FF40060 		mov	r0, #2048
  78              	.LVL3:
  75:n32g430_std_periph_driver/src/n32g430_tim.c ****     }
  79              		.loc 1 75 9 is_stmt 0 view .LVU18
  80 0032 FFF7FEFF 		bl	RCC_APB2_Peripheral_Reset
  81              	.LVL4:
  82 0036 F9E7     		b	.L1
  83              	.LVL5:
  84              	.L11:
  79:n32g430_std_periph_driver/src/n32g430_tim.c ****     }
  85              		.loc 1 79 9 is_stmt 1 view .LVU19
  86 0038 0120     		movs	r0, #1
  87              	.LVL6:
  79:n32g430_std_periph_driver/src/n32g430_tim.c ****     }
  88              		.loc 1 79 9 is_stmt 0 view .LVU20
  89 003a FFF7FEFF 		bl	RCC_APB1_Peripheral_Reset
  90              	.LVL7:
  91 003e F5E7     		b	.L1
  92              	.LVL8:
  93              	.L12:
  83:n32g430_std_periph_driver/src/n32g430_tim.c ****     }
  94              		.loc 1 83 9 is_stmt 1 view .LVU21
  95 0040 0220     		movs	r0, #2
  96              	.LVL9:
  83:n32g430_std_periph_driver/src/n32g430_tim.c ****     }
  97              		.loc 1 83 9 is_stmt 0 view .LVU22
  98 0042 FFF7FEFF 		bl	RCC_APB1_Peripheral_Reset
  99              	.LVL10:
 100 0046 F1E7     		b	.L1
 101              	.LVL11:
 102              	.L13:
  87:n32g430_std_periph_driver/src/n32g430_tim.c ****     }
 103              		.loc 1 87 9 is_stmt 1 view .LVU23
 104 0048 0420     		movs	r0, #4
 105              	.LVL12:
  87:n32g430_std_periph_driver/src/n32g430_tim.c ****     }
 106              		.loc 1 87 9 is_stmt 0 view .LVU24
 107 004a FFF7FEFF 		bl	RCC_APB1_Peripheral_Reset
 108              	.LVL13:
 109 004e EDE7     		b	.L1
 110              	.LVL14:
 111              	.L14:
  91:n32g430_std_periph_driver/src/n32g430_tim.c ****     }
 112              		.loc 1 91 9 is_stmt 1 view .LVU25
 113 0050 0820     		movs	r0, #8
 114              	.LVL15:
  91:n32g430_std_periph_driver/src/n32g430_tim.c ****     }
 115              		.loc 1 91 9 is_stmt 0 view .LVU26
 116 0052 FFF7FEFF 		bl	RCC_APB1_Peripheral_Reset
 117              	.LVL16:
ARM GAS  C:\Users\Dawn\AppData\Local\Temp\ccf7B1Wd.s 			page 5


 118 0056 E9E7     		b	.L1
 119              	.LVL17:
 120              	.L15:
  95:n32g430_std_periph_driver/src/n32g430_tim.c ****     }
 121              		.loc 1 95 9 is_stmt 1 view .LVU27
 122 0058 1020     		movs	r0, #16
 123              	.LVL18:
  95:n32g430_std_periph_driver/src/n32g430_tim.c ****     }
 124              		.loc 1 95 9 is_stmt 0 view .LVU28
 125 005a FFF7FEFF 		bl	RCC_APB1_Peripheral_Reset
 126              	.LVL19:
 127 005e E5E7     		b	.L1
 128              	.LVL20:
 129              	.L16:
 100:n32g430_std_periph_driver/src/n32g430_tim.c ****     }
 130              		.loc 1 100 9 is_stmt 1 view .LVU29
 131 0060 4FF40050 		mov	r0, #8192
 132              	.LVL21:
 100:n32g430_std_periph_driver/src/n32g430_tim.c ****     }
 133              		.loc 1 100 9 is_stmt 0 view .LVU30
 134 0064 FFF7FEFF 		bl	RCC_APB2_Peripheral_Reset
 135              	.LVL22:
 136              		.loc 1 102 1 view .LVU31
 137 0068 E0E7     		b	.L1
 138              	.L18:
 139 006a 00BF     		.align	2
 140              	.L17:
 141 006c 002C0140 		.word	1073818624
 142 0070 00040040 		.word	1073742848
 143 0074 00080040 		.word	1073743872
 144 0078 000C0040 		.word	1073744896
 145 007c 00100040 		.word	1073745920
 146 0080 00340140 		.word	1073820672
 147              		.cfi_endproc
 148              	.LFE123:
 150              		.section	.text.TIM_Base_Count_Mode_Set,"ax",%progbits
 151              		.align	1
 152              		.global	TIM_Base_Count_Mode_Set
 153              		.syntax unified
 154              		.thumb
 155              		.thumb_func
 157              	TIM_Base_Count_Mode_Set:
 158              	.LVL23:
 159              	.LFB124:
 103:n32g430_std_periph_driver/src/n32g430_tim.c **** 
 104:n32g430_std_periph_driver/src/n32g430_tim.c **** /**
 105:n32g430_std_periph_driver/src/n32g430_tim.c **** *\*\name    TIM_Base_Count_Mode_Set.
 106:n32g430_std_periph_driver/src/n32g430_tim.c **** *\*\fun     Initializes the TIM cnt mode in up mode or down mode.
 107:n32g430_std_periph_driver/src/n32g430_tim.c **** *\*\param   TIMx:
 108:n32g430_std_periph_driver/src/n32g430_tim.c **** *\*\          - TIM1
 109:n32g430_std_periph_driver/src/n32g430_tim.c **** *\*\          - TIM2
 110:n32g430_std_periph_driver/src/n32g430_tim.c **** *\*\          - TIM3
 111:n32g430_std_periph_driver/src/n32g430_tim.c **** *\*\          - TIM4
 112:n32g430_std_periph_driver/src/n32g430_tim.c **** *\*\          - TIM5
 113:n32g430_std_periph_driver/src/n32g430_tim.c **** *\*\          - TIM8
 114:n32g430_std_periph_driver/src/n32g430_tim.c **** *\*\param   cnt_mode
 115:n32g430_std_periph_driver/src/n32g430_tim.c **** *\*\          - TIM_CNT_MODE_UP
ARM GAS  C:\Users\Dawn\AppData\Local\Temp\ccf7B1Wd.s 			page 6


 116:n32g430_std_periph_driver/src/n32g430_tim.c **** *\*\          - TIM_CNT_MODE_DOWN
 117:n32g430_std_periph_driver/src/n32g430_tim.c **** *\*\          - TIM_CNT_MODE_CENTER_ALIGN1    TIM Center Aligned Mode1
 118:n32g430_std_periph_driver/src/n32g430_tim.c **** *\*\          - TIM_CNT_MODE_CENTER_ALIGN2    TIM Center Aligned Mode2
 119:n32g430_std_periph_driver/src/n32g430_tim.c **** *\*\          - TIM_CNT_MODE_CENTER_ALIGN3    TIM Center Aligned Mode3
 120:n32g430_std_periph_driver/src/n32g430_tim.c **** *\*\return  none
 121:n32g430_std_periph_driver/src/n32g430_tim.c **** *\*\note    The counting direction of TIM6 is fixed upward counting
 122:n32g430_std_periph_driver/src/n32g430_tim.c **** **/
 123:n32g430_std_periph_driver/src/n32g430_tim.c **** void TIM_Base_Count_Mode_Set(TIM_Module* TIMx, uint32_t cnt_mode)
 124:n32g430_std_periph_driver/src/n32g430_tim.c **** {
 160              		.loc 1 124 1 is_stmt 1 view -0
 161              		.cfi_startproc
 162              		@ args = 0, pretend = 0, frame = 0
 163              		@ frame_needed = 0, uses_anonymous_args = 0
 164              		@ link register save eliminated.
 125:n32g430_std_periph_driver/src/n32g430_tim.c ****     uint32_t temp_value = 0;
 165              		.loc 1 125 5 view .LVU33
 126:n32g430_std_periph_driver/src/n32g430_tim.c **** 
 127:n32g430_std_periph_driver/src/n32g430_tim.c ****     temp_value = TIMx->CTRL1;
 166              		.loc 1 127 5 view .LVU34
 167              		.loc 1 127 16 is_stmt 0 view .LVU35
 168 0000 0368     		ldr	r3, [r0]
 169              	.LVL24:
 128:n32g430_std_periph_driver/src/n32g430_tim.c ****     /* Reset the CMS and DIR Bits */
 129:n32g430_std_periph_driver/src/n32g430_tim.c ****     temp_value &= (uint32_t)(~((uint32_t)(TIM_CTRL1_DIR | TIM_CTRL1_CAMSEL)));
 170              		.loc 1 129 5 is_stmt 1 view .LVU36
 171              		.loc 1 129 16 is_stmt 0 view .LVU37
 172 0002 23F07003 		bic	r3, r3, #112
 173              	.LVL25:
 130:n32g430_std_periph_driver/src/n32g430_tim.c ****     /* Set the Counter Mode */
 131:n32g430_std_periph_driver/src/n32g430_tim.c ****     temp_value |= cnt_mode;
 174              		.loc 1 131 5 is_stmt 1 view .LVU38
 175              		.loc 1 131 16 is_stmt 0 view .LVU39
 176 0006 0B43     		orrs	r3, r3, r1
 177              	.LVL26:
 132:n32g430_std_periph_driver/src/n32g430_tim.c ****     /* Write to TIMx CTRL1 register */
 133:n32g430_std_periph_driver/src/n32g430_tim.c ****     TIMx->CTRL1 = temp_value;
 178              		.loc 1 133 5 is_stmt 1 view .LVU40
 179              		.loc 1 133 17 is_stmt 0 view .LVU41
 180 0008 0360     		str	r3, [r0]
 134:n32g430_std_periph_driver/src/n32g430_tim.c **** }
 181              		.loc 1 134 1 view .LVU42
 182 000a 7047     		bx	lr
 183              		.cfi_endproc
 184              	.LFE124:
 186              		.section	.text.TIM_Base_Center_Aligned_Mode_OC4_7_8_9_Trigger_Set,"ax",%progbits
 187              		.align	1
 188              		.global	TIM_Base_Center_Aligned_Mode_OC4_7_8_9_Trigger_Set
 189              		.syntax unified
 190              		.thumb
 191              		.thumb_func
 193              	TIM_Base_Center_Aligned_Mode_OC4_7_8_9_Trigger_Set:
 194              	.LVL27:
 195              	.LFB125:
 135:n32g430_std_periph_driver/src/n32g430_tim.c **** 
 136:n32g430_std_periph_driver/src/n32g430_tim.c **** /**
 137:n32g430_std_periph_driver/src/n32g430_tim.c **** *\*\name    TIM_Base_Center_Aligned_Mode_OC4_7_8_9_Trigger_Set.
 138:n32g430_std_periph_driver/src/n32g430_tim.c **** *\*\param   TIMx:
ARM GAS  C:\Users\Dawn\AppData\Local\Temp\ccf7B1Wd.s 			page 7


 139:n32g430_std_periph_driver/src/n32g430_tim.c **** *\*\          - TIM1
 140:n32g430_std_periph_driver/src/n32g430_tim.c **** *\*\param   trigger_mode_in_center_aligned_mode
 141:n32g430_std_periph_driver/src/n32g430_tim.c **** *\*\          - TIM_UP_COUNTING_OC4_7_8_9_TRIGGER_VALID
 142:n32g430_std_periph_driver/src/n32g430_tim.c **** *\*\          - TIM_DOWN_COUNTING_OC4_7_8_9_TRIGGER_VALID
 143:n32g430_std_periph_driver/src/n32g430_tim.c **** *\*\          - TIM_UP_DOWN_COUNTING_OC4_7_8_9_TRIGGER_VALID
 144:n32g430_std_periph_driver/src/n32g430_tim.c **** *\*\return  none
 145:n32g430_std_periph_driver/src/n32g430_tim.c **** **/
 146:n32g430_std_periph_driver/src/n32g430_tim.c **** void TIM_Base_Center_Aligned_Mode_OC4_7_8_9_Trigger_Set(TIM_Module* TIMx, uint32_t trigger_mode_in_
 147:n32g430_std_periph_driver/src/n32g430_tim.c **** {
 196              		.loc 1 147 1 is_stmt 1 view -0
 197              		.cfi_startproc
 198              		@ args = 0, pretend = 0, frame = 0
 199              		@ frame_needed = 0, uses_anonymous_args = 0
 200              		@ link register save eliminated.
 148:n32g430_std_periph_driver/src/n32g430_tim.c ****     uint32_t temp_value = 0;
 201              		.loc 1 148 5 view .LVU44
 149:n32g430_std_periph_driver/src/n32g430_tim.c **** 
 150:n32g430_std_periph_driver/src/n32g430_tim.c ****     temp_value = TIMx->CTRL1;
 202              		.loc 1 150 5 view .LVU45
 203              		.loc 1 150 16 is_stmt 0 view .LVU46
 204 0000 0368     		ldr	r3, [r0]
 205              	.LVL28:
 151:n32g430_std_periph_driver/src/n32g430_tim.c ****     /* Reset the CMS and DIR Bits */
 152:n32g430_std_periph_driver/src/n32g430_tim.c ****     temp_value &= (uint32_t)(~((uint32_t)TIM_CENTER_ALIGNED_OC4_7_8_9_MASK));
 206              		.loc 1 152 5 is_stmt 1 view .LVU47
 207              		.loc 1 152 16 is_stmt 0 view .LVU48
 208 0002 23F44013 		bic	r3, r3, #3145728
 209              	.LVL29:
 153:n32g430_std_periph_driver/src/n32g430_tim.c ****     /* Set the Counter Mode */
 154:n32g430_std_periph_driver/src/n32g430_tim.c ****     temp_value |= trigger_mode_in_center_aligned_mode;
 210              		.loc 1 154 5 is_stmt 1 view .LVU49
 211              		.loc 1 154 16 is_stmt 0 view .LVU50
 212 0006 0B43     		orrs	r3, r3, r1
 213              	.LVL30:
 155:n32g430_std_periph_driver/src/n32g430_tim.c ****     /* Write to TIMx CTRL1 register */
 156:n32g430_std_periph_driver/src/n32g430_tim.c ****     TIMx->CTRL1 = temp_value;
 214              		.loc 1 156 5 is_stmt 1 view .LVU51
 215              		.loc 1 156 17 is_stmt 0 view .LVU52
 216 0008 0360     		str	r3, [r0]
 157:n32g430_std_periph_driver/src/n32g430_tim.c **** }
 217              		.loc 1 157 1 view .LVU53
 218 000a 7047     		bx	lr
 219              		.cfi_endproc
 220              	.LFE125:
 222              		.section	.text.TIM_Asymmetric_Enable,"ax",%progbits
 223              		.align	1
 224              		.global	TIM_Asymmetric_Enable
 225              		.syntax unified
 226              		.thumb
 227              		.thumb_func
 229              	TIM_Asymmetric_Enable:
 230              	.LVL31:
 231              	.LFB126:
 158:n32g430_std_periph_driver/src/n32g430_tim.c **** 
 159:n32g430_std_periph_driver/src/n32g430_tim.c **** 
 160:n32g430_std_periph_driver/src/n32g430_tim.c **** /**
 161:n32g430_std_periph_driver/src/n32g430_tim.c **** *\*\name    TIM_Asymmetric_Enable.
ARM GAS  C:\Users\Dawn\AppData\Local\Temp\ccf7B1Wd.s 			page 8


 162:n32g430_std_periph_driver/src/n32g430_tim.c **** *\*\param   TIMx:
 163:n32g430_std_periph_driver/src/n32g430_tim.c **** *\*\          - TIM1
 164:n32g430_std_periph_driver/src/n32g430_tim.c **** *\*\return  none
 165:n32g430_std_periph_driver/src/n32g430_tim.c **** **/
 166:n32g430_std_periph_driver/src/n32g430_tim.c **** void TIM_Asymmetric_Enable(TIM_Module* TIMx)
 167:n32g430_std_periph_driver/src/n32g430_tim.c **** {
 232              		.loc 1 167 1 is_stmt 1 view -0
 233              		.cfi_startproc
 234              		@ args = 0, pretend = 0, frame = 0
 235              		@ frame_needed = 0, uses_anonymous_args = 0
 236              		@ link register save eliminated.
 168:n32g430_std_periph_driver/src/n32g430_tim.c ****     TIMx->CTRL1 |= TIM_ASMMETRIC_ENABLE;
 237              		.loc 1 168 5 view .LVU55
 238              		.loc 1 168 9 is_stmt 0 view .LVU56
 239 0000 0368     		ldr	r3, [r0]
 240              		.loc 1 168 17 view .LVU57
 241 0002 43F48023 		orr	r3, r3, #262144
 242 0006 0360     		str	r3, [r0]
 169:n32g430_std_periph_driver/src/n32g430_tim.c **** }
 243              		.loc 1 169 1 view .LVU58
 244 0008 7047     		bx	lr
 245              		.cfi_endproc
 246              	.LFE126:
 248              		.section	.text.TIM_Asymmetric_Disable,"ax",%progbits
 249              		.align	1
 250              		.global	TIM_Asymmetric_Disable
 251              		.syntax unified
 252              		.thumb
 253              		.thumb_func
 255              	TIM_Asymmetric_Disable:
 256              	.LVL32:
 257              	.LFB127:
 170:n32g430_std_periph_driver/src/n32g430_tim.c **** 
 171:n32g430_std_periph_driver/src/n32g430_tim.c **** /**
 172:n32g430_std_periph_driver/src/n32g430_tim.c **** *\*\name    TIM_Asymmetric_Disable.
 173:n32g430_std_periph_driver/src/n32g430_tim.c **** *\*\param   TIMx:
 174:n32g430_std_periph_driver/src/n32g430_tim.c **** *\*\          - TIM1
 175:n32g430_std_periph_driver/src/n32g430_tim.c **** *\*\return  none
 176:n32g430_std_periph_driver/src/n32g430_tim.c **** **/
 177:n32g430_std_periph_driver/src/n32g430_tim.c **** void TIM_Asymmetric_Disable(TIM_Module* TIMx)
 178:n32g430_std_periph_driver/src/n32g430_tim.c **** {
 258              		.loc 1 178 1 is_stmt 1 view -0
 259              		.cfi_startproc
 260              		@ args = 0, pretend = 0, frame = 0
 261              		@ frame_needed = 0, uses_anonymous_args = 0
 262              		@ link register save eliminated.
 179:n32g430_std_periph_driver/src/n32g430_tim.c ****     TIMx->CTRL1 &= (uint32_t)(~((uint32_t)TIM_ASMMETRIC_ENABLE));
 263              		.loc 1 179 5 view .LVU60
 264              		.loc 1 179 9 is_stmt 0 view .LVU61
 265 0000 0368     		ldr	r3, [r0]
 266              		.loc 1 179 17 view .LVU62
 267 0002 23F48023 		bic	r3, r3, #262144
 268 0006 0360     		str	r3, [r0]
 180:n32g430_std_periph_driver/src/n32g430_tim.c **** }
 269              		.loc 1 180 1 view .LVU63
 270 0008 7047     		bx	lr
 271              		.cfi_endproc
ARM GAS  C:\Users\Dawn\AppData\Local\Temp\ccf7B1Wd.s 			page 9


 272              	.LFE127:
 274              		.section	.text.TIM_Base_Auto_Reload_Set,"ax",%progbits
 275              		.align	1
 276              		.global	TIM_Base_Auto_Reload_Set
 277              		.syntax unified
 278              		.thumb
 279              		.thumb_func
 281              	TIM_Base_Auto_Reload_Set:
 282              	.LVL33:
 283              	.LFB128:
 181:n32g430_std_periph_driver/src/n32g430_tim.c **** 
 182:n32g430_std_periph_driver/src/n32g430_tim.c **** /**
 183:n32g430_std_periph_driver/src/n32g430_tim.c **** *\*\name    TIM_Base_Auto_Reload_Set.
 184:n32g430_std_periph_driver/src/n32g430_tim.c **** *\*\fun     Initializes the TIM AR value
 185:n32g430_std_periph_driver/src/n32g430_tim.c **** *\*\param   TIMx:
 186:n32g430_std_periph_driver/src/n32g430_tim.c **** *\*\          - TIM1
 187:n32g430_std_periph_driver/src/n32g430_tim.c **** *\*\          - TIM2
 188:n32g430_std_periph_driver/src/n32g430_tim.c **** *\*\          - TIM3
 189:n32g430_std_periph_driver/src/n32g430_tim.c **** *\*\          - TIM4
 190:n32g430_std_periph_driver/src/n32g430_tim.c **** *\*\          - TIM5
 191:n32g430_std_periph_driver/src/n32g430_tim.c **** *\*\          - TIM6
 192:n32g430_std_periph_driver/src/n32g430_tim.c **** *\*\          - TIM8
 193:n32g430_std_periph_driver/src/n32g430_tim.c **** *\*\param   auto_reload:
 194:n32g430_std_periph_driver/src/n32g430_tim.c ****               - [1, 0xffff]
 195:n32g430_std_periph_driver/src/n32g430_tim.c **** *\*\return  none
 196:n32g430_std_periph_driver/src/n32g430_tim.c **** **/
 197:n32g430_std_periph_driver/src/n32g430_tim.c **** void TIM_Base_Auto_Reload_Set(TIM_Module* TIMx, uint16_t auto_reload)
 198:n32g430_std_periph_driver/src/n32g430_tim.c **** {
 284              		.loc 1 198 1 is_stmt 1 view -0
 285              		.cfi_startproc
 286              		@ args = 0, pretend = 0, frame = 0
 287              		@ frame_needed = 0, uses_anonymous_args = 0
 288              		@ link register save eliminated.
 199:n32g430_std_periph_driver/src/n32g430_tim.c ****     TIMx->AR = auto_reload;
 289              		.loc 1 199 5 view .LVU65
 290              		.loc 1 199 14 is_stmt 0 view .LVU66
 291 0000 8185     		strh	r1, [r0, #44]	@ movhi
 200:n32g430_std_periph_driver/src/n32g430_tim.c **** }
 292              		.loc 1 200 1 view .LVU67
 293 0002 7047     		bx	lr
 294              		.cfi_endproc
 295              	.LFE128:
 297              		.section	.text.TIM_Base_Prescaler_Set,"ax",%progbits
 298              		.align	1
 299              		.global	TIM_Base_Prescaler_Set
 300              		.syntax unified
 301              		.thumb
 302              		.thumb_func
 304              	TIM_Base_Prescaler_Set:
 305              	.LVL34:
 306              	.LFB129:
 201:n32g430_std_periph_driver/src/n32g430_tim.c **** 
 202:n32g430_std_periph_driver/src/n32g430_tim.c **** /**
 203:n32g430_std_periph_driver/src/n32g430_tim.c **** *\*\name    TIM_Base_Prescaler_Set.
 204:n32g430_std_periph_driver/src/n32g430_tim.c **** *\*\fun     Initializes the TIM PSC value
 205:n32g430_std_periph_driver/src/n32g430_tim.c **** *\*\param   TIMx:
 206:n32g430_std_periph_driver/src/n32g430_tim.c **** *\*\          - TIM1
ARM GAS  C:\Users\Dawn\AppData\Local\Temp\ccf7B1Wd.s 			page 10


 207:n32g430_std_periph_driver/src/n32g430_tim.c **** *\*\          - TIM2
 208:n32g430_std_periph_driver/src/n32g430_tim.c **** *\*\          - TIM3
 209:n32g430_std_periph_driver/src/n32g430_tim.c **** *\*\          - TIM4
 210:n32g430_std_periph_driver/src/n32g430_tim.c **** *\*\          - TIM5
 211:n32g430_std_periph_driver/src/n32g430_tim.c **** *\*\          - TIM6
 212:n32g430_std_periph_driver/src/n32g430_tim.c **** *\*\          - TIM8
 213:n32g430_std_periph_driver/src/n32g430_tim.c **** *\*\param   prescaler
 214:n32g430_std_periph_driver/src/n32g430_tim.c **** *\*\return  none
 215:n32g430_std_periph_driver/src/n32g430_tim.c **** **/
 216:n32g430_std_periph_driver/src/n32g430_tim.c **** void TIM_Base_Prescaler_Set(TIM_Module* TIMx, uint16_t prescaler)
 217:n32g430_std_periph_driver/src/n32g430_tim.c **** {
 307              		.loc 1 217 1 is_stmt 1 view -0
 308              		.cfi_startproc
 309              		@ args = 0, pretend = 0, frame = 0
 310              		@ frame_needed = 0, uses_anonymous_args = 0
 311              		@ link register save eliminated.
 218:n32g430_std_periph_driver/src/n32g430_tim.c ****     TIMx->PSC = prescaler;
 312              		.loc 1 218 5 view .LVU69
 313              		.loc 1 218 15 is_stmt 0 view .LVU70
 314 0000 0185     		strh	r1, [r0, #40]	@ movhi
 219:n32g430_std_periph_driver/src/n32g430_tim.c **** }
 315              		.loc 1 219 1 view .LVU71
 316 0002 7047     		bx	lr
 317              		.cfi_endproc
 318              	.LFE129:
 320              		.section	.text.TIM_Base_Reload_Mode_Set,"ax",%progbits
 321              		.align	1
 322              		.global	TIM_Base_Reload_Mode_Set
 323              		.syntax unified
 324              		.thumb
 325              		.thumb_func
 327              	TIM_Base_Reload_Mode_Set:
 328              	.LVL35:
 329              	.LFB130:
 220:n32g430_std_periph_driver/src/n32g430_tim.c **** 
 221:n32g430_std_periph_driver/src/n32g430_tim.c **** /**
 222:n32g430_std_periph_driver/src/n32g430_tim.c **** *\*\name    TIM_Base_Reload_Mode_Set.
 223:n32g430_std_periph_driver/src/n32g430_tim.c **** *\*\fun     Initializes the TIM reload mode
 224:n32g430_std_periph_driver/src/n32g430_tim.c **** *\*\param   TIMx:
 225:n32g430_std_periph_driver/src/n32g430_tim.c **** *\*\          - TIM1
 226:n32g430_std_periph_driver/src/n32g430_tim.c **** *\*\          - TIM2
 227:n32g430_std_periph_driver/src/n32g430_tim.c **** *\*\          - TIM3
 228:n32g430_std_periph_driver/src/n32g430_tim.c **** *\*\          - TIM4
 229:n32g430_std_periph_driver/src/n32g430_tim.c **** *\*\          - TIM5
 230:n32g430_std_periph_driver/src/n32g430_tim.c **** *\*\          - TIM6
 231:n32g430_std_periph_driver/src/n32g430_tim.c **** *\*\          - TIM8
 232:n32g430_std_periph_driver/src/n32g430_tim.c **** *\*\param   prescaler_reload_mode:
 233:n32g430_std_periph_driver/src/n32g430_tim.c **** **\           - TIM_PSC_RELOAD_MODE_IMMEDIATE
 234:n32g430_std_periph_driver/src/n32g430_tim.c **** **\           - TIM_PSC_RELOAD_MODE_UPDATE
 235:n32g430_std_periph_driver/src/n32g430_tim.c **** *\*\return  none
 236:n32g430_std_periph_driver/src/n32g430_tim.c **** **/
 237:n32g430_std_periph_driver/src/n32g430_tim.c **** void TIM_Base_Reload_Mode_Set(TIM_Module* TIMx, uint16_t prescaler_reload_mode)
 238:n32g430_std_periph_driver/src/n32g430_tim.c **** {
 330              		.loc 1 238 1 is_stmt 1 view -0
 331              		.cfi_startproc
 332              		@ args = 0, pretend = 0, frame = 0
 333              		@ frame_needed = 0, uses_anonymous_args = 0
ARM GAS  C:\Users\Dawn\AppData\Local\Temp\ccf7B1Wd.s 			page 11


 334              		@ link register save eliminated.
 239:n32g430_std_periph_driver/src/n32g430_tim.c ****     TIMx->EVTGEN = prescaler_reload_mode;
 335              		.loc 1 239 5 view .LVU73
 336              		.loc 1 239 18 is_stmt 0 view .LVU74
 337 0000 8182     		strh	r1, [r0, #20]	@ movhi
 240:n32g430_std_periph_driver/src/n32g430_tim.c **** }
 338              		.loc 1 240 1 view .LVU75
 339 0002 7047     		bx	lr
 340              		.cfi_endproc
 341              	.LFE130:
 343              		.section	.text.TIM_Base_Repeat_Count_Set,"ax",%progbits
 344              		.align	1
 345              		.global	TIM_Base_Repeat_Count_Set
 346              		.syntax unified
 347              		.thumb
 348              		.thumb_func
 350              	TIM_Base_Repeat_Count_Set:
 351              	.LVL36:
 352              	.LFB131:
 241:n32g430_std_periph_driver/src/n32g430_tim.c **** 
 242:n32g430_std_periph_driver/src/n32g430_tim.c **** /**
 243:n32g430_std_periph_driver/src/n32g430_tim.c **** *\*\name    TIM_Base_Repeat_Count_Set.
 244:n32g430_std_periph_driver/src/n32g430_tim.c **** *\*\fun     Initializes the TIM repeat cnt
 245:n32g430_std_periph_driver/src/n32g430_tim.c **** *\*\param   TIMx:
 246:n32g430_std_periph_driver/src/n32g430_tim.c **** *\*\          - TIM1
 247:n32g430_std_periph_driver/src/n32g430_tim.c **** *\*\          - TIM8
 248:n32g430_std_periph_driver/src/n32g430_tim.c **** *\*\param   repeat_cnt
 249:n32g430_std_periph_driver/src/n32g430_tim.c **** *\*\          - [0,255]
 250:n32g430_std_periph_driver/src/n32g430_tim.c **** *\*\return  none
 251:n32g430_std_periph_driver/src/n32g430_tim.c **** **/
 252:n32g430_std_periph_driver/src/n32g430_tim.c **** void TIM_Base_Repeat_Count_Set(TIM_Module* TIMx, uint8_t repeat_cnt)
 253:n32g430_std_periph_driver/src/n32g430_tim.c **** {
 353              		.loc 1 253 1 is_stmt 1 view -0
 354              		.cfi_startproc
 355              		@ args = 0, pretend = 0, frame = 0
 356              		@ frame_needed = 0, uses_anonymous_args = 0
 357              		@ link register save eliminated.
 254:n32g430_std_periph_driver/src/n32g430_tim.c ****     TIMx->REPCNT = repeat_cnt;
 358              		.loc 1 254 5 view .LVU77
 359              		.loc 1 254 18 is_stmt 0 view .LVU78
 360 0000 0186     		strh	r1, [r0, #48]	@ movhi
 255:n32g430_std_periph_driver/src/n32g430_tim.c **** }
 361              		.loc 1 255 1 view .LVU79
 362 0002 7047     		bx	lr
 363              		.cfi_endproc
 364              	.LFE131:
 366              		.section	.text.TIM_Base_Channel1,"ax",%progbits
 367              		.align	1
 368              		.global	TIM_Base_Channel1
 369              		.syntax unified
 370              		.thumb
 371              		.thumb_func
 373              	TIM_Base_Channel1:
 374              	.LVL37:
 375              	.LFB132:
 256:n32g430_std_periph_driver/src/n32g430_tim.c **** 
 257:n32g430_std_periph_driver/src/n32g430_tim.c **** /**
ARM GAS  C:\Users\Dawn\AppData\Local\Temp\ccf7B1Wd.s 			page 12


 258:n32g430_std_periph_driver/src/n32g430_tim.c **** *\*\name    TIM_Base_Channel1.
 259:n32g430_std_periph_driver/src/n32g430_tim.c **** *\*\param   TIMx:
 260:n32g430_std_periph_driver/src/n32g430_tim.c **** *\*\          - TIM1
 261:n32g430_std_periph_driver/src/n32g430_tim.c **** *\*\          - TIM2
 262:n32g430_std_periph_driver/src/n32g430_tim.c **** *\*\          - TIM3
 263:n32g430_std_periph_driver/src/n32g430_tim.c **** *\*\          - TIM4
 264:n32g430_std_periph_driver/src/n32g430_tim.c **** *\*\          - TIM5
 265:n32g430_std_periph_driver/src/n32g430_tim.c **** *\*\          - TIM8
 266:n32g430_std_periph_driver/src/n32g430_tim.c **** *\*\param   channel_selection:
 267:n32g430_std_periph_driver/src/n32g430_tim.c **** **\           - 1
 268:n32g430_std_periph_driver/src/n32g430_tim.c **** **\             CH1 is from COMP
 269:n32g430_std_periph_driver/src/n32g430_tim.c **** **\           - 0
 270:n32g430_std_periph_driver/src/n32g430_tim.c **** **\             CH1 is from IO
 271:n32g430_std_periph_driver/src/n32g430_tim.c **** *\*\return  none
 272:n32g430_std_periph_driver/src/n32g430_tim.c **** *\*\note    not for TIM6
 273:n32g430_std_periph_driver/src/n32g430_tim.c **** **/
 274:n32g430_std_periph_driver/src/n32g430_tim.c **** void TIM_Base_Channel1(TIM_Module* TIMx, bool channel_selection)
 275:n32g430_std_periph_driver/src/n32g430_tim.c **** {
 376              		.loc 1 275 1 is_stmt 1 view -0
 377              		.cfi_startproc
 378              		@ args = 0, pretend = 0, frame = 0
 379              		@ frame_needed = 0, uses_anonymous_args = 0
 380              		@ link register save eliminated.
 276:n32g430_std_periph_driver/src/n32g430_tim.c ****     if(channel_selection)
 381              		.loc 1 276 5 view .LVU81
 382              		.loc 1 276 7 is_stmt 0 view .LVU82
 383 0000 21B1     		cbz	r1, .L28
 277:n32g430_std_periph_driver/src/n32g430_tim.c ****     {
 278:n32g430_std_periph_driver/src/n32g430_tim.c ****         TIMx->CTRL1 |= TIM_CH1_SEL;
 384              		.loc 1 278 9 is_stmt 1 view .LVU83
 385              		.loc 1 278 13 is_stmt 0 view .LVU84
 386 0002 0368     		ldr	r3, [r0]
 387              		.loc 1 278 21 view .LVU85
 388 0004 43F40063 		orr	r3, r3, #2048
 389 0008 0360     		str	r3, [r0]
 390 000a 7047     		bx	lr
 391              	.L28:
 279:n32g430_std_periph_driver/src/n32g430_tim.c ****     }
 280:n32g430_std_periph_driver/src/n32g430_tim.c ****     else
 281:n32g430_std_periph_driver/src/n32g430_tim.c ****     {
 282:n32g430_std_periph_driver/src/n32g430_tim.c ****         TIMx->CTRL1 &= (uint32_t)(~TIM_CH1_SEL);
 392              		.loc 1 282 9 is_stmt 1 view .LVU86
 393              		.loc 1 282 13 is_stmt 0 view .LVU87
 394 000c 0368     		ldr	r3, [r0]
 395              		.loc 1 282 21 view .LVU88
 396 000e 23F40063 		bic	r3, r3, #2048
 397 0012 0360     		str	r3, [r0]
 283:n32g430_std_periph_driver/src/n32g430_tim.c ****     }    
 284:n32g430_std_periph_driver/src/n32g430_tim.c **** }
 398              		.loc 1 284 1 view .LVU89
 399 0014 7047     		bx	lr
 400              		.cfi_endproc
 401              	.LFE132:
 403              		.section	.text.TIM_Base_Channel2,"ax",%progbits
 404              		.align	1
 405              		.global	TIM_Base_Channel2
 406              		.syntax unified
ARM GAS  C:\Users\Dawn\AppData\Local\Temp\ccf7B1Wd.s 			page 13


 407              		.thumb
 408              		.thumb_func
 410              	TIM_Base_Channel2:
 411              	.LVL38:
 412              	.LFB133:
 285:n32g430_std_periph_driver/src/n32g430_tim.c **** 
 286:n32g430_std_periph_driver/src/n32g430_tim.c **** /**
 287:n32g430_std_periph_driver/src/n32g430_tim.c **** *\*\name    TIM_Base_Channel2.
 288:n32g430_std_periph_driver/src/n32g430_tim.c **** *\*\param   TIMx:
 289:n32g430_std_periph_driver/src/n32g430_tim.c **** *\*\          - TIM2
 290:n32g430_std_periph_driver/src/n32g430_tim.c **** *\*\param   channel_selection:
 291:n32g430_std_periph_driver/src/n32g430_tim.c **** **\           - 1
 292:n32g430_std_periph_driver/src/n32g430_tim.c **** **\             CH2 is from LSE
 293:n32g430_std_periph_driver/src/n32g430_tim.c **** **\           - 0
 294:n32g430_std_periph_driver/src/n32g430_tim.c **** **\             CH2 is from IO
 295:n32g430_std_periph_driver/src/n32g430_tim.c **** *\*\return  none
 296:n32g430_std_periph_driver/src/n32g430_tim.c **** **/
 297:n32g430_std_periph_driver/src/n32g430_tim.c **** void TIM_Base_Channel2(TIM_Module* TIMx, bool channel_selection)
 298:n32g430_std_periph_driver/src/n32g430_tim.c **** {
 413              		.loc 1 298 1 is_stmt 1 view -0
 414              		.cfi_startproc
 415              		@ args = 0, pretend = 0, frame = 0
 416              		@ frame_needed = 0, uses_anonymous_args = 0
 417              		@ link register save eliminated.
 299:n32g430_std_periph_driver/src/n32g430_tim.c ****     if(channel_selection)
 418              		.loc 1 299 5 view .LVU91
 419              		.loc 1 299 7 is_stmt 0 view .LVU92
 420 0000 21B1     		cbz	r1, .L31
 300:n32g430_std_periph_driver/src/n32g430_tim.c ****     {
 301:n32g430_std_periph_driver/src/n32g430_tim.c ****         TIMx->CTRL1 |= TIM_CH2_SEL;
 421              		.loc 1 301 9 is_stmt 1 view .LVU93
 422              		.loc 1 301 13 is_stmt 0 view .LVU94
 423 0002 0368     		ldr	r3, [r0]
 424              		.loc 1 301 21 view .LVU95
 425 0004 43F48053 		orr	r3, r3, #4096
 426 0008 0360     		str	r3, [r0]
 427 000a 7047     		bx	lr
 428              	.L31:
 302:n32g430_std_periph_driver/src/n32g430_tim.c ****     }
 303:n32g430_std_periph_driver/src/n32g430_tim.c ****     else
 304:n32g430_std_periph_driver/src/n32g430_tim.c ****     {
 305:n32g430_std_periph_driver/src/n32g430_tim.c ****         TIMx->CTRL1 &= (uint32_t)(~TIM_CH2_SEL);
 429              		.loc 1 305 9 is_stmt 1 view .LVU96
 430              		.loc 1 305 13 is_stmt 0 view .LVU97
 431 000c 0368     		ldr	r3, [r0]
 432              		.loc 1 305 21 view .LVU98
 433 000e 23F48053 		bic	r3, r3, #4096
 434 0012 0360     		str	r3, [r0]
 306:n32g430_std_periph_driver/src/n32g430_tim.c ****     }    
 307:n32g430_std_periph_driver/src/n32g430_tim.c **** }
 435              		.loc 1 307 1 view .LVU99
 436 0014 7047     		bx	lr
 437              		.cfi_endproc
 438              	.LFE133:
 440              		.section	.text.TIM_Base_Channel3,"ax",%progbits
 441              		.align	1
 442              		.global	TIM_Base_Channel3
ARM GAS  C:\Users\Dawn\AppData\Local\Temp\ccf7B1Wd.s 			page 14


 443              		.syntax unified
 444              		.thumb
 445              		.thumb_func
 447              	TIM_Base_Channel3:
 448              	.LVL39:
 449              	.LFB134:
 308:n32g430_std_periph_driver/src/n32g430_tim.c **** 
 309:n32g430_std_periph_driver/src/n32g430_tim.c **** /**
 310:n32g430_std_periph_driver/src/n32g430_tim.c **** *\*\name    TIM_Base_Channel3.
 311:n32g430_std_periph_driver/src/n32g430_tim.c **** *\*\param   TIMx:
 312:n32g430_std_periph_driver/src/n32g430_tim.c **** *\*\          - TIM2
 313:n32g430_std_periph_driver/src/n32g430_tim.c **** *\*\param   channel_selection:
 314:n32g430_std_periph_driver/src/n32g430_tim.c **** **\           - 1
 315:n32g430_std_periph_driver/src/n32g430_tim.c **** **\             CH3 is from LSI
 316:n32g430_std_periph_driver/src/n32g430_tim.c **** **\           - 0
 317:n32g430_std_periph_driver/src/n32g430_tim.c **** **\             CH3 is from IO
 318:n32g430_std_periph_driver/src/n32g430_tim.c **** *\*\return  none
 319:n32g430_std_periph_driver/src/n32g430_tim.c **** **/
 320:n32g430_std_periph_driver/src/n32g430_tim.c **** void TIM_Base_Channel3(TIM_Module* TIMx, bool channel_selection)
 321:n32g430_std_periph_driver/src/n32g430_tim.c **** {
 450              		.loc 1 321 1 is_stmt 1 view -0
 451              		.cfi_startproc
 452              		@ args = 0, pretend = 0, frame = 0
 453              		@ frame_needed = 0, uses_anonymous_args = 0
 454              		@ link register save eliminated.
 322:n32g430_std_periph_driver/src/n32g430_tim.c ****     if(channel_selection)
 455              		.loc 1 322 5 view .LVU101
 456              		.loc 1 322 7 is_stmt 0 view .LVU102
 457 0000 21B1     		cbz	r1, .L34
 323:n32g430_std_periph_driver/src/n32g430_tim.c ****     {
 324:n32g430_std_periph_driver/src/n32g430_tim.c ****         TIMx->CTRL1 |= TIM_CH3_SEL;
 458              		.loc 1 324 9 is_stmt 1 view .LVU103
 459              		.loc 1 324 13 is_stmt 0 view .LVU104
 460 0002 0368     		ldr	r3, [r0]
 461              		.loc 1 324 21 view .LVU105
 462 0004 43F40053 		orr	r3, r3, #8192
 463 0008 0360     		str	r3, [r0]
 464 000a 7047     		bx	lr
 465              	.L34:
 325:n32g430_std_periph_driver/src/n32g430_tim.c ****     }
 326:n32g430_std_periph_driver/src/n32g430_tim.c ****     else
 327:n32g430_std_periph_driver/src/n32g430_tim.c ****     {
 328:n32g430_std_periph_driver/src/n32g430_tim.c ****         TIMx->CTRL1 &= (uint32_t)(~TIM_CH3_SEL);
 466              		.loc 1 328 9 is_stmt 1 view .LVU106
 467              		.loc 1 328 13 is_stmt 0 view .LVU107
 468 000c 0368     		ldr	r3, [r0]
 469              		.loc 1 328 21 view .LVU108
 470 000e 23F40053 		bic	r3, r3, #8192
 471 0012 0360     		str	r3, [r0]
 329:n32g430_std_periph_driver/src/n32g430_tim.c ****     }    
 330:n32g430_std_periph_driver/src/n32g430_tim.c **** }
 472              		.loc 1 330 1 view .LVU109
 473 0014 7047     		bx	lr
 474              		.cfi_endproc
 475              	.LFE134:
 477              		.section	.text.TIM_Base_Channel4,"ax",%progbits
 478              		.align	1
ARM GAS  C:\Users\Dawn\AppData\Local\Temp\ccf7B1Wd.s 			page 15


 479              		.global	TIM_Base_Channel4
 480              		.syntax unified
 481              		.thumb
 482              		.thumb_func
 484              	TIM_Base_Channel4:
 485              	.LVL40:
 486              	.LFB135:
 331:n32g430_std_periph_driver/src/n32g430_tim.c **** 
 332:n32g430_std_periph_driver/src/n32g430_tim.c **** /**
 333:n32g430_std_periph_driver/src/n32g430_tim.c **** *\*\name    TIM_Base_Channel4.
 334:n32g430_std_periph_driver/src/n32g430_tim.c **** *\*\param   TIMx:
 335:n32g430_std_periph_driver/src/n32g430_tim.c **** *\*\          - TIM2
 336:n32g430_std_periph_driver/src/n32g430_tim.c **** *\*\param   channel_selection:
 337:n32g430_std_periph_driver/src/n32g430_tim.c **** **\           - 1
 338:n32g430_std_periph_driver/src/n32g430_tim.c **** **\             CH4 is from HSE/128
 339:n32g430_std_periph_driver/src/n32g430_tim.c **** **\           - 0
 340:n32g430_std_periph_driver/src/n32g430_tim.c **** **\             CH4 is from IO
 341:n32g430_std_periph_driver/src/n32g430_tim.c **** *\*\return  none
 342:n32g430_std_periph_driver/src/n32g430_tim.c **** **/
 343:n32g430_std_periph_driver/src/n32g430_tim.c **** void TIM_Base_Channel4(TIM_Module* TIMx, bool channel_selection)
 344:n32g430_std_periph_driver/src/n32g430_tim.c **** {
 487              		.loc 1 344 1 is_stmt 1 view -0
 488              		.cfi_startproc
 489              		@ args = 0, pretend = 0, frame = 0
 490              		@ frame_needed = 0, uses_anonymous_args = 0
 491              		@ link register save eliminated.
 345:n32g430_std_periph_driver/src/n32g430_tim.c ****     if(channel_selection)
 492              		.loc 1 345 5 view .LVU111
 493              		.loc 1 345 7 is_stmt 0 view .LVU112
 494 0000 21B1     		cbz	r1, .L37
 346:n32g430_std_periph_driver/src/n32g430_tim.c ****     {
 347:n32g430_std_periph_driver/src/n32g430_tim.c ****         TIMx->CTRL1 |= TIM_CH4_SEL;
 495              		.loc 1 347 9 is_stmt 1 view .LVU113
 496              		.loc 1 347 13 is_stmt 0 view .LVU114
 497 0002 0368     		ldr	r3, [r0]
 498              		.loc 1 347 21 view .LVU115
 499 0004 43F48043 		orr	r3, r3, #16384
 500 0008 0360     		str	r3, [r0]
 501 000a 7047     		bx	lr
 502              	.L37:
 348:n32g430_std_periph_driver/src/n32g430_tim.c ****     }
 349:n32g430_std_periph_driver/src/n32g430_tim.c ****     else
 350:n32g430_std_periph_driver/src/n32g430_tim.c ****     {
 351:n32g430_std_periph_driver/src/n32g430_tim.c ****         TIMx->CTRL1 &= (uint32_t)(~TIM_CH4_SEL);
 503              		.loc 1 351 9 is_stmt 1 view .LVU116
 504              		.loc 1 351 13 is_stmt 0 view .LVU117
 505 000c 0368     		ldr	r3, [r0]
 506              		.loc 1 351 21 view .LVU118
 507 000e 23F48043 		bic	r3, r3, #16384
 508 0012 0360     		str	r3, [r0]
 352:n32g430_std_periph_driver/src/n32g430_tim.c ****     }    
 353:n32g430_std_periph_driver/src/n32g430_tim.c **** }
 509              		.loc 1 353 1 view .LVU119
 510 0014 7047     		bx	lr
 511              		.cfi_endproc
 512              	.LFE135:
 514              		.section	.text.TIM_Base_OCrefClear,"ax",%progbits
ARM GAS  C:\Users\Dawn\AppData\Local\Temp\ccf7B1Wd.s 			page 16


 515              		.align	1
 516              		.global	TIM_Base_OCrefClear
 517              		.syntax unified
 518              		.thumb
 519              		.thumb_func
 521              	TIM_Base_OCrefClear:
 522              	.LVL41:
 523              	.LFB136:
 354:n32g430_std_periph_driver/src/n32g430_tim.c **** 
 355:n32g430_std_periph_driver/src/n32g430_tim.c **** /**
 356:n32g430_std_periph_driver/src/n32g430_tim.c **** *\*\name    TIM_Base_OCrefClear.
 357:n32g430_std_periph_driver/src/n32g430_tim.c **** *\*\param   TIMx:
 358:n32g430_std_periph_driver/src/n32g430_tim.c **** *\*\          - TIM1
 359:n32g430_std_periph_driver/src/n32g430_tim.c **** *\*\          - TIM2
 360:n32g430_std_periph_driver/src/n32g430_tim.c **** *\*\          - TIM3
 361:n32g430_std_periph_driver/src/n32g430_tim.c **** *\*\          - TIM4
 362:n32g430_std_periph_driver/src/n32g430_tim.c **** *\*\          - TIM8
 363:n32g430_std_periph_driver/src/n32g430_tim.c **** *\*\param   OCrefClear_selection:
 364:n32g430_std_periph_driver/src/n32g430_tim.c **** **\           - 1
 365:n32g430_std_periph_driver/src/n32g430_tim.c **** **\             OCrefClear is from ETR
 366:n32g430_std_periph_driver/src/n32g430_tim.c **** **\           - 0
 367:n32g430_std_periph_driver/src/n32g430_tim.c **** **\             OCrefClear is from COMP
 368:n32g430_std_periph_driver/src/n32g430_tim.c **** *\*\return  none 
 369:n32g430_std_periph_driver/src/n32g430_tim.c **** *\*\note    Not for TIM5 and TIM6
 370:n32g430_std_periph_driver/src/n32g430_tim.c **** **/
 371:n32g430_std_periph_driver/src/n32g430_tim.c **** void TIM_Base_OCrefClear(TIM_Module* TIMx, bool OCrefClear_selection)
 372:n32g430_std_periph_driver/src/n32g430_tim.c **** {
 524              		.loc 1 372 1 is_stmt 1 view -0
 525              		.cfi_startproc
 526              		@ args = 0, pretend = 0, frame = 0
 527              		@ frame_needed = 0, uses_anonymous_args = 0
 528              		@ link register save eliminated.
 373:n32g430_std_periph_driver/src/n32g430_tim.c ****     if (OCrefClear_selection)
 529              		.loc 1 373 5 view .LVU121
 530              		.loc 1 373 8 is_stmt 0 view .LVU122
 531 0000 21B1     		cbz	r1, .L40
 374:n32g430_std_periph_driver/src/n32g430_tim.c ****     {
 375:n32g430_std_periph_driver/src/n32g430_tim.c ****         TIMx->CTRL1 |= TIM_OCREF_CLEAR_SEL;
 532              		.loc 1 375 9 is_stmt 1 view .LVU123
 533              		.loc 1 375 13 is_stmt 0 view .LVU124
 534 0002 0368     		ldr	r3, [r0]
 535              		.loc 1 375 21 view .LVU125
 536 0004 43F40043 		orr	r3, r3, #32768
 537 0008 0360     		str	r3, [r0]
 538 000a 7047     		bx	lr
 539              	.L40:
 376:n32g430_std_periph_driver/src/n32g430_tim.c ****     }
 377:n32g430_std_periph_driver/src/n32g430_tim.c ****     else
 378:n32g430_std_periph_driver/src/n32g430_tim.c ****     {
 379:n32g430_std_periph_driver/src/n32g430_tim.c ****         TIMx->CTRL1 &= (uint32_t)(~TIM_OCREF_CLEAR_SEL);
 540              		.loc 1 379 9 is_stmt 1 view .LVU126
 541              		.loc 1 379 13 is_stmt 0 view .LVU127
 542 000c 0368     		ldr	r3, [r0]
 543              		.loc 1 379 21 view .LVU128
 544 000e 23F40043 		bic	r3, r3, #32768
 545 0012 0360     		str	r3, [r0]
 380:n32g430_std_periph_driver/src/n32g430_tim.c ****     }
ARM GAS  C:\Users\Dawn\AppData\Local\Temp\ccf7B1Wd.s 			page 17


 381:n32g430_std_periph_driver/src/n32g430_tim.c **** }
 546              		.loc 1 381 1 view .LVU129
 547 0014 7047     		bx	lr
 548              		.cfi_endproc
 549              	.LFE136:
 551              		.section	.text.TIM_Base_Struct_Initialize,"ax",%progbits
 552              		.align	1
 553              		.global	TIM_Base_Struct_Initialize
 554              		.syntax unified
 555              		.thumb
 556              		.thumb_func
 558              	TIM_Base_Struct_Initialize:
 559              	.LVL42:
 560              	.LFB138:
 382:n32g430_std_periph_driver/src/n32g430_tim.c **** 
 383:n32g430_std_periph_driver/src/n32g430_tim.c **** /**
 384:n32g430_std_periph_driver/src/n32g430_tim.c **** *\*\name    TIM_Base_Init.
 385:n32g430_std_periph_driver/src/n32g430_tim.c **** *\*\fun     Initializes the TIMx Time Base Unit peripheral according to
 386:n32g430_std_periph_driver/src/n32g430_tim.c **** *\*\        the specified parameters in the TIM_TimeBaseInitStruct.
 387:n32g430_std_periph_driver/src/n32g430_tim.c **** *\*\param   TIMx:
 388:n32g430_std_periph_driver/src/n32g430_tim.c **** *\*\          - TIM1
 389:n32g430_std_periph_driver/src/n32g430_tim.c **** *\*\          - TIM2
 390:n32g430_std_periph_driver/src/n32g430_tim.c **** *\*\          - TIM3
 391:n32g430_std_periph_driver/src/n32g430_tim.c **** *\*\          - TIM4
 392:n32g430_std_periph_driver/src/n32g430_tim.c **** *\*\          - TIM5
 393:n32g430_std_periph_driver/src/n32g430_tim.c **** *\*\          - TIM6
 394:n32g430_std_periph_driver/src/n32g430_tim.c **** *\*\          - TIM8
 395:n32g430_std_periph_driver/src/n32g430_tim.c **** *\*\param   TIM_TimeBaseInitStruct:
 396:n32g430_std_periph_driver/src/n32g430_tim.c **** *\*\          - refer to the definition of TIM_TimeBaseInitType
 397:n32g430_std_periph_driver/src/n32g430_tim.c **** *\*\return  none
 398:n32g430_std_periph_driver/src/n32g430_tim.c **** **/
 399:n32g430_std_periph_driver/src/n32g430_tim.c **** void TIM_Base_Initialize(TIM_Module* TIMx, TIM_TimeBaseInitType* TIM_TimeBaseInitStruct)
 400:n32g430_std_periph_driver/src/n32g430_tim.c **** {
 401:n32g430_std_periph_driver/src/n32g430_tim.c ****     if (TIMx != TIM6)
 402:n32g430_std_periph_driver/src/n32g430_tim.c ****     {
 403:n32g430_std_periph_driver/src/n32g430_tim.c ****         TIM_Base_Count_Mode_Set(TIMx, TIM_TimeBaseInitStruct->CntMode);
 404:n32g430_std_periph_driver/src/n32g430_tim.c ****         TIM_Clock_Division_Set(TIMx, TIM_TimeBaseInitStruct->ClkDiv);
 405:n32g430_std_periph_driver/src/n32g430_tim.c ****     }
 406:n32g430_std_periph_driver/src/n32g430_tim.c ****     else
 407:n32g430_std_periph_driver/src/n32g430_tim.c ****     {
 408:n32g430_std_periph_driver/src/n32g430_tim.c ****         /* none */
 409:n32g430_std_periph_driver/src/n32g430_tim.c ****     }
 410:n32g430_std_periph_driver/src/n32g430_tim.c **** 
 411:n32g430_std_periph_driver/src/n32g430_tim.c ****     TIM_Base_Auto_Reload_Set(TIMx, TIM_TimeBaseInitStruct->Period);
 412:n32g430_std_periph_driver/src/n32g430_tim.c **** 
 413:n32g430_std_periph_driver/src/n32g430_tim.c ****     TIM_Base_Prescaler_Set(TIMx, TIM_TimeBaseInitStruct->Prescaler);
 414:n32g430_std_periph_driver/src/n32g430_tim.c **** 
 415:n32g430_std_periph_driver/src/n32g430_tim.c ****     if ((TIMx == TIM1) || (TIMx == TIM8))
 416:n32g430_std_periph_driver/src/n32g430_tim.c ****     {
 417:n32g430_std_periph_driver/src/n32g430_tim.c ****         TIM_Base_Repeat_Count_Set(TIMx,TIM_TimeBaseInitStruct->RepetCnt);
 418:n32g430_std_periph_driver/src/n32g430_tim.c ****     }
 419:n32g430_std_periph_driver/src/n32g430_tim.c ****     else
 420:n32g430_std_periph_driver/src/n32g430_tim.c ****     {
 421:n32g430_std_periph_driver/src/n32g430_tim.c ****         /* none */
 422:n32g430_std_periph_driver/src/n32g430_tim.c ****     }
 423:n32g430_std_periph_driver/src/n32g430_tim.c **** 
 424:n32g430_std_periph_driver/src/n32g430_tim.c ****     TIM_Base_Reload_Mode_Set(TIMx, TIM_PSC_RELOAD_MODE_IMMEDIATE);
ARM GAS  C:\Users\Dawn\AppData\Local\Temp\ccf7B1Wd.s 			page 18


 425:n32g430_std_periph_driver/src/n32g430_tim.c **** 
 426:n32g430_std_periph_driver/src/n32g430_tim.c ****     if ((TIMx != TIM6))
 427:n32g430_std_periph_driver/src/n32g430_tim.c ****     {
 428:n32g430_std_periph_driver/src/n32g430_tim.c ****         TIM_Base_Channel1(TIMx, TIM_TimeBaseInitStruct->CapCh1Sel);
 429:n32g430_std_periph_driver/src/n32g430_tim.c ****     }
 430:n32g430_std_periph_driver/src/n32g430_tim.c ****     else 
 431:n32g430_std_periph_driver/src/n32g430_tim.c ****     {
 432:n32g430_std_periph_driver/src/n32g430_tim.c ****         /* none */
 433:n32g430_std_periph_driver/src/n32g430_tim.c ****     }
 434:n32g430_std_periph_driver/src/n32g430_tim.c ****     
 435:n32g430_std_periph_driver/src/n32g430_tim.c ****     if ((TIMx == TIM1) || (TIMx == TIM8) || (TIMx == TIM2) || (TIMx == TIM3) || (TIMx == TIM4) )
 436:n32g430_std_periph_driver/src/n32g430_tim.c ****     {
 437:n32g430_std_periph_driver/src/n32g430_tim.c ****         TIM_Base_OCrefClear(TIMx, TIM_TimeBaseInitStruct->CapEtrClrFromCompEn);
 438:n32g430_std_periph_driver/src/n32g430_tim.c ****     }
 439:n32g430_std_periph_driver/src/n32g430_tim.c ****     else 
 440:n32g430_std_periph_driver/src/n32g430_tim.c ****     {
 441:n32g430_std_periph_driver/src/n32g430_tim.c ****         /* none */
 442:n32g430_std_periph_driver/src/n32g430_tim.c ****     }
 443:n32g430_std_periph_driver/src/n32g430_tim.c ****     
 444:n32g430_std_periph_driver/src/n32g430_tim.c ****     if(TIMx == TIM2)
 445:n32g430_std_periph_driver/src/n32g430_tim.c ****     {
 446:n32g430_std_periph_driver/src/n32g430_tim.c ****         TIM_Base_Channel2(TIMx, TIM_TimeBaseInitStruct->CapCh2Sel);
 447:n32g430_std_periph_driver/src/n32g430_tim.c ****         TIM_Base_Channel3(TIMx, TIM_TimeBaseInitStruct->CapCh3Sel);
 448:n32g430_std_periph_driver/src/n32g430_tim.c ****         TIM_Base_Channel4(TIMx, TIM_TimeBaseInitStruct->CapCh4Sel);
 449:n32g430_std_periph_driver/src/n32g430_tim.c ****     }
 450:n32g430_std_periph_driver/src/n32g430_tim.c ****     else 
 451:n32g430_std_periph_driver/src/n32g430_tim.c ****     {
 452:n32g430_std_periph_driver/src/n32g430_tim.c ****         /* none */
 453:n32g430_std_periph_driver/src/n32g430_tim.c ****     }
 454:n32g430_std_periph_driver/src/n32g430_tim.c **** }
 455:n32g430_std_periph_driver/src/n32g430_tim.c **** 
 456:n32g430_std_periph_driver/src/n32g430_tim.c **** void TIM_Base_Struct_Initialize(TIM_TimeBaseInitType* TIM_TimeBaseInitStruct)
 457:n32g430_std_periph_driver/src/n32g430_tim.c **** {
 561              		.loc 1 457 1 is_stmt 1 view -0
 562              		.cfi_startproc
 563              		@ args = 0, pretend = 0, frame = 0
 564              		@ frame_needed = 0, uses_anonymous_args = 0
 565              		@ link register save eliminated.
 458:n32g430_std_periph_driver/src/n32g430_tim.c ****     /* Set the default configuration */
 459:n32g430_std_periph_driver/src/n32g430_tim.c ****     TIM_TimeBaseInitStruct->Period    = 0xFFFF;
 566              		.loc 1 459 5 view .LVU131
 567              		.loc 1 459 39 is_stmt 0 view .LVU132
 568 0000 4FF6FF73 		movw	r3, #65535
 569 0004 8380     		strh	r3, [r0, #4]	@ movhi
 460:n32g430_std_periph_driver/src/n32g430_tim.c ****     TIM_TimeBaseInitStruct->Prescaler = 0x0000;
 570              		.loc 1 460 5 is_stmt 1 view .LVU133
 571              		.loc 1 460 39 is_stmt 0 view .LVU134
 572 0006 0023     		movs	r3, #0
 573 0008 0380     		strh	r3, [r0]	@ movhi
 461:n32g430_std_periph_driver/src/n32g430_tim.c ****     TIM_TimeBaseInitStruct->ClkDiv    = TIM_CLK_DIV1;
 574              		.loc 1 461 5 is_stmt 1 view .LVU135
 575              		.loc 1 461 39 is_stmt 0 view .LVU136
 576 000a C380     		strh	r3, [r0, #6]	@ movhi
 462:n32g430_std_periph_driver/src/n32g430_tim.c ****     TIM_TimeBaseInitStruct->CntMode   = TIM_CNT_MODE_UP;
 577              		.loc 1 462 5 is_stmt 1 view .LVU137
 578              		.loc 1 462 39 is_stmt 0 view .LVU138
 579 000c 4380     		strh	r3, [r0, #2]	@ movhi
ARM GAS  C:\Users\Dawn\AppData\Local\Temp\ccf7B1Wd.s 			page 19


 463:n32g430_std_periph_driver/src/n32g430_tim.c ****     TIM_TimeBaseInitStruct->RepetCnt  = 0x0000;
 580              		.loc 1 463 5 is_stmt 1 view .LVU139
 581              		.loc 1 463 39 is_stmt 0 view .LVU140
 582 000e 0372     		strb	r3, [r0, #8]
 464:n32g430_std_periph_driver/src/n32g430_tim.c **** 
 465:n32g430_std_periph_driver/src/n32g430_tim.c ****     TIM_TimeBaseInitStruct->CapCh1Sel    = false;
 583              		.loc 1 465 5 is_stmt 1 view .LVU141
 584              		.loc 1 465 42 is_stmt 0 view .LVU142
 585 0010 4372     		strb	r3, [r0, #9]
 466:n32g430_std_periph_driver/src/n32g430_tim.c ****     TIM_TimeBaseInitStruct->CapCh2Sel    = false;
 586              		.loc 1 466 5 is_stmt 1 view .LVU143
 587              		.loc 1 466 42 is_stmt 0 view .LVU144
 588 0012 8372     		strb	r3, [r0, #10]
 467:n32g430_std_periph_driver/src/n32g430_tim.c ****     TIM_TimeBaseInitStruct->CapCh3Sel    = false;
 589              		.loc 1 467 5 is_stmt 1 view .LVU145
 590              		.loc 1 467 42 is_stmt 0 view .LVU146
 591 0014 C372     		strb	r3, [r0, #11]
 468:n32g430_std_periph_driver/src/n32g430_tim.c ****     TIM_TimeBaseInitStruct->CapCh4Sel    = false;
 592              		.loc 1 468 5 is_stmt 1 view .LVU147
 593              		.loc 1 468 42 is_stmt 0 view .LVU148
 594 0016 0373     		strb	r3, [r0, #12]
 469:n32g430_std_periph_driver/src/n32g430_tim.c ****     TIM_TimeBaseInitStruct->CapEtrClrFromCompEn = false;
 595              		.loc 1 469 5 is_stmt 1 view .LVU149
 596              		.loc 1 469 49 is_stmt 0 view .LVU150
 597 0018 4373     		strb	r3, [r0, #13]
 470:n32g430_std_periph_driver/src/n32g430_tim.c ****     TIM_TimeBaseInitStruct->CapEtrSelFromTscEn  = false;    
 598              		.loc 1 470 5 is_stmt 1 view .LVU151
 599              		.loc 1 470 49 is_stmt 0 view .LVU152
 600 001a 8373     		strb	r3, [r0, #14]
 471:n32g430_std_periph_driver/src/n32g430_tim.c **** }
 601              		.loc 1 471 1 view .LVU153
 602 001c 7047     		bx	lr
 603              		.cfi_endproc
 604              	.LFE138:
 606              		.section	.text.TIM_Base_Count_Set,"ax",%progbits
 607              		.align	1
 608              		.global	TIM_Base_Count_Set
 609              		.syntax unified
 610              		.thumb
 611              		.thumb_func
 613              	TIM_Base_Count_Set:
 614              	.LVL43:
 615              	.LFB139:
 472:n32g430_std_periph_driver/src/n32g430_tim.c **** /**
 473:n32g430_std_periph_driver/src/n32g430_tim.c **** *\*\name    TIM_Base_Count_Set.
 474:n32g430_std_periph_driver/src/n32g430_tim.c **** *\*\param   TIMx:
 475:n32g430_std_periph_driver/src/n32g430_tim.c **** *\*\          - TIM1
 476:n32g430_std_periph_driver/src/n32g430_tim.c **** *\*\          - TIM2
 477:n32g430_std_periph_driver/src/n32g430_tim.c **** *\*\          - TIM3
 478:n32g430_std_periph_driver/src/n32g430_tim.c **** *\*\          - TIM4
 479:n32g430_std_periph_driver/src/n32g430_tim.c **** *\*\          - TIM5
 480:n32g430_std_periph_driver/src/n32g430_tim.c **** *\*\          - TIM6
 481:n32g430_std_periph_driver/src/n32g430_tim.c **** *\*\          - TIM8
 482:n32g430_std_periph_driver/src/n32g430_tim.c **** *\*\param   count:
 483:n32g430_std_periph_driver/src/n32g430_tim.c **** *\*\return  none
 484:n32g430_std_periph_driver/src/n32g430_tim.c **** **/
 485:n32g430_std_periph_driver/src/n32g430_tim.c **** void TIM_Base_Count_Set(TIM_Module* TIMx, uint16_t count)
ARM GAS  C:\Users\Dawn\AppData\Local\Temp\ccf7B1Wd.s 			page 20


 486:n32g430_std_periph_driver/src/n32g430_tim.c **** {
 616              		.loc 1 486 1 is_stmt 1 view -0
 617              		.cfi_startproc
 618              		@ args = 0, pretend = 0, frame = 0
 619              		@ frame_needed = 0, uses_anonymous_args = 0
 620              		@ link register save eliminated.
 487:n32g430_std_periph_driver/src/n32g430_tim.c ****     TIMx->CNT= count;
 621              		.loc 1 487 5 view .LVU155
 622              		.loc 1 487 14 is_stmt 0 view .LVU156
 623 0000 8184     		strh	r1, [r0, #36]	@ movhi
 488:n32g430_std_periph_driver/src/n32g430_tim.c **** }
 624              		.loc 1 488 1 view .LVU157
 625 0002 7047     		bx	lr
 626              		.cfi_endproc
 627              	.LFE139:
 629              		.section	.text.TIM_Base_Count_Get,"ax",%progbits
 630              		.align	1
 631              		.global	TIM_Base_Count_Get
 632              		.syntax unified
 633              		.thumb
 634              		.thumb_func
 636              	TIM_Base_Count_Get:
 637              	.LVL44:
 638              	.LFB140:
 489:n32g430_std_periph_driver/src/n32g430_tim.c **** /**
 490:n32g430_std_periph_driver/src/n32g430_tim.c **** *\*\name    TIM_Base_Count_Get.
 491:n32g430_std_periph_driver/src/n32g430_tim.c **** *\*\param   TIMx:
 492:n32g430_std_periph_driver/src/n32g430_tim.c **** *\*\          - TIM1
 493:n32g430_std_periph_driver/src/n32g430_tim.c **** *\*\          - TIM2
 494:n32g430_std_periph_driver/src/n32g430_tim.c **** *\*\          - TIM3
 495:n32g430_std_periph_driver/src/n32g430_tim.c **** *\*\          - TIM4
 496:n32g430_std_periph_driver/src/n32g430_tim.c **** *\*\          - TIM5
 497:n32g430_std_periph_driver/src/n32g430_tim.c **** *\*\          - TIM6
 498:n32g430_std_periph_driver/src/n32g430_tim.c **** *\*\          - TIM8
 499:n32g430_std_periph_driver/src/n32g430_tim.c **** *\*\return  the value of count register
 500:n32g430_std_periph_driver/src/n32g430_tim.c **** **/
 501:n32g430_std_periph_driver/src/n32g430_tim.c **** uint16_t TIM_Base_Count_Get(TIM_Module* TIMx)
 502:n32g430_std_periph_driver/src/n32g430_tim.c **** {
 639              		.loc 1 502 1 is_stmt 1 view -0
 640              		.cfi_startproc
 641              		@ args = 0, pretend = 0, frame = 0
 642              		@ frame_needed = 0, uses_anonymous_args = 0
 643              		@ link register save eliminated.
 503:n32g430_std_periph_driver/src/n32g430_tim.c ****     /* Get the value of count register */
 504:n32g430_std_periph_driver/src/n32g430_tim.c ****     return TIMx->CNT;
 644              		.loc 1 504 5 view .LVU159
 645              		.loc 1 504 16 is_stmt 0 view .LVU160
 646 0000 808C     		ldrh	r0, [r0, #36]
 647              	.LVL45:
 505:n32g430_std_periph_driver/src/n32g430_tim.c **** }
 648              		.loc 1 505 1 view .LVU161
 649 0002 80B2     		uxth	r0, r0
 650 0004 7047     		bx	lr
 651              		.cfi_endproc
 652              	.LFE140:
 654              		.section	.text.TIM_Auto_Reload_Get,"ax",%progbits
 655              		.align	1
ARM GAS  C:\Users\Dawn\AppData\Local\Temp\ccf7B1Wd.s 			page 21


 656              		.global	TIM_Auto_Reload_Get
 657              		.syntax unified
 658              		.thumb
 659              		.thumb_func
 661              	TIM_Auto_Reload_Get:
 662              	.LVL46:
 663              	.LFB141:
 506:n32g430_std_periph_driver/src/n32g430_tim.c **** 
 507:n32g430_std_periph_driver/src/n32g430_tim.c **** /**
 508:n32g430_std_periph_driver/src/n32g430_tim.c **** *\*\name    TIM_Auto_Reload_Get.
 509:n32g430_std_periph_driver/src/n32g430_tim.c **** *\*\param   TIMx:
 510:n32g430_std_periph_driver/src/n32g430_tim.c **** *\*\          - TIM1
 511:n32g430_std_periph_driver/src/n32g430_tim.c **** *\*\          - TIM2
 512:n32g430_std_periph_driver/src/n32g430_tim.c **** *\*\          - TIM3
 513:n32g430_std_periph_driver/src/n32g430_tim.c **** *\*\          - TIM4
 514:n32g430_std_periph_driver/src/n32g430_tim.c **** *\*\          - TIM5
 515:n32g430_std_periph_driver/src/n32g430_tim.c **** *\*\          - TIM6
 516:n32g430_std_periph_driver/src/n32g430_tim.c **** *\*\          - TIM8
 517:n32g430_std_periph_driver/src/n32g430_tim.c **** *\*\return  the value of auto reload register
 518:n32g430_std_periph_driver/src/n32g430_tim.c **** **/
 519:n32g430_std_periph_driver/src/n32g430_tim.c **** uint16_t TIM_Auto_Reload_Get(TIM_Module* TIMx)
 520:n32g430_std_periph_driver/src/n32g430_tim.c **** {
 664              		.loc 1 520 1 is_stmt 1 view -0
 665              		.cfi_startproc
 666              		@ args = 0, pretend = 0, frame = 0
 667              		@ frame_needed = 0, uses_anonymous_args = 0
 668              		@ link register save eliminated.
 521:n32g430_std_periph_driver/src/n32g430_tim.c ****     /* Get the value of auto reload register */
 522:n32g430_std_periph_driver/src/n32g430_tim.c ****     return TIMx->AR;
 669              		.loc 1 522 5 view .LVU163
 670              		.loc 1 522 16 is_stmt 0 view .LVU164
 671 0000 808D     		ldrh	r0, [r0, #44]
 672              	.LVL47:
 523:n32g430_std_periph_driver/src/n32g430_tim.c **** }
 673              		.loc 1 523 1 view .LVU165
 674 0002 80B2     		uxth	r0, r0
 675 0004 7047     		bx	lr
 676              		.cfi_endproc
 677              	.LFE141:
 679              		.section	.text.TIM_Base_Prescaler_Get,"ax",%progbits
 680              		.align	1
 681              		.global	TIM_Base_Prescaler_Get
 682              		.syntax unified
 683              		.thumb
 684              		.thumb_func
 686              	TIM_Base_Prescaler_Get:
 687              	.LVL48:
 688              	.LFB142:
 524:n32g430_std_periph_driver/src/n32g430_tim.c **** 
 525:n32g430_std_periph_driver/src/n32g430_tim.c **** /**
 526:n32g430_std_periph_driver/src/n32g430_tim.c **** *\*\name    TIM_Base_Prescaler_Get.
 527:n32g430_std_periph_driver/src/n32g430_tim.c **** *\*\param   TIMx:
 528:n32g430_std_periph_driver/src/n32g430_tim.c **** *\*\          - TIM1
 529:n32g430_std_periph_driver/src/n32g430_tim.c **** *\*\          - TIM2
 530:n32g430_std_periph_driver/src/n32g430_tim.c **** *\*\          - TIM3
 531:n32g430_std_periph_driver/src/n32g430_tim.c **** *\*\          - TIM4
 532:n32g430_std_periph_driver/src/n32g430_tim.c **** *\*\          - TIM5
ARM GAS  C:\Users\Dawn\AppData\Local\Temp\ccf7B1Wd.s 			page 22


 533:n32g430_std_periph_driver/src/n32g430_tim.c **** *\*\          - TIM6
 534:n32g430_std_periph_driver/src/n32g430_tim.c **** *\*\          - TIM8
 535:n32g430_std_periph_driver/src/n32g430_tim.c **** *\*\return  the value of prescaler register
 536:n32g430_std_periph_driver/src/n32g430_tim.c **** **/
 537:n32g430_std_periph_driver/src/n32g430_tim.c **** uint16_t TIM_Base_Prescaler_Get(TIM_Module* TIMx)
 538:n32g430_std_periph_driver/src/n32g430_tim.c **** {
 689              		.loc 1 538 1 is_stmt 1 view -0
 690              		.cfi_startproc
 691              		@ args = 0, pretend = 0, frame = 0
 692              		@ frame_needed = 0, uses_anonymous_args = 0
 693              		@ link register save eliminated.
 539:n32g430_std_periph_driver/src/n32g430_tim.c ****     /* Get the value of prescaler register */
 540:n32g430_std_periph_driver/src/n32g430_tim.c ****     return TIMx->PSC;
 694              		.loc 1 540 5 view .LVU167
 695              		.loc 1 540 16 is_stmt 0 view .LVU168
 696 0000 008D     		ldrh	r0, [r0, #40]
 697              	.LVL49:
 541:n32g430_std_periph_driver/src/n32g430_tim.c **** }
 698              		.loc 1 541 1 view .LVU169
 699 0002 80B2     		uxth	r0, r0
 700 0004 7047     		bx	lr
 701              		.cfi_endproc
 702              	.LFE142:
 704              		.section	.text.TIM_On,"ax",%progbits
 705              		.align	1
 706              		.global	TIM_On
 707              		.syntax unified
 708              		.thumb
 709              		.thumb_func
 711              	TIM_On:
 712              	.LVL50:
 713              	.LFB143:
 542:n32g430_std_periph_driver/src/n32g430_tim.c **** 
 543:n32g430_std_periph_driver/src/n32g430_tim.c **** 
 544:n32g430_std_periph_driver/src/n32g430_tim.c **** /**
 545:n32g430_std_periph_driver/src/n32g430_tim.c **** *\*\name    TIM_Enable.
 546:n32g430_std_periph_driver/src/n32g430_tim.c **** *\*\param   TIMx:
 547:n32g430_std_periph_driver/src/n32g430_tim.c **** *\*\          - TIM1
 548:n32g430_std_periph_driver/src/n32g430_tim.c **** *\*\          - TIM2
 549:n32g430_std_periph_driver/src/n32g430_tim.c **** *\*\          - TIM3
 550:n32g430_std_periph_driver/src/n32g430_tim.c **** *\*\          - TIM4
 551:n32g430_std_periph_driver/src/n32g430_tim.c **** *\*\          - TIM5
 552:n32g430_std_periph_driver/src/n32g430_tim.c **** *\*\          - TIM6
 553:n32g430_std_periph_driver/src/n32g430_tim.c **** *\*\          - TIM8
 554:n32g430_std_periph_driver/src/n32g430_tim.c **** *\*\return  none
 555:n32g430_std_periph_driver/src/n32g430_tim.c **** **/
 556:n32g430_std_periph_driver/src/n32g430_tim.c **** void TIM_On(TIM_Module* TIMx)
 557:n32g430_std_periph_driver/src/n32g430_tim.c **** {
 714              		.loc 1 557 1 is_stmt 1 view -0
 715              		.cfi_startproc
 716              		@ args = 0, pretend = 0, frame = 0
 717              		@ frame_needed = 0, uses_anonymous_args = 0
 718              		@ link register save eliminated.
 558:n32g430_std_periph_driver/src/n32g430_tim.c ****     TIMx->CTRL1 |= TIM_ON;
 719              		.loc 1 558 5 view .LVU171
 720              		.loc 1 558 9 is_stmt 0 view .LVU172
 721 0000 0368     		ldr	r3, [r0]
ARM GAS  C:\Users\Dawn\AppData\Local\Temp\ccf7B1Wd.s 			page 23


 722              		.loc 1 558 17 view .LVU173
 723 0002 43F00103 		orr	r3, r3, #1
 724 0006 0360     		str	r3, [r0]
 559:n32g430_std_periph_driver/src/n32g430_tim.c **** }
 725              		.loc 1 559 1 view .LVU174
 726 0008 7047     		bx	lr
 727              		.cfi_endproc
 728              	.LFE143:
 730              		.section	.text.TIM_Off,"ax",%progbits
 731              		.align	1
 732              		.global	TIM_Off
 733              		.syntax unified
 734              		.thumb
 735              		.thumb_func
 737              	TIM_Off:
 738              	.LVL51:
 739              	.LFB144:
 560:n32g430_std_periph_driver/src/n32g430_tim.c **** 
 561:n32g430_std_periph_driver/src/n32g430_tim.c **** /**
 562:n32g430_std_periph_driver/src/n32g430_tim.c **** *\*\name    TIM_Disable.
 563:n32g430_std_periph_driver/src/n32g430_tim.c **** *\*\param   TIMx:
 564:n32g430_std_periph_driver/src/n32g430_tim.c **** *\*\          - TIM1
 565:n32g430_std_periph_driver/src/n32g430_tim.c **** *\*\          - TIM2
 566:n32g430_std_periph_driver/src/n32g430_tim.c **** *\*\          - TIM3
 567:n32g430_std_periph_driver/src/n32g430_tim.c **** *\*\          - TIM4
 568:n32g430_std_periph_driver/src/n32g430_tim.c **** *\*\          - TIM5
 569:n32g430_std_periph_driver/src/n32g430_tim.c **** *\*\          - TIM6
 570:n32g430_std_periph_driver/src/n32g430_tim.c **** *\*\          - TIM8
 571:n32g430_std_periph_driver/src/n32g430_tim.c **** *\*\return  none
 572:n32g430_std_periph_driver/src/n32g430_tim.c **** **/
 573:n32g430_std_periph_driver/src/n32g430_tim.c **** void TIM_Off(TIM_Module* TIMx)
 574:n32g430_std_periph_driver/src/n32g430_tim.c **** {
 740              		.loc 1 574 1 is_stmt 1 view -0
 741              		.cfi_startproc
 742              		@ args = 0, pretend = 0, frame = 0
 743              		@ frame_needed = 0, uses_anonymous_args = 0
 744              		@ link register save eliminated.
 575:n32g430_std_periph_driver/src/n32g430_tim.c ****     TIMx->CTRL1 &= (uint32_t)(~((uint32_t)TIM_ON));
 745              		.loc 1 575 5 view .LVU176
 746              		.loc 1 575 9 is_stmt 0 view .LVU177
 747 0000 0368     		ldr	r3, [r0]
 748              		.loc 1 575 17 view .LVU178
 749 0002 23F00103 		bic	r3, r3, #1
 750 0006 0360     		str	r3, [r0]
 576:n32g430_std_periph_driver/src/n32g430_tim.c **** }
 751              		.loc 1 576 1 view .LVU179
 752 0008 7047     		bx	lr
 753              		.cfi_endproc
 754              	.LFE144:
 756              		.section	.text.TIM_Output_Channel1_Preload_Set,"ax",%progbits
 757              		.align	1
 758              		.global	TIM_Output_Channel1_Preload_Set
 759              		.syntax unified
 760              		.thumb
 761              		.thumb_func
 763              	TIM_Output_Channel1_Preload_Set:
 764              	.LVL52:
ARM GAS  C:\Users\Dawn\AppData\Local\Temp\ccf7B1Wd.s 			page 24


 765              	.LFB145:
 577:n32g430_std_periph_driver/src/n32g430_tim.c **** 
 578:n32g430_std_periph_driver/src/n32g430_tim.c **** /**
 579:n32g430_std_periph_driver/src/n32g430_tim.c **** *\*\name    TIM_Output_Channel1_Preload_Set
 580:n32g430_std_periph_driver/src/n32g430_tim.c **** *\*\param   TIMx:
 581:n32g430_std_periph_driver/src/n32g430_tim.c **** *\*\          - TIM1
 582:n32g430_std_periph_driver/src/n32g430_tim.c **** *\*\          - TIM2
 583:n32g430_std_periph_driver/src/n32g430_tim.c **** *\*\          - TIM3
 584:n32g430_std_periph_driver/src/n32g430_tim.c **** *\*\          - TIM4
 585:n32g430_std_periph_driver/src/n32g430_tim.c **** *\*\          - TIM5
 586:n32g430_std_periph_driver/src/n32g430_tim.c **** *\*\          - TIM8
 587:n32g430_std_periph_driver/src/n32g430_tim.c **** *\*\param   TIM_output_channel_preload 
 588:n32g430_std_periph_driver/src/n32g430_tim.c **** *\*\          - TIM_OC_PRELOAD_ENABLE
 589:n32g430_std_periph_driver/src/n32g430_tim.c **** *\*\          - TIM_OC_PRELOAD_DISABLE
 590:n32g430_std_periph_driver/src/n32g430_tim.c **** *\*\return  none
 591:n32g430_std_periph_driver/src/n32g430_tim.c **** **/
 592:n32g430_std_periph_driver/src/n32g430_tim.c **** void TIM_Output_Channel1_Preload_Set(TIM_Module* TIMx, uint16_t TIM_output_channel_preload)
 593:n32g430_std_periph_driver/src/n32g430_tim.c **** {
 766              		.loc 1 593 1 is_stmt 1 view -0
 767              		.cfi_startproc
 768              		@ args = 0, pretend = 0, frame = 0
 769              		@ frame_needed = 0, uses_anonymous_args = 0
 770              		@ link register save eliminated.
 594:n32g430_std_periph_driver/src/n32g430_tim.c ****     uint16_t temp_value = 0;
 771              		.loc 1 594 5 view .LVU181
 595:n32g430_std_periph_driver/src/n32g430_tim.c **** 
 596:n32g430_std_periph_driver/src/n32g430_tim.c ****     temp_value = TIMx->CCMOD1;
 772              		.loc 1 596 5 view .LVU182
 773              		.loc 1 596 16 is_stmt 0 view .LVU183
 774 0000 038B     		ldrh	r3, [r0, #24]
 775 0002 9BB2     		uxth	r3, r3
 776              	.LVL53:
 597:n32g430_std_periph_driver/src/n32g430_tim.c ****     /* Reset the OC1PE Bit */
 598:n32g430_std_periph_driver/src/n32g430_tim.c ****     temp_value &= (uint16_t) ~((uint16_t)TIM_OC1_PRELOAD_MASK);
 777              		.loc 1 598 5 is_stmt 1 view .LVU184
 778              		.loc 1 598 16 is_stmt 0 view .LVU185
 779 0004 23F00803 		bic	r3, r3, #8
 780              	.LVL54:
 599:n32g430_std_periph_driver/src/n32g430_tim.c ****     /* Enable or Disable the Output Compare Preload feat_value |= (uint16_t)TIM_output_channel_prel
 600:n32g430_std_periph_driver/src/n32g430_tim.c ****     temp_value |= TIM_output_channel_preload;
 781              		.loc 1 600 5 is_stmt 1 view .LVU186
 782              		.loc 1 600 16 is_stmt 0 view .LVU187
 783 0008 0B43     		orrs	r3, r3, r1
 784              	.LVL55:
 601:n32g430_std_periph_driver/src/n32g430_tim.c ****     /* Write to TIMx CCMOD1 register */
 602:n32g430_std_periph_driver/src/n32g430_tim.c ****     TIMx->CCMOD1 = temp_value;    
 785              		.loc 1 602 5 is_stmt 1 view .LVU188
 786              		.loc 1 602 18 is_stmt 0 view .LVU189
 787 000a 0383     		strh	r3, [r0, #24]	@ movhi
 603:n32g430_std_periph_driver/src/n32g430_tim.c **** }
 788              		.loc 1 603 1 view .LVU190
 789 000c 7047     		bx	lr
 790              		.cfi_endproc
 791              	.LFE145:
 793              		.section	.text.TIM_Output_Channel2_Preload_Set,"ax",%progbits
 794              		.align	1
 795              		.global	TIM_Output_Channel2_Preload_Set
ARM GAS  C:\Users\Dawn\AppData\Local\Temp\ccf7B1Wd.s 			page 25


 796              		.syntax unified
 797              		.thumb
 798              		.thumb_func
 800              	TIM_Output_Channel2_Preload_Set:
 801              	.LVL56:
 802              	.LFB146:
 604:n32g430_std_periph_driver/src/n32g430_tim.c **** 
 605:n32g430_std_periph_driver/src/n32g430_tim.c **** /**
 606:n32g430_std_periph_driver/src/n32g430_tim.c **** *\*\name    TIM_Output_Channel2_Preload_Set
 607:n32g430_std_periph_driver/src/n32g430_tim.c **** *\*\param   TIMx:
 608:n32g430_std_periph_driver/src/n32g430_tim.c **** *\*\          - TIM1
 609:n32g430_std_periph_driver/src/n32g430_tim.c **** *\*\          - TIM2
 610:n32g430_std_periph_driver/src/n32g430_tim.c **** *\*\          - TIM3
 611:n32g430_std_periph_driver/src/n32g430_tim.c **** *\*\          - TIM4
 612:n32g430_std_periph_driver/src/n32g430_tim.c **** *\*\          - TIM5
 613:n32g430_std_periph_driver/src/n32g430_tim.c **** *\*\          - TIM8
 614:n32g430_std_periph_driver/src/n32g430_tim.c **** *\*\param   TIM_output_channel_preload 
 615:n32g430_std_periph_driver/src/n32g430_tim.c **** *\*\          - TIM_OC_PRELOAD_ENABLE
 616:n32g430_std_periph_driver/src/n32g430_tim.c **** *\*\          - TIM_OC_PRELOAD_DISABLE
 617:n32g430_std_periph_driver/src/n32g430_tim.c **** *\*\return  none
 618:n32g430_std_periph_driver/src/n32g430_tim.c **** **/
 619:n32g430_std_periph_driver/src/n32g430_tim.c **** void TIM_Output_Channel2_Preload_Set(TIM_Module* TIMx, uint16_t TIM_output_channel_preload)
 620:n32g430_std_periph_driver/src/n32g430_tim.c **** {
 803              		.loc 1 620 1 is_stmt 1 view -0
 804              		.cfi_startproc
 805              		@ args = 0, pretend = 0, frame = 0
 806              		@ frame_needed = 0, uses_anonymous_args = 0
 807              		@ link register save eliminated.
 621:n32g430_std_periph_driver/src/n32g430_tim.c ****     uint16_t temp_value = 0;
 808              		.loc 1 621 5 view .LVU192
 622:n32g430_std_periph_driver/src/n32g430_tim.c **** 
 623:n32g430_std_periph_driver/src/n32g430_tim.c ****     temp_value = TIMx->CCMOD1;
 809              		.loc 1 623 5 view .LVU193
 810              		.loc 1 623 16 is_stmt 0 view .LVU194
 811 0000 038B     		ldrh	r3, [r0, #24]
 812 0002 9BB2     		uxth	r3, r3
 813              	.LVL57:
 624:n32g430_std_periph_driver/src/n32g430_tim.c ****     /* Reset the OC1PE Bit */
 625:n32g430_std_periph_driver/src/n32g430_tim.c ****     temp_value &= (uint16_t) ~((uint16_t)TIM_OC2_PRELOAD_MASK);
 814              		.loc 1 625 5 is_stmt 1 view .LVU195
 815              		.loc 1 625 16 is_stmt 0 view .LVU196
 816 0004 23F40063 		bic	r3, r3, #2048
 817              	.LVL58:
 626:n32g430_std_periph_driver/src/n32g430_tim.c ****     /* Enable or Disable the Output Compare Preload feature */
 627:n32g430_std_periph_driver/src/n32g430_tim.c ****     temp_value |= (uint16_t)(TIM_output_channel_preload << 8);
 818              		.loc 1 627 5 is_stmt 1 view .LVU197
 819              		.loc 1 627 19 is_stmt 0 view .LVU198
 820 0008 0902     		lsls	r1, r1, #8
 821              	.LVL59:
 822              		.loc 1 627 19 view .LVU199
 823 000a 89B2     		uxth	r1, r1
 824              		.loc 1 627 16 view .LVU200
 825 000c 0B43     		orrs	r3, r3, r1
 826              	.LVL60:
 628:n32g430_std_periph_driver/src/n32g430_tim.c ****     /* Write to TIMx CCMOD1 register */
 629:n32g430_std_periph_driver/src/n32g430_tim.c ****     TIMx->CCMOD1 = temp_value;    
 827              		.loc 1 629 5 is_stmt 1 view .LVU201
ARM GAS  C:\Users\Dawn\AppData\Local\Temp\ccf7B1Wd.s 			page 26


 828              		.loc 1 629 18 is_stmt 0 view .LVU202
 829 000e 0383     		strh	r3, [r0, #24]	@ movhi
 630:n32g430_std_periph_driver/src/n32g430_tim.c **** }
 830              		.loc 1 630 1 view .LVU203
 831 0010 7047     		bx	lr
 832              		.cfi_endproc
 833              	.LFE146:
 835              		.section	.text.TIM_Output_Channel3_Preload_Set,"ax",%progbits
 836              		.align	1
 837              		.global	TIM_Output_Channel3_Preload_Set
 838              		.syntax unified
 839              		.thumb
 840              		.thumb_func
 842              	TIM_Output_Channel3_Preload_Set:
 843              	.LVL61:
 844              	.LFB147:
 631:n32g430_std_periph_driver/src/n32g430_tim.c **** 
 632:n32g430_std_periph_driver/src/n32g430_tim.c **** /**
 633:n32g430_std_periph_driver/src/n32g430_tim.c **** *\*\name    TIM_Output_Channel3_Preload_Set
 634:n32g430_std_periph_driver/src/n32g430_tim.c **** *\*\param   TIMx:
 635:n32g430_std_periph_driver/src/n32g430_tim.c **** *\*\          - TIM1
 636:n32g430_std_periph_driver/src/n32g430_tim.c **** *\*\          - TIM2
 637:n32g430_std_periph_driver/src/n32g430_tim.c **** *\*\          - TIM3
 638:n32g430_std_periph_driver/src/n32g430_tim.c **** *\*\          - TIM4
 639:n32g430_std_periph_driver/src/n32g430_tim.c **** *\*\          - TIM5
 640:n32g430_std_periph_driver/src/n32g430_tim.c **** *\*\          - TIM8
 641:n32g430_std_periph_driver/src/n32g430_tim.c **** *\*\param   TIM_output_channel_preload 
 642:n32g430_std_periph_driver/src/n32g430_tim.c **** *\*\          - TIM_OC_PRELOAD_ENABLE
 643:n32g430_std_periph_driver/src/n32g430_tim.c **** *\*\          - TIM_OC_PRELOAD_DISABLE
 644:n32g430_std_periph_driver/src/n32g430_tim.c **** *\*\return  none
 645:n32g430_std_periph_driver/src/n32g430_tim.c **** **/
 646:n32g430_std_periph_driver/src/n32g430_tim.c **** void TIM_Output_Channel3_Preload_Set(TIM_Module* TIMx, uint16_t TIM_output_channel_preload)
 647:n32g430_std_periph_driver/src/n32g430_tim.c **** {
 845              		.loc 1 647 1 is_stmt 1 view -0
 846              		.cfi_startproc
 847              		@ args = 0, pretend = 0, frame = 0
 848              		@ frame_needed = 0, uses_anonymous_args = 0
 849              		@ link register save eliminated.
 648:n32g430_std_periph_driver/src/n32g430_tim.c ****     uint16_t temp_value = 0;
 850              		.loc 1 648 5 view .LVU205
 649:n32g430_std_periph_driver/src/n32g430_tim.c **** 
 650:n32g430_std_periph_driver/src/n32g430_tim.c ****     temp_value = TIMx->CCMOD2;
 851              		.loc 1 650 5 view .LVU206
 852              		.loc 1 650 22 is_stmt 0 view .LVU207
 853 0000 C369     		ldr	r3, [r0, #28]
 854              		.loc 1 650 16 view .LVU208
 855 0002 9BB2     		uxth	r3, r3
 856              	.LVL62:
 651:n32g430_std_periph_driver/src/n32g430_tim.c ****     /* Reset the OC1PE Bit */
 652:n32g430_std_periph_driver/src/n32g430_tim.c ****     temp_value &= (uint16_t) ~((uint16_t)TIM_OC3_PRELOAD_MASK);
 857              		.loc 1 652 5 is_stmt 1 view .LVU209
 858              		.loc 1 652 16 is_stmt 0 view .LVU210
 859 0004 23F00803 		bic	r3, r3, #8
 860              	.LVL63:
 653:n32g430_std_periph_driver/src/n32g430_tim.c ****     /* Enable or Disable the Output Compare Preload feature */
 654:n32g430_std_periph_driver/src/n32g430_tim.c ****     temp_value |= TIM_output_channel_preload;
 861              		.loc 1 654 5 is_stmt 1 view .LVU211
ARM GAS  C:\Users\Dawn\AppData\Local\Temp\ccf7B1Wd.s 			page 27


 862              		.loc 1 654 16 is_stmt 0 view .LVU212
 863 0008 0B43     		orrs	r3, r3, r1
 864              	.LVL64:
 655:n32g430_std_periph_driver/src/n32g430_tim.c ****     /* Write to TIMx CCMOD2 register */
 656:n32g430_std_periph_driver/src/n32g430_tim.c ****     TIMx->CCMOD2 = temp_value;    
 865              		.loc 1 656 5 is_stmt 1 view .LVU213
 866              		.loc 1 656 18 is_stmt 0 view .LVU214
 867 000a C361     		str	r3, [r0, #28]
 657:n32g430_std_periph_driver/src/n32g430_tim.c **** }
 868              		.loc 1 657 1 view .LVU215
 869 000c 7047     		bx	lr
 870              		.cfi_endproc
 871              	.LFE147:
 873              		.section	.text.TIM_Output_Channel4_Preload_Set,"ax",%progbits
 874              		.align	1
 875              		.global	TIM_Output_Channel4_Preload_Set
 876              		.syntax unified
 877              		.thumb
 878              		.thumb_func
 880              	TIM_Output_Channel4_Preload_Set:
 881              	.LVL65:
 882              	.LFB148:
 658:n32g430_std_periph_driver/src/n32g430_tim.c **** 
 659:n32g430_std_periph_driver/src/n32g430_tim.c **** /**
 660:n32g430_std_periph_driver/src/n32g430_tim.c **** *\*\name    TIM_Output_Channel4_Preload_Set
 661:n32g430_std_periph_driver/src/n32g430_tim.c **** *\*\param   TIMx:
 662:n32g430_std_periph_driver/src/n32g430_tim.c **** *\*\          - TIM1
 663:n32g430_std_periph_driver/src/n32g430_tim.c **** *\*\          - TIM2
 664:n32g430_std_periph_driver/src/n32g430_tim.c **** *\*\          - TIM3
 665:n32g430_std_periph_driver/src/n32g430_tim.c **** *\*\          - TIM4
 666:n32g430_std_periph_driver/src/n32g430_tim.c **** *\*\          - TIM5
 667:n32g430_std_periph_driver/src/n32g430_tim.c **** *\*\          - TIM8
 668:n32g430_std_periph_driver/src/n32g430_tim.c **** *\*\param   TIM_output_channel_preload 
 669:n32g430_std_periph_driver/src/n32g430_tim.c **** *\*\          - TIM_OC_PRELOAD_ENABLE
 670:n32g430_std_periph_driver/src/n32g430_tim.c **** *\*\          - TIM_OC_PRELOAD_DISABLE
 671:n32g430_std_periph_driver/src/n32g430_tim.c **** *\*\return  none
 672:n32g430_std_periph_driver/src/n32g430_tim.c **** **/
 673:n32g430_std_periph_driver/src/n32g430_tim.c **** void TIM_Output_Channel4_Preload_Set(TIM_Module* TIMx, uint16_t TIM_output_channel_preload)
 674:n32g430_std_periph_driver/src/n32g430_tim.c **** {
 883              		.loc 1 674 1 is_stmt 1 view -0
 884              		.cfi_startproc
 885              		@ args = 0, pretend = 0, frame = 0
 886              		@ frame_needed = 0, uses_anonymous_args = 0
 887              		@ link register save eliminated.
 675:n32g430_std_periph_driver/src/n32g430_tim.c ****     uint16_t temp_value = 0;
 888              		.loc 1 675 5 view .LVU217
 676:n32g430_std_periph_driver/src/n32g430_tim.c **** 
 677:n32g430_std_periph_driver/src/n32g430_tim.c ****     temp_value = TIMx->CCMOD2;
 889              		.loc 1 677 5 view .LVU218
 890              		.loc 1 677 22 is_stmt 0 view .LVU219
 891 0000 C369     		ldr	r3, [r0, #28]
 892              		.loc 1 677 16 view .LVU220
 893 0002 9BB2     		uxth	r3, r3
 894              	.LVL66:
 678:n32g430_std_periph_driver/src/n32g430_tim.c ****     /* Reset the OC1PE Bit */
 679:n32g430_std_periph_driver/src/n32g430_tim.c ****     temp_value &= (uint16_t) ~((uint16_t)TIM_OC4_PRELOAD_MASK);
 895              		.loc 1 679 5 is_stmt 1 view .LVU221
ARM GAS  C:\Users\Dawn\AppData\Local\Temp\ccf7B1Wd.s 			page 28


 896              		.loc 1 679 16 is_stmt 0 view .LVU222
 897 0004 23F40063 		bic	r3, r3, #2048
 898              	.LVL67:
 680:n32g430_std_periph_driver/src/n32g430_tim.c ****     /* Enable or Disable the Output Compare Preload feature */
 681:n32g430_std_periph_driver/src/n32g430_tim.c ****     temp_value |= (uint16_t)(TIM_output_channel_preload << 8);
 899              		.loc 1 681 5 is_stmt 1 view .LVU223
 900              		.loc 1 681 19 is_stmt 0 view .LVU224
 901 0008 0902     		lsls	r1, r1, #8
 902              	.LVL68:
 903              		.loc 1 681 19 view .LVU225
 904 000a 89B2     		uxth	r1, r1
 905              		.loc 1 681 16 view .LVU226
 906 000c 0B43     		orrs	r3, r3, r1
 907              	.LVL69:
 682:n32g430_std_periph_driver/src/n32g430_tim.c ****     /* Write to TIMx CCMOD2 register */
 683:n32g430_std_periph_driver/src/n32g430_tim.c ****     TIMx->CCMOD2 = temp_value;    
 908              		.loc 1 683 5 is_stmt 1 view .LVU227
 909              		.loc 1 683 18 is_stmt 0 view .LVU228
 910 000e C361     		str	r3, [r0, #28]
 684:n32g430_std_periph_driver/src/n32g430_tim.c **** }
 911              		.loc 1 684 1 view .LVU229
 912 0010 7047     		bx	lr
 913              		.cfi_endproc
 914              	.LFE148:
 916              		.section	.text.TIM_Output_Channel5_Preload_Set,"ax",%progbits
 917              		.align	1
 918              		.global	TIM_Output_Channel5_Preload_Set
 919              		.syntax unified
 920              		.thumb
 921              		.thumb_func
 923              	TIM_Output_Channel5_Preload_Set:
 924              	.LVL70:
 925              	.LFB149:
 685:n32g430_std_periph_driver/src/n32g430_tim.c **** 
 686:n32g430_std_periph_driver/src/n32g430_tim.c **** /**
 687:n32g430_std_periph_driver/src/n32g430_tim.c **** *\*\name    TIM_Output_Channel5_Preload_Set
 688:n32g430_std_periph_driver/src/n32g430_tim.c **** *\*\param   TIMx:
 689:n32g430_std_periph_driver/src/n32g430_tim.c **** *\*\          - TIM1
 690:n32g430_std_periph_driver/src/n32g430_tim.c **** *\*\          - TIM8
 691:n32g430_std_periph_driver/src/n32g430_tim.c **** *\*\param   TIM_output_channel_preload 
 692:n32g430_std_periph_driver/src/n32g430_tim.c **** *\*\          - TIM_OC_PRELOAD_ENABLE
 693:n32g430_std_periph_driver/src/n32g430_tim.c **** *\*\          - TIM_OC_PRELOAD_DISABLE
 694:n32g430_std_periph_driver/src/n32g430_tim.c **** *\*\return  none
 695:n32g430_std_periph_driver/src/n32g430_tim.c **** **/
 696:n32g430_std_periph_driver/src/n32g430_tim.c **** void TIM_Output_Channel5_Preload_Set(TIM_Module* TIMx, uint16_t TIM_output_channel_preload)
 697:n32g430_std_periph_driver/src/n32g430_tim.c **** {
 926              		.loc 1 697 1 is_stmt 1 view -0
 927              		.cfi_startproc
 928              		@ args = 0, pretend = 0, frame = 0
 929              		@ frame_needed = 0, uses_anonymous_args = 0
 930              		@ link register save eliminated.
 698:n32g430_std_periph_driver/src/n32g430_tim.c ****     uint16_t temp_value = 0;
 931              		.loc 1 698 5 view .LVU231
 699:n32g430_std_periph_driver/src/n32g430_tim.c **** 
 700:n32g430_std_periph_driver/src/n32g430_tim.c ****     temp_value = TIMx->CCMOD3;
 932              		.loc 1 700 5 view .LVU232
 933              		.loc 1 700 16 is_stmt 0 view .LVU233
ARM GAS  C:\Users\Dawn\AppData\Local\Temp\ccf7B1Wd.s 			page 29


 934 0000 B0F85430 		ldrh	r3, [r0, #84]
 935 0004 9BB2     		uxth	r3, r3
 936              	.LVL71:
 701:n32g430_std_periph_driver/src/n32g430_tim.c ****     /* Reset the OC1PE Bit */
 702:n32g430_std_periph_driver/src/n32g430_tim.c ****     temp_value &= (uint16_t) ~((uint16_t)TIM_OC5_PRELOAD_MASK);
 937              		.loc 1 702 5 is_stmt 1 view .LVU234
 938              		.loc 1 702 16 is_stmt 0 view .LVU235
 939 0006 23F00803 		bic	r3, r3, #8
 940              	.LVL72:
 703:n32g430_std_periph_driver/src/n32g430_tim.c ****     /* Enable or Disable the Output Compare Preload feature */
 704:n32g430_std_periph_driver/src/n32g430_tim.c ****     temp_value |= TIM_output_channel_preload;
 941              		.loc 1 704 5 is_stmt 1 view .LVU236
 942              		.loc 1 704 16 is_stmt 0 view .LVU237
 943 000a 0B43     		orrs	r3, r3, r1
 944              	.LVL73:
 705:n32g430_std_periph_driver/src/n32g430_tim.c ****     /* Write to TIMx CCMOD3 register */
 706:n32g430_std_periph_driver/src/n32g430_tim.c ****     TIMx->CCMOD3 = temp_value;    
 945              		.loc 1 706 5 is_stmt 1 view .LVU238
 946              		.loc 1 706 18 is_stmt 0 view .LVU239
 947 000c A0F85430 		strh	r3, [r0, #84]	@ movhi
 707:n32g430_std_periph_driver/src/n32g430_tim.c **** }
 948              		.loc 1 707 1 view .LVU240
 949 0010 7047     		bx	lr
 950              		.cfi_endproc
 951              	.LFE149:
 953              		.section	.text.TIM_Output_Channel6_Preload_Set,"ax",%progbits
 954              		.align	1
 955              		.global	TIM_Output_Channel6_Preload_Set
 956              		.syntax unified
 957              		.thumb
 958              		.thumb_func
 960              	TIM_Output_Channel6_Preload_Set:
 961              	.LVL74:
 962              	.LFB150:
 708:n32g430_std_periph_driver/src/n32g430_tim.c **** 
 709:n32g430_std_periph_driver/src/n32g430_tim.c **** /**
 710:n32g430_std_periph_driver/src/n32g430_tim.c **** *\*\name    TIM_Output_Channel6_Preload_Set
 711:n32g430_std_periph_driver/src/n32g430_tim.c **** *\*\param   TIMx:
 712:n32g430_std_periph_driver/src/n32g430_tim.c **** *\*\          - TIM1
 713:n32g430_std_periph_driver/src/n32g430_tim.c **** *\*\param   TIM_output_channel_preload 
 714:n32g430_std_periph_driver/src/n32g430_tim.c **** *\*\          - TIM_OC_PRE_LOAD_ENABLE
 715:n32g430_std_periph_driver/src/n32g430_tim.c **** *\*\          - TIM_OC_PRE_LOAD_DISABLE
 716:n32g430_std_periph_driver/src/n32g430_tim.c **** *\*\return  none
 717:n32g430_std_periph_driver/src/n32g430_tim.c **** **/
 718:n32g430_std_periph_driver/src/n32g430_tim.c **** void TIM_Output_Channel6_Preload_Set(TIM_Module* TIMx, uint16_t TIM_output_channel_preload)
 719:n32g430_std_periph_driver/src/n32g430_tim.c **** {
 963              		.loc 1 719 1 is_stmt 1 view -0
 964              		.cfi_startproc
 965              		@ args = 0, pretend = 0, frame = 0
 966              		@ frame_needed = 0, uses_anonymous_args = 0
 967              		@ link register save eliminated.
 720:n32g430_std_periph_driver/src/n32g430_tim.c ****     uint16_t temp_value = 0;
 968              		.loc 1 720 5 view .LVU242
 721:n32g430_std_periph_driver/src/n32g430_tim.c **** 
 722:n32g430_std_periph_driver/src/n32g430_tim.c ****     temp_value = TIMx->CCMOD3;
 969              		.loc 1 722 5 view .LVU243
 970              		.loc 1 722 16 is_stmt 0 view .LVU244
ARM GAS  C:\Users\Dawn\AppData\Local\Temp\ccf7B1Wd.s 			page 30


 971 0000 B0F85430 		ldrh	r3, [r0, #84]
 972 0004 9BB2     		uxth	r3, r3
 973              	.LVL75:
 723:n32g430_std_periph_driver/src/n32g430_tim.c ****     /* Reset the OC1PE Bit */
 724:n32g430_std_periph_driver/src/n32g430_tim.c ****     temp_value &= (uint16_t) ~((uint16_t)TIM_OC6_PRELOAD_MASK);
 974              		.loc 1 724 5 is_stmt 1 view .LVU245
 975              		.loc 1 724 16 is_stmt 0 view .LVU246
 976 0006 23F40063 		bic	r3, r3, #2048
 977              	.LVL76:
 725:n32g430_std_periph_driver/src/n32g430_tim.c ****     /* Enable or Disable the Output Compare Preload feature */
 726:n32g430_std_periph_driver/src/n32g430_tim.c ****     temp_value |=  (uint16_t)(TIM_output_channel_preload << 8);
 978              		.loc 1 726 5 is_stmt 1 view .LVU247
 979              		.loc 1 726 20 is_stmt 0 view .LVU248
 980 000a 0902     		lsls	r1, r1, #8
 981              	.LVL77:
 982              		.loc 1 726 20 view .LVU249
 983 000c 89B2     		uxth	r1, r1
 984              		.loc 1 726 16 view .LVU250
 985 000e 0B43     		orrs	r3, r3, r1
 986              	.LVL78:
 727:n32g430_std_periph_driver/src/n32g430_tim.c ****     /* Write to TIMx CCMOD3 register */
 728:n32g430_std_periph_driver/src/n32g430_tim.c ****     TIMx->CCMOD3 = temp_value;    
 987              		.loc 1 728 5 is_stmt 1 view .LVU251
 988              		.loc 1 728 18 is_stmt 0 view .LVU252
 989 0010 A0F85430 		strh	r3, [r0, #84]	@ movhi
 729:n32g430_std_periph_driver/src/n32g430_tim.c **** }
 990              		.loc 1 729 1 view .LVU253
 991 0014 7047     		bx	lr
 992              		.cfi_endproc
 993              	.LFE150:
 995              		.section	.text.TIM_Output_Channel7_Preload_Set,"ax",%progbits
 996              		.align	1
 997              		.global	TIM_Output_Channel7_Preload_Set
 998              		.syntax unified
 999              		.thumb
 1000              		.thumb_func
 1002              	TIM_Output_Channel7_Preload_Set:
 1003              	.LVL79:
 1004              	.LFB151:
 730:n32g430_std_periph_driver/src/n32g430_tim.c **** 
 731:n32g430_std_periph_driver/src/n32g430_tim.c **** /**
 732:n32g430_std_periph_driver/src/n32g430_tim.c **** *\*\name    TIM_Output_Channel7_Preload_Set
 733:n32g430_std_periph_driver/src/n32g430_tim.c **** *\*\param   TIMx:
 734:n32g430_std_periph_driver/src/n32g430_tim.c **** *\*\          - TIM1
 735:n32g430_std_periph_driver/src/n32g430_tim.c **** *\*\param   TIM_output_channel_preload 
 736:n32g430_std_periph_driver/src/n32g430_tim.c **** *\*\          - TIM_OC_PRELOAD_ENABLE
 737:n32g430_std_periph_driver/src/n32g430_tim.c **** *\*\          - TIM_OC_PRELOAD_DISABLE
 738:n32g430_std_periph_driver/src/n32g430_tim.c **** *\*\return  none
 739:n32g430_std_periph_driver/src/n32g430_tim.c **** **/
 740:n32g430_std_periph_driver/src/n32g430_tim.c **** void TIM_Output_Channel7_Preload_Set(TIM_Module* TIMx, uint16_t TIM_output_channel_preload)
 741:n32g430_std_periph_driver/src/n32g430_tim.c **** {
 1005              		.loc 1 741 1 is_stmt 1 view -0
 1006              		.cfi_startproc
 1007              		@ args = 0, pretend = 0, frame = 0
 1008              		@ frame_needed = 0, uses_anonymous_args = 0
 1009              		@ link register save eliminated.
 742:n32g430_std_periph_driver/src/n32g430_tim.c ****     if(TIM_OC_PRELOAD_ENABLE == TIM_output_channel_preload)
ARM GAS  C:\Users\Dawn\AppData\Local\Temp\ccf7B1Wd.s 			page 31


 1010              		.loc 1 742 5 view .LVU255
 1011              		.loc 1 742 7 is_stmt 0 view .LVU256
 1012 0000 0829     		cmp	r1, #8
 1013 0002 05D0     		beq	.L58
 743:n32g430_std_periph_driver/src/n32g430_tim.c ****     {
 744:n32g430_std_periph_driver/src/n32g430_tim.c ****         TIMx->CCMOD2 |= TIM_OC7_PRELOAD_ENABLE;
 745:n32g430_std_periph_driver/src/n32g430_tim.c ****     }
 746:n32g430_std_periph_driver/src/n32g430_tim.c ****     else if(TIM_OC_PRELOAD_DISABLE == TIM_output_channel_preload)
 1014              		.loc 1 746 10 is_stmt 1 view .LVU257
 1015              		.loc 1 746 12 is_stmt 0 view .LVU258
 1016 0004 19B9     		cbnz	r1, .L55
 747:n32g430_std_periph_driver/src/n32g430_tim.c ****     {
 748:n32g430_std_periph_driver/src/n32g430_tim.c ****         TIMx->CCMOD2 &= (uint32_t)(~TIM_OC7_PRELOAD_ENABLE);
 1017              		.loc 1 748 9 is_stmt 1 view .LVU259
 1018              		.loc 1 748 13 is_stmt 0 view .LVU260
 1019 0006 C369     		ldr	r3, [r0, #28]
 1020              		.loc 1 748 22 view .LVU261
 1021 0008 23F48033 		bic	r3, r3, #65536
 1022 000c C361     		str	r3, [r0, #28]
 749:n32g430_std_periph_driver/src/n32g430_tim.c ****     }
 750:n32g430_std_periph_driver/src/n32g430_tim.c ****     else
 751:n32g430_std_periph_driver/src/n32g430_tim.c ****     {
 752:n32g430_std_periph_driver/src/n32g430_tim.c ****         /* none */
 753:n32g430_std_periph_driver/src/n32g430_tim.c ****     }
 1023              		.loc 1 753 5 is_stmt 1 view .LVU262
 1024              	.L55:
 754:n32g430_std_periph_driver/src/n32g430_tim.c **** }
 1025              		.loc 1 754 1 is_stmt 0 view .LVU263
 1026 000e 7047     		bx	lr
 1027              	.L58:
 744:n32g430_std_periph_driver/src/n32g430_tim.c ****     }
 1028              		.loc 1 744 9 is_stmt 1 view .LVU264
 744:n32g430_std_periph_driver/src/n32g430_tim.c ****     }
 1029              		.loc 1 744 13 is_stmt 0 view .LVU265
 1030 0010 C369     		ldr	r3, [r0, #28]
 744:n32g430_std_periph_driver/src/n32g430_tim.c ****     }
 1031              		.loc 1 744 22 view .LVU266
 1032 0012 43F48033 		orr	r3, r3, #65536
 1033 0016 C361     		str	r3, [r0, #28]
 1034 0018 7047     		bx	lr
 1035              		.cfi_endproc
 1036              	.LFE151:
 1038              		.section	.text.TIM_Output_Channel8_Preload_Set,"ax",%progbits
 1039              		.align	1
 1040              		.global	TIM_Output_Channel8_Preload_Set
 1041              		.syntax unified
 1042              		.thumb
 1043              		.thumb_func
 1045              	TIM_Output_Channel8_Preload_Set:
 1046              	.LVL80:
 1047              	.LFB152:
 755:n32g430_std_periph_driver/src/n32g430_tim.c **** 
 756:n32g430_std_periph_driver/src/n32g430_tim.c **** /**
 757:n32g430_std_periph_driver/src/n32g430_tim.c **** *\*\name    TIM_Output_Channel8_Preload_Set
 758:n32g430_std_periph_driver/src/n32g430_tim.c **** *\*\param   TIMx:
 759:n32g430_std_periph_driver/src/n32g430_tim.c **** *\*\          - TIM1
 760:n32g430_std_periph_driver/src/n32g430_tim.c **** *\*\param   TIM_output_channel_preload 
ARM GAS  C:\Users\Dawn\AppData\Local\Temp\ccf7B1Wd.s 			page 32


 761:n32g430_std_periph_driver/src/n32g430_tim.c **** *\*\          - TIM_OC_PRE_LOAD_ENABLE
 762:n32g430_std_periph_driver/src/n32g430_tim.c **** *\*\          - TIM_OC_PRE_LOAD_DISABLE
 763:n32g430_std_periph_driver/src/n32g430_tim.c **** *\*\return  none
 764:n32g430_std_periph_driver/src/n32g430_tim.c **** **/
 765:n32g430_std_periph_driver/src/n32g430_tim.c **** void TIM_Output_Channel8_Preload_Set(TIM_Module* TIMx, uint16_t TIM_output_channel_preload)
 766:n32g430_std_periph_driver/src/n32g430_tim.c **** {
 1048              		.loc 1 766 1 is_stmt 1 view -0
 1049              		.cfi_startproc
 1050              		@ args = 0, pretend = 0, frame = 0
 1051              		@ frame_needed = 0, uses_anonymous_args = 0
 1052              		@ link register save eliminated.
 767:n32g430_std_periph_driver/src/n32g430_tim.c ****     if(TIM_OC_PRELOAD_ENABLE == TIM_output_channel_preload)
 1053              		.loc 1 767 5 view .LVU268
 1054              		.loc 1 767 7 is_stmt 0 view .LVU269
 1055 0000 0829     		cmp	r1, #8
 1056 0002 05D0     		beq	.L62
 768:n32g430_std_periph_driver/src/n32g430_tim.c ****     {
 769:n32g430_std_periph_driver/src/n32g430_tim.c ****         TIMx->CCMOD2 |= TIM_OC8_PRELOAD_ENABLE;
 770:n32g430_std_periph_driver/src/n32g430_tim.c ****     }
 771:n32g430_std_periph_driver/src/n32g430_tim.c ****     else if(TIM_OC_PRELOAD_DISABLE == TIM_output_channel_preload)
 1057              		.loc 1 771 10 is_stmt 1 view .LVU270
 1058              		.loc 1 771 12 is_stmt 0 view .LVU271
 1059 0004 19B9     		cbnz	r1, .L59
 772:n32g430_std_periph_driver/src/n32g430_tim.c ****     {
 773:n32g430_std_periph_driver/src/n32g430_tim.c ****         TIMx->CCMOD2 &= (uint32_t)(~TIM_OC8_PRELOAD_ENABLE);
 1060              		.loc 1 773 9 is_stmt 1 view .LVU272
 1061              		.loc 1 773 13 is_stmt 0 view .LVU273
 1062 0006 C369     		ldr	r3, [r0, #28]
 1063              		.loc 1 773 22 view .LVU274
 1064 0008 23F40013 		bic	r3, r3, #2097152
 1065 000c C361     		str	r3, [r0, #28]
 774:n32g430_std_periph_driver/src/n32g430_tim.c ****     }
 775:n32g430_std_periph_driver/src/n32g430_tim.c ****     else
 776:n32g430_std_periph_driver/src/n32g430_tim.c ****     {
 777:n32g430_std_periph_driver/src/n32g430_tim.c ****         /* none */
 778:n32g430_std_periph_driver/src/n32g430_tim.c ****     }
 1066              		.loc 1 778 5 is_stmt 1 view .LVU275
 1067              	.L59:
 779:n32g430_std_periph_driver/src/n32g430_tim.c **** }
 1068              		.loc 1 779 1 is_stmt 0 view .LVU276
 1069 000e 7047     		bx	lr
 1070              	.L62:
 769:n32g430_std_periph_driver/src/n32g430_tim.c ****     }
 1071              		.loc 1 769 9 is_stmt 1 view .LVU277
 769:n32g430_std_periph_driver/src/n32g430_tim.c ****     }
 1072              		.loc 1 769 13 is_stmt 0 view .LVU278
 1073 0010 C369     		ldr	r3, [r0, #28]
 769:n32g430_std_periph_driver/src/n32g430_tim.c ****     }
 1074              		.loc 1 769 22 view .LVU279
 1075 0012 43F40013 		orr	r3, r3, #2097152
 1076 0016 C361     		str	r3, [r0, #28]
 1077 0018 7047     		bx	lr
 1078              		.cfi_endproc
 1079              	.LFE152:
 1081              		.section	.text.TIM_Output_Channel9_Preload_Set,"ax",%progbits
 1082              		.align	1
 1083              		.global	TIM_Output_Channel9_Preload_Set
ARM GAS  C:\Users\Dawn\AppData\Local\Temp\ccf7B1Wd.s 			page 33


 1084              		.syntax unified
 1085              		.thumb
 1086              		.thumb_func
 1088              	TIM_Output_Channel9_Preload_Set:
 1089              	.LVL81:
 1090              	.LFB153:
 780:n32g430_std_periph_driver/src/n32g430_tim.c **** 
 781:n32g430_std_periph_driver/src/n32g430_tim.c **** /**
 782:n32g430_std_periph_driver/src/n32g430_tim.c **** *\*\name    TIM_Output_Channel9_Preload_Set
 783:n32g430_std_periph_driver/src/n32g430_tim.c **** *\*\param   TIMx:
 784:n32g430_std_periph_driver/src/n32g430_tim.c **** *\*\          - TIM1
 785:n32g430_std_periph_driver/src/n32g430_tim.c **** *\*\param   TIM_output_channel_preload 
 786:n32g430_std_periph_driver/src/n32g430_tim.c **** *\*\          - TIM_OC_PRE_LOAD_ENABLE
 787:n32g430_std_periph_driver/src/n32g430_tim.c **** *\*\          - TIM_OC_PRE_LOAD_DISABLE
 788:n32g430_std_periph_driver/src/n32g430_tim.c **** *\*\return  none
 789:n32g430_std_periph_driver/src/n32g430_tim.c **** **/
 790:n32g430_std_periph_driver/src/n32g430_tim.c **** void TIM_Output_Channel9_Preload_Set(TIM_Module* TIMx, uint16_t TIM_output_channel_preload)
 791:n32g430_std_periph_driver/src/n32g430_tim.c **** {
 1091              		.loc 1 791 1 is_stmt 1 view -0
 1092              		.cfi_startproc
 1093              		@ args = 0, pretend = 0, frame = 0
 1094              		@ frame_needed = 0, uses_anonymous_args = 0
 1095              		@ link register save eliminated.
 792:n32g430_std_periph_driver/src/n32g430_tim.c ****     if(TIM_OC_PRELOAD_ENABLE == TIM_output_channel_preload)
 1096              		.loc 1 792 5 view .LVU281
 1097              		.loc 1 792 7 is_stmt 0 view .LVU282
 1098 0000 0829     		cmp	r1, #8
 1099 0002 05D0     		beq	.L66
 793:n32g430_std_periph_driver/src/n32g430_tim.c ****     {
 794:n32g430_std_periph_driver/src/n32g430_tim.c ****         TIMx->CCMOD2 |= TIM_OC9_PRELOAD_ENABLE;
 795:n32g430_std_periph_driver/src/n32g430_tim.c ****     }
 796:n32g430_std_periph_driver/src/n32g430_tim.c ****     else if(TIM_OC_PRELOAD_DISABLE == TIM_output_channel_preload)
 1100              		.loc 1 796 10 is_stmt 1 view .LVU283
 1101              		.loc 1 796 12 is_stmt 0 view .LVU284
 1102 0004 19B9     		cbnz	r1, .L63
 797:n32g430_std_periph_driver/src/n32g430_tim.c ****     {
 798:n32g430_std_periph_driver/src/n32g430_tim.c ****         TIMx->CCMOD2 &= (uint32_t)(~TIM_OC9_PRELOAD_ENABLE);
 1103              		.loc 1 798 9 is_stmt 1 view .LVU285
 1104              		.loc 1 798 13 is_stmt 0 view .LVU286
 1105 0006 C369     		ldr	r3, [r0, #28]
 1106              		.loc 1 798 22 view .LVU287
 1107 0008 23F08063 		bic	r3, r3, #67108864
 1108 000c C361     		str	r3, [r0, #28]
 799:n32g430_std_periph_driver/src/n32g430_tim.c ****     }
 800:n32g430_std_periph_driver/src/n32g430_tim.c ****     else
 801:n32g430_std_periph_driver/src/n32g430_tim.c ****     {
 802:n32g430_std_periph_driver/src/n32g430_tim.c ****         /* none */
 803:n32g430_std_periph_driver/src/n32g430_tim.c ****     }
 1109              		.loc 1 803 5 is_stmt 1 view .LVU288
 1110              	.L63:
 804:n32g430_std_periph_driver/src/n32g430_tim.c **** }
 1111              		.loc 1 804 1 is_stmt 0 view .LVU289
 1112 000e 7047     		bx	lr
 1113              	.L66:
 794:n32g430_std_periph_driver/src/n32g430_tim.c ****     }
 1114              		.loc 1 794 9 is_stmt 1 view .LVU290
 794:n32g430_std_periph_driver/src/n32g430_tim.c ****     }
ARM GAS  C:\Users\Dawn\AppData\Local\Temp\ccf7B1Wd.s 			page 34


 1115              		.loc 1 794 13 is_stmt 0 view .LVU291
 1116 0010 C369     		ldr	r3, [r0, #28]
 794:n32g430_std_periph_driver/src/n32g430_tim.c ****     }
 1117              		.loc 1 794 22 view .LVU292
 1118 0012 43F08063 		orr	r3, r3, #67108864
 1119 0016 C361     		str	r3, [r0, #28]
 1120 0018 7047     		bx	lr
 1121              		.cfi_endproc
 1122              	.LFE153:
 1124              		.section	.text.TIM_Auto_Reload_Preload_Enable,"ax",%progbits
 1125              		.align	1
 1126              		.global	TIM_Auto_Reload_Preload_Enable
 1127              		.syntax unified
 1128              		.thumb
 1129              		.thumb_func
 1131              	TIM_Auto_Reload_Preload_Enable:
 1132              	.LVL82:
 1133              	.LFB154:
 805:n32g430_std_periph_driver/src/n32g430_tim.c **** 
 806:n32g430_std_periph_driver/src/n32g430_tim.c **** /**
 807:n32g430_std_periph_driver/src/n32g430_tim.c **** *\*\name    TIM_Auto_Reload_Preload_Enable
 808:n32g430_std_periph_driver/src/n32g430_tim.c **** *\*\param   TIMx:
 809:n32g430_std_periph_driver/src/n32g430_tim.c **** *\*\          - TIM1
 810:n32g430_std_periph_driver/src/n32g430_tim.c **** *\*\          - TIM2
 811:n32g430_std_periph_driver/src/n32g430_tim.c **** *\*\          - TIM3
 812:n32g430_std_periph_driver/src/n32g430_tim.c **** *\*\          - TIM4
 813:n32g430_std_periph_driver/src/n32g430_tim.c **** *\*\          - TIM5
 814:n32g430_std_periph_driver/src/n32g430_tim.c **** *\*\          - TIM6
 815:n32g430_std_periph_driver/src/n32g430_tim.c **** *\*\          - TIM8
 816:n32g430_std_periph_driver/src/n32g430_tim.c **** *\*\return  none
 817:n32g430_std_periph_driver/src/n32g430_tim.c **** **/
 818:n32g430_std_periph_driver/src/n32g430_tim.c **** void TIM_Auto_Reload_Preload_Enable(TIM_Module* TIMx)
 819:n32g430_std_periph_driver/src/n32g430_tim.c **** {
 1134              		.loc 1 819 1 is_stmt 1 view -0
 1135              		.cfi_startproc
 1136              		@ args = 0, pretend = 0, frame = 0
 1137              		@ frame_needed = 0, uses_anonymous_args = 0
 1138              		@ link register save eliminated.
 820:n32g430_std_periph_driver/src/n32g430_tim.c ****     TIMx->CTRL1 |= TIM_AR_PRELOAD_ENABLE;
 1139              		.loc 1 820 5 view .LVU294
 1140              		.loc 1 820 9 is_stmt 0 view .LVU295
 1141 0000 0368     		ldr	r3, [r0]
 1142              		.loc 1 820 17 view .LVU296
 1143 0002 43F08003 		orr	r3, r3, #128
 1144 0006 0360     		str	r3, [r0]
 821:n32g430_std_periph_driver/src/n32g430_tim.c **** }
 1145              		.loc 1 821 1 view .LVU297
 1146 0008 7047     		bx	lr
 1147              		.cfi_endproc
 1148              	.LFE154:
 1150              		.section	.text.TIM_Auto_Reload_Preload_Disable,"ax",%progbits
 1151              		.align	1
 1152              		.global	TIM_Auto_Reload_Preload_Disable
 1153              		.syntax unified
 1154              		.thumb
 1155              		.thumb_func
 1157              	TIM_Auto_Reload_Preload_Disable:
ARM GAS  C:\Users\Dawn\AppData\Local\Temp\ccf7B1Wd.s 			page 35


 1158              	.LVL83:
 1159              	.LFB155:
 822:n32g430_std_periph_driver/src/n32g430_tim.c **** 
 823:n32g430_std_periph_driver/src/n32g430_tim.c **** /**
 824:n32g430_std_periph_driver/src/n32g430_tim.c **** *\*\name    TIM_Auto_Reload_Preload_Disable
 825:n32g430_std_periph_driver/src/n32g430_tim.c **** *\*\param   TIMx:
 826:n32g430_std_periph_driver/src/n32g430_tim.c **** *\*\          - TIM1
 827:n32g430_std_periph_driver/src/n32g430_tim.c **** *\*\          - TIM2
 828:n32g430_std_periph_driver/src/n32g430_tim.c **** *\*\          - TIM3
 829:n32g430_std_periph_driver/src/n32g430_tim.c **** *\*\          - TIM4
 830:n32g430_std_periph_driver/src/n32g430_tim.c **** *\*\          - TIM5
 831:n32g430_std_periph_driver/src/n32g430_tim.c **** *\*\          - TIM6
 832:n32g430_std_periph_driver/src/n32g430_tim.c **** *\*\          - TIM8
 833:n32g430_std_periph_driver/src/n32g430_tim.c **** *\*\return  none
 834:n32g430_std_periph_driver/src/n32g430_tim.c **** **/
 835:n32g430_std_periph_driver/src/n32g430_tim.c **** void TIM_Auto_Reload_Preload_Disable(TIM_Module* TIMx)
 836:n32g430_std_periph_driver/src/n32g430_tim.c **** {
 1160              		.loc 1 836 1 is_stmt 1 view -0
 1161              		.cfi_startproc
 1162              		@ args = 0, pretend = 0, frame = 0
 1163              		@ frame_needed = 0, uses_anonymous_args = 0
 1164              		@ link register save eliminated.
 837:n32g430_std_periph_driver/src/n32g430_tim.c ****     TIMx->CTRL1 &= (uint32_t) ~((uint32_t)TIM_AR_PRELOAD_ENABLE);
 1165              		.loc 1 837 5 view .LVU299
 1166              		.loc 1 837 9 is_stmt 0 view .LVU300
 1167 0000 0368     		ldr	r3, [r0]
 1168              		.loc 1 837 17 view .LVU301
 1169 0002 23F08003 		bic	r3, r3, #128
 1170 0006 0360     		str	r3, [r0]
 838:n32g430_std_periph_driver/src/n32g430_tim.c **** }
 1171              		.loc 1 838 1 view .LVU302
 1172 0008 7047     		bx	lr
 1173              		.cfi_endproc
 1174              	.LFE155:
 1176              		.section	.text.TIM_Update_Event_Enable,"ax",%progbits
 1177              		.align	1
 1178              		.global	TIM_Update_Event_Enable
 1179              		.syntax unified
 1180              		.thumb
 1181              		.thumb_func
 1183              	TIM_Update_Event_Enable:
 1184              	.LVL84:
 1185              	.LFB156:
 839:n32g430_std_periph_driver/src/n32g430_tim.c **** 
 840:n32g430_std_periph_driver/src/n32g430_tim.c **** 
 841:n32g430_std_periph_driver/src/n32g430_tim.c **** /**
 842:n32g430_std_periph_driver/src/n32g430_tim.c **** *\*\name    TIM_Update_Event_Enable
 843:n32g430_std_periph_driver/src/n32g430_tim.c **** *\*\param   TIMx:
 844:n32g430_std_periph_driver/src/n32g430_tim.c **** *\*\          - TIM1
 845:n32g430_std_periph_driver/src/n32g430_tim.c **** *\*\          - TIM2
 846:n32g430_std_periph_driver/src/n32g430_tim.c **** *\*\          - TIM3
 847:n32g430_std_periph_driver/src/n32g430_tim.c **** *\*\          - TIM4
 848:n32g430_std_periph_driver/src/n32g430_tim.c **** *\*\          - TIM5
 849:n32g430_std_periph_driver/src/n32g430_tim.c **** *\*\          - TIM6
 850:n32g430_std_periph_driver/src/n32g430_tim.c **** *\*\          - TIM8
 851:n32g430_std_periph_driver/src/n32g430_tim.c **** *\*\return  none
 852:n32g430_std_periph_driver/src/n32g430_tim.c **** **/
ARM GAS  C:\Users\Dawn\AppData\Local\Temp\ccf7B1Wd.s 			page 36


 853:n32g430_std_periph_driver/src/n32g430_tim.c **** void TIM_Update_Event_Enable(TIM_Module* TIMx)
 854:n32g430_std_periph_driver/src/n32g430_tim.c **** {
 1186              		.loc 1 854 1 is_stmt 1 view -0
 1187              		.cfi_startproc
 1188              		@ args = 0, pretend = 0, frame = 0
 1189              		@ frame_needed = 0, uses_anonymous_args = 0
 1190              		@ link register save eliminated.
 855:n32g430_std_periph_driver/src/n32g430_tim.c ****     TIMx->CTRL1 &= (uint32_t) ~((uint32_t)TIM_UPDATE_EVENT_DISABLE);
 1191              		.loc 1 855 5 view .LVU304
 1192              		.loc 1 855 9 is_stmt 0 view .LVU305
 1193 0000 0368     		ldr	r3, [r0]
 1194              		.loc 1 855 17 view .LVU306
 1195 0002 23F00203 		bic	r3, r3, #2
 1196 0006 0360     		str	r3, [r0]
 856:n32g430_std_periph_driver/src/n32g430_tim.c **** }
 1197              		.loc 1 856 1 view .LVU307
 1198 0008 7047     		bx	lr
 1199              		.cfi_endproc
 1200              	.LFE156:
 1202              		.section	.text.TIM_Update_Event_Disable,"ax",%progbits
 1203              		.align	1
 1204              		.global	TIM_Update_Event_Disable
 1205              		.syntax unified
 1206              		.thumb
 1207              		.thumb_func
 1209              	TIM_Update_Event_Disable:
 1210              	.LVL85:
 1211              	.LFB157:
 857:n32g430_std_periph_driver/src/n32g430_tim.c **** 
 858:n32g430_std_periph_driver/src/n32g430_tim.c **** /**
 859:n32g430_std_periph_driver/src/n32g430_tim.c **** *\*\name    TIM_Update_Event_Disable
 860:n32g430_std_periph_driver/src/n32g430_tim.c **** *\*\param   TIMx:
 861:n32g430_std_periph_driver/src/n32g430_tim.c **** *\*\          - TIM1
 862:n32g430_std_periph_driver/src/n32g430_tim.c **** *\*\          - TIM2
 863:n32g430_std_periph_driver/src/n32g430_tim.c **** *\*\          - TIM3
 864:n32g430_std_periph_driver/src/n32g430_tim.c **** *\*\          - TIM4
 865:n32g430_std_periph_driver/src/n32g430_tim.c **** *\*\          - TIM5
 866:n32g430_std_periph_driver/src/n32g430_tim.c **** *\*\          - TIM6
 867:n32g430_std_periph_driver/src/n32g430_tim.c **** *\*\          - TIM8
 868:n32g430_std_periph_driver/src/n32g430_tim.c **** **/
 869:n32g430_std_periph_driver/src/n32g430_tim.c **** void TIM_Update_Event_Disable(TIM_Module* TIMx)
 870:n32g430_std_periph_driver/src/n32g430_tim.c **** {
 1212              		.loc 1 870 1 is_stmt 1 view -0
 1213              		.cfi_startproc
 1214              		@ args = 0, pretend = 0, frame = 0
 1215              		@ frame_needed = 0, uses_anonymous_args = 0
 1216              		@ link register save eliminated.
 871:n32g430_std_periph_driver/src/n32g430_tim.c ****     TIMx->CTRL1 |= TIM_UPDATE_EVENT_DISABLE;
 1217              		.loc 1 871 5 view .LVU309
 1218              		.loc 1 871 9 is_stmt 0 view .LVU310
 1219 0000 0368     		ldr	r3, [r0]
 1220              		.loc 1 871 17 view .LVU311
 1221 0002 43F00203 		orr	r3, r3, #2
 1222 0006 0360     		str	r3, [r0]
 872:n32g430_std_periph_driver/src/n32g430_tim.c **** }
 1223              		.loc 1 872 1 view .LVU312
 1224 0008 7047     		bx	lr
ARM GAS  C:\Users\Dawn\AppData\Local\Temp\ccf7B1Wd.s 			page 37


 1225              		.cfi_endproc
 1226              	.LFE157:
 1228              		.section	.text.TIM_Update_Request_Source_Set,"ax",%progbits
 1229              		.align	1
 1230              		.global	TIM_Update_Request_Source_Set
 1231              		.syntax unified
 1232              		.thumb
 1233              		.thumb_func
 1235              	TIM_Update_Request_Source_Set:
 1236              	.LVL86:
 1237              	.LFB158:
 873:n32g430_std_periph_driver/src/n32g430_tim.c **** 
 874:n32g430_std_periph_driver/src/n32g430_tim.c **** /**
 875:n32g430_std_periph_driver/src/n32g430_tim.c **** *\*\name    TIM_Update_Request_Source_Set
 876:n32g430_std_periph_driver/src/n32g430_tim.c **** *\*\param   TIMx:
 877:n32g430_std_periph_driver/src/n32g430_tim.c **** *\*\          - TIM1
 878:n32g430_std_periph_driver/src/n32g430_tim.c **** *\*\          - TIM2
 879:n32g430_std_periph_driver/src/n32g430_tim.c **** *\*\          - TIM3
 880:n32g430_std_periph_driver/src/n32g430_tim.c **** *\*\          - TIM4
 881:n32g430_std_periph_driver/src/n32g430_tim.c **** *\*\          - TIM5
 882:n32g430_std_periph_driver/src/n32g430_tim.c **** *\*\          - TIM6
 883:n32g430_std_periph_driver/src/n32g430_tim.c **** *\*\          - TIM8
 884:n32g430_std_periph_driver/src/n32g430_tim.c **** *\*\param   TIM_update_source:
 885:n32g430_std_periph_driver/src/n32g430_tim.c **** *\*\          - TIM_UPDATE_SRC_REGULAR    Source of update is counter overflow/underflow
 886:n32g430_std_periph_driver/src/n32g430_tim.c **** *\*\          - TIM_UPDATE_SRC_GLOBAL     Source of update is the counter overflow/underflow
 887:n32g430_std_periph_driver/src/n32g430_tim.c **** *\*\                                      or the setting of UG bit, or an update generation
 888:n32g430_std_periph_driver/src/n32g430_tim.c **** *\*\                                      through the slave mode controller.
 889:n32g430_std_periph_driver/src/n32g430_tim.c **** *\*\note    TIM6 does note support slave mode and underflow counter
 890:n32g430_std_periph_driver/src/n32g430_tim.c **** *\*\return  none
 891:n32g430_std_periph_driver/src/n32g430_tim.c **** **/
 892:n32g430_std_periph_driver/src/n32g430_tim.c **** void TIM_Update_Request_Source_Set(TIM_Module* TIMx, uint16_t TIM_update_source)
 893:n32g430_std_periph_driver/src/n32g430_tim.c **** {
 1238              		.loc 1 893 1 is_stmt 1 view -0
 1239              		.cfi_startproc
 1240              		@ args = 0, pretend = 0, frame = 0
 1241              		@ frame_needed = 0, uses_anonymous_args = 0
 1242              		@ link register save eliminated.
 894:n32g430_std_periph_driver/src/n32g430_tim.c ****     if (TIM_update_source != TIM_UPDATE_SRC_GLOBAL)
 1243              		.loc 1 894 5 view .LVU314
 1244              		.loc 1 894 8 is_stmt 0 view .LVU315
 1245 0000 21B1     		cbz	r1, .L72
 895:n32g430_std_periph_driver/src/n32g430_tim.c ****     {
 896:n32g430_std_periph_driver/src/n32g430_tim.c ****         /* Set the URS Bit */
 897:n32g430_std_periph_driver/src/n32g430_tim.c ****         TIMx->CTRL1 |= TIM_UPRS_REGULAR;
 1246              		.loc 1 897 9 is_stmt 1 view .LVU316
 1247              		.loc 1 897 13 is_stmt 0 view .LVU317
 1248 0002 0368     		ldr	r3, [r0]
 1249              		.loc 1 897 21 view .LVU318
 1250 0004 43F00403 		orr	r3, r3, #4
 1251 0008 0360     		str	r3, [r0]
 1252 000a 7047     		bx	lr
 1253              	.L72:
 898:n32g430_std_periph_driver/src/n32g430_tim.c ****     }
 899:n32g430_std_periph_driver/src/n32g430_tim.c ****     else
 900:n32g430_std_periph_driver/src/n32g430_tim.c ****     {
 901:n32g430_std_periph_driver/src/n32g430_tim.c ****         /* Reset the URS Bit */
 902:n32g430_std_periph_driver/src/n32g430_tim.c ****         TIMx->CTRL1 &= (uint32_t) ~((uint32_t)TIM_UPRS_REGULAR);
ARM GAS  C:\Users\Dawn\AppData\Local\Temp\ccf7B1Wd.s 			page 38


 1254              		.loc 1 902 9 is_stmt 1 view .LVU319
 1255              		.loc 1 902 13 is_stmt 0 view .LVU320
 1256 000c 0368     		ldr	r3, [r0]
 1257              		.loc 1 902 21 view .LVU321
 1258 000e 23F00403 		bic	r3, r3, #4
 1259 0012 0360     		str	r3, [r0]
 903:n32g430_std_periph_driver/src/n32g430_tim.c ****     }
 904:n32g430_std_periph_driver/src/n32g430_tim.c **** }
 1260              		.loc 1 904 1 view .LVU322
 1261 0014 7047     		bx	lr
 1262              		.cfi_endproc
 1263              	.LFE158:
 1265              		.section	.text.TIM_Event_Generate,"ax",%progbits
 1266              		.align	1
 1267              		.global	TIM_Event_Generate
 1268              		.syntax unified
 1269              		.thumb
 1270              		.thumb_func
 1272              	TIM_Event_Generate:
 1273              	.LVL87:
 1274              	.LFB159:
 905:n32g430_std_periph_driver/src/n32g430_tim.c **** 
 906:n32g430_std_periph_driver/src/n32g430_tim.c **** /**
 907:n32g430_std_periph_driver/src/n32g430_tim.c **** *\*\fun     Enables or disables the preload register of auto reload register.
 908:n32g430_std_periph_driver/src/n32g430_tim.c **** *\*\param   TIMx:
 909:n32g430_std_periph_driver/src/n32g430_tim.c **** *\*\          - TIM1
 910:n32g430_std_periph_driver/src/n32g430_tim.c **** *\*\          - TIM2
 911:n32g430_std_periph_driver/src/n32g430_tim.c **** *\*\          - TIM3
 912:n32g430_std_periph_driver/src/n32g430_tim.c **** *\*\          - TIM4
 913:n32g430_std_periph_driver/src/n32g430_tim.c **** *\*\          - TIM5
 914:n32g430_std_periph_driver/src/n32g430_tim.c **** *\*\          - TIM6
 915:n32g430_std_periph_driver/src/n32g430_tim.c **** *\*\          - TIM8
 916:n32g430_std_periph_driver/src/n32g430_tim.c **** *\*\param   TIM_event_source 
 917:n32g430_std_periph_driver/src/n32g430_tim.c **** *\*\          - TIM_EVT_SRC_UPDATE    Timer update Event source
 918:n32g430_std_periph_driver/src/n32g430_tim.c **** *\*\          - TIM_EVT_SRC_CC1       Timer Capture Compare 1 Event source
 919:n32g430_std_periph_driver/src/n32g430_tim.c **** *\*\          - TIM_EVT_SRC_CC2       Timer Capture Compare 2 Event source
 920:n32g430_std_periph_driver/src/n32g430_tim.c **** *\*\          - TIM_EVT_SRC_CC3       Timer Capture Compare 3 Event source
 921:n32g430_std_periph_driver/src/n32g430_tim.c **** *\*\          - TIM_EVT_SRC_CC4       Timer Capture Compare 4 Event source
 922:n32g430_std_periph_driver/src/n32g430_tim.c **** *\*\          - TIM_EVT_SRC_COM       Timer COM event source
 923:n32g430_std_periph_driver/src/n32g430_tim.c **** *\*\          - TIM_EVT_SRC_TRIG      Timer Trigger Event source
 924:n32g430_std_periph_driver/src/n32g430_tim.c **** *\*\          - TIM_EVT_SRC_BREAK     Timer Break event source
 925:n32g430_std_periph_driver/src/n32g430_tim.c **** *\*\return  none
 926:n32g430_std_periph_driver/src/n32g430_tim.c **** *\*\note    TIM6 and TIM7 can only generate an update event. 
 927:n32g430_std_periph_driver/src/n32g430_tim.c **** *\*\     TIM_EVT_SRC_COM and TIM_EVT_SRC_BREAK are used only with TIM1 and TIM8.
 928:n32g430_std_periph_driver/src/n32g430_tim.c **** **/
 929:n32g430_std_periph_driver/src/n32g430_tim.c **** void TIM_Event_Generate(TIM_Module* TIMx, uint16_t TIM_event_source)
 930:n32g430_std_periph_driver/src/n32g430_tim.c **** {
 1275              		.loc 1 930 1 is_stmt 1 view -0
 1276              		.cfi_startproc
 1277              		@ args = 0, pretend = 0, frame = 0
 1278              		@ frame_needed = 0, uses_anonymous_args = 0
 1279              		@ link register save eliminated.
 931:n32g430_std_periph_driver/src/n32g430_tim.c ****     TIMx->EVTGEN = TIM_event_source;
 1280              		.loc 1 931 5 view .LVU324
 1281              		.loc 1 931 18 is_stmt 0 view .LVU325
 1282 0000 8182     		strh	r1, [r0, #20]	@ movhi
 932:n32g430_std_periph_driver/src/n32g430_tim.c **** }
ARM GAS  C:\Users\Dawn\AppData\Local\Temp\ccf7B1Wd.s 			page 39


 1283              		.loc 1 932 1 view .LVU326
 1284 0002 7047     		bx	lr
 1285              		.cfi_endproc
 1286              	.LFE159:
 1288              		.section	.text.TIM_Commutation_Event_Enable,"ax",%progbits
 1289              		.align	1
 1290              		.global	TIM_Commutation_Event_Enable
 1291              		.syntax unified
 1292              		.thumb
 1293              		.thumb_func
 1295              	TIM_Commutation_Event_Enable:
 1296              	.LVL88:
 1297              	.LFB160:
 933:n32g430_std_periph_driver/src/n32g430_tim.c **** 
 934:n32g430_std_periph_driver/src/n32g430_tim.c **** /**
 935:n32g430_std_periph_driver/src/n32g430_tim.c **** *\*\name    TIM_Commutation_Event_Enable
 936:n32g430_std_periph_driver/src/n32g430_tim.c **** *\*\fun     Enables the preload register of auto reload register.
 937:n32g430_std_periph_driver/src/n32g430_tim.c **** *\*\param   TIMx:
 938:n32g430_std_periph_driver/src/n32g430_tim.c **** *\*\          - TIM1
 939:n32g430_std_periph_driver/src/n32g430_tim.c **** *\*\          - TIM8
 940:n32g430_std_periph_driver/src/n32g430_tim.c **** *\*\return  none
 941:n32g430_std_periph_driver/src/n32g430_tim.c **** **/
 942:n32g430_std_periph_driver/src/n32g430_tim.c **** void TIM_Commutation_Event_Enable(TIM_Module* TIMx)
 943:n32g430_std_periph_driver/src/n32g430_tim.c **** {
 1298              		.loc 1 943 1 is_stmt 1 view -0
 1299              		.cfi_startproc
 1300              		@ args = 0, pretend = 0, frame = 0
 1301              		@ frame_needed = 0, uses_anonymous_args = 0
 1302              		@ link register save eliminated.
 944:n32g430_std_periph_driver/src/n32g430_tim.c ****     TIMx->CTRL2 |= TIM_CCUSEL_COM_AND_TRIG;
 1303              		.loc 1 944 5 view .LVU328
 1304              		.loc 1 944 9 is_stmt 0 view .LVU329
 1305 0000 4368     		ldr	r3, [r0, #4]
 1306              		.loc 1 944 17 view .LVU330
 1307 0002 43F00403 		orr	r3, r3, #4
 1308 0006 4360     		str	r3, [r0, #4]
 945:n32g430_std_periph_driver/src/n32g430_tim.c **** }
 1309              		.loc 1 945 1 view .LVU331
 1310 0008 7047     		bx	lr
 1311              		.cfi_endproc
 1312              	.LFE160:
 1314              		.section	.text.TIM_Commutation_Event_Disable,"ax",%progbits
 1315              		.align	1
 1316              		.global	TIM_Commutation_Event_Disable
 1317              		.syntax unified
 1318              		.thumb
 1319              		.thumb_func
 1321              	TIM_Commutation_Event_Disable:
 1322              	.LVL89:
 1323              	.LFB161:
 946:n32g430_std_periph_driver/src/n32g430_tim.c **** 
 947:n32g430_std_periph_driver/src/n32g430_tim.c **** /**
 948:n32g430_std_periph_driver/src/n32g430_tim.c **** *\*\name    TIM_Commutation_Event_Disable
 949:n32g430_std_periph_driver/src/n32g430_tim.c **** *\*\fun     Disables the preload register of auto reload register.
 950:n32g430_std_periph_driver/src/n32g430_tim.c **** *\*\param   TIMx:
 951:n32g430_std_periph_driver/src/n32g430_tim.c **** *\*\          - TIM1
 952:n32g430_std_periph_driver/src/n32g430_tim.c **** *\*\          - TIM8
ARM GAS  C:\Users\Dawn\AppData\Local\Temp\ccf7B1Wd.s 			page 40


 953:n32g430_std_periph_driver/src/n32g430_tim.c **** *\*\return  none
 954:n32g430_std_periph_driver/src/n32g430_tim.c **** **/
 955:n32g430_std_periph_driver/src/n32g430_tim.c **** void TIM_Commutation_Event_Disable(TIM_Module* TIMx)
 956:n32g430_std_periph_driver/src/n32g430_tim.c **** {
 1324              		.loc 1 956 1 is_stmt 1 view -0
 1325              		.cfi_startproc
 1326              		@ args = 0, pretend = 0, frame = 0
 1327              		@ frame_needed = 0, uses_anonymous_args = 0
 1328              		@ link register save eliminated.
 957:n32g430_std_periph_driver/src/n32g430_tim.c ****     TIMx->CTRL2 &= (uint32_t) ~((uint32_t)TIM_CCUSEL_MASK);
 1329              		.loc 1 957 5 view .LVU333
 1330              		.loc 1 957 9 is_stmt 0 view .LVU334
 1331 0000 4368     		ldr	r3, [r0, #4]
 1332              		.loc 1 957 17 view .LVU335
 1333 0002 23F00403 		bic	r3, r3, #4
 1334 0006 4360     		str	r3, [r0, #4]
 958:n32g430_std_periph_driver/src/n32g430_tim.c **** }
 1335              		.loc 1 958 1 view .LVU336
 1336 0008 7047     		bx	lr
 1337              		.cfi_endproc
 1338              	.LFE161:
 1340              		.section	.text.TIM_Capture_Compare_Control_Preload_Enable,"ax",%progbits
 1341              		.align	1
 1342              		.global	TIM_Capture_Compare_Control_Preload_Enable
 1343              		.syntax unified
 1344              		.thumb
 1345              		.thumb_func
 1347              	TIM_Capture_Compare_Control_Preload_Enable:
 1348              	.LVL90:
 1349              	.LFB162:
 959:n32g430_std_periph_driver/src/n32g430_tim.c **** 
 960:n32g430_std_periph_driver/src/n32g430_tim.c **** /**
 961:n32g430_std_periph_driver/src/n32g430_tim.c **** *\*\name    TIM_Capture_Compare_Control_Preload_Enable
 962:n32g430_std_periph_driver/src/n32g430_tim.c **** *\*\fun     Disables the preload register of auto reload register.
 963:n32g430_std_periph_driver/src/n32g430_tim.c **** *\*\param   TIMx:
 964:n32g430_std_periph_driver/src/n32g430_tim.c **** *\*\          - TIM1
 965:n32g430_std_periph_driver/src/n32g430_tim.c **** *\*\          - TIM8
 966:n32g430_std_periph_driver/src/n32g430_tim.c **** **/
 967:n32g430_std_periph_driver/src/n32g430_tim.c **** void TIM_Capture_Compare_Control_Preload_Enable(TIM_Module* TIMx)
 968:n32g430_std_periph_driver/src/n32g430_tim.c **** {
 1350              		.loc 1 968 1 is_stmt 1 view -0
 1351              		.cfi_startproc
 1352              		@ args = 0, pretend = 0, frame = 0
 1353              		@ frame_needed = 0, uses_anonymous_args = 0
 1354              		@ link register save eliminated.
 969:n32g430_std_periph_driver/src/n32g430_tim.c ****     TIMx->CTRL2 |= TIM_CCPCTL_PRELOAD;
 1355              		.loc 1 969 5 view .LVU338
 1356              		.loc 1 969 9 is_stmt 0 view .LVU339
 1357 0000 4368     		ldr	r3, [r0, #4]
 1358              		.loc 1 969 17 view .LVU340
 1359 0002 43F00103 		orr	r3, r3, #1
 1360 0006 4360     		str	r3, [r0, #4]
 970:n32g430_std_periph_driver/src/n32g430_tim.c **** }
 1361              		.loc 1 970 1 view .LVU341
 1362 0008 7047     		bx	lr
 1363              		.cfi_endproc
 1364              	.LFE162:
ARM GAS  C:\Users\Dawn\AppData\Local\Temp\ccf7B1Wd.s 			page 41


 1366              		.section	.text.TIM_Capture_Compare_Control_Preload_Disable,"ax",%progbits
 1367              		.align	1
 1368              		.global	TIM_Capture_Compare_Control_Preload_Disable
 1369              		.syntax unified
 1370              		.thumb
 1371              		.thumb_func
 1373              	TIM_Capture_Compare_Control_Preload_Disable:
 1374              	.LVL91:
 1375              	.LFB163:
 971:n32g430_std_periph_driver/src/n32g430_tim.c **** 
 972:n32g430_std_periph_driver/src/n32g430_tim.c **** /**
 973:n32g430_std_periph_driver/src/n32g430_tim.c **** *\*\name    TIM_Capture_Compare_Control_Preload_Disable
 974:n32g430_std_periph_driver/src/n32g430_tim.c **** *\*\fun     Disables the preload register of auto reload register.
 975:n32g430_std_periph_driver/src/n32g430_tim.c **** *\*\param   TIMx:
 976:n32g430_std_periph_driver/src/n32g430_tim.c **** *\*\          - TIM1
 977:n32g430_std_periph_driver/src/n32g430_tim.c **** *\*\          - TIM8
 978:n32g430_std_periph_driver/src/n32g430_tim.c **** **/
 979:n32g430_std_periph_driver/src/n32g430_tim.c **** void TIM_Capture_Compare_Control_Preload_Disable(TIM_Module* TIMx)
 980:n32g430_std_periph_driver/src/n32g430_tim.c **** {
 1376              		.loc 1 980 1 is_stmt 1 view -0
 1377              		.cfi_startproc
 1378              		@ args = 0, pretend = 0, frame = 0
 1379              		@ frame_needed = 0, uses_anonymous_args = 0
 1380              		@ link register save eliminated.
 981:n32g430_std_periph_driver/src/n32g430_tim.c ****     TIMx->CTRL2 &= (uint32_t) ~((uint32_t)TIM_CCPCTL_PRELOAD);
 1381              		.loc 1 981 5 view .LVU343
 1382              		.loc 1 981 9 is_stmt 0 view .LVU344
 1383 0000 4368     		ldr	r3, [r0, #4]
 1384              		.loc 1 981 17 view .LVU345
 1385 0002 23F00103 		bic	r3, r3, #1
 1386 0006 4360     		str	r3, [r0, #4]
 982:n32g430_std_periph_driver/src/n32g430_tim.c **** }
 1387              		.loc 1 982 1 view .LVU346
 1388 0008 7047     		bx	lr
 1389              		.cfi_endproc
 1390              	.LFE163:
 1392              		.section	.text.TIM_Compare1_Set,"ax",%progbits
 1393              		.align	1
 1394              		.global	TIM_Compare1_Set
 1395              		.syntax unified
 1396              		.thumb
 1397              		.thumb_func
 1399              	TIM_Compare1_Set:
 1400              	.LVL92:
 1401              	.LFB164:
 983:n32g430_std_periph_driver/src/n32g430_tim.c **** 
 984:n32g430_std_periph_driver/src/n32g430_tim.c **** /**
 985:n32g430_std_periph_driver/src/n32g430_tim.c **** *\*\name    TIM_Compare1_Set
 986:n32g430_std_periph_driver/src/n32g430_tim.c **** *\*\fun     Sets the TIMx Capture compare1 Register value
 987:n32g430_std_periph_driver/src/n32g430_tim.c **** *\*\param   TIMx:
 988:n32g430_std_periph_driver/src/n32g430_tim.c **** *\*\          - TIM1
 989:n32g430_std_periph_driver/src/n32g430_tim.c **** *\*\          - TIM2
 990:n32g430_std_periph_driver/src/n32g430_tim.c **** *\*\          - TIM3
 991:n32g430_std_periph_driver/src/n32g430_tim.c **** *\*\          - TIM4
 992:n32g430_std_periph_driver/src/n32g430_tim.c **** *\*\          - TIM5
 993:n32g430_std_periph_driver/src/n32g430_tim.c **** *\*\          - TIM8
 994:n32g430_std_periph_driver/src/n32g430_tim.c **** *\*\param   compare1:
ARM GAS  C:\Users\Dawn\AppData\Local\Temp\ccf7B1Wd.s 			page 42


 995:n32g430_std_periph_driver/src/n32g430_tim.c **** *\*\          - [0,0xffff]
 996:n32g430_std_periph_driver/src/n32g430_tim.c **** **/
 997:n32g430_std_periph_driver/src/n32g430_tim.c **** void TIM_Compare1_Set(TIM_Module* TIMx, uint16_t compare1)
 998:n32g430_std_periph_driver/src/n32g430_tim.c **** {
 1402              		.loc 1 998 1 is_stmt 1 view -0
 1403              		.cfi_startproc
 1404              		@ args = 0, pretend = 0, frame = 0
 1405              		@ frame_needed = 0, uses_anonymous_args = 0
 1406              		@ link register save eliminated.
 999:n32g430_std_periph_driver/src/n32g430_tim.c ****     uint32_t temp_value = TIMx->CCDAT1;
 1407              		.loc 1 999 5 view .LVU348
 1408              		.loc 1 999 14 is_stmt 0 view .LVU349
 1409 0000 436B     		ldr	r3, [r0, #52]
 1410              	.LVL93:
1000:n32g430_std_periph_driver/src/n32g430_tim.c ****     temp_value &= (uint32_t)(~TIM_CCDAT1_MASK);
 1411              		.loc 1 1000 5 is_stmt 1 view .LVU350
 1412              		.loc 1 1000 16 is_stmt 0 view .LVU351
 1413 0002 6FF30F03 		bfc	r3, #0, #16
 1414              	.LVL94:
1001:n32g430_std_periph_driver/src/n32g430_tim.c ****     temp_value |= compare1;
 1415              		.loc 1 1001 5 is_stmt 1 view .LVU352
 1416              		.loc 1 1001 16 is_stmt 0 view .LVU353
 1417 0006 1943     		orrs	r1, r1, r3
 1418              	.LVL95:
1002:n32g430_std_periph_driver/src/n32g430_tim.c ****     TIMx->CCDAT1 = temp_value;
 1419              		.loc 1 1002 5 is_stmt 1 view .LVU354
 1420              		.loc 1 1002 18 is_stmt 0 view .LVU355
 1421 0008 4163     		str	r1, [r0, #52]
1003:n32g430_std_periph_driver/src/n32g430_tim.c **** }
 1422              		.loc 1 1003 1 view .LVU356
 1423 000a 7047     		bx	lr
 1424              		.cfi_endproc
 1425              	.LFE164:
 1427              		.section	.text.TIM_Compare2_Set,"ax",%progbits
 1428              		.align	1
 1429              		.global	TIM_Compare2_Set
 1430              		.syntax unified
 1431              		.thumb
 1432              		.thumb_func
 1434              	TIM_Compare2_Set:
 1435              	.LVL96:
 1436              	.LFB165:
1004:n32g430_std_periph_driver/src/n32g430_tim.c **** 
1005:n32g430_std_periph_driver/src/n32g430_tim.c **** /**
1006:n32g430_std_periph_driver/src/n32g430_tim.c **** *\*\name    TIM_Compare2_Set
1007:n32g430_std_periph_driver/src/n32g430_tim.c **** *\*\fun     Sets the TIMx Capture compare2 Register value
1008:n32g430_std_periph_driver/src/n32g430_tim.c **** *\*\param   TIMx:
1009:n32g430_std_periph_driver/src/n32g430_tim.c **** *\*\          - TIM1
1010:n32g430_std_periph_driver/src/n32g430_tim.c **** *\*\          - TIM2
1011:n32g430_std_periph_driver/src/n32g430_tim.c **** *\*\          - TIM3
1012:n32g430_std_periph_driver/src/n32g430_tim.c **** *\*\          - TIM4
1013:n32g430_std_periph_driver/src/n32g430_tim.c **** *\*\          - TIM5
1014:n32g430_std_periph_driver/src/n32g430_tim.c **** *\*\          - TIM8
1015:n32g430_std_periph_driver/src/n32g430_tim.c **** *\*\param   compare2:
1016:n32g430_std_periph_driver/src/n32g430_tim.c **** *\*\          - [0,0xffff]
1017:n32g430_std_periph_driver/src/n32g430_tim.c **** **/
1018:n32g430_std_periph_driver/src/n32g430_tim.c **** void TIM_Compare2_Set(TIM_Module* TIMx, uint16_t compare2)
ARM GAS  C:\Users\Dawn\AppData\Local\Temp\ccf7B1Wd.s 			page 43


1019:n32g430_std_periph_driver/src/n32g430_tim.c **** {
 1437              		.loc 1 1019 1 is_stmt 1 view -0
 1438              		.cfi_startproc
 1439              		@ args = 0, pretend = 0, frame = 0
 1440              		@ frame_needed = 0, uses_anonymous_args = 0
 1441              		@ link register save eliminated.
1020:n32g430_std_periph_driver/src/n32g430_tim.c ****     uint32_t temp_value = TIMx->CCDAT2;
 1442              		.loc 1 1020 5 view .LVU358
 1443              		.loc 1 1020 14 is_stmt 0 view .LVU359
 1444 0000 836B     		ldr	r3, [r0, #56]
 1445              	.LVL97:
1021:n32g430_std_periph_driver/src/n32g430_tim.c ****     temp_value &= (uint32_t)(~TIM_CCDAT2_MASK);
 1446              		.loc 1 1021 5 is_stmt 1 view .LVU360
 1447              		.loc 1 1021 16 is_stmt 0 view .LVU361
 1448 0002 6FF30F03 		bfc	r3, #0, #16
 1449              	.LVL98:
1022:n32g430_std_periph_driver/src/n32g430_tim.c ****     temp_value |= compare2;
 1450              		.loc 1 1022 5 is_stmt 1 view .LVU362
 1451              		.loc 1 1022 16 is_stmt 0 view .LVU363
 1452 0006 1943     		orrs	r1, r1, r3
 1453              	.LVL99:
1023:n32g430_std_periph_driver/src/n32g430_tim.c ****     TIMx->CCDAT2 = temp_value;
 1454              		.loc 1 1023 5 is_stmt 1 view .LVU364
 1455              		.loc 1 1023 18 is_stmt 0 view .LVU365
 1456 0008 8163     		str	r1, [r0, #56]
1024:n32g430_std_periph_driver/src/n32g430_tim.c **** }
 1457              		.loc 1 1024 1 view .LVU366
 1458 000a 7047     		bx	lr
 1459              		.cfi_endproc
 1460              	.LFE165:
 1462              		.section	.text.TIM_Compare3_Set,"ax",%progbits
 1463              		.align	1
 1464              		.global	TIM_Compare3_Set
 1465              		.syntax unified
 1466              		.thumb
 1467              		.thumb_func
 1469              	TIM_Compare3_Set:
 1470              	.LVL100:
 1471              	.LFB166:
1025:n32g430_std_periph_driver/src/n32g430_tim.c **** 
1026:n32g430_std_periph_driver/src/n32g430_tim.c **** /**
1027:n32g430_std_periph_driver/src/n32g430_tim.c **** *\*\name    TIM_Compare3_Set
1028:n32g430_std_periph_driver/src/n32g430_tim.c **** *\*\fun     Sets the TIMx Capture compare3 Register value
1029:n32g430_std_periph_driver/src/n32g430_tim.c **** *\*\param   TIMx:
1030:n32g430_std_periph_driver/src/n32g430_tim.c **** *\*\          - TIM1
1031:n32g430_std_periph_driver/src/n32g430_tim.c **** *\*\          - TIM2
1032:n32g430_std_periph_driver/src/n32g430_tim.c **** *\*\          - TIM3
1033:n32g430_std_periph_driver/src/n32g430_tim.c **** *\*\          - TIM4
1034:n32g430_std_periph_driver/src/n32g430_tim.c **** *\*\          - TIM5
1035:n32g430_std_periph_driver/src/n32g430_tim.c **** *\*\          - TIM8
1036:n32g430_std_periph_driver/src/n32g430_tim.c **** *\*\param   compare3:
1037:n32g430_std_periph_driver/src/n32g430_tim.c **** *\*\          - [0,0xffff]
1038:n32g430_std_periph_driver/src/n32g430_tim.c **** **/
1039:n32g430_std_periph_driver/src/n32g430_tim.c **** void TIM_Compare3_Set(TIM_Module* TIMx, uint16_t compare3)
1040:n32g430_std_periph_driver/src/n32g430_tim.c **** {
 1472              		.loc 1 1040 1 is_stmt 1 view -0
 1473              		.cfi_startproc
ARM GAS  C:\Users\Dawn\AppData\Local\Temp\ccf7B1Wd.s 			page 44


 1474              		@ args = 0, pretend = 0, frame = 0
 1475              		@ frame_needed = 0, uses_anonymous_args = 0
 1476              		@ link register save eliminated.
1041:n32g430_std_periph_driver/src/n32g430_tim.c ****     uint32_t temp_value = TIMx->CCDAT3;
 1477              		.loc 1 1041 5 view .LVU368
 1478              		.loc 1 1041 14 is_stmt 0 view .LVU369
 1479 0000 C36B     		ldr	r3, [r0, #60]
 1480              	.LVL101:
1042:n32g430_std_periph_driver/src/n32g430_tim.c ****     temp_value &= (uint32_t)(~TIM_CCDAT3_MASK);
 1481              		.loc 1 1042 5 is_stmt 1 view .LVU370
 1482              		.loc 1 1042 16 is_stmt 0 view .LVU371
 1483 0002 6FF30F03 		bfc	r3, #0, #16
 1484              	.LVL102:
1043:n32g430_std_periph_driver/src/n32g430_tim.c ****     temp_value |= compare3;
 1485              		.loc 1 1043 5 is_stmt 1 view .LVU372
 1486              		.loc 1 1043 16 is_stmt 0 view .LVU373
 1487 0006 1943     		orrs	r1, r1, r3
 1488              	.LVL103:
1044:n32g430_std_periph_driver/src/n32g430_tim.c ****     TIMx->CCDAT3 = temp_value;
 1489              		.loc 1 1044 5 is_stmt 1 view .LVU374
 1490              		.loc 1 1044 18 is_stmt 0 view .LVU375
 1491 0008 C163     		str	r1, [r0, #60]
1045:n32g430_std_periph_driver/src/n32g430_tim.c **** }
 1492              		.loc 1 1045 1 view .LVU376
 1493 000a 7047     		bx	lr
 1494              		.cfi_endproc
 1495              	.LFE166:
 1497              		.section	.text.TIM_Compare4_Set,"ax",%progbits
 1498              		.align	1
 1499              		.global	TIM_Compare4_Set
 1500              		.syntax unified
 1501              		.thumb
 1502              		.thumb_func
 1504              	TIM_Compare4_Set:
 1505              	.LVL104:
 1506              	.LFB167:
1046:n32g430_std_periph_driver/src/n32g430_tim.c **** 
1047:n32g430_std_periph_driver/src/n32g430_tim.c **** /**
1048:n32g430_std_periph_driver/src/n32g430_tim.c **** *\*\name    TIM_Compare4_Set
1049:n32g430_std_periph_driver/src/n32g430_tim.c **** *\*\fun     Sets the TIMx Capture compare4 Register value
1050:n32g430_std_periph_driver/src/n32g430_tim.c **** *\*\param   TIMx:
1051:n32g430_std_periph_driver/src/n32g430_tim.c **** *\*\          - TIM1
1052:n32g430_std_periph_driver/src/n32g430_tim.c **** *\*\          - TIM2
1053:n32g430_std_periph_driver/src/n32g430_tim.c **** *\*\          - TIM3
1054:n32g430_std_periph_driver/src/n32g430_tim.c **** *\*\          - TIM4
1055:n32g430_std_periph_driver/src/n32g430_tim.c **** *\*\          - TIM5
1056:n32g430_std_periph_driver/src/n32g430_tim.c **** *\*\          - TIM8
1057:n32g430_std_periph_driver/src/n32g430_tim.c **** *\*\param   compare4:
1058:n32g430_std_periph_driver/src/n32g430_tim.c **** *\*\          - [0,0xffff]
1059:n32g430_std_periph_driver/src/n32g430_tim.c **** **/
1060:n32g430_std_periph_driver/src/n32g430_tim.c **** void TIM_Compare4_Set(TIM_Module* TIMx, uint16_t compare4)
1061:n32g430_std_periph_driver/src/n32g430_tim.c **** {
 1507              		.loc 1 1061 1 is_stmt 1 view -0
 1508              		.cfi_startproc
 1509              		@ args = 0, pretend = 0, frame = 0
 1510              		@ frame_needed = 0, uses_anonymous_args = 0
 1511              		@ link register save eliminated.
ARM GAS  C:\Users\Dawn\AppData\Local\Temp\ccf7B1Wd.s 			page 45


1062:n32g430_std_periph_driver/src/n32g430_tim.c ****     uint32_t temp_value = TIMx->CCDAT4;
 1512              		.loc 1 1062 5 view .LVU378
 1513              		.loc 1 1062 14 is_stmt 0 view .LVU379
 1514 0000 036C     		ldr	r3, [r0, #64]
 1515              	.LVL105:
1063:n32g430_std_periph_driver/src/n32g430_tim.c ****     temp_value &= (uint32_t)(~TIM_CCDAT4_MASK);
 1516              		.loc 1 1063 5 is_stmt 1 view .LVU380
 1517              		.loc 1 1063 16 is_stmt 0 view .LVU381
 1518 0002 6FF30F03 		bfc	r3, #0, #16
 1519              	.LVL106:
1064:n32g430_std_periph_driver/src/n32g430_tim.c ****     temp_value |= compare4;
 1520              		.loc 1 1064 5 is_stmt 1 view .LVU382
 1521              		.loc 1 1064 16 is_stmt 0 view .LVU383
 1522 0006 1943     		orrs	r1, r1, r3
 1523              	.LVL107:
1065:n32g430_std_periph_driver/src/n32g430_tim.c ****     TIMx->CCDAT4 = temp_value;
 1524              		.loc 1 1065 5 is_stmt 1 view .LVU384
 1525              		.loc 1 1065 18 is_stmt 0 view .LVU385
 1526 0008 0164     		str	r1, [r0, #64]
1066:n32g430_std_periph_driver/src/n32g430_tim.c **** }
 1527              		.loc 1 1066 1 view .LVU386
 1528 000a 7047     		bx	lr
 1529              		.cfi_endproc
 1530              	.LFE167:
 1532              		.section	.text.TIM_Compare5_Set,"ax",%progbits
 1533              		.align	1
 1534              		.global	TIM_Compare5_Set
 1535              		.syntax unified
 1536              		.thumb
 1537              		.thumb_func
 1539              	TIM_Compare5_Set:
 1540              	.LVL108:
 1541              	.LFB168:
1067:n32g430_std_periph_driver/src/n32g430_tim.c **** 
1068:n32g430_std_periph_driver/src/n32g430_tim.c **** /**
1069:n32g430_std_periph_driver/src/n32g430_tim.c **** *\*\name    TIM_Compare5_Set
1070:n32g430_std_periph_driver/src/n32g430_tim.c **** *\*\fun     Sets the TIMx Capture compare5 Register value
1071:n32g430_std_periph_driver/src/n32g430_tim.c **** *\*\param   TIMx:
1072:n32g430_std_periph_driver/src/n32g430_tim.c **** *\*\          - TIM1
1073:n32g430_std_periph_driver/src/n32g430_tim.c **** *\*\          - TIM8
1074:n32g430_std_periph_driver/src/n32g430_tim.c **** *\*\param   compare5:
1075:n32g430_std_periph_driver/src/n32g430_tim.c **** *\*\          - [0,0xffff]
1076:n32g430_std_periph_driver/src/n32g430_tim.c **** **/
1077:n32g430_std_periph_driver/src/n32g430_tim.c **** void TIM_Compare5_Set(TIM_Module* TIMx, uint16_t compare5)
1078:n32g430_std_periph_driver/src/n32g430_tim.c **** {
 1542              		.loc 1 1078 1 is_stmt 1 view -0
 1543              		.cfi_startproc
 1544              		@ args = 0, pretend = 0, frame = 0
 1545              		@ frame_needed = 0, uses_anonymous_args = 0
 1546              		@ link register save eliminated.
1079:n32g430_std_periph_driver/src/n32g430_tim.c ****     TIMx->CCDAT5 = compare5;  
 1547              		.loc 1 1079 5 view .LVU388
 1548              		.loc 1 1079 18 is_stmt 0 view .LVU389
 1549 0000 A0F85810 		strh	r1, [r0, #88]	@ movhi
1080:n32g430_std_periph_driver/src/n32g430_tim.c **** }
 1550              		.loc 1 1080 1 view .LVU390
 1551 0004 7047     		bx	lr
ARM GAS  C:\Users\Dawn\AppData\Local\Temp\ccf7B1Wd.s 			page 46


 1552              		.cfi_endproc
 1553              	.LFE168:
 1555              		.section	.text.TIM_Compare6_Set,"ax",%progbits
 1556              		.align	1
 1557              		.global	TIM_Compare6_Set
 1558              		.syntax unified
 1559              		.thumb
 1560              		.thumb_func
 1562              	TIM_Compare6_Set:
 1563              	.LVL109:
 1564              	.LFB169:
1081:n32g430_std_periph_driver/src/n32g430_tim.c **** 
1082:n32g430_std_periph_driver/src/n32g430_tim.c **** /**
1083:n32g430_std_periph_driver/src/n32g430_tim.c **** *\*\name    TIM_Compare6_Set
1084:n32g430_std_periph_driver/src/n32g430_tim.c **** *\*\fun     Sets the TIMx Capture compare6 Register value
1085:n32g430_std_periph_driver/src/n32g430_tim.c **** *\*\param   TIMx:
1086:n32g430_std_periph_driver/src/n32g430_tim.c **** *\*\          - TIM1
1087:n32g430_std_periph_driver/src/n32g430_tim.c **** *\*\          - TIM8
1088:n32g430_std_periph_driver/src/n32g430_tim.c **** *\*\param   compare6:
1089:n32g430_std_periph_driver/src/n32g430_tim.c **** *\*\          - [0,0xffff]
1090:n32g430_std_periph_driver/src/n32g430_tim.c **** **/
1091:n32g430_std_periph_driver/src/n32g430_tim.c **** void TIM_Compare6_Set(TIM_Module* TIMx, uint16_t compare6)
1092:n32g430_std_periph_driver/src/n32g430_tim.c **** {
 1565              		.loc 1 1092 1 is_stmt 1 view -0
 1566              		.cfi_startproc
 1567              		@ args = 0, pretend = 0, frame = 0
 1568              		@ frame_needed = 0, uses_anonymous_args = 0
 1569              		@ link register save eliminated.
1093:n32g430_std_periph_driver/src/n32g430_tim.c ****     TIMx->CCDAT6 = compare6;
 1570              		.loc 1 1093 5 view .LVU392
 1571              		.loc 1 1093 18 is_stmt 0 view .LVU393
 1572 0000 A0F85C10 		strh	r1, [r0, #92]	@ movhi
1094:n32g430_std_periph_driver/src/n32g430_tim.c **** }
 1573              		.loc 1 1094 1 view .LVU394
 1574 0004 7047     		bx	lr
 1575              		.cfi_endproc
 1576              	.LFE169:
 1578              		.section	.text.TIM_Compare7_Set,"ax",%progbits
 1579              		.align	1
 1580              		.global	TIM_Compare7_Set
 1581              		.syntax unified
 1582              		.thumb
 1583              		.thumb_func
 1585              	TIM_Compare7_Set:
 1586              	.LVL110:
 1587              	.LFB170:
1095:n32g430_std_periph_driver/src/n32g430_tim.c **** 
1096:n32g430_std_periph_driver/src/n32g430_tim.c **** /**
1097:n32g430_std_periph_driver/src/n32g430_tim.c **** *\*\name    TIM_Compare7_Set
1098:n32g430_std_periph_driver/src/n32g430_tim.c **** *\*\fun     Sets the TIMx Capture compare7 Register value
1099:n32g430_std_periph_driver/src/n32g430_tim.c **** *\*\param   TIMx
1100:n32g430_std_periph_driver/src/n32g430_tim.c **** *\*\          - TIM1
1101:n32g430_std_periph_driver/src/n32g430_tim.c **** *\*\param   compare7:
1102:n32g430_std_periph_driver/src/n32g430_tim.c **** *\*\          - [0,0xffff]
1103:n32g430_std_periph_driver/src/n32g430_tim.c **** *\*\return  none
1104:n32g430_std_periph_driver/src/n32g430_tim.c **** *\*\note    only for TIM1
1105:n32g430_std_periph_driver/src/n32g430_tim.c **** **/
ARM GAS  C:\Users\Dawn\AppData\Local\Temp\ccf7B1Wd.s 			page 47


1106:n32g430_std_periph_driver/src/n32g430_tim.c **** void TIM_Compare7_Set(TIM_Module* TIMx, uint16_t compare7)
1107:n32g430_std_periph_driver/src/n32g430_tim.c **** {
 1588              		.loc 1 1107 1 is_stmt 1 view -0
 1589              		.cfi_startproc
 1590              		@ args = 0, pretend = 0, frame = 0
 1591              		@ frame_needed = 0, uses_anonymous_args = 0
 1592              		@ link register save eliminated.
1108:n32g430_std_periph_driver/src/n32g430_tim.c ****     TIMx->CCDAT7 = compare7;
 1593              		.loc 1 1108 5 view .LVU396
 1594              		.loc 1 1108 18 is_stmt 0 view .LVU397
 1595 0000 A0F86010 		strh	r1, [r0, #96]	@ movhi
1109:n32g430_std_periph_driver/src/n32g430_tim.c **** }
 1596              		.loc 1 1109 1 view .LVU398
 1597 0004 7047     		bx	lr
 1598              		.cfi_endproc
 1599              	.LFE170:
 1601              		.section	.text.TIM_Compare8_Set,"ax",%progbits
 1602              		.align	1
 1603              		.global	TIM_Compare8_Set
 1604              		.syntax unified
 1605              		.thumb
 1606              		.thumb_func
 1608              	TIM_Compare8_Set:
 1609              	.LVL111:
 1610              	.LFB171:
1110:n32g430_std_periph_driver/src/n32g430_tim.c **** 
1111:n32g430_std_periph_driver/src/n32g430_tim.c **** /**
1112:n32g430_std_periph_driver/src/n32g430_tim.c **** *\*\name    TIM_Compare8_Set
1113:n32g430_std_periph_driver/src/n32g430_tim.c **** *\*\fun     Sets the TIMx Capture compare8 Register value
1114:n32g430_std_periph_driver/src/n32g430_tim.c **** *\*\param   TIMx
1115:n32g430_std_periph_driver/src/n32g430_tim.c **** *\*\          - TIM1
1116:n32g430_std_periph_driver/src/n32g430_tim.c **** *\*\param   compare8:
1117:n32g430_std_periph_driver/src/n32g430_tim.c **** *\*\          - [0,0xffff]
1118:n32g430_std_periph_driver/src/n32g430_tim.c **** *\*\return  none
1119:n32g430_std_periph_driver/src/n32g430_tim.c **** *\*\note    only for TIM1
1120:n32g430_std_periph_driver/src/n32g430_tim.c **** **/
1121:n32g430_std_periph_driver/src/n32g430_tim.c **** void TIM_Compare8_Set(TIM_Module* TIMx, uint16_t compare8)
1122:n32g430_std_periph_driver/src/n32g430_tim.c **** {
 1611              		.loc 1 1122 1 is_stmt 1 view -0
 1612              		.cfi_startproc
 1613              		@ args = 0, pretend = 0, frame = 0
 1614              		@ frame_needed = 0, uses_anonymous_args = 0
 1615              		@ link register save eliminated.
1123:n32g430_std_periph_driver/src/n32g430_tim.c ****     TIMx->CCDAT8 = compare8;
 1616              		.loc 1 1123 5 view .LVU400
 1617              		.loc 1 1123 18 is_stmt 0 view .LVU401
 1618 0000 A0F86410 		strh	r1, [r0, #100]	@ movhi
1124:n32g430_std_periph_driver/src/n32g430_tim.c **** }
 1619              		.loc 1 1124 1 view .LVU402
 1620 0004 7047     		bx	lr
 1621              		.cfi_endproc
 1622              	.LFE171:
 1624              		.section	.text.TIM_Compare9_Set,"ax",%progbits
 1625              		.align	1
 1626              		.global	TIM_Compare9_Set
 1627              		.syntax unified
 1628              		.thumb
ARM GAS  C:\Users\Dawn\AppData\Local\Temp\ccf7B1Wd.s 			page 48


 1629              		.thumb_func
 1631              	TIM_Compare9_Set:
 1632              	.LVL112:
 1633              	.LFB172:
1125:n32g430_std_periph_driver/src/n32g430_tim.c **** 
1126:n32g430_std_periph_driver/src/n32g430_tim.c **** /**
1127:n32g430_std_periph_driver/src/n32g430_tim.c **** *\*\name    TIM_Compare9_Set
1128:n32g430_std_periph_driver/src/n32g430_tim.c **** *\*\fun     Sets the TIMx Capture compare9 Register value
1129:n32g430_std_periph_driver/src/n32g430_tim.c **** *\*\param   TIMx
1130:n32g430_std_periph_driver/src/n32g430_tim.c **** *\*\          - TIM1
1131:n32g430_std_periph_driver/src/n32g430_tim.c **** *\*\param   compare9:
1132:n32g430_std_periph_driver/src/n32g430_tim.c **** *\*\          - [0,0xffff]
1133:n32g430_std_periph_driver/src/n32g430_tim.c **** *\*\return  none
1134:n32g430_std_periph_driver/src/n32g430_tim.c **** *\*\note    only for TIM1
1135:n32g430_std_periph_driver/src/n32g430_tim.c **** **/
1136:n32g430_std_periph_driver/src/n32g430_tim.c **** void TIM_Compare9_Set(TIM_Module* TIMx, uint16_t compare9)
1137:n32g430_std_periph_driver/src/n32g430_tim.c **** {
 1634              		.loc 1 1137 1 is_stmt 1 view -0
 1635              		.cfi_startproc
 1636              		@ args = 0, pretend = 0, frame = 0
 1637              		@ frame_needed = 0, uses_anonymous_args = 0
 1638              		@ link register save eliminated.
1138:n32g430_std_periph_driver/src/n32g430_tim.c ****     TIMx->CCDAT9 = compare9;
 1639              		.loc 1 1138 5 view .LVU404
 1640              		.loc 1 1138 18 is_stmt 0 view .LVU405
 1641 0000 A0F86810 		strh	r1, [r0, #104]	@ movhi
1139:n32g430_std_periph_driver/src/n32g430_tim.c **** }
 1642              		.loc 1 1139 1 view .LVU406
 1643 0004 7047     		bx	lr
 1644              		.cfi_endproc
 1645              	.LFE172:
 1647              		.section	.text.TIM_Compare1_D_Set,"ax",%progbits
 1648              		.align	1
 1649              		.global	TIM_Compare1_D_Set
 1650              		.syntax unified
 1651              		.thumb
 1652              		.thumb_func
 1654              	TIM_Compare1_D_Set:
 1655              	.LVL113:
 1656              	.LFB173:
1140:n32g430_std_periph_driver/src/n32g430_tim.c **** 
1141:n32g430_std_periph_driver/src/n32g430_tim.c **** /**
1142:n32g430_std_periph_driver/src/n32g430_tim.c **** *\*\name    TIM_Compare1_D_Set
1143:n32g430_std_periph_driver/src/n32g430_tim.c **** *\*\fun     Sets the CCDDAT1[16:31] in TIM1_CCDAT1 register
1144:n32g430_std_periph_driver/src/n32g430_tim.c **** *\*\param   TIMx
1145:n32g430_std_periph_driver/src/n32g430_tim.c **** *\*\          - TIM1
1146:n32g430_std_periph_driver/src/n32g430_tim.c **** *\*\param   compare1:
1147:n32g430_std_periph_driver/src/n32g430_tim.c **** *\*\          - [0,0xffff]
1148:n32g430_std_periph_driver/src/n32g430_tim.c **** *\*\return  none
1149:n32g430_std_periph_driver/src/n32g430_tim.c **** *\*\note    only for TIM1
1150:n32g430_std_periph_driver/src/n32g430_tim.c **** **/
1151:n32g430_std_periph_driver/src/n32g430_tim.c **** void TIM_Compare1_D_Set(TIM_Module* TIMx, uint16_t compare1)
1152:n32g430_std_periph_driver/src/n32g430_tim.c **** {
 1657              		.loc 1 1152 1 is_stmt 1 view -0
 1658              		.cfi_startproc
 1659              		@ args = 0, pretend = 0, frame = 0
 1660              		@ frame_needed = 0, uses_anonymous_args = 0
ARM GAS  C:\Users\Dawn\AppData\Local\Temp\ccf7B1Wd.s 			page 49


 1661              		@ link register save eliminated.
1153:n32g430_std_periph_driver/src/n32g430_tim.c ****     uint32_t temp_value = TIMx->CCDAT1;
 1662              		.loc 1 1153 5 view .LVU408
 1663              		.loc 1 1153 14 is_stmt 0 view .LVU409
 1664 0000 436B     		ldr	r3, [r0, #52]
 1665              	.LVL114:
1154:n32g430_std_periph_driver/src/n32g430_tim.c ****     temp_value &= (uint32_t)(~TIM_CCDDAT1_MASK);
 1666              		.loc 1 1154 5 is_stmt 1 view .LVU410
 1667              		.loc 1 1154 16 is_stmt 0 view .LVU411
 1668 0002 9BB2     		uxth	r3, r3
 1669              	.LVL115:
1155:n32g430_std_periph_driver/src/n32g430_tim.c ****     temp_value |= (((uint32_t)compare1) << TIM_CCDDAT1_OFFSET);
 1670              		.loc 1 1155 5 is_stmt 1 view .LVU412
 1671              		.loc 1 1155 16 is_stmt 0 view .LVU413
 1672 0004 43EA0143 		orr	r3, r3, r1, lsl #16
 1673              	.LVL116:
1156:n32g430_std_periph_driver/src/n32g430_tim.c ****     TIMx->CCDAT1 = temp_value;
 1674              		.loc 1 1156 5 is_stmt 1 view .LVU414
 1675              		.loc 1 1156 18 is_stmt 0 view .LVU415
 1676 0008 4363     		str	r3, [r0, #52]
1157:n32g430_std_periph_driver/src/n32g430_tim.c **** }
 1677              		.loc 1 1157 1 view .LVU416
 1678 000a 7047     		bx	lr
 1679              		.cfi_endproc
 1680              	.LFE173:
 1682              		.section	.text.TIM_Compare2_D_Set,"ax",%progbits
 1683              		.align	1
 1684              		.global	TIM_Compare2_D_Set
 1685              		.syntax unified
 1686              		.thumb
 1687              		.thumb_func
 1689              	TIM_Compare2_D_Set:
 1690              	.LVL117:
 1691              	.LFB174:
1158:n32g430_std_periph_driver/src/n32g430_tim.c **** 
1159:n32g430_std_periph_driver/src/n32g430_tim.c **** /**
1160:n32g430_std_periph_driver/src/n32g430_tim.c **** *\*\name    TIM_Compare2_D_Set
1161:n32g430_std_periph_driver/src/n32g430_tim.c **** *\*\fun     Sets the CCDDAT2[16:31] in TIM1_CCDAT2 register
1162:n32g430_std_periph_driver/src/n32g430_tim.c **** *\*\param   TIMx
1163:n32g430_std_periph_driver/src/n32g430_tim.c **** *\*\          - TIM1
1164:n32g430_std_periph_driver/src/n32g430_tim.c **** *\*\param   compare2:
1165:n32g430_std_periph_driver/src/n32g430_tim.c **** *\*\          - [0,0xffff]
1166:n32g430_std_periph_driver/src/n32g430_tim.c **** *\*\return  none
1167:n32g430_std_periph_driver/src/n32g430_tim.c **** *\*\note    only for TIM1
1168:n32g430_std_periph_driver/src/n32g430_tim.c **** **/
1169:n32g430_std_periph_driver/src/n32g430_tim.c **** void TIM_Compare2_D_Set(TIM_Module* TIMx, uint16_t compare2)
1170:n32g430_std_periph_driver/src/n32g430_tim.c **** {
 1692              		.loc 1 1170 1 is_stmt 1 view -0
 1693              		.cfi_startproc
 1694              		@ args = 0, pretend = 0, frame = 0
 1695              		@ frame_needed = 0, uses_anonymous_args = 0
 1696              		@ link register save eliminated.
1171:n32g430_std_periph_driver/src/n32g430_tim.c ****     uint32_t temp_value = TIMx->CCDAT2;
 1697              		.loc 1 1171 5 view .LVU418
 1698              		.loc 1 1171 14 is_stmt 0 view .LVU419
 1699 0000 836B     		ldr	r3, [r0, #56]
 1700              	.LVL118:
ARM GAS  C:\Users\Dawn\AppData\Local\Temp\ccf7B1Wd.s 			page 50


1172:n32g430_std_periph_driver/src/n32g430_tim.c ****     temp_value &= (uint32_t)(~TIM_CCDDAT2_MASK);
 1701              		.loc 1 1172 5 is_stmt 1 view .LVU420
 1702              		.loc 1 1172 16 is_stmt 0 view .LVU421
 1703 0002 9BB2     		uxth	r3, r3
 1704              	.LVL119:
1173:n32g430_std_periph_driver/src/n32g430_tim.c ****     temp_value |= (((uint32_t)compare2) << TIM_CCDDAT2_OFFSET);
 1705              		.loc 1 1173 5 is_stmt 1 view .LVU422
 1706              		.loc 1 1173 16 is_stmt 0 view .LVU423
 1707 0004 43EA0143 		orr	r3, r3, r1, lsl #16
 1708              	.LVL120:
1174:n32g430_std_periph_driver/src/n32g430_tim.c ****     TIMx->CCDAT2 = temp_value;
 1709              		.loc 1 1174 5 is_stmt 1 view .LVU424
 1710              		.loc 1 1174 18 is_stmt 0 view .LVU425
 1711 0008 8363     		str	r3, [r0, #56]
1175:n32g430_std_periph_driver/src/n32g430_tim.c **** }
 1712              		.loc 1 1175 1 view .LVU426
 1713 000a 7047     		bx	lr
 1714              		.cfi_endproc
 1715              	.LFE174:
 1717              		.section	.text.TIM_Compare3_D_Set,"ax",%progbits
 1718              		.align	1
 1719              		.global	TIM_Compare3_D_Set
 1720              		.syntax unified
 1721              		.thumb
 1722              		.thumb_func
 1724              	TIM_Compare3_D_Set:
 1725              	.LVL121:
 1726              	.LFB175:
1176:n32g430_std_periph_driver/src/n32g430_tim.c **** 
1177:n32g430_std_periph_driver/src/n32g430_tim.c **** /**
1178:n32g430_std_periph_driver/src/n32g430_tim.c **** *\*\name    TIM_Compare3_D_Set
1179:n32g430_std_periph_driver/src/n32g430_tim.c **** *\*\fun     Sets the CCDDAT3[16:31] in TIM1_CCDAT3 register
1180:n32g430_std_periph_driver/src/n32g430_tim.c **** *\*\param   TIMx
1181:n32g430_std_periph_driver/src/n32g430_tim.c **** *\*\          - TIM1
1182:n32g430_std_periph_driver/src/n32g430_tim.c **** *\*\param   compare3:
1183:n32g430_std_periph_driver/src/n32g430_tim.c **** *\*\          - [0,0xffff]
1184:n32g430_std_periph_driver/src/n32g430_tim.c **** *\*\return  none
1185:n32g430_std_periph_driver/src/n32g430_tim.c **** *\*\note    only for TIM1
1186:n32g430_std_periph_driver/src/n32g430_tim.c **** **/
1187:n32g430_std_periph_driver/src/n32g430_tim.c **** void TIM_Compare3_D_Set(TIM_Module* TIMx, uint16_t compare3)
1188:n32g430_std_periph_driver/src/n32g430_tim.c **** {
 1727              		.loc 1 1188 1 is_stmt 1 view -0
 1728              		.cfi_startproc
 1729              		@ args = 0, pretend = 0, frame = 0
 1730              		@ frame_needed = 0, uses_anonymous_args = 0
 1731              		@ link register save eliminated.
1189:n32g430_std_periph_driver/src/n32g430_tim.c ****     uint32_t temp_value = TIMx->CCDAT3;
 1732              		.loc 1 1189 5 view .LVU428
 1733              		.loc 1 1189 14 is_stmt 0 view .LVU429
 1734 0000 C36B     		ldr	r3, [r0, #60]
 1735              	.LVL122:
1190:n32g430_std_periph_driver/src/n32g430_tim.c ****     temp_value &= (uint32_t)(~TIM_CCDDAT3_MASK);
 1736              		.loc 1 1190 5 is_stmt 1 view .LVU430
 1737              		.loc 1 1190 16 is_stmt 0 view .LVU431
 1738 0002 9BB2     		uxth	r3, r3
 1739              	.LVL123:
1191:n32g430_std_periph_driver/src/n32g430_tim.c ****     temp_value |= (((uint32_t)compare3) << TIM_CCDDAT3_OFFSET);
ARM GAS  C:\Users\Dawn\AppData\Local\Temp\ccf7B1Wd.s 			page 51


 1740              		.loc 1 1191 5 is_stmt 1 view .LVU432
 1741              		.loc 1 1191 16 is_stmt 0 view .LVU433
 1742 0004 43EA0143 		orr	r3, r3, r1, lsl #16
 1743              	.LVL124:
1192:n32g430_std_periph_driver/src/n32g430_tim.c ****     TIMx->CCDAT3 = temp_value;
 1744              		.loc 1 1192 5 is_stmt 1 view .LVU434
 1745              		.loc 1 1192 18 is_stmt 0 view .LVU435
 1746 0008 C363     		str	r3, [r0, #60]
1193:n32g430_std_periph_driver/src/n32g430_tim.c **** }
 1747              		.loc 1 1193 1 view .LVU436
 1748 000a 7047     		bx	lr
 1749              		.cfi_endproc
 1750              	.LFE175:
 1752              		.section	.text.TIM_Compare4_D_Set,"ax",%progbits
 1753              		.align	1
 1754              		.global	TIM_Compare4_D_Set
 1755              		.syntax unified
 1756              		.thumb
 1757              		.thumb_func
 1759              	TIM_Compare4_D_Set:
 1760              	.LVL125:
 1761              	.LFB176:
1194:n32g430_std_periph_driver/src/n32g430_tim.c **** 
1195:n32g430_std_periph_driver/src/n32g430_tim.c **** /**
1196:n32g430_std_periph_driver/src/n32g430_tim.c **** *\*\name    TIM_Compare4_D_Set
1197:n32g430_std_periph_driver/src/n32g430_tim.c **** *\*\fun     Sets the CCDDAT4[16:31] in TIM1_CCDAT4 register
1198:n32g430_std_periph_driver/src/n32g430_tim.c **** *\*\param   TIMx
1199:n32g430_std_periph_driver/src/n32g430_tim.c **** *\*\          - TIM1
1200:n32g430_std_periph_driver/src/n32g430_tim.c **** *\*\param   compare4:
1201:n32g430_std_periph_driver/src/n32g430_tim.c **** *\*\          - [0,0xffff]
1202:n32g430_std_periph_driver/src/n32g430_tim.c **** *\*\return  none
1203:n32g430_std_periph_driver/src/n32g430_tim.c **** *\*\note    only for TIM1
1204:n32g430_std_periph_driver/src/n32g430_tim.c **** **/
1205:n32g430_std_periph_driver/src/n32g430_tim.c **** void TIM_Compare4_D_Set(TIM_Module* TIMx, uint16_t compare4)
1206:n32g430_std_periph_driver/src/n32g430_tim.c **** {
 1762              		.loc 1 1206 1 is_stmt 1 view -0
 1763              		.cfi_startproc
 1764              		@ args = 0, pretend = 0, frame = 0
 1765              		@ frame_needed = 0, uses_anonymous_args = 0
 1766              		@ link register save eliminated.
1207:n32g430_std_periph_driver/src/n32g430_tim.c ****     uint32_t temp_value = TIMx->CCDAT4;
 1767              		.loc 1 1207 5 view .LVU438
 1768              		.loc 1 1207 14 is_stmt 0 view .LVU439
 1769 0000 036C     		ldr	r3, [r0, #64]
 1770              	.LVL126:
1208:n32g430_std_periph_driver/src/n32g430_tim.c ****     temp_value &= (uint32_t)(~TIM_CCDDAT4_MASK);
 1771              		.loc 1 1208 5 is_stmt 1 view .LVU440
 1772              		.loc 1 1208 16 is_stmt 0 view .LVU441
 1773 0002 9BB2     		uxth	r3, r3
 1774              	.LVL127:
1209:n32g430_std_periph_driver/src/n32g430_tim.c ****     temp_value |= (((uint32_t)compare4) << TIM_CCDDAT4_OFFSET);
 1775              		.loc 1 1209 5 is_stmt 1 view .LVU442
 1776              		.loc 1 1209 16 is_stmt 0 view .LVU443
 1777 0004 43EA0143 		orr	r3, r3, r1, lsl #16
 1778              	.LVL128:
1210:n32g430_std_periph_driver/src/n32g430_tim.c ****     TIMx->CCDAT4 = temp_value;
 1779              		.loc 1 1210 5 is_stmt 1 view .LVU444
ARM GAS  C:\Users\Dawn\AppData\Local\Temp\ccf7B1Wd.s 			page 52


 1780              		.loc 1 1210 18 is_stmt 0 view .LVU445
 1781 0008 0364     		str	r3, [r0, #64]
1211:n32g430_std_periph_driver/src/n32g430_tim.c **** }
 1782              		.loc 1 1211 1 view .LVU446
 1783 000a 7047     		bx	lr
 1784              		.cfi_endproc
 1785              	.LFE176:
 1787              		.section	.text.TIM_Compare_Capture1_Get,"ax",%progbits
 1788              		.align	1
 1789              		.global	TIM_Compare_Capture1_Get
 1790              		.syntax unified
 1791              		.thumb
 1792              		.thumb_func
 1794              	TIM_Compare_Capture1_Get:
 1795              	.LVL129:
 1796              	.LFB177:
1212:n32g430_std_periph_driver/src/n32g430_tim.c **** 
1213:n32g430_std_periph_driver/src/n32g430_tim.c **** /**
1214:n32g430_std_periph_driver/src/n32g430_tim.c **** *\*\name    TIM_Compare_Capture1_Get 
1215:n32g430_std_periph_driver/src/n32g430_tim.c **** *\*\fun     Get the TIMx compare1 Register value
1216:n32g430_std_periph_driver/src/n32g430_tim.c **** *\*\param   TIMx:
1217:n32g430_std_periph_driver/src/n32g430_tim.c **** *\*\          - TIM1
1218:n32g430_std_periph_driver/src/n32g430_tim.c **** *\*\          - TIM2
1219:n32g430_std_periph_driver/src/n32g430_tim.c **** *\*\          - TIM3
1220:n32g430_std_periph_driver/src/n32g430_tim.c **** *\*\          - TIM4
1221:n32g430_std_periph_driver/src/n32g430_tim.c **** *\*\          - TIM5
1222:n32g430_std_periph_driver/src/n32g430_tim.c **** *\*\          - TIM8
1223:n32g430_std_periph_driver/src/n32g430_tim.c **** *\*\return  uin16_t:
1224:n32g430_std_periph_driver/src/n32g430_tim.c **** *\*\          - [0 , 0xffff]
1225:n32g430_std_periph_driver/src/n32g430_tim.c **** **/
1226:n32g430_std_periph_driver/src/n32g430_tim.c **** uint16_t TIM_Compare_Capture1_Get(TIM_Module* TIMx)
1227:n32g430_std_periph_driver/src/n32g430_tim.c **** {
 1797              		.loc 1 1227 1 is_stmt 1 view -0
 1798              		.cfi_startproc
 1799              		@ args = 0, pretend = 0, frame = 0
 1800              		@ frame_needed = 0, uses_anonymous_args = 0
 1801              		@ link register save eliminated.
1228:n32g430_std_periph_driver/src/n32g430_tim.c ****     return (uint16_t)(TIMx->CCDAT1);
 1802              		.loc 1 1228 5 view .LVU448
 1803              		.loc 1 1228 27 is_stmt 0 view .LVU449
 1804 0000 406B     		ldr	r0, [r0, #52]
 1805              	.LVL130:
1229:n32g430_std_periph_driver/src/n32g430_tim.c **** }
 1806              		.loc 1 1229 1 view .LVU450
 1807 0002 80B2     		uxth	r0, r0
 1808 0004 7047     		bx	lr
 1809              		.cfi_endproc
 1810              	.LFE177:
 1812              		.section	.text.TIM_Compare_Capture2_Get,"ax",%progbits
 1813              		.align	1
 1814              		.global	TIM_Compare_Capture2_Get
 1815              		.syntax unified
 1816              		.thumb
 1817              		.thumb_func
 1819              	TIM_Compare_Capture2_Get:
 1820              	.LVL131:
 1821              	.LFB178:
ARM GAS  C:\Users\Dawn\AppData\Local\Temp\ccf7B1Wd.s 			page 53


1230:n32g430_std_periph_driver/src/n32g430_tim.c **** 
1231:n32g430_std_periph_driver/src/n32g430_tim.c **** /**
1232:n32g430_std_periph_driver/src/n32g430_tim.c **** *\*\name    TIM_Compare_Capture2_Get 
1233:n32g430_std_periph_driver/src/n32g430_tim.c **** *\*\fun     Get the TIMx Compare2 Register value
1234:n32g430_std_periph_driver/src/n32g430_tim.c **** *\*\param   TIMx:
1235:n32g430_std_periph_driver/src/n32g430_tim.c **** *\*\          - TIM1
1236:n32g430_std_periph_driver/src/n32g430_tim.c **** *\*\          - TIM2
1237:n32g430_std_periph_driver/src/n32g430_tim.c **** *\*\          - TIM3
1238:n32g430_std_periph_driver/src/n32g430_tim.c **** *\*\          - TIM4
1239:n32g430_std_periph_driver/src/n32g430_tim.c **** *\*\          - TIM5
1240:n32g430_std_periph_driver/src/n32g430_tim.c **** *\*\          - TIM8
1241:n32g430_std_periph_driver/src/n32g430_tim.c **** *\*\return  uin16_t:
1242:n32g430_std_periph_driver/src/n32g430_tim.c **** *\*\          - [0 , 0xffff]
1243:n32g430_std_periph_driver/src/n32g430_tim.c **** **/
1244:n32g430_std_periph_driver/src/n32g430_tim.c **** uint16_t TIM_Compare_Capture2_Get(TIM_Module* TIMx)
1245:n32g430_std_periph_driver/src/n32g430_tim.c **** {
 1822              		.loc 1 1245 1 is_stmt 1 view -0
 1823              		.cfi_startproc
 1824              		@ args = 0, pretend = 0, frame = 0
 1825              		@ frame_needed = 0, uses_anonymous_args = 0
 1826              		@ link register save eliminated.
1246:n32g430_std_periph_driver/src/n32g430_tim.c ****     return (uint16_t)(TIMx->CCDAT2);
 1827              		.loc 1 1246 5 view .LVU452
 1828              		.loc 1 1246 27 is_stmt 0 view .LVU453
 1829 0000 806B     		ldr	r0, [r0, #56]
 1830              	.LVL132:
1247:n32g430_std_periph_driver/src/n32g430_tim.c **** }
 1831              		.loc 1 1247 1 view .LVU454
 1832 0002 80B2     		uxth	r0, r0
 1833 0004 7047     		bx	lr
 1834              		.cfi_endproc
 1835              	.LFE178:
 1837              		.section	.text.TIM_Compare_Capture3_Get,"ax",%progbits
 1838              		.align	1
 1839              		.global	TIM_Compare_Capture3_Get
 1840              		.syntax unified
 1841              		.thumb
 1842              		.thumb_func
 1844              	TIM_Compare_Capture3_Get:
 1845              	.LVL133:
 1846              	.LFB179:
1248:n32g430_std_periph_driver/src/n32g430_tim.c **** 
1249:n32g430_std_periph_driver/src/n32g430_tim.c **** /**
1250:n32g430_std_periph_driver/src/n32g430_tim.c **** *\*\name    TIM_Compare_Capture3_Get 
1251:n32g430_std_periph_driver/src/n32g430_tim.c **** *\*\fun     Get the TIMx Compare3 Register value
1252:n32g430_std_periph_driver/src/n32g430_tim.c **** *\*\param   TIMx:
1253:n32g430_std_periph_driver/src/n32g430_tim.c **** *\*\          - TIM1
1254:n32g430_std_periph_driver/src/n32g430_tim.c **** *\*\          - TIM2
1255:n32g430_std_periph_driver/src/n32g430_tim.c **** *\*\          - TIM3
1256:n32g430_std_periph_driver/src/n32g430_tim.c **** *\*\          - TIM4
1257:n32g430_std_periph_driver/src/n32g430_tim.c **** *\*\          - TIM5
1258:n32g430_std_periph_driver/src/n32g430_tim.c **** *\*\          - TIM8
1259:n32g430_std_periph_driver/src/n32g430_tim.c **** *\*\return  uin16_t:
1260:n32g430_std_periph_driver/src/n32g430_tim.c **** *\*\          - [0 , 0xffff]
1261:n32g430_std_periph_driver/src/n32g430_tim.c **** **/
1262:n32g430_std_periph_driver/src/n32g430_tim.c **** uint16_t TIM_Compare_Capture3_Get(TIM_Module* TIMx)
1263:n32g430_std_periph_driver/src/n32g430_tim.c **** {
ARM GAS  C:\Users\Dawn\AppData\Local\Temp\ccf7B1Wd.s 			page 54


 1847              		.loc 1 1263 1 is_stmt 1 view -0
 1848              		.cfi_startproc
 1849              		@ args = 0, pretend = 0, frame = 0
 1850              		@ frame_needed = 0, uses_anonymous_args = 0
 1851              		@ link register save eliminated.
1264:n32g430_std_periph_driver/src/n32g430_tim.c ****     return (uint16_t)(TIMx->CCDAT3);
 1852              		.loc 1 1264 5 view .LVU456
 1853              		.loc 1 1264 27 is_stmt 0 view .LVU457
 1854 0000 C06B     		ldr	r0, [r0, #60]
 1855              	.LVL134:
1265:n32g430_std_periph_driver/src/n32g430_tim.c **** }
 1856              		.loc 1 1265 1 view .LVU458
 1857 0002 80B2     		uxth	r0, r0
 1858 0004 7047     		bx	lr
 1859              		.cfi_endproc
 1860              	.LFE179:
 1862              		.section	.text.TIM_Compare_Capture4_Get,"ax",%progbits
 1863              		.align	1
 1864              		.global	TIM_Compare_Capture4_Get
 1865              		.syntax unified
 1866              		.thumb
 1867              		.thumb_func
 1869              	TIM_Compare_Capture4_Get:
 1870              	.LVL135:
 1871              	.LFB180:
1266:n32g430_std_periph_driver/src/n32g430_tim.c **** 
1267:n32g430_std_periph_driver/src/n32g430_tim.c **** /**
1268:n32g430_std_periph_driver/src/n32g430_tim.c **** *\*\name    TIM_Compare_Capture4_Get 
1269:n32g430_std_periph_driver/src/n32g430_tim.c **** *\*\fun     Get the TIMx Compare4 Register value
1270:n32g430_std_periph_driver/src/n32g430_tim.c **** *\*\param   TIMx:
1271:n32g430_std_periph_driver/src/n32g430_tim.c **** *\*\          - TIM1
1272:n32g430_std_periph_driver/src/n32g430_tim.c **** *\*\          - TIM2
1273:n32g430_std_periph_driver/src/n32g430_tim.c **** *\*\          - TIM3
1274:n32g430_std_periph_driver/src/n32g430_tim.c **** *\*\          - TIM4
1275:n32g430_std_periph_driver/src/n32g430_tim.c **** *\*\          - TIM5
1276:n32g430_std_periph_driver/src/n32g430_tim.c **** *\*\          - TIM8
1277:n32g430_std_periph_driver/src/n32g430_tim.c **** *\*\return  uin16_t:
1278:n32g430_std_periph_driver/src/n32g430_tim.c **** *\*\          - [0 , 0xffff]
1279:n32g430_std_periph_driver/src/n32g430_tim.c **** **/
1280:n32g430_std_periph_driver/src/n32g430_tim.c **** uint16_t TIM_Compare_Capture4_Get(TIM_Module* TIMx)
1281:n32g430_std_periph_driver/src/n32g430_tim.c **** {
 1872              		.loc 1 1281 1 is_stmt 1 view -0
 1873              		.cfi_startproc
 1874              		@ args = 0, pretend = 0, frame = 0
 1875              		@ frame_needed = 0, uses_anonymous_args = 0
 1876              		@ link register save eliminated.
1282:n32g430_std_periph_driver/src/n32g430_tim.c ****     return (uint16_t)(TIMx->CCDAT4);
 1877              		.loc 1 1282 5 view .LVU460
 1878              		.loc 1 1282 27 is_stmt 0 view .LVU461
 1879 0000 006C     		ldr	r0, [r0, #64]
 1880              	.LVL136:
1283:n32g430_std_periph_driver/src/n32g430_tim.c **** }
 1881              		.loc 1 1283 1 view .LVU462
 1882 0002 80B2     		uxth	r0, r0
 1883 0004 7047     		bx	lr
 1884              		.cfi_endproc
 1885              	.LFE180:
ARM GAS  C:\Users\Dawn\AppData\Local\Temp\ccf7B1Wd.s 			page 55


 1887              		.section	.text.TIM_Compare_Capture5_Get,"ax",%progbits
 1888              		.align	1
 1889              		.global	TIM_Compare_Capture5_Get
 1890              		.syntax unified
 1891              		.thumb
 1892              		.thumb_func
 1894              	TIM_Compare_Capture5_Get:
 1895              	.LVL137:
 1896              	.LFB181:
1284:n32g430_std_periph_driver/src/n32g430_tim.c **** 
1285:n32g430_std_periph_driver/src/n32g430_tim.c **** /**
1286:n32g430_std_periph_driver/src/n32g430_tim.c **** *\*\name    TIM_Compare_Capture5_Get 
1287:n32g430_std_periph_driver/src/n32g430_tim.c **** *\*\fun     Get the TIMx Compare5 Register value
1288:n32g430_std_periph_driver/src/n32g430_tim.c **** *\*\param   TIMx:
1289:n32g430_std_periph_driver/src/n32g430_tim.c **** *\*\          - TIM1
1290:n32g430_std_periph_driver/src/n32g430_tim.c **** *\*\          - TIM8
1291:n32g430_std_periph_driver/src/n32g430_tim.c **** *\*\return  uin16_t:
1292:n32g430_std_periph_driver/src/n32g430_tim.c **** *\*\          - [0 , 0xffff]
1293:n32g430_std_periph_driver/src/n32g430_tim.c **** **/
1294:n32g430_std_periph_driver/src/n32g430_tim.c **** uint16_t TIM_Compare_Capture5_Get(TIM_Module* TIMx)
1295:n32g430_std_periph_driver/src/n32g430_tim.c **** {
 1897              		.loc 1 1295 1 is_stmt 1 view -0
 1898              		.cfi_startproc
 1899              		@ args = 0, pretend = 0, frame = 0
 1900              		@ frame_needed = 0, uses_anonymous_args = 0
 1901              		@ link register save eliminated.
1296:n32g430_std_periph_driver/src/n32g430_tim.c ****     return TIMx->CCDAT5;
 1902              		.loc 1 1296 5 view .LVU464
 1903              		.loc 1 1296 16 is_stmt 0 view .LVU465
 1904 0000 B0F85800 		ldrh	r0, [r0, #88]
 1905              	.LVL138:
1297:n32g430_std_periph_driver/src/n32g430_tim.c **** }
 1906              		.loc 1 1297 1 view .LVU466
 1907 0004 80B2     		uxth	r0, r0
 1908 0006 7047     		bx	lr
 1909              		.cfi_endproc
 1910              	.LFE181:
 1912              		.section	.text.TIM_Compare_Capture6_Get,"ax",%progbits
 1913              		.align	1
 1914              		.global	TIM_Compare_Capture6_Get
 1915              		.syntax unified
 1916              		.thumb
 1917              		.thumb_func
 1919              	TIM_Compare_Capture6_Get:
 1920              	.LVL139:
 1921              	.LFB182:
1298:n32g430_std_periph_driver/src/n32g430_tim.c **** 
1299:n32g430_std_periph_driver/src/n32g430_tim.c **** /**
1300:n32g430_std_periph_driver/src/n32g430_tim.c **** *\*\name    TIM_Compare_Capture6_Get
1301:n32g430_std_periph_driver/src/n32g430_tim.c **** *\*\fun     Get the TIMx Compare6 Register value
1302:n32g430_std_periph_driver/src/n32g430_tim.c **** *\*\param   TIMx:
1303:n32g430_std_periph_driver/src/n32g430_tim.c **** *\*\          - TIM1
1304:n32g430_std_periph_driver/src/n32g430_tim.c **** *\*\          - TIM8
1305:n32g430_std_periph_driver/src/n32g430_tim.c **** *\*\return  uin16_t:
1306:n32g430_std_periph_driver/src/n32g430_tim.c **** *\*\          - [0 , 0xffff]
1307:n32g430_std_periph_driver/src/n32g430_tim.c **** **/
1308:n32g430_std_periph_driver/src/n32g430_tim.c **** uint16_t TIM_Compare_Capture6_Get(TIM_Module* TIMx)
ARM GAS  C:\Users\Dawn\AppData\Local\Temp\ccf7B1Wd.s 			page 56


1309:n32g430_std_periph_driver/src/n32g430_tim.c **** {
 1922              		.loc 1 1309 1 is_stmt 1 view -0
 1923              		.cfi_startproc
 1924              		@ args = 0, pretend = 0, frame = 0
 1925              		@ frame_needed = 0, uses_anonymous_args = 0
 1926              		@ link register save eliminated.
1310:n32g430_std_periph_driver/src/n32g430_tim.c ****     return TIMx->CCDAT6;
 1927              		.loc 1 1310 5 view .LVU468
 1928              		.loc 1 1310 16 is_stmt 0 view .LVU469
 1929 0000 B0F85C00 		ldrh	r0, [r0, #92]
 1930              	.LVL140:
1311:n32g430_std_periph_driver/src/n32g430_tim.c **** }
 1931              		.loc 1 1311 1 view .LVU470
 1932 0004 80B2     		uxth	r0, r0
 1933 0006 7047     		bx	lr
 1934              		.cfi_endproc
 1935              	.LFE182:
 1937              		.section	.text.TIM_Compare_Capture7_Get,"ax",%progbits
 1938              		.align	1
 1939              		.global	TIM_Compare_Capture7_Get
 1940              		.syntax unified
 1941              		.thumb
 1942              		.thumb_func
 1944              	TIM_Compare_Capture7_Get:
 1945              	.LVL141:
 1946              	.LFB183:
1312:n32g430_std_periph_driver/src/n32g430_tim.c **** 
1313:n32g430_std_periph_driver/src/n32g430_tim.c **** /**
1314:n32g430_std_periph_driver/src/n32g430_tim.c **** *\*\name    TIM_Compare_Capture7_Get
1315:n32g430_std_periph_driver/src/n32g430_tim.c **** *\*\fun     Sets the TIMx Capture compare7 Register value
1316:n32g430_std_periph_driver/src/n32g430_tim.c **** *\*\param   TIMx:
1317:n32g430_std_periph_driver/src/n32g430_tim.c **** *\*\          - TIM1
1318:n32g430_std_periph_driver/src/n32g430_tim.c **** *\*\return  uint16_t:
1319:n32g430_std_periph_driver/src/n32g430_tim.c **** *\*\          - [0 , 0xffff]         
1320:n32g430_std_periph_driver/src/n32g430_tim.c **** *\*\note    only for TIM1
1321:n32g430_std_periph_driver/src/n32g430_tim.c **** **/
1322:n32g430_std_periph_driver/src/n32g430_tim.c **** uint16_t TIM_Compare_Capture7_Get(TIM_Module* TIMx)
1323:n32g430_std_periph_driver/src/n32g430_tim.c **** {
 1947              		.loc 1 1323 1 is_stmt 1 view -0
 1948              		.cfi_startproc
 1949              		@ args = 0, pretend = 0, frame = 0
 1950              		@ frame_needed = 0, uses_anonymous_args = 0
 1951              		@ link register save eliminated.
1324:n32g430_std_periph_driver/src/n32g430_tim.c ****     return TIMx->CCDAT7;
 1952              		.loc 1 1324 5 view .LVU472
 1953              		.loc 1 1324 16 is_stmt 0 view .LVU473
 1954 0000 B0F86000 		ldrh	r0, [r0, #96]
 1955              	.LVL142:
1325:n32g430_std_periph_driver/src/n32g430_tim.c **** }
 1956              		.loc 1 1325 1 view .LVU474
 1957 0004 80B2     		uxth	r0, r0
 1958 0006 7047     		bx	lr
 1959              		.cfi_endproc
 1960              	.LFE183:
 1962              		.section	.text.TIM_Compare_Capture8_Get,"ax",%progbits
 1963              		.align	1
 1964              		.global	TIM_Compare_Capture8_Get
ARM GAS  C:\Users\Dawn\AppData\Local\Temp\ccf7B1Wd.s 			page 57


 1965              		.syntax unified
 1966              		.thumb
 1967              		.thumb_func
 1969              	TIM_Compare_Capture8_Get:
 1970              	.LVL143:
 1971              	.LFB184:
1326:n32g430_std_periph_driver/src/n32g430_tim.c **** 
1327:n32g430_std_periph_driver/src/n32g430_tim.c **** /**
1328:n32g430_std_periph_driver/src/n32g430_tim.c **** *\*\name    TIM_Compare_Capture8_Get
1329:n32g430_std_periph_driver/src/n32g430_tim.c **** *\*\fun     Sets the TIMx Capture compare8 Register value
1330:n32g430_std_periph_driver/src/n32g430_tim.c **** *\*\param   TIMx:
1331:n32g430_std_periph_driver/src/n32g430_tim.c **** *\*\          - TIM1
1332:n32g430_std_periph_driver/src/n32g430_tim.c **** *\*\return  uint16_t:
1333:n32g430_std_periph_driver/src/n32g430_tim.c **** *\*\          - [0 , 0xffff]         
1334:n32g430_std_periph_driver/src/n32g430_tim.c **** *\*\note    only for TIM1
1335:n32g430_std_periph_driver/src/n32g430_tim.c **** **/
1336:n32g430_std_periph_driver/src/n32g430_tim.c **** uint16_t TIM_Compare_Capture8_Get(TIM_Module* TIMx)
1337:n32g430_std_periph_driver/src/n32g430_tim.c **** {
 1972              		.loc 1 1337 1 is_stmt 1 view -0
 1973              		.cfi_startproc
 1974              		@ args = 0, pretend = 0, frame = 0
 1975              		@ frame_needed = 0, uses_anonymous_args = 0
 1976              		@ link register save eliminated.
1338:n32g430_std_periph_driver/src/n32g430_tim.c ****     return TIMx->CCDAT8;
 1977              		.loc 1 1338 5 view .LVU476
 1978              		.loc 1 1338 16 is_stmt 0 view .LVU477
 1979 0000 B0F86400 		ldrh	r0, [r0, #100]
 1980              	.LVL144:
1339:n32g430_std_periph_driver/src/n32g430_tim.c **** }
 1981              		.loc 1 1339 1 view .LVU478
 1982 0004 80B2     		uxth	r0, r0
 1983 0006 7047     		bx	lr
 1984              		.cfi_endproc
 1985              	.LFE184:
 1987              		.section	.text.TIM_Compare_Capture9_Get,"ax",%progbits
 1988              		.align	1
 1989              		.global	TIM_Compare_Capture9_Get
 1990              		.syntax unified
 1991              		.thumb
 1992              		.thumb_func
 1994              	TIM_Compare_Capture9_Get:
 1995              	.LVL145:
 1996              	.LFB185:
1340:n32g430_std_periph_driver/src/n32g430_tim.c **** 
1341:n32g430_std_periph_driver/src/n32g430_tim.c **** /**
1342:n32g430_std_periph_driver/src/n32g430_tim.c **** *\*\name    TIM_Compare_Capture9_Get
1343:n32g430_std_periph_driver/src/n32g430_tim.c **** *\*\fun     Sets the TIMx Capture compare9 Register value
1344:n32g430_std_periph_driver/src/n32g430_tim.c **** *\*\param   TIMx:
1345:n32g430_std_periph_driver/src/n32g430_tim.c **** *\*\          - TIM1
1346:n32g430_std_periph_driver/src/n32g430_tim.c **** *\*\return  uint16_t:
1347:n32g430_std_periph_driver/src/n32g430_tim.c **** *\*\          - [0 , 0xffff]         
1348:n32g430_std_periph_driver/src/n32g430_tim.c **** *\*\note    only for TIM1
1349:n32g430_std_periph_driver/src/n32g430_tim.c **** **/
1350:n32g430_std_periph_driver/src/n32g430_tim.c **** uint16_t TIM_Compare_Capture9_Get(TIM_Module* TIMx)
1351:n32g430_std_periph_driver/src/n32g430_tim.c **** {
 1997              		.loc 1 1351 1 is_stmt 1 view -0
 1998              		.cfi_startproc
ARM GAS  C:\Users\Dawn\AppData\Local\Temp\ccf7B1Wd.s 			page 58


 1999              		@ args = 0, pretend = 0, frame = 0
 2000              		@ frame_needed = 0, uses_anonymous_args = 0
 2001              		@ link register save eliminated.
1352:n32g430_std_periph_driver/src/n32g430_tim.c ****     return TIMx->CCDAT9;
 2002              		.loc 1 1352 5 view .LVU480
 2003              		.loc 1 1352 16 is_stmt 0 view .LVU481
 2004 0000 B0F86800 		ldrh	r0, [r0, #104]
 2005              	.LVL146:
1353:n32g430_std_periph_driver/src/n32g430_tim.c **** }
 2006              		.loc 1 1353 1 view .LVU482
 2007 0004 80B2     		uxth	r0, r0
 2008 0006 7047     		bx	lr
 2009              		.cfi_endproc
 2010              	.LFE185:
 2012              		.section	.text.TIM_Compare_Capture1_D_Get,"ax",%progbits
 2013              		.align	1
 2014              		.global	TIM_Compare_Capture1_D_Get
 2015              		.syntax unified
 2016              		.thumb
 2017              		.thumb_func
 2019              	TIM_Compare_Capture1_D_Get:
 2020              	.LVL147:
 2021              	.LFB186:
1354:n32g430_std_periph_driver/src/n32g430_tim.c **** 
1355:n32g430_std_periph_driver/src/n32g430_tim.c **** /**
1356:n32g430_std_periph_driver/src/n32g430_tim.c **** *\*\name    TIM_Compare_Capture1_D_Get
1357:n32g430_std_periph_driver/src/n32g430_tim.c **** *\*\fun     Gets the CCDDAT1[16:31] in TIMx_CCDAT1 register
1358:n32g430_std_periph_driver/src/n32g430_tim.c **** *\*\param   TIMx:
1359:n32g430_std_periph_driver/src/n32g430_tim.c **** *\*\          - TIM1
1360:n32g430_std_periph_driver/src/n32g430_tim.c **** *\*\return  uint16_t:
1361:n32g430_std_periph_driver/src/n32g430_tim.c **** *\*\          - [0 , 0xffff]         
1362:n32g430_std_periph_driver/src/n32g430_tim.c **** *\*\note    only for TIM1
1363:n32g430_std_periph_driver/src/n32g430_tim.c **** **/
1364:n32g430_std_periph_driver/src/n32g430_tim.c **** uint16_t TIM_Compare_Capture1_D_Get(TIM_Module* TIMx)
1365:n32g430_std_periph_driver/src/n32g430_tim.c **** {
 2022              		.loc 1 1365 1 is_stmt 1 view -0
 2023              		.cfi_startproc
 2024              		@ args = 0, pretend = 0, frame = 0
 2025              		@ frame_needed = 0, uses_anonymous_args = 0
 2026              		@ link register save eliminated.
1366:n32g430_std_periph_driver/src/n32g430_tim.c ****     return (uint16_t)((TIMx->CCDAT1 & TIM_CCDDAT1_MASK) >> 16);
 2027              		.loc 1 1366 5 view .LVU484
 2028              		.loc 1 1366 28 is_stmt 0 view .LVU485
 2029 0000 406B     		ldr	r0, [r0, #52]
 2030              	.LVL148:
1367:n32g430_std_periph_driver/src/n32g430_tim.c **** }
 2031              		.loc 1 1367 1 view .LVU486
 2032 0002 000C     		lsrs	r0, r0, #16
 2033 0004 7047     		bx	lr
 2034              		.cfi_endproc
 2035              	.LFE186:
 2037              		.section	.text.TIM_Compare_Capture2_D_Get,"ax",%progbits
 2038              		.align	1
 2039              		.global	TIM_Compare_Capture2_D_Get
 2040              		.syntax unified
 2041              		.thumb
 2042              		.thumb_func
ARM GAS  C:\Users\Dawn\AppData\Local\Temp\ccf7B1Wd.s 			page 59


 2044              	TIM_Compare_Capture2_D_Get:
 2045              	.LVL149:
 2046              	.LFB187:
1368:n32g430_std_periph_driver/src/n32g430_tim.c **** 
1369:n32g430_std_periph_driver/src/n32g430_tim.c **** /**
1370:n32g430_std_periph_driver/src/n32g430_tim.c **** *\*\name    TIM_Compare_Capture2_D_Get
1371:n32g430_std_periph_driver/src/n32g430_tim.c **** *\*\fun     Gets the CCDDAT2[16:31] in TIMx_CCDAT2 register
1372:n32g430_std_periph_driver/src/n32g430_tim.c **** *\*\param   TIMx:
1373:n32g430_std_periph_driver/src/n32g430_tim.c **** *\*\          - TIM1
1374:n32g430_std_periph_driver/src/n32g430_tim.c **** *\*\return  uint16_t:
1375:n32g430_std_periph_driver/src/n32g430_tim.c **** *\*\          - [0 , 0xffff]         
1376:n32g430_std_periph_driver/src/n32g430_tim.c **** *\*\note    only for TIM1
1377:n32g430_std_periph_driver/src/n32g430_tim.c **** **/
1378:n32g430_std_periph_driver/src/n32g430_tim.c **** uint16_t TIM_Compare_Capture2_D_Get(TIM_Module* TIMx)
1379:n32g430_std_periph_driver/src/n32g430_tim.c **** {
 2047              		.loc 1 1379 1 is_stmt 1 view -0
 2048              		.cfi_startproc
 2049              		@ args = 0, pretend = 0, frame = 0
 2050              		@ frame_needed = 0, uses_anonymous_args = 0
 2051              		@ link register save eliminated.
1380:n32g430_std_periph_driver/src/n32g430_tim.c ****     return (uint16_t)((TIMx->CCDAT2 & TIM_CCDDAT2_MASK) >> 16);
 2052              		.loc 1 1380 5 view .LVU488
 2053              		.loc 1 1380 28 is_stmt 0 view .LVU489
 2054 0000 806B     		ldr	r0, [r0, #56]
 2055              	.LVL150:
1381:n32g430_std_periph_driver/src/n32g430_tim.c **** }
 2056              		.loc 1 1381 1 view .LVU490
 2057 0002 000C     		lsrs	r0, r0, #16
 2058 0004 7047     		bx	lr
 2059              		.cfi_endproc
 2060              	.LFE187:
 2062              		.section	.text.TIM_Compare_Capture3_D_Get,"ax",%progbits
 2063              		.align	1
 2064              		.global	TIM_Compare_Capture3_D_Get
 2065              		.syntax unified
 2066              		.thumb
 2067              		.thumb_func
 2069              	TIM_Compare_Capture3_D_Get:
 2070              	.LVL151:
 2071              	.LFB188:
1382:n32g430_std_periph_driver/src/n32g430_tim.c **** 
1383:n32g430_std_periph_driver/src/n32g430_tim.c **** /**
1384:n32g430_std_periph_driver/src/n32g430_tim.c **** *\*\name    TIM_Compare_Capture3_D_Get
1385:n32g430_std_periph_driver/src/n32g430_tim.c **** *\*\fun     Gets the CCDDAT3[16:31] in TIMx_CCDAT3 register
1386:n32g430_std_periph_driver/src/n32g430_tim.c **** *\*\param   TIMx:
1387:n32g430_std_periph_driver/src/n32g430_tim.c **** *\*\          - TIM1
1388:n32g430_std_periph_driver/src/n32g430_tim.c **** *\*\return  uint16_t:
1389:n32g430_std_periph_driver/src/n32g430_tim.c **** *\*\          - [0 , 0xffff]         
1390:n32g430_std_periph_driver/src/n32g430_tim.c **** *\*\note    only for TIM1
1391:n32g430_std_periph_driver/src/n32g430_tim.c **** **/
1392:n32g430_std_periph_driver/src/n32g430_tim.c **** uint16_t TIM_Compare_Capture3_D_Get(TIM_Module* TIMx)
1393:n32g430_std_periph_driver/src/n32g430_tim.c **** {
 2072              		.loc 1 1393 1 is_stmt 1 view -0
 2073              		.cfi_startproc
 2074              		@ args = 0, pretend = 0, frame = 0
 2075              		@ frame_needed = 0, uses_anonymous_args = 0
 2076              		@ link register save eliminated.
ARM GAS  C:\Users\Dawn\AppData\Local\Temp\ccf7B1Wd.s 			page 60


1394:n32g430_std_periph_driver/src/n32g430_tim.c ****     return (uint16_t)((TIMx->CCDAT3 & TIM_CCDDAT3_MASK) >> 16);
 2077              		.loc 1 1394 5 view .LVU492
 2078              		.loc 1 1394 28 is_stmt 0 view .LVU493
 2079 0000 C06B     		ldr	r0, [r0, #60]
 2080              	.LVL152:
1395:n32g430_std_periph_driver/src/n32g430_tim.c **** }
 2081              		.loc 1 1395 1 view .LVU494
 2082 0002 000C     		lsrs	r0, r0, #16
 2083 0004 7047     		bx	lr
 2084              		.cfi_endproc
 2085              	.LFE188:
 2087              		.section	.text.TIM_Compare_Capture4_D_Get,"ax",%progbits
 2088              		.align	1
 2089              		.global	TIM_Compare_Capture4_D_Get
 2090              		.syntax unified
 2091              		.thumb
 2092              		.thumb_func
 2094              	TIM_Compare_Capture4_D_Get:
 2095              	.LVL153:
 2096              	.LFB189:
1396:n32g430_std_periph_driver/src/n32g430_tim.c **** 
1397:n32g430_std_periph_driver/src/n32g430_tim.c **** /**
1398:n32g430_std_periph_driver/src/n32g430_tim.c **** *\*\name    TIM_Compare_Capture4_D_Get
1399:n32g430_std_periph_driver/src/n32g430_tim.c **** *\*\fun     Gets the CCDDAT4[16:31] in TIMx_CCDAT4 register
1400:n32g430_std_periph_driver/src/n32g430_tim.c **** *\*\param   TIMx:
1401:n32g430_std_periph_driver/src/n32g430_tim.c **** *\*\          - TIM1
1402:n32g430_std_periph_driver/src/n32g430_tim.c **** *\*\return  uint16_t:
1403:n32g430_std_periph_driver/src/n32g430_tim.c **** *\*\          - [0 , 0xffff]         
1404:n32g430_std_periph_driver/src/n32g430_tim.c **** *\*\note    only for TIM1
1405:n32g430_std_periph_driver/src/n32g430_tim.c **** **/
1406:n32g430_std_periph_driver/src/n32g430_tim.c **** uint16_t TIM_Compare_Capture4_D_Get(TIM_Module* TIMx)
1407:n32g430_std_periph_driver/src/n32g430_tim.c **** {
 2097              		.loc 1 1407 1 is_stmt 1 view -0
 2098              		.cfi_startproc
 2099              		@ args = 0, pretend = 0, frame = 0
 2100              		@ frame_needed = 0, uses_anonymous_args = 0
 2101              		@ link register save eliminated.
1408:n32g430_std_periph_driver/src/n32g430_tim.c ****     return (uint16_t)((TIMx->CCDAT4 & TIM_CCDDAT4_MASK) >> 16);
 2102              		.loc 1 1408 5 view .LVU496
 2103              		.loc 1 1408 28 is_stmt 0 view .LVU497
 2104 0000 006C     		ldr	r0, [r0, #64]
 2105              	.LVL154:
1409:n32g430_std_periph_driver/src/n32g430_tim.c **** }
 2106              		.loc 1 1409 1 view .LVU498
 2107 0002 000C     		lsrs	r0, r0, #16
 2108 0004 7047     		bx	lr
 2109              		.cfi_endproc
 2110              	.LFE189:
 2112              		.section	.text.TIM_Trigger_Source_Select,"ax",%progbits
 2113              		.align	1
 2114              		.global	TIM_Trigger_Source_Select
 2115              		.syntax unified
 2116              		.thumb
 2117              		.thumb_func
 2119              	TIM_Trigger_Source_Select:
 2120              	.LVL155:
 2121              	.LFB190:
ARM GAS  C:\Users\Dawn\AppData\Local\Temp\ccf7B1Wd.s 			page 61


1410:n32g430_std_periph_driver/src/n32g430_tim.c **** 
1411:n32g430_std_periph_driver/src/n32g430_tim.c **** 
1412:n32g430_std_periph_driver/src/n32g430_tim.c **** /**
1413:n32g430_std_periph_driver/src/n32g430_tim.c **** *\*\name    TIM_Trigger_Source_Select
1414:n32g430_std_periph_driver/src/n32g430_tim.c **** *\*\fun     Selects the Input Trigger source
1415:n32g430_std_periph_driver/src/n32g430_tim.c **** *\*\param   TIMx:
1416:n32g430_std_periph_driver/src/n32g430_tim.c **** *\*\          - TIM1
1417:n32g430_std_periph_driver/src/n32g430_tim.c **** *\*\          - TIM2
1418:n32g430_std_periph_driver/src/n32g430_tim.c **** *\*\          - TIM3
1419:n32g430_std_periph_driver/src/n32g430_tim.c **** *\*\          - TIM4
1420:n32g430_std_periph_driver/src/n32g430_tim.c **** *\*\          - TIM5
1421:n32g430_std_periph_driver/src/n32g430_tim.c **** *\*\          - TIM8
1422:n32g430_std_periph_driver/src/n32g430_tim.c **** *\*\param   TIM_trigger_source
1423:n32g430_std_periph_driver/src/n32g430_tim.c **** *\*\          - TIM_TRIG_SEL_IN_TR0     Internal Trigger 0
1424:n32g430_std_periph_driver/src/n32g430_tim.c **** *\*\          - TIM_TRIG_SEL_IN_TR1     Internal Trigger 1
1425:n32g430_std_periph_driver/src/n32g430_tim.c **** *\*\          - TIM_TRIG_SEL_IN_TR2     Internal Trigger 2
1426:n32g430_std_periph_driver/src/n32g430_tim.c **** *\*\          - TIM_TRIG_SEL_IN_TR3     Internal Trigger 3
1427:n32g430_std_periph_driver/src/n32g430_tim.c **** *\*\          - TIM_TRIG_SEL_TI1F_ED    TI1 Edge Detector
1428:n32g430_std_periph_driver/src/n32g430_tim.c **** *\*\          - TIM_TRIG_SEL_TI1FP1     Filtered Timer Input 1
1429:n32g430_std_periph_driver/src/n32g430_tim.c **** *\*\          - TIM_TRIG_SEL_TI2FP2     Filtered Timer Input 2
1430:n32g430_std_periph_driver/src/n32g430_tim.c **** *\*\          - TIM_TRIG_SEL_ETRF       External Trigger input
1431:n32g430_std_periph_driver/src/n32g430_tim.c **** *\*\return  none
1432:n32g430_std_periph_driver/src/n32g430_tim.c **** **/
1433:n32g430_std_periph_driver/src/n32g430_tim.c **** void TIM_Trigger_Source_Select(TIM_Module* TIMx, uint16_t TIM_trigger_source)
1434:n32g430_std_periph_driver/src/n32g430_tim.c **** {
 2122              		.loc 1 1434 1 is_stmt 1 view -0
 2123              		.cfi_startproc
 2124              		@ args = 0, pretend = 0, frame = 0
 2125              		@ frame_needed = 0, uses_anonymous_args = 0
 2126              		@ link register save eliminated.
1435:n32g430_std_periph_driver/src/n32g430_tim.c ****     uint16_t temp_value = 0;
 2127              		.loc 1 1435 5 view .LVU500
1436:n32g430_std_periph_driver/src/n32g430_tim.c **** 
1437:n32g430_std_periph_driver/src/n32g430_tim.c ****     /* Get the TIMx SMCTRL register value */
1438:n32g430_std_periph_driver/src/n32g430_tim.c ****     temp_value = TIMx->SMCTRL;
 2128              		.loc 1 1438 5 view .LVU501
 2129              		.loc 1 1438 16 is_stmt 0 view .LVU502
 2130 0000 0389     		ldrh	r3, [r0, #8]
 2131 0002 9BB2     		uxth	r3, r3
 2132              	.LVL156:
1439:n32g430_std_periph_driver/src/n32g430_tim.c ****     /* Reset the TS Bits */
1440:n32g430_std_periph_driver/src/n32g430_tim.c ****     temp_value &= (uint16_t)(~((uint16_t)TIM_TRIG_SEL_MASK));
 2133              		.loc 1 1440 5 is_stmt 1 view .LVU503
 2134              		.loc 1 1440 16 is_stmt 0 view .LVU504
 2135 0004 23F07003 		bic	r3, r3, #112
 2136              	.LVL157:
1441:n32g430_std_periph_driver/src/n32g430_tim.c ****     /* Set the Input Trigger source */
1442:n32g430_std_periph_driver/src/n32g430_tim.c ****     temp_value |= TIM_trigger_source;
 2137              		.loc 1 1442 5 is_stmt 1 view .LVU505
 2138              		.loc 1 1442 16 is_stmt 0 view .LVU506
 2139 0008 0B43     		orrs	r3, r3, r1
 2140              	.LVL158:
1443:n32g430_std_periph_driver/src/n32g430_tim.c ****     /* Write to TIMx SMCTRL */
1444:n32g430_std_periph_driver/src/n32g430_tim.c ****     TIMx->SMCTRL = temp_value;
 2141              		.loc 1 1444 5 is_stmt 1 view .LVU507
 2142              		.loc 1 1444 18 is_stmt 0 view .LVU508
 2143 000a 0381     		strh	r3, [r0, #8]	@ movhi
ARM GAS  C:\Users\Dawn\AppData\Local\Temp\ccf7B1Wd.s 			page 62


1445:n32g430_std_periph_driver/src/n32g430_tim.c **** }
 2144              		.loc 1 1445 1 view .LVU509
 2145 000c 7047     		bx	lr
 2146              		.cfi_endproc
 2147              	.LFE190:
 2149              		.section	.text.Input_Channel1_Config,"ax",%progbits
 2150              		.align	1
 2151              		.global	Input_Channel1_Config
 2152              		.syntax unified
 2153              		.thumb
 2154              		.thumb_func
 2156              	Input_Channel1_Config:
 2157              	.LVL159:
 2158              	.LFB191:
1446:n32g430_std_periph_driver/src/n32g430_tim.c **** 
1447:n32g430_std_periph_driver/src/n32g430_tim.c **** 
1448:n32g430_std_periph_driver/src/n32g430_tim.c **** /**
1449:n32g430_std_periph_driver/src/n32g430_tim.c **** *\*\name    Input_Channel1_Config
1450:n32g430_std_periph_driver/src/n32g430_tim.c **** *\*\fun     Configure the TI1 as Input.
1451:n32g430_std_periph_driver/src/n32g430_tim.c **** *\*\param   TIMx:
1452:n32g430_std_periph_driver/src/n32g430_tim.c **** *\*\          - TIM1
1453:n32g430_std_periph_driver/src/n32g430_tim.c **** *\*\          - TIM2
1454:n32g430_std_periph_driver/src/n32g430_tim.c **** *\*\          - TIM3
1455:n32g430_std_periph_driver/src/n32g430_tim.c **** *\*\          - TIM4
1456:n32g430_std_periph_driver/src/n32g430_tim.c **** *\*\          - TIM5
1457:n32g430_std_periph_driver/src/n32g430_tim.c **** *\*\          - TIM8
1458:n32g430_std_periph_driver/src/n32g430_tim.c **** *\*\param   input_channel_polarity The Input Polarity.
1459:n32g430_std_periph_driver/src/n32g430_tim.c **** *\*\  This parameter can be one of the following values:
1460:n32g430_std_periph_driver/src/n32g430_tim.c **** *\*\          - TIM_IC_POLARITY_RISING
1461:n32g430_std_periph_driver/src/n32g430_tim.c **** *\*\          - TIM_IC_POLARITY_FALLING
1462:n32g430_std_periph_driver/src/n32g430_tim.c **** *\*\param   input_channel_selection specifies the input to be used.
1463:n32g430_std_periph_driver/src/n32g430_tim.c **** *\*\  This parameter can be one of the following values:
1464:n32g430_std_periph_driver/src/n32g430_tim.c **** *\*\          - TIM_IC_SELECTION_DIRECTTI      TIM Input 1 is selected to be connected to IC1.
1465:n32g430_std_periph_driver/src/n32g430_tim.c **** *\*\          - TIM_IC_SELECTION_INDIRECTTI    TIM Input 1 is selected to be connected to IC2.
1466:n32g430_std_periph_driver/src/n32g430_tim.c **** *\*\          - TIM_IC_SELECTION_TRC           TIM Input 1 is selected to be connected to TRC.
1467:n32g430_std_periph_driver/src/n32g430_tim.c **** *\*\param   input_channel_filter Specifies the Input Capture Filter.
1468:n32g430_std_periph_driver/src/n32g430_tim.c **** *\*\            [0x00 0xF]
1469:n32g430_std_periph_driver/src/n32g430_tim.c **** *\*\return  none
1470:n32g430_std_periph_driver/src/n32g430_tim.c **** **/
1471:n32g430_std_periph_driver/src/n32g430_tim.c **** void Input_Channel1_Config(TIM_Module* TIMx, uint16_t input_channel_polarity, 
1472:n32g430_std_periph_driver/src/n32g430_tim.c ****                                uint16_t input_channel_selection, uint16_t input_channel_filter)
1473:n32g430_std_periph_driver/src/n32g430_tim.c **** {
 2159              		.loc 1 1473 1 is_stmt 1 view -0
 2160              		.cfi_startproc
 2161              		@ args = 0, pretend = 0, frame = 0
 2162              		@ frame_needed = 0, uses_anonymous_args = 0
 2163              		@ link register save eliminated.
 2164              		.loc 1 1473 1 is_stmt 0 view .LVU511
 2165 0000 10B4     		push	{r4}
 2166              	.LCFI1:
 2167              		.cfi_def_cfa_offset 4
 2168              		.cfi_offset 4, -4
1474:n32g430_std_periph_driver/src/n32g430_tim.c ****     uint16_t temp_ccmod1 = 0;
 2169              		.loc 1 1474 5 is_stmt 1 view .LVU512
 2170              	.LVL160:
1475:n32g430_std_periph_driver/src/n32g430_tim.c ****     uint32_t temp_ccen  = 0;
 2171              		.loc 1 1475 5 view .LVU513
ARM GAS  C:\Users\Dawn\AppData\Local\Temp\ccf7B1Wd.s 			page 63


1476:n32g430_std_periph_driver/src/n32g430_tim.c ****     /* Disable the Channel 1: Reset the CC1E Bit */
1477:n32g430_std_periph_driver/src/n32g430_tim.c ****     TIMx->CCEN &= (uint32_t) ~((uint32_t)TIM_CC1EN);
 2172              		.loc 1 1477 5 view .LVU514
 2173              		.loc 1 1477 9 is_stmt 0 view .LVU515
 2174 0002 046A     		ldr	r4, [r0, #32]
 2175              		.loc 1 1477 16 view .LVU516
 2176 0004 24F00104 		bic	r4, r4, #1
 2177 0008 0462     		str	r4, [r0, #32]
1478:n32g430_std_periph_driver/src/n32g430_tim.c ****     temp_ccmod1 = TIMx->CCMOD1;
 2178              		.loc 1 1478 5 is_stmt 1 view .LVU517
 2179              		.loc 1 1478 17 is_stmt 0 view .LVU518
 2180 000a B0F818C0 		ldrh	ip, [r0, #24]
 2181 000e 1FFA8CFC 		uxth	ip, ip
 2182              	.LVL161:
1479:n32g430_std_periph_driver/src/n32g430_tim.c ****     temp_ccen  = TIMx->CCEN;
 2183              		.loc 1 1479 5 is_stmt 1 view .LVU519
 2184              		.loc 1 1479 16 is_stmt 0 view .LVU520
 2185 0012 046A     		ldr	r4, [r0, #32]
 2186              	.LVL162:
1480:n32g430_std_periph_driver/src/n32g430_tim.c ****     /* Select the Input and set the filter */
1481:n32g430_std_periph_driver/src/n32g430_tim.c ****     temp_ccmod1 &= (uint16_t)(((uint16_t) ~((uint16_t)TIM_IC1_SELECTION_MASK)) & ((uint16_t) ~((uin
 2187              		.loc 1 1481 5 is_stmt 1 view .LVU521
 2188              		.loc 1 1481 17 is_stmt 0 view .LVU522
 2189 0014 2CF0F30C 		bic	ip, ip, #243
 2190              	.LVL163:
1482:n32g430_std_periph_driver/src/n32g430_tim.c ****     temp_ccmod1 |= (uint16_t)(input_channel_selection | (uint16_t)(input_channel_filter << (uint16_
 2191              		.loc 1 1482 5 is_stmt 1 view .LVU523
 2192              		.loc 1 1482 57 is_stmt 0 view .LVU524
 2193 0018 1B01     		lsls	r3, r3, #4
 2194              	.LVL164:
 2195              		.loc 1 1482 57 view .LVU525
 2196 001a 9BB2     		uxth	r3, r3
 2197              		.loc 1 1482 20 view .LVU526
 2198 001c 1343     		orrs	r3, r3, r2
 2199              		.loc 1 1482 17 view .LVU527
 2200 001e 4CEA030C 		orr	ip, ip, r3
 2201              	.LVL165:
1483:n32g430_std_periph_driver/src/n32g430_tim.c **** 
1484:n32g430_std_periph_driver/src/n32g430_tim.c ****     if ((TIMx == TIM1) || (TIMx == TIM8) || (TIMx == TIM2) || (TIMx == TIM3) || (TIMx == TIM4) || (
 2202              		.loc 1 1484 5 is_stmt 1 view .LVU528
 2203              		.loc 1 1484 8 is_stmt 0 view .LVU529
 2204 0022 134B     		ldr	r3, .L111
 2205 0024 9842     		cmp	r0, r3
 2206 0026 18D0     		beq	.L107
 2207              		.loc 1 1484 24 discriminator 1 view .LVU530
 2208 0028 03F50063 		add	r3, r3, #2048
 2209 002c 9842     		cmp	r0, r3
 2210 002e 14D0     		beq	.L107
 2211              		.loc 1 1484 42 discriminator 2 view .LVU531
 2212 0030 B0F1804F 		cmp	r0, #1073741824
 2213 0034 11D0     		beq	.L107
 2214              		.loc 1 1484 60 discriminator 3 view .LVU532
 2215 0036 A3F59833 		sub	r3, r3, #77824
 2216 003a 9842     		cmp	r0, r3
 2217 003c 0DD0     		beq	.L107
 2218              		.loc 1 1484 78 discriminator 4 view .LVU533
 2219 003e 03F58063 		add	r3, r3, #1024
ARM GAS  C:\Users\Dawn\AppData\Local\Temp\ccf7B1Wd.s 			page 64


 2220 0042 9842     		cmp	r0, r3
 2221 0044 09D0     		beq	.L107
 2222              		.loc 1 1484 96 discriminator 5 view .LVU534
 2223 0046 03F58063 		add	r3, r3, #1024
 2224 004a 9842     		cmp	r0, r3
 2225 004c 05D0     		beq	.L107
1485:n32g430_std_periph_driver/src/n32g430_tim.c ****     {
1486:n32g430_std_periph_driver/src/n32g430_tim.c ****         /* Select the Polarity and set the CC1E Bit */
1487:n32g430_std_periph_driver/src/n32g430_tim.c ****         temp_ccen &= (uint32_t) ~((uint32_t)(TIM_CC1P));
1488:n32g430_std_periph_driver/src/n32g430_tim.c ****         temp_ccen |= (uint32_t)(input_channel_polarity | (uint32_t)TIM_CC1EN);
1489:n32g430_std_periph_driver/src/n32g430_tim.c ****     }
1490:n32g430_std_periph_driver/src/n32g430_tim.c ****     else
1491:n32g430_std_periph_driver/src/n32g430_tim.c ****     {
1492:n32g430_std_periph_driver/src/n32g430_tim.c ****         /* Select the Polarity and set the CC1E Bit */
1493:n32g430_std_periph_driver/src/n32g430_tim.c ****         temp_ccen &= (uint32_t) ~((uint32_t)(TIM_CC1P | TIM_CC1NP));
 2226              		.loc 1 1493 9 is_stmt 1 view .LVU535
 2227              		.loc 1 1493 19 is_stmt 0 view .LVU536
 2228 004e 24F00A04 		bic	r4, r4, #10
 2229              	.LVL166:
1494:n32g430_std_periph_driver/src/n32g430_tim.c ****         temp_ccen |= (uint32_t)(input_channel_polarity | (uint32_t)TIM_CC1EN);
 2230              		.loc 1 1494 9 is_stmt 1 view .LVU537
 2231              		.loc 1 1494 22 is_stmt 0 view .LVU538
 2232 0052 41F00101 		orr	r1, r1, #1
 2233              	.LVL167:
 2234              		.loc 1 1494 19 view .LVU539
 2235 0056 2143     		orrs	r1, r1, r4
 2236 0058 04E0     		b	.L109
 2237              	.LVL168:
 2238              	.L107:
1487:n32g430_std_periph_driver/src/n32g430_tim.c ****         temp_ccen |= (uint32_t)(input_channel_polarity | (uint32_t)TIM_CC1EN);
 2239              		.loc 1 1487 9 is_stmt 1 view .LVU540
1487:n32g430_std_periph_driver/src/n32g430_tim.c ****         temp_ccen |= (uint32_t)(input_channel_polarity | (uint32_t)TIM_CC1EN);
 2240              		.loc 1 1487 19 is_stmt 0 view .LVU541
 2241 005a 24F00204 		bic	r4, r4, #2
 2242              	.LVL169:
1488:n32g430_std_periph_driver/src/n32g430_tim.c ****     }
 2243              		.loc 1 1488 9 is_stmt 1 view .LVU542
1488:n32g430_std_periph_driver/src/n32g430_tim.c ****     }
 2244              		.loc 1 1488 22 is_stmt 0 view .LVU543
 2245 005e 41F00101 		orr	r1, r1, #1
 2246              	.LVL170:
1488:n32g430_std_periph_driver/src/n32g430_tim.c ****     }
 2247              		.loc 1 1488 19 view .LVU544
 2248 0062 2143     		orrs	r1, r1, r4
 2249              	.LVL171:
 2250              	.L109:
1495:n32g430_std_periph_driver/src/n32g430_tim.c ****     }
1496:n32g430_std_periph_driver/src/n32g430_tim.c **** 
1497:n32g430_std_periph_driver/src/n32g430_tim.c ****     /* Write to TIMx CCMOD1 and CCEN registers */
1498:n32g430_std_periph_driver/src/n32g430_tim.c ****     TIMx->CCMOD1 = temp_ccmod1;
 2251              		.loc 1 1498 5 is_stmt 1 view .LVU545
 2252              		.loc 1 1498 18 is_stmt 0 view .LVU546
 2253 0064 A0F818C0 		strh	ip, [r0, #24]	@ movhi
1499:n32g430_std_periph_driver/src/n32g430_tim.c ****     TIMx->CCEN   = temp_ccen;
 2254              		.loc 1 1499 5 is_stmt 1 view .LVU547
 2255              		.loc 1 1499 18 is_stmt 0 view .LVU548
 2256 0068 0162     		str	r1, [r0, #32]
ARM GAS  C:\Users\Dawn\AppData\Local\Temp\ccf7B1Wd.s 			page 65


1500:n32g430_std_periph_driver/src/n32g430_tim.c **** }
 2257              		.loc 1 1500 1 view .LVU549
 2258 006a 10BC     		pop	{r4}
 2259              	.LCFI2:
 2260              		.cfi_restore 4
 2261              		.cfi_def_cfa_offset 0
 2262 006c 7047     		bx	lr
 2263              	.L112:
 2264 006e 00BF     		.align	2
 2265              	.L111:
 2266 0070 002C0140 		.word	1073818624
 2267              		.cfi_endproc
 2268              	.LFE191:
 2270              		.section	.text.Input_Channel2_Config,"ax",%progbits
 2271              		.align	1
 2272              		.global	Input_Channel2_Config
 2273              		.syntax unified
 2274              		.thumb
 2275              		.thumb_func
 2277              	Input_Channel2_Config:
 2278              	.LVL172:
 2279              	.LFB192:
1501:n32g430_std_periph_driver/src/n32g430_tim.c **** 
1502:n32g430_std_periph_driver/src/n32g430_tim.c **** /**
1503:n32g430_std_periph_driver/src/n32g430_tim.c **** *\*\name    Input_Channel2_Config
1504:n32g430_std_periph_driver/src/n32g430_tim.c **** *\*\fun     Configure the TI2 as Input.
1505:n32g430_std_periph_driver/src/n32g430_tim.c **** *\*\param   TIMx:
1506:n32g430_std_periph_driver/src/n32g430_tim.c **** *\*\          - TIM1
1507:n32g430_std_periph_driver/src/n32g430_tim.c **** *\*\          - TIM2
1508:n32g430_std_periph_driver/src/n32g430_tim.c **** *\*\          - TIM3
1509:n32g430_std_periph_driver/src/n32g430_tim.c **** *\*\          - TIM4
1510:n32g430_std_periph_driver/src/n32g430_tim.c **** *\*\          - TIM5
1511:n32g430_std_periph_driver/src/n32g430_tim.c **** *\*\          - TIM8
1512:n32g430_std_periph_driver/src/n32g430_tim.c **** *\*\param   input_channel_polarity The Input Polarity.
1513:n32g430_std_periph_driver/src/n32g430_tim.c **** *\*\  This parameter can be one of the following values:
1514:n32g430_std_periph_driver/src/n32g430_tim.c **** *\*\          - TIM_IC_POLARITY_RISING
1515:n32g430_std_periph_driver/src/n32g430_tim.c **** *\*\          - TIM_IC_POLARITY_FALLING
1516:n32g430_std_periph_driver/src/n32g430_tim.c **** *\*\param   input_channel_selection specifies the input to be used.
1517:n32g430_std_periph_driver/src/n32g430_tim.c **** *\*\  This parameter can be one of the following values:
1518:n32g430_std_periph_driver/src/n32g430_tim.c **** *\*\          - TIM_IC_SELECTION_DIRECTTI      TIM Input 2 is selected to be connected to IC2.
1519:n32g430_std_periph_driver/src/n32g430_tim.c **** *\*\          - TIM_IC_SELECTION_INDIRECTTI    TIM Input 2 is selected to be connected to IC1.
1520:n32g430_std_periph_driver/src/n32g430_tim.c **** *\*\          - TIM_IC_SELECTION_TRC           TIM Input 2 is selected to be connected to TRC.
1521:n32g430_std_periph_driver/src/n32g430_tim.c **** *\*\param   input_channel_filter Specifies the Input Capture Filter.
1522:n32g430_std_periph_driver/src/n32g430_tim.c **** *\*\            [0x00 0x0F]
1523:n32g430_std_periph_driver/src/n32g430_tim.c **** *\*\return  none
1524:n32g430_std_periph_driver/src/n32g430_tim.c **** **/
1525:n32g430_std_periph_driver/src/n32g430_tim.c **** void Input_Channel2_Config(TIM_Module* TIMx, uint16_t input_channel_polarity, 
1526:n32g430_std_periph_driver/src/n32g430_tim.c ****                            uint16_t input_channel_selection, uint16_t input_channel_filter)
1527:n32g430_std_periph_driver/src/n32g430_tim.c **** {
 2280              		.loc 1 1527 1 is_stmt 1 view -0
 2281              		.cfi_startproc
 2282              		@ args = 0, pretend = 0, frame = 0
 2283              		@ frame_needed = 0, uses_anonymous_args = 0
 2284              		.loc 1 1527 1 is_stmt 0 view .LVU551
 2285 0000 10B5     		push	{r4, lr}
 2286              	.LCFI3:
 2287              		.cfi_def_cfa_offset 8
ARM GAS  C:\Users\Dawn\AppData\Local\Temp\ccf7B1Wd.s 			page 66


 2288              		.cfi_offset 4, -8
 2289              		.cfi_offset 14, -4
1528:n32g430_std_periph_driver/src/n32g430_tim.c ****     uint16_t temp_ccmod1 = 0;
 2290              		.loc 1 1528 5 is_stmt 1 view .LVU552
 2291              	.LVL173:
1529:n32g430_std_periph_driver/src/n32g430_tim.c ****     uint32_t temp_ccen = 0, temp_value = 0;
 2292              		.loc 1 1529 5 view .LVU553
1530:n32g430_std_periph_driver/src/n32g430_tim.c ****     /* Disable the Channel 2: Reset the CC2E Bit */
1531:n32g430_std_periph_driver/src/n32g430_tim.c ****     TIMx->CCEN &= (uint32_t) ~((uint32_t)TIM_CC2EN);
 2293              		.loc 1 1531 5 view .LVU554
 2294              		.loc 1 1531 9 is_stmt 0 view .LVU555
 2295 0002 046A     		ldr	r4, [r0, #32]
 2296              		.loc 1 1531 16 view .LVU556
 2297 0004 24F01004 		bic	r4, r4, #16
 2298 0008 0462     		str	r4, [r0, #32]
1532:n32g430_std_periph_driver/src/n32g430_tim.c ****     temp_ccmod1 = TIMx->CCMOD1;
 2299              		.loc 1 1532 5 is_stmt 1 view .LVU557
 2300              		.loc 1 1532 17 is_stmt 0 view .LVU558
 2301 000a B0F818E0 		ldrh	lr, [r0, #24]
 2302              	.LVL174:
1533:n32g430_std_periph_driver/src/n32g430_tim.c ****     temp_ccen = TIMx->CCEN;
 2303              		.loc 1 1533 5 is_stmt 1 view .LVU559
 2304              		.loc 1 1533 15 is_stmt 0 view .LVU560
 2305 000e 046A     		ldr	r4, [r0, #32]
 2306              	.LVL175:
1534:n32g430_std_periph_driver/src/n32g430_tim.c ****     temp_value = (uint32_t)(input_channel_polarity << 4);
 2307              		.loc 1 1534 5 is_stmt 1 view .LVU561
 2308              		.loc 1 1534 16 is_stmt 0 view .LVU562
 2309 0010 4FEA011C 		lsl	ip, r1, #4
 2310              	.LVL176:
1535:n32g430_std_periph_driver/src/n32g430_tim.c ****     /* Select the Input and set the filter */
1536:n32g430_std_periph_driver/src/n32g430_tim.c ****     temp_ccmod1 &= (uint16_t)(((uint16_t) ~((uint16_t)TIM_IC2_SELECTION_MASK)) & ((uint16_t) ~((uin
 2311              		.loc 1 1536 5 is_stmt 1 view .LVU563
 2312              		.loc 1 1536 17 is_stmt 0 view .LVU564
 2313 0014 2EF4407E 		bic	lr, lr, #768
 2314              	.LVL177:
 2315              		.loc 1 1536 17 view .LVU565
 2316 0018 4FEA0E5E 		lsl	lr, lr, #20
 2317 001c 4FEA1E5E 		lsr	lr, lr, #20
 2318              	.LVL178:
1537:n32g430_std_periph_driver/src/n32g430_tim.c ****     temp_ccmod1 |= (uint16_t)(input_channel_filter << 12);
 2319              		.loc 1 1537 5 is_stmt 1 view .LVU566
 2320              		.loc 1 1537 20 is_stmt 0 view .LVU567
 2321 0020 1B03     		lsls	r3, r3, #12
 2322              	.LVL179:
 2323              		.loc 1 1537 20 view .LVU568
 2324 0022 9BB2     		uxth	r3, r3
 2325              		.loc 1 1537 17 view .LVU569
 2326 0024 43EA0E03 		orr	r3, r3, lr
 2327              	.LVL180:
1538:n32g430_std_periph_driver/src/n32g430_tim.c ****     temp_ccmod1 |= (uint16_t)(input_channel_selection << 8);
 2328              		.loc 1 1538 5 is_stmt 1 view .LVU570
 2329              		.loc 1 1538 20 is_stmt 0 view .LVU571
 2330 0028 1202     		lsls	r2, r2, #8
 2331              	.LVL181:
 2332              		.loc 1 1538 20 view .LVU572
 2333 002a 92B2     		uxth	r2, r2
ARM GAS  C:\Users\Dawn\AppData\Local\Temp\ccf7B1Wd.s 			page 67


 2334              		.loc 1 1538 17 view .LVU573
 2335 002c 1A43     		orrs	r2, r2, r3
 2336              	.LVL182:
1539:n32g430_std_periph_driver/src/n32g430_tim.c **** 
1540:n32g430_std_periph_driver/src/n32g430_tim.c ****     if ((TIMx == TIM1) || (TIMx == TIM8) || (TIMx == TIM2) || (TIMx == TIM3) || (TIMx == TIM4) || (
 2337              		.loc 1 1540 5 is_stmt 1 view .LVU574
 2338              		.loc 1 1540 8 is_stmt 0 view .LVU575
 2339 002e 124B     		ldr	r3, .L118
 2340 0030 9842     		cmp	r0, r3
 2341 0032 18D0     		beq	.L114
 2342              		.loc 1 1540 24 discriminator 1 view .LVU576
 2343 0034 03F50063 		add	r3, r3, #2048
 2344 0038 9842     		cmp	r0, r3
 2345 003a 14D0     		beq	.L114
 2346              		.loc 1 1540 42 discriminator 2 view .LVU577
 2347 003c B0F1804F 		cmp	r0, #1073741824
 2348 0040 11D0     		beq	.L114
 2349              		.loc 1 1540 60 discriminator 3 view .LVU578
 2350 0042 A3F59833 		sub	r3, r3, #77824
 2351 0046 9842     		cmp	r0, r3
 2352 0048 0DD0     		beq	.L114
 2353              		.loc 1 1540 78 discriminator 4 view .LVU579
 2354 004a 03F58063 		add	r3, r3, #1024
 2355 004e 9842     		cmp	r0, r3
 2356 0050 09D0     		beq	.L114
 2357              		.loc 1 1540 96 discriminator 5 view .LVU580
 2358 0052 03F58063 		add	r3, r3, #1024
 2359 0056 9842     		cmp	r0, r3
 2360 0058 05D0     		beq	.L114
1541:n32g430_std_periph_driver/src/n32g430_tim.c ****     {
1542:n32g430_std_periph_driver/src/n32g430_tim.c ****         /* Select the Polarity and set the CC2E Bit */
1543:n32g430_std_periph_driver/src/n32g430_tim.c ****         temp_ccen &= (uint32_t) ~((uint32_t)(TIM_CC2P));
1544:n32g430_std_periph_driver/src/n32g430_tim.c ****         temp_ccen |= (uint32_t)(temp_value | (uint32_t)TIM_CC2EN);
1545:n32g430_std_periph_driver/src/n32g430_tim.c ****     }
1546:n32g430_std_periph_driver/src/n32g430_tim.c ****     else
1547:n32g430_std_periph_driver/src/n32g430_tim.c ****     {
1548:n32g430_std_periph_driver/src/n32g430_tim.c ****         /* Select the Polarity and set the CC2E Bit */
1549:n32g430_std_periph_driver/src/n32g430_tim.c ****         temp_ccen &= (uint32_t) ~((uint32_t)(TIM_CC2P | TIM_CC2NP));
 2361              		.loc 1 1549 9 is_stmt 1 view .LVU581
 2362              		.loc 1 1549 19 is_stmt 0 view .LVU582
 2363 005a 24F0A004 		bic	r4, r4, #160
 2364              	.LVL183:
1550:n32g430_std_periph_driver/src/n32g430_tim.c ****         temp_ccen |= (uint32_t)(input_channel_polarity | (uint32_t)TIM_CC2EN);
 2365              		.loc 1 1550 9 is_stmt 1 view .LVU583
 2366              		.loc 1 1550 22 is_stmt 0 view .LVU584
 2367 005e 41F01001 		orr	r1, r1, #16
 2368              	.LVL184:
 2369              		.loc 1 1550 19 view .LVU585
 2370 0062 2143     		orrs	r1, r1, r4
 2371 0064 05E0     		b	.L116
 2372              	.LVL185:
 2373              	.L114:
1543:n32g430_std_periph_driver/src/n32g430_tim.c ****         temp_ccen |= (uint32_t)(temp_value | (uint32_t)TIM_CC2EN);
 2374              		.loc 1 1543 9 is_stmt 1 view .LVU586
1543:n32g430_std_periph_driver/src/n32g430_tim.c ****         temp_ccen |= (uint32_t)(temp_value | (uint32_t)TIM_CC2EN);
 2375              		.loc 1 1543 19 is_stmt 0 view .LVU587
 2376 0066 24F02004 		bic	r4, r4, #32
ARM GAS  C:\Users\Dawn\AppData\Local\Temp\ccf7B1Wd.s 			page 68


 2377              	.LVL186:
1544:n32g430_std_periph_driver/src/n32g430_tim.c ****     }
 2378              		.loc 1 1544 9 is_stmt 1 view .LVU588
1544:n32g430_std_periph_driver/src/n32g430_tim.c ****     }
 2379              		.loc 1 1544 19 is_stmt 0 view .LVU589
 2380 006a 4CEA0401 		orr	r1, ip, r4
 2381              	.LVL187:
1544:n32g430_std_periph_driver/src/n32g430_tim.c ****     }
 2382              		.loc 1 1544 19 view .LVU590
 2383 006e 41F01001 		orr	r1, r1, #16
 2384              	.LVL188:
 2385              	.L116:
1551:n32g430_std_periph_driver/src/n32g430_tim.c ****     }
1552:n32g430_std_periph_driver/src/n32g430_tim.c **** 
1553:n32g430_std_periph_driver/src/n32g430_tim.c ****     /* Write to TIMx CCMOD1 and CCEN registers */
1554:n32g430_std_periph_driver/src/n32g430_tim.c ****     TIMx->CCMOD1 = temp_ccmod1;
 2386              		.loc 1 1554 5 is_stmt 1 view .LVU591
 2387              		.loc 1 1554 18 is_stmt 0 view .LVU592
 2388 0072 0283     		strh	r2, [r0, #24]	@ movhi
1555:n32g430_std_periph_driver/src/n32g430_tim.c ****     TIMx->CCEN   = temp_ccen;
 2389              		.loc 1 1555 5 is_stmt 1 view .LVU593
 2390              		.loc 1 1555 18 is_stmt 0 view .LVU594
 2391 0074 0162     		str	r1, [r0, #32]
1556:n32g430_std_periph_driver/src/n32g430_tim.c **** }
 2392              		.loc 1 1556 1 view .LVU595
 2393 0076 10BD     		pop	{r4, pc}
 2394              	.L119:
 2395              		.align	2
 2396              	.L118:
 2397 0078 002C0140 		.word	1073818624
 2398              		.cfi_endproc
 2399              	.LFE192:
 2401              		.section	.text.Input_Channel3_Config,"ax",%progbits
 2402              		.align	1
 2403              		.global	Input_Channel3_Config
 2404              		.syntax unified
 2405              		.thumb
 2406              		.thumb_func
 2408              	Input_Channel3_Config:
 2409              	.LVL189:
 2410              	.LFB193:
1557:n32g430_std_periph_driver/src/n32g430_tim.c **** 
1558:n32g430_std_periph_driver/src/n32g430_tim.c **** 
1559:n32g430_std_periph_driver/src/n32g430_tim.c **** /**
1560:n32g430_std_periph_driver/src/n32g430_tim.c **** *\*\name    Input_Channel3_Config
1561:n32g430_std_periph_driver/src/n32g430_tim.c **** *\*\fun     Configure the TI3 as Input.
1562:n32g430_std_periph_driver/src/n32g430_tim.c **** *\*\param   TIMx:
1563:n32g430_std_periph_driver/src/n32g430_tim.c **** *\*\          - TIM1
1564:n32g430_std_periph_driver/src/n32g430_tim.c **** *\*\          - TIM2
1565:n32g430_std_periph_driver/src/n32g430_tim.c **** *\*\          - TIM3
1566:n32g430_std_periph_driver/src/n32g430_tim.c **** *\*\          - TIM4
1567:n32g430_std_periph_driver/src/n32g430_tim.c **** *\*\          - TIM5
1568:n32g430_std_periph_driver/src/n32g430_tim.c **** *\*\          - TIM8
1569:n32g430_std_periph_driver/src/n32g430_tim.c **** *\*\param   input_channel_polarity The Input Polarity.
1570:n32g430_std_periph_driver/src/n32g430_tim.c **** *\*\  This parameter can be one of the following values:
1571:n32g430_std_periph_driver/src/n32g430_tim.c **** *\*\          - TIM_IC_POLARITY_RISING
1572:n32g430_std_periph_driver/src/n32g430_tim.c **** *\*\          - TIM_IC_POLARITY_FALLING
ARM GAS  C:\Users\Dawn\AppData\Local\Temp\ccf7B1Wd.s 			page 69


1573:n32g430_std_periph_driver/src/n32g430_tim.c **** *\*\param   input_channel_selection specifies the input to be used.
1574:n32g430_std_periph_driver/src/n32g430_tim.c **** *\*\  This parameter can be one of the following values:
1575:n32g430_std_periph_driver/src/n32g430_tim.c **** *\*\          - TIM_IC_SELECTION_DIRECTTI      TIM Input 3 is selected to be connected to IC3.
1576:n32g430_std_periph_driver/src/n32g430_tim.c **** *\*\          - TIM_IC_SELECTION_INDIRECTTI    TIM Input 3 is selected to be connected to IC4.
1577:n32g430_std_periph_driver/src/n32g430_tim.c **** *\*\          - TIM_IC_SELECTION_TRC           TIM Input 3 is selected to be connected to TRC.
1578:n32g430_std_periph_driver/src/n32g430_tim.c **** *\*\param   input_channel_filter Specifies the Input Capture Filter.
1579:n32g430_std_periph_driver/src/n32g430_tim.c **** *\*\            [0x00 0x0F]
1580:n32g430_std_periph_driver/src/n32g430_tim.c **** *\*\return  none
1581:n32g430_std_periph_driver/src/n32g430_tim.c **** **/
1582:n32g430_std_periph_driver/src/n32g430_tim.c **** void Input_Channel3_Config(TIM_Module* TIMx, uint16_t input_channel_polarity, 
1583:n32g430_std_periph_driver/src/n32g430_tim.c ****                            uint16_t input_channel_selection, uint16_t input_channel_filter)
1584:n32g430_std_periph_driver/src/n32g430_tim.c **** {
 2411              		.loc 1 1584 1 is_stmt 1 view -0
 2412              		.cfi_startproc
 2413              		@ args = 0, pretend = 0, frame = 0
 2414              		@ frame_needed = 0, uses_anonymous_args = 0
 2415              		@ link register save eliminated.
 2416              		.loc 1 1584 1 is_stmt 0 view .LVU597
 2417 0000 30B4     		push	{r4, r5}
 2418              	.LCFI4:
 2419              		.cfi_def_cfa_offset 8
 2420              		.cfi_offset 4, -8
 2421              		.cfi_offset 5, -4
1585:n32g430_std_periph_driver/src/n32g430_tim.c ****     uint16_t temp_ccmod2 = 0;
 2422              		.loc 1 1585 5 is_stmt 1 view .LVU598
 2423              	.LVL190:
1586:n32g430_std_periph_driver/src/n32g430_tim.c ****     uint32_t temp_ccen = 0, temp_value = 0;
 2424              		.loc 1 1586 5 view .LVU599
1587:n32g430_std_periph_driver/src/n32g430_tim.c ****     /* Disable the Channel 3: Reset the CC3E Bit */
1588:n32g430_std_periph_driver/src/n32g430_tim.c ****     TIMx->CCEN &= (uint32_t) ~((uint32_t)TIM_CC3EN);
 2425              		.loc 1 1588 5 view .LVU600
 2426              		.loc 1 1588 9 is_stmt 0 view .LVU601
 2427 0002 046A     		ldr	r4, [r0, #32]
 2428              		.loc 1 1588 16 view .LVU602
 2429 0004 24F48074 		bic	r4, r4, #256
 2430 0008 0462     		str	r4, [r0, #32]
1589:n32g430_std_periph_driver/src/n32g430_tim.c ****     temp_ccmod2 = TIMx->CCMOD2;
 2431              		.loc 1 1589 5 is_stmt 1 view .LVU603
 2432              		.loc 1 1589 23 is_stmt 0 view .LVU604
 2433 000a C469     		ldr	r4, [r0, #28]
 2434              		.loc 1 1589 17 view .LVU605
 2435 000c 1FFA84FC 		uxth	ip, r4
 2436              	.LVL191:
1590:n32g430_std_periph_driver/src/n32g430_tim.c ****     temp_ccen = TIMx->CCEN;
 2437              		.loc 1 1590 5 is_stmt 1 view .LVU606
 2438              		.loc 1 1590 15 is_stmt 0 view .LVU607
 2439 0010 056A     		ldr	r5, [r0, #32]
 2440              	.LVL192:
1591:n32g430_std_periph_driver/src/n32g430_tim.c ****     temp_value = (uint32_t)(input_channel_polarity << 8);
 2441              		.loc 1 1591 5 is_stmt 1 view .LVU608
 2442              		.loc 1 1591 16 is_stmt 0 view .LVU609
 2443 0012 0C02     		lsls	r4, r1, #8
 2444              	.LVL193:
1592:n32g430_std_periph_driver/src/n32g430_tim.c ****     /* Select the Input and set the filter */
1593:n32g430_std_periph_driver/src/n32g430_tim.c ****     temp_ccmod2 &= (uint16_t)(((uint16_t) ~((uint16_t)TIM_IC3_SELECTION_MASK)) & ((uint16_t) ~((uin
 2445              		.loc 1 1593 5 is_stmt 1 view .LVU610
 2446              		.loc 1 1593 17 is_stmt 0 view .LVU611
ARM GAS  C:\Users\Dawn\AppData\Local\Temp\ccf7B1Wd.s 			page 70


 2447 0014 2CF0F30C 		bic	ip, ip, #243
 2448              	.LVL194:
1594:n32g430_std_periph_driver/src/n32g430_tim.c ****     temp_ccmod2 |= (uint16_t)(input_channel_selection | (uint16_t)(input_channel_filter << (uint16_
 2449              		.loc 1 1594 5 is_stmt 1 view .LVU612
 2450              		.loc 1 1594 57 is_stmt 0 view .LVU613
 2451 0018 1B01     		lsls	r3, r3, #4
 2452              	.LVL195:
 2453              		.loc 1 1594 57 view .LVU614
 2454 001a 9BB2     		uxth	r3, r3
 2455              		.loc 1 1594 20 view .LVU615
 2456 001c 1343     		orrs	r3, r3, r2
 2457              		.loc 1 1594 17 view .LVU616
 2458 001e 4CEA0303 		orr	r3, ip, r3
 2459              	.LVL196:
1595:n32g430_std_periph_driver/src/n32g430_tim.c **** 
1596:n32g430_std_periph_driver/src/n32g430_tim.c ****     if ((TIMx == TIM1) || (TIMx == TIM8) || (TIMx == TIM2) || (TIMx == TIM3) || (TIMx == TIM4) || (
 2460              		.loc 1 1596 5 is_stmt 1 view .LVU617
 2461              		.loc 1 1596 8 is_stmt 0 view .LVU618
 2462 0022 134A     		ldr	r2, .L125
 2463              	.LVL197:
 2464              		.loc 1 1596 8 view .LVU619
 2465 0024 9042     		cmp	r0, r2
 2466 0026 18D0     		beq	.L121
 2467              		.loc 1 1596 24 discriminator 1 view .LVU620
 2468 0028 02F50062 		add	r2, r2, #2048
 2469 002c 9042     		cmp	r0, r2
 2470 002e 14D0     		beq	.L121
 2471              		.loc 1 1596 42 discriminator 2 view .LVU621
 2472 0030 B0F1804F 		cmp	r0, #1073741824
 2473 0034 11D0     		beq	.L121
 2474              		.loc 1 1596 60 discriminator 3 view .LVU622
 2475 0036 A2F59832 		sub	r2, r2, #77824
 2476 003a 9042     		cmp	r0, r2
 2477 003c 0DD0     		beq	.L121
 2478              		.loc 1 1596 78 discriminator 4 view .LVU623
 2479 003e 02F58062 		add	r2, r2, #1024
 2480 0042 9042     		cmp	r0, r2
 2481 0044 09D0     		beq	.L121
 2482              		.loc 1 1596 96 discriminator 5 view .LVU624
 2483 0046 02F58062 		add	r2, r2, #1024
 2484 004a 9042     		cmp	r0, r2
 2485 004c 05D0     		beq	.L121
1597:n32g430_std_periph_driver/src/n32g430_tim.c ****     {
1598:n32g430_std_periph_driver/src/n32g430_tim.c ****         /* Select the Polarity and set the CC3E Bit */
1599:n32g430_std_periph_driver/src/n32g430_tim.c ****         temp_ccen &= (uint32_t) ~((uint32_t)(TIM_CC3P));
1600:n32g430_std_periph_driver/src/n32g430_tim.c ****         temp_ccen |= (uint32_t)(temp_value | (uint32_t)TIM_CC3EN);
1601:n32g430_std_periph_driver/src/n32g430_tim.c ****     }
1602:n32g430_std_periph_driver/src/n32g430_tim.c ****     else
1603:n32g430_std_periph_driver/src/n32g430_tim.c ****     {
1604:n32g430_std_periph_driver/src/n32g430_tim.c ****         /* Select the Polarity and set the CC3E Bit */
1605:n32g430_std_periph_driver/src/n32g430_tim.c ****         temp_ccen &= (uint32_t) ~((uint32_t)(TIM_CC3P | TIM_CC3NP));
 2486              		.loc 1 1605 9 is_stmt 1 view .LVU625
 2487              		.loc 1 1605 19 is_stmt 0 view .LVU626
 2488 004e 25F42065 		bic	r5, r5, #2560
 2489              	.LVL198:
1606:n32g430_std_periph_driver/src/n32g430_tim.c ****         temp_ccen |= (uint32_t)(input_channel_polarity | (uint32_t)TIM_CC3EN);
 2490              		.loc 1 1606 9 is_stmt 1 view .LVU627
ARM GAS  C:\Users\Dawn\AppData\Local\Temp\ccf7B1Wd.s 			page 71


 2491              		.loc 1 1606 22 is_stmt 0 view .LVU628
 2492 0052 41F48071 		orr	r1, r1, #256
 2493              	.LVL199:
 2494              		.loc 1 1606 19 view .LVU629
 2495 0056 2943     		orrs	r1, r1, r5
 2496 0058 05E0     		b	.L123
 2497              	.LVL200:
 2498              	.L121:
1599:n32g430_std_periph_driver/src/n32g430_tim.c ****         temp_ccen |= (uint32_t)(temp_value | (uint32_t)TIM_CC3EN);
 2499              		.loc 1 1599 9 is_stmt 1 view .LVU630
1599:n32g430_std_periph_driver/src/n32g430_tim.c ****         temp_ccen |= (uint32_t)(temp_value | (uint32_t)TIM_CC3EN);
 2500              		.loc 1 1599 19 is_stmt 0 view .LVU631
 2501 005a 25F40075 		bic	r5, r5, #512
 2502              	.LVL201:
1600:n32g430_std_periph_driver/src/n32g430_tim.c ****     }
 2503              		.loc 1 1600 9 is_stmt 1 view .LVU632
1600:n32g430_std_periph_driver/src/n32g430_tim.c ****     }
 2504              		.loc 1 1600 19 is_stmt 0 view .LVU633
 2505 005e 44EA0501 		orr	r1, r4, r5
 2506              	.LVL202:
1600:n32g430_std_periph_driver/src/n32g430_tim.c ****     }
 2507              		.loc 1 1600 19 view .LVU634
 2508 0062 41F48071 		orr	r1, r1, #256
 2509              	.LVL203:
 2510              	.L123:
1607:n32g430_std_periph_driver/src/n32g430_tim.c ****     }
1608:n32g430_std_periph_driver/src/n32g430_tim.c **** 
1609:n32g430_std_periph_driver/src/n32g430_tim.c ****     /* Write to TIMx CCMOD2 and CCEN registers */
1610:n32g430_std_periph_driver/src/n32g430_tim.c ****     TIMx->CCMOD2 = temp_ccmod2;
 2511              		.loc 1 1610 5 is_stmt 1 view .LVU635
 2512              		.loc 1 1610 18 is_stmt 0 view .LVU636
 2513 0066 C361     		str	r3, [r0, #28]
1611:n32g430_std_periph_driver/src/n32g430_tim.c ****     TIMx->CCEN   = temp_ccen;
 2514              		.loc 1 1611 5 is_stmt 1 view .LVU637
 2515              		.loc 1 1611 18 is_stmt 0 view .LVU638
 2516 0068 0162     		str	r1, [r0, #32]
1612:n32g430_std_periph_driver/src/n32g430_tim.c **** }
 2517              		.loc 1 1612 1 view .LVU639
 2518 006a 30BC     		pop	{r4, r5}
 2519              	.LCFI5:
 2520              		.cfi_restore 5
 2521              		.cfi_restore 4
 2522              		.cfi_def_cfa_offset 0
 2523              	.LVL204:
 2524              		.loc 1 1612 1 view .LVU640
 2525 006c 7047     		bx	lr
 2526              	.L126:
 2527 006e 00BF     		.align	2
 2528              	.L125:
 2529 0070 002C0140 		.word	1073818624
 2530              		.cfi_endproc
 2531              	.LFE193:
 2533              		.section	.text.Input_Channel4_Config,"ax",%progbits
 2534              		.align	1
 2535              		.global	Input_Channel4_Config
 2536              		.syntax unified
 2537              		.thumb
ARM GAS  C:\Users\Dawn\AppData\Local\Temp\ccf7B1Wd.s 			page 72


 2538              		.thumb_func
 2540              	Input_Channel4_Config:
 2541              	.LVL205:
 2542              	.LFB194:
1613:n32g430_std_periph_driver/src/n32g430_tim.c **** 
1614:n32g430_std_periph_driver/src/n32g430_tim.c **** /**
1615:n32g430_std_periph_driver/src/n32g430_tim.c **** *\*\name    Input_Channel4_Config
1616:n32g430_std_periph_driver/src/n32g430_tim.c **** *\*\fun     Configure the TI4 as Inputt.
1617:n32g430_std_periph_driver/src/n32g430_tim.c **** *\*\param   TIMx:
1618:n32g430_std_periph_driver/src/n32g430_tim.c **** *\*\          - TIM1
1619:n32g430_std_periph_driver/src/n32g430_tim.c **** *\*\          - TIM2
1620:n32g430_std_periph_driver/src/n32g430_tim.c **** *\*\          - TIM3
1621:n32g430_std_periph_driver/src/n32g430_tim.c **** *\*\          - TIM4
1622:n32g430_std_periph_driver/src/n32g430_tim.c **** *\*\          - TIM5
1623:n32g430_std_periph_driver/src/n32g430_tim.c **** *\*\          - TIM8
1624:n32g430_std_periph_driver/src/n32g430_tim.c **** *\*\param   input_channel_polarity The Input Polarity.
1625:n32g430_std_periph_driver/src/n32g430_tim.c **** *\*\  This parameter can be one of the following values:
1626:n32g430_std_periph_driver/src/n32g430_tim.c **** *\*\          - TIM_IC_POLARITY_RISING
1627:n32g430_std_periph_driver/src/n32g430_tim.c **** *\*\          - TIM_IC_POLARITY_FALLING
1628:n32g430_std_periph_driver/src/n32g430_tim.c **** *\*\param   input_channel_selection specifies the input to be used.
1629:n32g430_std_periph_driver/src/n32g430_tim.c **** *\*\  This parameter can be one of the following values:
1630:n32g430_std_periph_driver/src/n32g430_tim.c **** *\*\          - TIM_IC_SELECTION_DIRECTTI      TIM Input 4 is selected to be connected to IC4.
1631:n32g430_std_periph_driver/src/n32g430_tim.c **** *\*\          - TIM_IC_SELECTION_INDIRECTTI    TIM Input 4 is selected to be connected to IC3.
1632:n32g430_std_periph_driver/src/n32g430_tim.c **** *\*\          - TIM_IC_SELECTION_TRC           TIM Input 4 is selected to be connected to TRC.
1633:n32g430_std_periph_driver/src/n32g430_tim.c **** *\*\param   input_channel_filter Specifies the Input Capture Filter.
1634:n32g430_std_periph_driver/src/n32g430_tim.c **** *\*\            [0x00 0x0F]
1635:n32g430_std_periph_driver/src/n32g430_tim.c **** *\*\return  none
1636:n32g430_std_periph_driver/src/n32g430_tim.c **** **/
1637:n32g430_std_periph_driver/src/n32g430_tim.c **** void Input_Channel4_Config(TIM_Module* TIMx, uint16_t input_channel_polarity, 
1638:n32g430_std_periph_driver/src/n32g430_tim.c ****                            uint16_t input_channel_selection, uint16_t input_channel_filter)
1639:n32g430_std_periph_driver/src/n32g430_tim.c **** {
 2543              		.loc 1 1639 1 is_stmt 1 view -0
 2544              		.cfi_startproc
 2545              		@ args = 0, pretend = 0, frame = 0
 2546              		@ frame_needed = 0, uses_anonymous_args = 0
 2547              		.loc 1 1639 1 is_stmt 0 view .LVU642
 2548 0000 30B5     		push	{r4, r5, lr}
 2549              	.LCFI6:
 2550              		.cfi_def_cfa_offset 12
 2551              		.cfi_offset 4, -12
 2552              		.cfi_offset 5, -8
 2553              		.cfi_offset 14, -4
1640:n32g430_std_periph_driver/src/n32g430_tim.c ****     uint16_t temp_ccmod2 = 0;
 2554              		.loc 1 1640 5 is_stmt 1 view .LVU643
 2555              	.LVL206:
1641:n32g430_std_periph_driver/src/n32g430_tim.c ****     uint32_t temp_ccen = 0, temp_value = 0;
 2556              		.loc 1 1641 5 view .LVU644
1642:n32g430_std_periph_driver/src/n32g430_tim.c **** 
1643:n32g430_std_periph_driver/src/n32g430_tim.c ****     /* Disable the Channel 4: Reset the CC4E Bit */
1644:n32g430_std_periph_driver/src/n32g430_tim.c ****     TIMx->CCEN &= (uint32_t) ~((uint32_t)TIM_CC4EN);
 2557              		.loc 1 1644 5 view .LVU645
 2558              		.loc 1 1644 9 is_stmt 0 view .LVU646
 2559 0002 046A     		ldr	r4, [r0, #32]
 2560              		.loc 1 1644 16 view .LVU647
 2561 0004 24F48054 		bic	r4, r4, #4096
 2562 0008 0462     		str	r4, [r0, #32]
1645:n32g430_std_periph_driver/src/n32g430_tim.c ****     temp_ccmod2 = TIMx->CCMOD2;
ARM GAS  C:\Users\Dawn\AppData\Local\Temp\ccf7B1Wd.s 			page 73


 2563              		.loc 1 1645 5 is_stmt 1 view .LVU648
 2564              		.loc 1 1645 23 is_stmt 0 view .LVU649
 2565 000a C469     		ldr	r4, [r0, #28]
 2566              	.LVL207:
1646:n32g430_std_periph_driver/src/n32g430_tim.c ****     temp_ccen = TIMx->CCEN;
 2567              		.loc 1 1646 5 is_stmt 1 view .LVU650
 2568              		.loc 1 1646 15 is_stmt 0 view .LVU651
 2569 000c 056A     		ldr	r5, [r0, #32]
 2570              	.LVL208:
1647:n32g430_std_periph_driver/src/n32g430_tim.c ****     temp_value = (uint32_t)(input_channel_polarity << 12);
 2571              		.loc 1 1647 5 is_stmt 1 view .LVU652
 2572              		.loc 1 1647 16 is_stmt 0 view .LVU653
 2573 000e 4FEA013C 		lsl	ip, r1, #12
 2574              	.LVL209:
1648:n32g430_std_periph_driver/src/n32g430_tim.c ****     /* Select the Input and set the filter */
1649:n32g430_std_periph_driver/src/n32g430_tim.c ****     temp_ccmod2 &= (uint16_t)((uint16_t)(~(uint16_t)TIM_IC4_SELECTION_MASK) & ((uint16_t) ~((uint16
 2575              		.loc 1 1649 5 is_stmt 1 view .LVU654
 2576              		.loc 1 1649 17 is_stmt 0 view .LVU655
 2577 0012 40F6FF4E 		movw	lr, #3327
 2578 0016 04EA0E0E 		and	lr, r4, lr
 2579              	.LVL210:
1650:n32g430_std_periph_driver/src/n32g430_tim.c ****     temp_ccmod2 |= (uint16_t)(input_channel_selection << 8);
 2580              		.loc 1 1650 5 is_stmt 1 view .LVU656
 2581              		.loc 1 1650 20 is_stmt 0 view .LVU657
 2582 001a 1202     		lsls	r2, r2, #8
 2583              	.LVL211:
 2584              		.loc 1 1650 20 view .LVU658
 2585 001c 92B2     		uxth	r2, r2
 2586              		.loc 1 1650 17 view .LVU659
 2587 001e 42EA0E02 		orr	r2, r2, lr
 2588              	.LVL212:
1651:n32g430_std_periph_driver/src/n32g430_tim.c ****     temp_ccmod2 |= (uint16_t)(input_channel_filter << 12);
 2589              		.loc 1 1651 5 is_stmt 1 view .LVU660
 2590              		.loc 1 1651 20 is_stmt 0 view .LVU661
 2591 0022 1B03     		lsls	r3, r3, #12
 2592              	.LVL213:
 2593              		.loc 1 1651 20 view .LVU662
 2594 0024 9BB2     		uxth	r3, r3
 2595              		.loc 1 1651 17 view .LVU663
 2596 0026 1343     		orrs	r3, r3, r2
 2597              	.LVL214:
1652:n32g430_std_periph_driver/src/n32g430_tim.c **** 
1653:n32g430_std_periph_driver/src/n32g430_tim.c ****     if ((TIMx == TIM1) || (TIMx == TIM8) || (TIMx == TIM2) || (TIMx == TIM3) || (TIMx == TIM4) || (
 2598              		.loc 1 1653 5 is_stmt 1 view .LVU664
 2599              		.loc 1 1653 8 is_stmt 0 view .LVU665
 2600 0028 124A     		ldr	r2, .L132
 2601 002a 9042     		cmp	r0, r2
 2602 002c 18D0     		beq	.L128
 2603              		.loc 1 1653 24 discriminator 1 view .LVU666
 2604 002e 02F50062 		add	r2, r2, #2048
 2605 0032 9042     		cmp	r0, r2
 2606 0034 14D0     		beq	.L128
 2607              		.loc 1 1653 42 discriminator 2 view .LVU667
 2608 0036 B0F1804F 		cmp	r0, #1073741824
 2609 003a 11D0     		beq	.L128
 2610              		.loc 1 1653 60 discriminator 3 view .LVU668
 2611 003c A2F59832 		sub	r2, r2, #77824
ARM GAS  C:\Users\Dawn\AppData\Local\Temp\ccf7B1Wd.s 			page 74


 2612 0040 9042     		cmp	r0, r2
 2613 0042 0DD0     		beq	.L128
 2614              		.loc 1 1653 78 discriminator 4 view .LVU669
 2615 0044 02F58062 		add	r2, r2, #1024
 2616 0048 9042     		cmp	r0, r2
 2617 004a 09D0     		beq	.L128
 2618              		.loc 1 1653 96 discriminator 5 view .LVU670
 2619 004c 02F58062 		add	r2, r2, #1024
 2620 0050 9042     		cmp	r0, r2
 2621 0052 05D0     		beq	.L128
1654:n32g430_std_periph_driver/src/n32g430_tim.c ****     {
1655:n32g430_std_periph_driver/src/n32g430_tim.c ****         /* Select the Polarity and set the CC4E Bit */
1656:n32g430_std_periph_driver/src/n32g430_tim.c ****         temp_ccen &= (uint32_t) ~((uint32_t)(TIM_CC4P));
1657:n32g430_std_periph_driver/src/n32g430_tim.c ****         temp_ccen |= (uint32_t)(temp_value | (uint32_t)TIM_CC4EN);
1658:n32g430_std_periph_driver/src/n32g430_tim.c ****     }
1659:n32g430_std_periph_driver/src/n32g430_tim.c ****     else
1660:n32g430_std_periph_driver/src/n32g430_tim.c ****     {
1661:n32g430_std_periph_driver/src/n32g430_tim.c ****         /* Select the Polarity and set the CC4E Bit */
1662:n32g430_std_periph_driver/src/n32g430_tim.c ****         temp_ccen &= (uint32_t) ~((uint32_t)(TIM_CC4P));
 2622              		.loc 1 1662 9 is_stmt 1 view .LVU671
 2623              		.loc 1 1662 19 is_stmt 0 view .LVU672
 2624 0054 25F40055 		bic	r5, r5, #8192
 2625              	.LVL215:
1663:n32g430_std_periph_driver/src/n32g430_tim.c ****         temp_ccen |= (uint32_t)(input_channel_polarity | (uint32_t)TIM_CC4EN);
 2626              		.loc 1 1663 9 is_stmt 1 view .LVU673
 2627              		.loc 1 1663 22 is_stmt 0 view .LVU674
 2628 0058 41F48051 		orr	r1, r1, #4096
 2629              	.LVL216:
 2630              		.loc 1 1663 19 view .LVU675
 2631 005c 2943     		orrs	r1, r1, r5
 2632 005e 05E0     		b	.L130
 2633              	.LVL217:
 2634              	.L128:
1656:n32g430_std_periph_driver/src/n32g430_tim.c ****         temp_ccen |= (uint32_t)(temp_value | (uint32_t)TIM_CC4EN);
 2635              		.loc 1 1656 9 is_stmt 1 view .LVU676
1656:n32g430_std_periph_driver/src/n32g430_tim.c ****         temp_ccen |= (uint32_t)(temp_value | (uint32_t)TIM_CC4EN);
 2636              		.loc 1 1656 19 is_stmt 0 view .LVU677
 2637 0060 25F40055 		bic	r5, r5, #8192
 2638              	.LVL218:
1657:n32g430_std_periph_driver/src/n32g430_tim.c ****     }
 2639              		.loc 1 1657 9 is_stmt 1 view .LVU678
1657:n32g430_std_periph_driver/src/n32g430_tim.c ****     }
 2640              		.loc 1 1657 19 is_stmt 0 view .LVU679
 2641 0064 4CEA0501 		orr	r1, ip, r5
 2642              	.LVL219:
1657:n32g430_std_periph_driver/src/n32g430_tim.c ****     }
 2643              		.loc 1 1657 19 view .LVU680
 2644 0068 41F48051 		orr	r1, r1, #4096
 2645              	.LVL220:
 2646              	.L130:
1664:n32g430_std_periph_driver/src/n32g430_tim.c ****     }
1665:n32g430_std_periph_driver/src/n32g430_tim.c ****     /* Write to TIMx CCMOD2 and CCEN registers */
1666:n32g430_std_periph_driver/src/n32g430_tim.c ****     TIMx->CCMOD2 = temp_ccmod2;
 2647              		.loc 1 1666 5 is_stmt 1 view .LVU681
 2648              		.loc 1 1666 18 is_stmt 0 view .LVU682
 2649 006c C361     		str	r3, [r0, #28]
1667:n32g430_std_periph_driver/src/n32g430_tim.c ****     TIMx->CCEN   = temp_ccen;
ARM GAS  C:\Users\Dawn\AppData\Local\Temp\ccf7B1Wd.s 			page 75


 2650              		.loc 1 1667 5 is_stmt 1 view .LVU683
 2651              		.loc 1 1667 18 is_stmt 0 view .LVU684
 2652 006e 0162     		str	r1, [r0, #32]
1668:n32g430_std_periph_driver/src/n32g430_tim.c **** }
 2653              		.loc 1 1668 1 view .LVU685
 2654 0070 30BD     		pop	{r4, r5, pc}
 2655              	.L133:
 2656 0072 00BF     		.align	2
 2657              	.L132:
 2658 0074 002C0140 		.word	1073818624
 2659              		.cfi_endproc
 2660              	.LFE194:
 2662              		.section	.text.TIM_External_Trigger_Filter_Set,"ax",%progbits
 2663              		.align	1
 2664              		.global	TIM_External_Trigger_Filter_Set
 2665              		.syntax unified
 2666              		.thumb
 2667              		.thumb_func
 2669              	TIM_External_Trigger_Filter_Set:
 2670              	.LVL221:
 2671              	.LFB195:
1669:n32g430_std_periph_driver/src/n32g430_tim.c **** 
1670:n32g430_std_periph_driver/src/n32g430_tim.c **** /**
1671:n32g430_std_periph_driver/src/n32g430_tim.c **** *\*\name    TIM_External_Trigger_Filter_Set
1672:n32g430_std_periph_driver/src/n32g430_tim.c **** *\*\fun     Configures the filter of TIMx External Trigger.
1673:n32g430_std_periph_driver/src/n32g430_tim.c **** *\*\param   TIMx 
1674:n32g430_std_periph_driver/src/n32g430_tim.c **** *\*\          - TIM1
1675:n32g430_std_periph_driver/src/n32g430_tim.c **** *\*\          - TIM2
1676:n32g430_std_periph_driver/src/n32g430_tim.c **** *\*\          - TIM3
1677:n32g430_std_periph_driver/src/n32g430_tim.c **** *\*\          - TIM4
1678:n32g430_std_periph_driver/src/n32g430_tim.c **** *\*\          - TIM5
1679:n32g430_std_periph_driver/src/n32g430_tim.c **** *\*\          - TIM8
1680:n32g430_std_periph_driver/src/n32g430_tim.c **** *\*\param   external_trigger_filter 
1681:n32g430_std_periph_driver/src/n32g430_tim.c **** *\*\          - [0x0,0xF]
1682:n32g430_std_periph_driver/src/n32g430_tim.c **** *\*\return  none
1683:n32g430_std_periph_driver/src/n32g430_tim.c **** **/
1684:n32g430_std_periph_driver/src/n32g430_tim.c **** void TIM_External_Trigger_Filter_Set(TIM_Module* TIMx,
1685:n32g430_std_periph_driver/src/n32g430_tim.c ****                                      uint16_t external_trigger_filter)
1686:n32g430_std_periph_driver/src/n32g430_tim.c **** {
 2672              		.loc 1 1686 1 is_stmt 1 view -0
 2673              		.cfi_startproc
 2674              		@ args = 0, pretend = 0, frame = 0
 2675              		@ frame_needed = 0, uses_anonymous_args = 0
 2676              		@ link register save eliminated.
1687:n32g430_std_periph_driver/src/n32g430_tim.c ****     /* Reset the ETRPSC Bits */
1688:n32g430_std_periph_driver/src/n32g430_tim.c ****     uint16_t temp_value = TIMx->SMCTRL;
 2677              		.loc 1 1688 5 view .LVU687
 2678              		.loc 1 1688 14 is_stmt 0 view .LVU688
 2679 0000 0389     		ldrh	r3, [r0, #8]
 2680 0002 9BB2     		uxth	r3, r3
 2681              	.LVL222:
1689:n32g430_std_periph_driver/src/n32g430_tim.c ****     temp_value &= (uint16_t)(~((uint16_t)TIM_EXT_TRIG_FILTER_MASK));
 2682              		.loc 1 1689 5 is_stmt 1 view .LVU689
 2683              		.loc 1 1689 16 is_stmt 0 view .LVU690
 2684 0004 23F47063 		bic	r3, r3, #3840
 2685              	.LVL223:
1690:n32g430_std_periph_driver/src/n32g430_tim.c ****     /* Set the Prescaler, the Filter value and the Polarity */
ARM GAS  C:\Users\Dawn\AppData\Local\Temp\ccf7B1Wd.s 			page 76


1691:n32g430_std_periph_driver/src/n32g430_tim.c ****     temp_value |= (uint16_t)(external_trigger_filter << (uint16_t)8);
 2686              		.loc 1 1691 5 is_stmt 1 view .LVU691
 2687              		.loc 1 1691 19 is_stmt 0 view .LVU692
 2688 0008 0902     		lsls	r1, r1, #8
 2689              	.LVL224:
 2690              		.loc 1 1691 19 view .LVU693
 2691 000a 89B2     		uxth	r1, r1
 2692              		.loc 1 1691 16 view .LVU694
 2693 000c 0B43     		orrs	r3, r3, r1
 2694              	.LVL225:
1692:n32g430_std_periph_driver/src/n32g430_tim.c ****     TIMx->SMCTRL = temp_value;
 2695              		.loc 1 1692 5 is_stmt 1 view .LVU695
 2696              		.loc 1 1692 18 is_stmt 0 view .LVU696
 2697 000e 0381     		strh	r3, [r0, #8]	@ movhi
1693:n32g430_std_periph_driver/src/n32g430_tim.c **** }
 2698              		.loc 1 1693 1 view .LVU697
 2699 0010 7047     		bx	lr
 2700              		.cfi_endproc
 2701              	.LFE195:
 2703              		.section	.text.TIM_External_Trigger_Prescaler_Set,"ax",%progbits
 2704              		.align	1
 2705              		.global	TIM_External_Trigger_Prescaler_Set
 2706              		.syntax unified
 2707              		.thumb
 2708              		.thumb_func
 2710              	TIM_External_Trigger_Prescaler_Set:
 2711              	.LVL226:
 2712              	.LFB196:
1694:n32g430_std_periph_driver/src/n32g430_tim.c **** 
1695:n32g430_std_periph_driver/src/n32g430_tim.c **** 
1696:n32g430_std_periph_driver/src/n32g430_tim.c **** /**
1697:n32g430_std_periph_driver/src/n32g430_tim.c **** *\*\name    TIM_External_Trigger_Prescaler_Set
1698:n32g430_std_periph_driver/src/n32g430_tim.c **** *\*\fun     Configures the prescaler of  External Trigger (ETR).
1699:n32g430_std_periph_driver/src/n32g430_tim.c **** *\*\param   TIMx:
1700:n32g430_std_periph_driver/src/n32g430_tim.c **** *\*\          - TIM1
1701:n32g430_std_periph_driver/src/n32g430_tim.c **** *\*\          - TIM2
1702:n32g430_std_periph_driver/src/n32g430_tim.c **** *\*\          - TIM3
1703:n32g430_std_periph_driver/src/n32g430_tim.c **** *\*\          - TIM4
1704:n32g430_std_periph_driver/src/n32g430_tim.c **** *\*\          - TIM5
1705:n32g430_std_periph_driver/src/n32g430_tim.c **** *\*\          - TIM6
1706:n32g430_std_periph_driver/src/n32g430_tim.c **** *\*\          - TIM8
1707:n32g430_std_periph_driver/src/n32g430_tim.c **** *\*\param   external_trigger_prescaler 
1708:n32g430_std_periph_driver/src/n32g430_tim.c **** *\*\          - TIM_EXT_TRG_PSC_OFF ETRP Prescaler OFF.
1709:n32g430_std_periph_driver/src/n32g430_tim.c **** *\*\          - TIM_EXT_TRG_PSC_DIV2 ETRP frequency divided by 2.
1710:n32g430_std_periph_driver/src/n32g430_tim.c **** *\*\          - TIM_EXT_TRG_PSC_DIV4 ETRP frequency divided by 4.
1711:n32g430_std_periph_driver/src/n32g430_tim.c **** *\*\          - TIM_EXT_TRG_PSC_DIV8 ETRP frequency divided by 8.
1712:n32g430_std_periph_driver/src/n32g430_tim.c **** *\*\return  - none
1713:n32g430_std_periph_driver/src/n32g430_tim.c **** **/
1714:n32g430_std_periph_driver/src/n32g430_tim.c **** void TIM_External_Trigger_Prescaler_Set(TIM_Module* TIMx,
1715:n32g430_std_periph_driver/src/n32g430_tim.c ****                                         uint16_t external_trigger_prescaler)
1716:n32g430_std_periph_driver/src/n32g430_tim.c **** {
 2713              		.loc 1 1716 1 is_stmt 1 view -0
 2714              		.cfi_startproc
 2715              		@ args = 0, pretend = 0, frame = 0
 2716              		@ frame_needed = 0, uses_anonymous_args = 0
 2717              		@ link register save eliminated.
1717:n32g430_std_periph_driver/src/n32g430_tim.c ****     /* Reset the ETRPSC Bits */
ARM GAS  C:\Users\Dawn\AppData\Local\Temp\ccf7B1Wd.s 			page 77


1718:n32g430_std_periph_driver/src/n32g430_tim.c ****     uint16_t temp_value = TIMx->SMCTRL;
 2718              		.loc 1 1718 5 view .LVU699
 2719              		.loc 1 1718 14 is_stmt 0 view .LVU700
 2720 0000 0389     		ldrh	r3, [r0, #8]
 2721 0002 9BB2     		uxth	r3, r3
 2722              	.LVL227:
1719:n32g430_std_periph_driver/src/n32g430_tim.c ****     temp_value &= (uint16_t)(~((uint16_t)TIM_EXT_TRG_PSC_MASK));
 2723              		.loc 1 1719 5 is_stmt 1 view .LVU701
 2724              		.loc 1 1719 16 is_stmt 0 view .LVU702
 2725 0004 23F44053 		bic	r3, r3, #12288
 2726              	.LVL228:
1720:n32g430_std_periph_driver/src/n32g430_tim.c ****     /* Set the Prescaler, the Filter value and the Polarity */
1721:n32g430_std_periph_driver/src/n32g430_tim.c ****     temp_value |= (uint16_t)(external_trigger_prescaler);
 2727              		.loc 1 1721 5 is_stmt 1 view .LVU703
 2728              		.loc 1 1721 16 is_stmt 0 view .LVU704
 2729 0008 0B43     		orrs	r3, r3, r1
 2730              	.LVL229:
1722:n32g430_std_periph_driver/src/n32g430_tim.c ****     TIMx->SMCTRL = temp_value;
 2731              		.loc 1 1722 5 is_stmt 1 view .LVU705
 2732              		.loc 1 1722 18 is_stmt 0 view .LVU706
 2733 000a 0381     		strh	r3, [r0, #8]	@ movhi
1723:n32g430_std_periph_driver/src/n32g430_tim.c **** }
 2734              		.loc 1 1723 1 view .LVU707
 2735 000c 7047     		bx	lr
 2736              		.cfi_endproc
 2737              	.LFE196:
 2739              		.section	.text.TIM_External_Trigger_Polarity_Set,"ax",%progbits
 2740              		.align	1
 2741              		.global	TIM_External_Trigger_Polarity_Set
 2742              		.syntax unified
 2743              		.thumb
 2744              		.thumb_func
 2746              	TIM_External_Trigger_Polarity_Set:
 2747              	.LVL230:
 2748              	.LFB197:
1724:n32g430_std_periph_driver/src/n32g430_tim.c **** 
1725:n32g430_std_periph_driver/src/n32g430_tim.c **** /**
1726:n32g430_std_periph_driver/src/n32g430_tim.c **** *\*\name    TIM_External_Trigger_Polarity_Set
1727:n32g430_std_periph_driver/src/n32g430_tim.c **** *\*\\fun Configures the polarity of TIMx External Trigger.
1728:n32g430_std_periph_driver/src/n32g430_tim.c **** *\*\param   TIMx:
1729:n32g430_std_periph_driver/src/n32g430_tim.c **** *\*\          - TIM1
1730:n32g430_std_periph_driver/src/n32g430_tim.c **** *\*\          - TIM2
1731:n32g430_std_periph_driver/src/n32g430_tim.c **** *\*\          - TIM3
1732:n32g430_std_periph_driver/src/n32g430_tim.c **** *\*\          - TIM4
1733:n32g430_std_periph_driver/src/n32g430_tim.c **** *\*\          - TIM5
1734:n32g430_std_periph_driver/src/n32g430_tim.c **** *\*\          - TIM6
1735:n32g430_std_periph_driver/src/n32g430_tim.c **** *\*\          - TIM8
1736:n32g430_std_periph_driver/src/n32g430_tim.c **** *\*\param   external_trigger_polarity T
1737:n32g430_std_periph_driver/src/n32g430_tim.c **** *\*\          - TIM_EXT_TRIG_POLARITY_INVERTED active low or falling edge active.
1738:n32g430_std_periph_driver/src/n32g430_tim.c **** *\*\          - TIM_EXT_TRIG_POLARITY_NONINVERTED active high or rising edge active.
1739:n32g430_std_periph_driver/src/n32g430_tim.c **** *\*\return  none
1740:n32g430_std_periph_driver/src/n32g430_tim.c **** **/
1741:n32g430_std_periph_driver/src/n32g430_tim.c **** void TIM_External_Trigger_Polarity_Set(TIM_Module* TIMx,
1742:n32g430_std_periph_driver/src/n32g430_tim.c ****                                        uint16_t external_trigger_polarity)
1743:n32g430_std_periph_driver/src/n32g430_tim.c **** {
 2749              		.loc 1 1743 1 is_stmt 1 view -0
 2750              		.cfi_startproc
ARM GAS  C:\Users\Dawn\AppData\Local\Temp\ccf7B1Wd.s 			page 78


 2751              		@ args = 0, pretend = 0, frame = 0
 2752              		@ frame_needed = 0, uses_anonymous_args = 0
 2753              		@ link register save eliminated.
1744:n32g430_std_periph_driver/src/n32g430_tim.c ****     if(external_trigger_polarity == TIM_EXT_TRIG_POLARITY_INVERTED)
 2754              		.loc 1 1744 5 view .LVU709
 2755              		.loc 1 1744 7 is_stmt 0 view .LVU710
 2756 0000 B1F5004F 		cmp	r1, #32768
 2757 0004 04D0     		beq	.L139
1745:n32g430_std_periph_driver/src/n32g430_tim.c ****     {
1746:n32g430_std_periph_driver/src/n32g430_tim.c ****         TIMx->SMCTRL |= TIM_EXT_TRIG_POLARITY_INVERTED;
1747:n32g430_std_periph_driver/src/n32g430_tim.c ****     }
1748:n32g430_std_periph_driver/src/n32g430_tim.c ****     else
1749:n32g430_std_periph_driver/src/n32g430_tim.c ****     {
1750:n32g430_std_periph_driver/src/n32g430_tim.c ****         TIMx->SMCTRL &= (uint16_t)(~((uint16_t)TIM_EXT_TRIG_POLARITY_INVERTED));
 2758              		.loc 1 1750 9 is_stmt 1 view .LVU711
 2759              		.loc 1 1750 13 is_stmt 0 view .LVU712
 2760 0006 0389     		ldrh	r3, [r0, #8]
 2761              		.loc 1 1750 22 view .LVU713
 2762 0008 C3F30E03 		ubfx	r3, r3, #0, #15
 2763 000c 0381     		strh	r3, [r0, #8]	@ movhi
1751:n32g430_std_periph_driver/src/n32g430_tim.c ****     }
1752:n32g430_std_periph_driver/src/n32g430_tim.c **** }
 2764              		.loc 1 1752 1 view .LVU714
 2765 000e 7047     		bx	lr
 2766              	.L139:
1746:n32g430_std_periph_driver/src/n32g430_tim.c ****     }
 2767              		.loc 1 1746 9 is_stmt 1 view .LVU715
1746:n32g430_std_periph_driver/src/n32g430_tim.c ****     }
 2768              		.loc 1 1746 13 is_stmt 0 view .LVU716
 2769 0010 0389     		ldrh	r3, [r0, #8]
1746:n32g430_std_periph_driver/src/n32g430_tim.c ****     }
 2770              		.loc 1 1746 22 view .LVU717
 2771 0012 6FEA4343 		mvn	r3, r3, lsl #17
 2772 0016 6FEA5343 		mvn	r3, r3, lsr #17
 2773 001a 9BB2     		uxth	r3, r3
 2774 001c 0381     		strh	r3, [r0, #8]	@ movhi
 2775 001e 7047     		bx	lr
 2776              		.cfi_endproc
 2777              	.LFE197:
 2779              		.section	.text.TIM_Clock_Division_Set,"ax",%progbits
 2780              		.align	1
 2781              		.global	TIM_Clock_Division_Set
 2782              		.syntax unified
 2783              		.thumb
 2784              		.thumb_func
 2786              	TIM_Clock_Division_Set:
 2787              	.LVL231:
 2788              	.LFB198:
1753:n32g430_std_periph_driver/src/n32g430_tim.c **** 
1754:n32g430_std_periph_driver/src/n32g430_tim.c **** /**
1755:n32g430_std_periph_driver/src/n32g430_tim.c **** *\*\name    TIM_Clock_Division_Set
1756:n32g430_std_periph_driver/src/n32g430_tim.c **** *\*\param   TIMx:
1757:n32g430_std_periph_driver/src/n32g430_tim.c **** *\*\          - TIM1
1758:n32g430_std_periph_driver/src/n32g430_tim.c **** *\*\          - TIM2
1759:n32g430_std_periph_driver/src/n32g430_tim.c **** *\*\          - TIM3
1760:n32g430_std_periph_driver/src/n32g430_tim.c **** *\*\          - TIM4
1761:n32g430_std_periph_driver/src/n32g430_tim.c **** *\*\          - TIM5
ARM GAS  C:\Users\Dawn\AppData\Local\Temp\ccf7B1Wd.s 			page 79


1762:n32g430_std_periph_driver/src/n32g430_tim.c **** *\*\          - TIM8
1763:n32g430_std_periph_driver/src/n32g430_tim.c **** *\*\param   clock_division 
1764:n32g430_std_periph_driver/src/n32g430_tim.c ****  *   This parameter can be one of the following value:
1765:n32g430_std_periph_driver/src/n32g430_tim.c **** *\*\          - TIM_CLK_DIV1 TDTS = Tck_tim
1766:n32g430_std_periph_driver/src/n32g430_tim.c **** *\*\          - TIM_CLK_DIV2 TDTS = 2*Tck_tim
1767:n32g430_std_periph_driver/src/n32g430_tim.c **** *\*\          - TIM_CLK_DIV4 TDTS = 4*Tck_tim
1768:n32g430_std_periph_driver/src/n32g430_tim.c **** *\*\return  none
1769:n32g430_std_periph_driver/src/n32g430_tim.c **** *\*\note
1770:n32g430_std_periph_driver/src/n32g430_tim.c **** *\*\          - not for TIM6
1771:n32g430_std_periph_driver/src/n32g430_tim.c **** **/
1772:n32g430_std_periph_driver/src/n32g430_tim.c **** void TIM_Clock_Division_Set(TIM_Module* TIMx, uint16_t clock_division)
1773:n32g430_std_periph_driver/src/n32g430_tim.c **** {
 2789              		.loc 1 1773 1 is_stmt 1 view -0
 2790              		.cfi_startproc
 2791              		@ args = 0, pretend = 0, frame = 0
 2792              		@ frame_needed = 0, uses_anonymous_args = 0
 2793              		@ link register save eliminated.
1774:n32g430_std_periph_driver/src/n32g430_tim.c ****     TIMx->CTRL1 &= (uint32_t) ~((uint32_t)TIM_CLK_DIV_MASK);
 2794              		.loc 1 1774 5 view .LVU719
 2795              		.loc 1 1774 9 is_stmt 0 view .LVU720
 2796 0000 0368     		ldr	r3, [r0]
 2797              		.loc 1 1774 17 view .LVU721
 2798 0002 23F44073 		bic	r3, r3, #768
 2799 0006 0360     		str	r3, [r0]
1775:n32g430_std_periph_driver/src/n32g430_tim.c ****     /* Set the CKD value */
1776:n32g430_std_periph_driver/src/n32g430_tim.c ****     TIMx->CTRL1 |= clock_division;
 2800              		.loc 1 1776 5 is_stmt 1 view .LVU722
 2801              		.loc 1 1776 9 is_stmt 0 view .LVU723
 2802 0008 0368     		ldr	r3, [r0]
 2803              		.loc 1 1776 17 view .LVU724
 2804 000a 1943     		orrs	r1, r1, r3
 2805              	.LVL232:
 2806              		.loc 1 1776 17 view .LVU725
 2807 000c 0160     		str	r1, [r0]
1777:n32g430_std_periph_driver/src/n32g430_tim.c **** }
 2808              		.loc 1 1777 1 view .LVU726
 2809 000e 7047     		bx	lr
 2810              		.cfi_endproc
 2811              	.LFE198:
 2813              		.section	.text.TIM_Base_Initialize,"ax",%progbits
 2814              		.align	1
 2815              		.global	TIM_Base_Initialize
 2816              		.syntax unified
 2817              		.thumb
 2818              		.thumb_func
 2820              	TIM_Base_Initialize:
 2821              	.LVL233:
 2822              	.LFB137:
 400:n32g430_std_periph_driver/src/n32g430_tim.c ****     if (TIMx != TIM6)
 2823              		.loc 1 400 1 is_stmt 1 view -0
 2824              		.cfi_startproc
 2825              		@ args = 0, pretend = 0, frame = 0
 2826              		@ frame_needed = 0, uses_anonymous_args = 0
 400:n32g430_std_periph_driver/src/n32g430_tim.c ****     if (TIMx != TIM6)
 2827              		.loc 1 400 1 is_stmt 0 view .LVU728
 2828 0000 38B5     		push	{r3, r4, r5, lr}
 2829              	.LCFI7:
ARM GAS  C:\Users\Dawn\AppData\Local\Temp\ccf7B1Wd.s 			page 80


 2830              		.cfi_def_cfa_offset 16
 2831              		.cfi_offset 3, -16
 2832              		.cfi_offset 4, -12
 2833              		.cfi_offset 5, -8
 2834              		.cfi_offset 14, -4
 2835 0002 0446     		mov	r4, r0
 2836 0004 0D46     		mov	r5, r1
 401:n32g430_std_periph_driver/src/n32g430_tim.c ****     {
 2837              		.loc 1 401 5 is_stmt 1 view .LVU729
 401:n32g430_std_periph_driver/src/n32g430_tim.c ****     {
 2838              		.loc 1 401 8 is_stmt 0 view .LVU730
 2839 0006 274B     		ldr	r3, .L151
 2840 0008 9842     		cmp	r0, r3
 2841 000a 06D0     		beq	.L142
 403:n32g430_std_periph_driver/src/n32g430_tim.c ****         TIM_Clock_Division_Set(TIMx, TIM_TimeBaseInitStruct->ClkDiv);
 2842              		.loc 1 403 9 is_stmt 1 view .LVU731
 2843 000c 4988     		ldrh	r1, [r1, #2]
 2844              	.LVL234:
 403:n32g430_std_periph_driver/src/n32g430_tim.c ****         TIM_Clock_Division_Set(TIMx, TIM_TimeBaseInitStruct->ClkDiv);
 2845              		.loc 1 403 9 is_stmt 0 view .LVU732
 2846 000e FFF7FEFF 		bl	TIM_Base_Count_Mode_Set
 2847              	.LVL235:
 404:n32g430_std_periph_driver/src/n32g430_tim.c ****     }
 2848              		.loc 1 404 9 is_stmt 1 view .LVU733
 2849 0012 E988     		ldrh	r1, [r5, #6]
 2850 0014 2046     		mov	r0, r4
 2851 0016 FFF7FEFF 		bl	TIM_Clock_Division_Set
 2852              	.LVL236:
 2853              	.L142:
 409:n32g430_std_periph_driver/src/n32g430_tim.c **** 
 2854              		.loc 1 409 5 view .LVU734
 411:n32g430_std_periph_driver/src/n32g430_tim.c **** 
 2855              		.loc 1 411 5 view .LVU735
 2856 001a A988     		ldrh	r1, [r5, #4]
 2857 001c 2046     		mov	r0, r4
 2858 001e FFF7FEFF 		bl	TIM_Base_Auto_Reload_Set
 2859              	.LVL237:
 413:n32g430_std_periph_driver/src/n32g430_tim.c **** 
 2860              		.loc 1 413 5 view .LVU736
 2861 0022 2988     		ldrh	r1, [r5]
 2862 0024 2046     		mov	r0, r4
 2863 0026 FFF7FEFF 		bl	TIM_Base_Prescaler_Set
 2864              	.LVL238:
 415:n32g430_std_periph_driver/src/n32g430_tim.c ****     {
 2865              		.loc 1 415 5 view .LVU737
 415:n32g430_std_periph_driver/src/n32g430_tim.c ****     {
 2866              		.loc 1 415 8 is_stmt 0 view .LVU738
 2867 002a 1F4B     		ldr	r3, .L151+4
 2868 002c 9C42     		cmp	r4, r3
 2869 002e 27D0     		beq	.L143
 415:n32g430_std_periph_driver/src/n32g430_tim.c ****     {
 2870              		.loc 1 415 24 discriminator 1 view .LVU739
 2871 0030 03F50063 		add	r3, r3, #2048
 2872 0034 9C42     		cmp	r4, r3
 2873 0036 23D0     		beq	.L143
 2874              	.L144:
 424:n32g430_std_periph_driver/src/n32g430_tim.c **** 
ARM GAS  C:\Users\Dawn\AppData\Local\Temp\ccf7B1Wd.s 			page 81


 2875              		.loc 1 424 5 is_stmt 1 view .LVU740
 2876 0038 0121     		movs	r1, #1
 2877 003a 2046     		mov	r0, r4
 2878 003c FFF7FEFF 		bl	TIM_Base_Reload_Mode_Set
 2879              	.LVL239:
 426:n32g430_std_periph_driver/src/n32g430_tim.c ****     {
 2880              		.loc 1 426 5 view .LVU741
 426:n32g430_std_periph_driver/src/n32g430_tim.c ****     {
 2881              		.loc 1 426 8 is_stmt 0 view .LVU742
 2882 0040 184B     		ldr	r3, .L151
 2883 0042 9C42     		cmp	r4, r3
 2884 0044 06D0     		beq	.L145
 428:n32g430_std_periph_driver/src/n32g430_tim.c ****     }
 2885              		.loc 1 428 9 is_stmt 1 view .LVU743
 2886 0046 697A     		ldrb	r1, [r5, #9]	@ zero_extendqisi2
 2887 0048 2046     		mov	r0, r4
 2888 004a FFF7FEFF 		bl	TIM_Base_Channel1
 2889              	.LVL240:
 433:n32g430_std_periph_driver/src/n32g430_tim.c ****     
 2890              		.loc 1 433 5 view .LVU744
 435:n32g430_std_periph_driver/src/n32g430_tim.c ****     {
 2891              		.loc 1 435 5 view .LVU745
 435:n32g430_std_periph_driver/src/n32g430_tim.c ****     {
 2892              		.loc 1 435 8 is_stmt 0 view .LVU746
 2893 004e 164B     		ldr	r3, .L151+4
 2894 0050 9C42     		cmp	r4, r3
 2895 0052 0DD0     		beq	.L146
 2896              	.L145:
 435:n32g430_std_periph_driver/src/n32g430_tim.c ****     {
 2897              		.loc 1 435 24 discriminator 1 view .LVU747
 2898 0054 154B     		ldr	r3, .L151+8
 2899 0056 9C42     		cmp	r4, r3
 2900 0058 0AD0     		beq	.L146
 435:n32g430_std_periph_driver/src/n32g430_tim.c ****     {
 2901              		.loc 1 435 42 discriminator 2 view .LVU748
 2902 005a B4F1804F 		cmp	r4, #1073741824
 2903 005e 07D0     		beq	.L146
 435:n32g430_std_periph_driver/src/n32g430_tim.c ****     {
 2904              		.loc 1 435 60 discriminator 3 view .LVU749
 2905 0060 A3F59833 		sub	r3, r3, #77824
 2906 0064 9C42     		cmp	r4, r3
 2907 0066 03D0     		beq	.L146
 435:n32g430_std_periph_driver/src/n32g430_tim.c ****     {
 2908              		.loc 1 435 78 discriminator 4 view .LVU750
 2909 0068 03F58063 		add	r3, r3, #1024
 2910 006c 9C42     		cmp	r4, r3
 2911 006e 03D1     		bne	.L147
 2912              	.L146:
 437:n32g430_std_periph_driver/src/n32g430_tim.c ****     }
 2913              		.loc 1 437 9 is_stmt 1 view .LVU751
 2914 0070 697B     		ldrb	r1, [r5, #13]	@ zero_extendqisi2
 2915 0072 2046     		mov	r0, r4
 2916 0074 FFF7FEFF 		bl	TIM_Base_OCrefClear
 2917              	.LVL241:
 2918              	.L147:
 444:n32g430_std_periph_driver/src/n32g430_tim.c ****     {
 2919              		.loc 1 444 5 view .LVU752
ARM GAS  C:\Users\Dawn\AppData\Local\Temp\ccf7B1Wd.s 			page 82


 444:n32g430_std_periph_driver/src/n32g430_tim.c ****     {
 2920              		.loc 1 444 7 is_stmt 0 view .LVU753
 2921 0078 B4F1804F 		cmp	r4, #1073741824
 2922 007c 05D0     		beq	.L150
 2923              	.L141:
 454:n32g430_std_periph_driver/src/n32g430_tim.c **** 
 2924              		.loc 1 454 1 view .LVU754
 2925 007e 38BD     		pop	{r3, r4, r5, pc}
 2926              	.LVL242:
 2927              	.L143:
 417:n32g430_std_periph_driver/src/n32g430_tim.c ****     }
 2928              		.loc 1 417 9 is_stmt 1 view .LVU755
 2929 0080 297A     		ldrb	r1, [r5, #8]	@ zero_extendqisi2
 2930 0082 2046     		mov	r0, r4
 2931 0084 FFF7FEFF 		bl	TIM_Base_Repeat_Count_Set
 2932              	.LVL243:
 2933 0088 D6E7     		b	.L144
 2934              	.L150:
 446:n32g430_std_periph_driver/src/n32g430_tim.c ****         TIM_Base_Channel3(TIMx, TIM_TimeBaseInitStruct->CapCh3Sel);
 2935              		.loc 1 446 9 view .LVU756
 2936 008a A97A     		ldrb	r1, [r5, #10]	@ zero_extendqisi2
 2937 008c 2046     		mov	r0, r4
 2938 008e FFF7FEFF 		bl	TIM_Base_Channel2
 2939              	.LVL244:
 447:n32g430_std_periph_driver/src/n32g430_tim.c ****         TIM_Base_Channel4(TIMx, TIM_TimeBaseInitStruct->CapCh4Sel);
 2940              		.loc 1 447 9 view .LVU757
 2941 0092 E97A     		ldrb	r1, [r5, #11]	@ zero_extendqisi2
 2942 0094 2046     		mov	r0, r4
 2943 0096 FFF7FEFF 		bl	TIM_Base_Channel3
 2944              	.LVL245:
 448:n32g430_std_periph_driver/src/n32g430_tim.c ****     }
 2945              		.loc 1 448 9 view .LVU758
 2946 009a 297B     		ldrb	r1, [r5, #12]	@ zero_extendqisi2
 2947 009c 2046     		mov	r0, r4
 2948 009e FFF7FEFF 		bl	TIM_Base_Channel4
 2949              	.LVL246:
 453:n32g430_std_periph_driver/src/n32g430_tim.c **** }
 2950              		.loc 1 453 5 view .LVU759
 454:n32g430_std_periph_driver/src/n32g430_tim.c **** 
 2951              		.loc 1 454 1 is_stmt 0 view .LVU760
 2952 00a2 ECE7     		b	.L141
 2953              	.L152:
 2954              		.align	2
 2955              	.L151:
 2956 00a4 00100040 		.word	1073745920
 2957 00a8 002C0140 		.word	1073818624
 2958 00ac 00340140 		.word	1073820672
 2959              		.cfi_endproc
 2960              	.LFE137:
 2962              		.section	.text.TIM_Internal_Clock_Set,"ax",%progbits
 2963              		.align	1
 2964              		.global	TIM_Internal_Clock_Set
 2965              		.syntax unified
 2966              		.thumb
 2967              		.thumb_func
 2969              	TIM_Internal_Clock_Set:
 2970              	.LVL247:
ARM GAS  C:\Users\Dawn\AppData\Local\Temp\ccf7B1Wd.s 			page 83


 2971              	.LFB199:
1778:n32g430_std_periph_driver/src/n32g430_tim.c **** 
1779:n32g430_std_periph_driver/src/n32g430_tim.c **** 
1780:n32g430_std_periph_driver/src/n32g430_tim.c **** /**
1781:n32g430_std_periph_driver/src/n32g430_tim.c **** *\*\name    TIM_Internal_Clock_Set.
1782:n32g430_std_periph_driver/src/n32g430_tim.c **** *\*\fun     Configures the TIMx internal Clock
1783:n32g430_std_periph_driver/src/n32g430_tim.c **** *\*\param   TIMx:
1784:n32g430_std_periph_driver/src/n32g430_tim.c **** *\*\          - TIM1
1785:n32g430_std_periph_driver/src/n32g430_tim.c **** *\*\          - TIM2
1786:n32g430_std_periph_driver/src/n32g430_tim.c **** *\*\          - TIM3
1787:n32g430_std_periph_driver/src/n32g430_tim.c **** *\*\          - TIM4
1788:n32g430_std_periph_driver/src/n32g430_tim.c **** *\*\          - TIM5
1789:n32g430_std_periph_driver/src/n32g430_tim.c **** *\*\          - TIM8
1790:n32g430_std_periph_driver/src/n32g430_tim.c **** *\*\return  none
1791:n32g430_std_periph_driver/src/n32g430_tim.c **** **/
1792:n32g430_std_periph_driver/src/n32g430_tim.c **** void TIM_Internal_Clock_Set(TIM_Module* TIMx)
1793:n32g430_std_periph_driver/src/n32g430_tim.c **** {
 2972              		.loc 1 1793 1 is_stmt 1 view -0
 2973              		.cfi_startproc
 2974              		@ args = 0, pretend = 0, frame = 0
 2975              		@ frame_needed = 0, uses_anonymous_args = 0
 2976              		@ link register save eliminated.
1794:n32g430_std_periph_driver/src/n32g430_tim.c ****     /* Disable slave mode to clock the prescaler directly with the internal clock */
1795:n32g430_std_periph_driver/src/n32g430_tim.c ****     TIMx->SMCTRL &= (uint16_t)(~((uint16_t)TIM_SLAVE_MODE_MASK));
 2977              		.loc 1 1795 5 view .LVU762
 2978              		.loc 1 1795 9 is_stmt 0 view .LVU763
 2979 0000 0389     		ldrh	r3, [r0, #8]
 2980 0002 9BB2     		uxth	r3, r3
 2981              		.loc 1 1795 18 view .LVU764
 2982 0004 23F00703 		bic	r3, r3, #7
 2983 0008 9BB2     		uxth	r3, r3
 2984 000a 0381     		strh	r3, [r0, #8]	@ movhi
1796:n32g430_std_periph_driver/src/n32g430_tim.c **** }
 2985              		.loc 1 1796 1 view .LVU765
 2986 000c 7047     		bx	lr
 2987              		.cfi_endproc
 2988              	.LFE199:
 2990              		.section	.text.TIM_Input_Capture1_Prescaler_Set,"ax",%progbits
 2991              		.align	1
 2992              		.global	TIM_Input_Capture1_Prescaler_Set
 2993              		.syntax unified
 2994              		.thumb
 2995              		.thumb_func
 2997              	TIM_Input_Capture1_Prescaler_Set:
 2998              	.LVL248:
 2999              	.LFB200:
1797:n32g430_std_periph_driver/src/n32g430_tim.c **** 
1798:n32g430_std_periph_driver/src/n32g430_tim.c **** 
1799:n32g430_std_periph_driver/src/n32g430_tim.c **** /**
1800:n32g430_std_periph_driver/src/n32g430_tim.c **** *\*\name    TIM_Input_Capture1_Prescaler_Set
1801:n32g430_std_periph_driver/src/n32g430_tim.c **** *\*\fun     Sets the TIMx Input Capture 1 prescaler.
1802:n32g430_std_periph_driver/src/n32g430_tim.c **** *\*\param   TIMx:
1803:n32g430_std_periph_driver/src/n32g430_tim.c **** *\*\          - TIM1
1804:n32g430_std_periph_driver/src/n32g430_tim.c **** *\*\          - TIM2
1805:n32g430_std_periph_driver/src/n32g430_tim.c **** *\*\          - TIM3
1806:n32g430_std_periph_driver/src/n32g430_tim.c **** *\*\          - TIM4
1807:n32g430_std_periph_driver/src/n32g430_tim.c **** *\*\          - TIM5
ARM GAS  C:\Users\Dawn\AppData\Local\Temp\ccf7B1Wd.s 			page 84


1808:n32g430_std_periph_driver/src/n32g430_tim.c **** *\*\          - TIM8
1809:n32g430_std_periph_driver/src/n32g430_tim.c **** *\*\param   TIM_input_capture_prescaler 
1810:n32g430_std_periph_driver/src/n32g430_tim.c **** *\*\          - TIM_IC_PSC_DIV1    no prescaler
1811:n32g430_std_periph_driver/src/n32g430_tim.c **** *\*\          - TIM_IC_PSC_DIV2    capture is done once every 2 events
1812:n32g430_std_periph_driver/src/n32g430_tim.c **** *\*\          - TIM_IC_PSC_DIV4    capture is done once every 4 events
1813:n32g430_std_periph_driver/src/n32g430_tim.c **** *\*\          - TIM_IC_PSC_DIV8    capture is done once every 8 events
1814:n32g430_std_periph_driver/src/n32g430_tim.c **** *\*\return  none
1815:n32g430_std_periph_driver/src/n32g430_tim.c **** **/
1816:n32g430_std_periph_driver/src/n32g430_tim.c **** void TIM_Input_Capture1_Prescaler_Set(TIM_Module* TIMx, uint16_t TIM_input_capture_prescaler)
1817:n32g430_std_periph_driver/src/n32g430_tim.c **** {
 3000              		.loc 1 1817 1 is_stmt 1 view -0
 3001              		.cfi_startproc
 3002              		@ args = 0, pretend = 0, frame = 0
 3003              		@ frame_needed = 0, uses_anonymous_args = 0
 3004              		@ link register save eliminated.
1818:n32g430_std_periph_driver/src/n32g430_tim.c ****     TIMx->CCMOD1 &= (uint16_t) ~((uint16_t)TIM_IC1_PSC_MASK);
 3005              		.loc 1 1818 5 view .LVU767
 3006              		.loc 1 1818 9 is_stmt 0 view .LVU768
 3007 0000 038B     		ldrh	r3, [r0, #24]
 3008 0002 9BB2     		uxth	r3, r3
 3009              		.loc 1 1818 18 view .LVU769
 3010 0004 23F00C03 		bic	r3, r3, #12
 3011 0008 9BB2     		uxth	r3, r3
 3012 000a 0383     		strh	r3, [r0, #24]	@ movhi
1819:n32g430_std_periph_driver/src/n32g430_tim.c ****     /* Set the IC1PSC value */
1820:n32g430_std_periph_driver/src/n32g430_tim.c ****     TIMx->CCMOD1 |= TIM_input_capture_prescaler;    
 3013              		.loc 1 1820 5 is_stmt 1 view .LVU770
 3014              		.loc 1 1820 9 is_stmt 0 view .LVU771
 3015 000c 038B     		ldrh	r3, [r0, #24]
 3016 000e 9BB2     		uxth	r3, r3
 3017              		.loc 1 1820 18 view .LVU772
 3018 0010 0B43     		orrs	r3, r3, r1
 3019 0012 0383     		strh	r3, [r0, #24]	@ movhi
1821:n32g430_std_periph_driver/src/n32g430_tim.c **** }
 3020              		.loc 1 1821 1 view .LVU773
 3021 0014 7047     		bx	lr
 3022              		.cfi_endproc
 3023              	.LFE200:
 3025              		.section	.text.TIM_Input_Capture2_Prescaler_Set,"ax",%progbits
 3026              		.align	1
 3027              		.global	TIM_Input_Capture2_Prescaler_Set
 3028              		.syntax unified
 3029              		.thumb
 3030              		.thumb_func
 3032              	TIM_Input_Capture2_Prescaler_Set:
 3033              	.LVL249:
 3034              	.LFB201:
1822:n32g430_std_periph_driver/src/n32g430_tim.c **** 
1823:n32g430_std_periph_driver/src/n32g430_tim.c **** /**
1824:n32g430_std_periph_driver/src/n32g430_tim.c **** *\*\name    TIM_Input_Capture2_Prescaler_Set
1825:n32g430_std_periph_driver/src/n32g430_tim.c **** *\*\fun     Sets the TIMx Input Capture 2 prescaler.
1826:n32g430_std_periph_driver/src/n32g430_tim.c **** *\*\param   TIMx:
1827:n32g430_std_periph_driver/src/n32g430_tim.c **** *\*\          - TIM1
1828:n32g430_std_periph_driver/src/n32g430_tim.c **** *\*\          - TIM2
1829:n32g430_std_periph_driver/src/n32g430_tim.c **** *\*\          - TIM3
1830:n32g430_std_periph_driver/src/n32g430_tim.c **** *\*\          - TIM4
1831:n32g430_std_periph_driver/src/n32g430_tim.c **** *\*\          - TIM5
ARM GAS  C:\Users\Dawn\AppData\Local\Temp\ccf7B1Wd.s 			page 85


1832:n32g430_std_periph_driver/src/n32g430_tim.c **** *\*\          - TIM8
1833:n32g430_std_periph_driver/src/n32g430_tim.c **** *\*\param   TIM_input_capture_prescaler 
1834:n32g430_std_periph_driver/src/n32g430_tim.c **** *\*\          - TIM_IC_PSC_DIV1    no prescaler
1835:n32g430_std_periph_driver/src/n32g430_tim.c **** *\*\          - TIM_IC_PSC_DIV2    capture is done once every 2 events
1836:n32g430_std_periph_driver/src/n32g430_tim.c **** *\*\          - TIM_IC_PSC_DIV4    capture is done once every 4 events
1837:n32g430_std_periph_driver/src/n32g430_tim.c **** *\*\          - TIM_IC_PSC_DIV8    capture is done once every 8 events
1838:n32g430_std_periph_driver/src/n32g430_tim.c **** *\*\return  none
1839:n32g430_std_periph_driver/src/n32g430_tim.c **** **/
1840:n32g430_std_periph_driver/src/n32g430_tim.c **** void TIM_Input_Capture2_Prescaler_Set(TIM_Module* TIMx, uint16_t TIM_input_capture_prescaler)
1841:n32g430_std_periph_driver/src/n32g430_tim.c **** {
 3035              		.loc 1 1841 1 is_stmt 1 view -0
 3036              		.cfi_startproc
 3037              		@ args = 0, pretend = 0, frame = 0
 3038              		@ frame_needed = 0, uses_anonymous_args = 0
 3039              		@ link register save eliminated.
1842:n32g430_std_periph_driver/src/n32g430_tim.c ****     TIMx->CCMOD1 &= (uint16_t) ~((uint16_t)TIM_IC2_PSC_MASK);
 3040              		.loc 1 1842 5 view .LVU775
 3041              		.loc 1 1842 9 is_stmt 0 view .LVU776
 3042 0000 038B     		ldrh	r3, [r0, #24]
 3043 0002 9BB2     		uxth	r3, r3
 3044              		.loc 1 1842 18 view .LVU777
 3045 0004 23F44063 		bic	r3, r3, #3072
 3046 0008 9BB2     		uxth	r3, r3
 3047 000a 0383     		strh	r3, [r0, #24]	@ movhi
1843:n32g430_std_periph_driver/src/n32g430_tim.c ****     /* Set the IC1PSC value */
1844:n32g430_std_periph_driver/src/n32g430_tim.c ****     TIMx->CCMOD1 |= (uint16_t)(TIM_input_capture_prescaler << 8);    
 3048              		.loc 1 1844 5 is_stmt 1 view .LVU778
 3049              		.loc 1 1844 9 is_stmt 0 view .LVU779
 3050 000c 038B     		ldrh	r3, [r0, #24]
 3051 000e 9BB2     		uxth	r3, r3
 3052              		.loc 1 1844 21 view .LVU780
 3053 0010 0902     		lsls	r1, r1, #8
 3054              	.LVL250:
 3055              		.loc 1 1844 21 view .LVU781
 3056 0012 89B2     		uxth	r1, r1
 3057              		.loc 1 1844 18 view .LVU782
 3058 0014 0B43     		orrs	r3, r3, r1
 3059 0016 0383     		strh	r3, [r0, #24]	@ movhi
1845:n32g430_std_periph_driver/src/n32g430_tim.c **** }
 3060              		.loc 1 1845 1 view .LVU783
 3061 0018 7047     		bx	lr
 3062              		.cfi_endproc
 3063              	.LFE201:
 3065              		.section	.text.TIM_Input_Capture3_Prescaler_Set,"ax",%progbits
 3066              		.align	1
 3067              		.global	TIM_Input_Capture3_Prescaler_Set
 3068              		.syntax unified
 3069              		.thumb
 3070              		.thumb_func
 3072              	TIM_Input_Capture3_Prescaler_Set:
 3073              	.LVL251:
 3074              	.LFB202:
1846:n32g430_std_periph_driver/src/n32g430_tim.c **** 
1847:n32g430_std_periph_driver/src/n32g430_tim.c **** /**
1848:n32g430_std_periph_driver/src/n32g430_tim.c **** *\*\name    TIM_Input_Capture3_Prescaler_Set
1849:n32g430_std_periph_driver/src/n32g430_tim.c **** *\*\fun     Sets the TIMx Input Capture 3 prescaler.
1850:n32g430_std_periph_driver/src/n32g430_tim.c **** *\*\param   TIMx:
ARM GAS  C:\Users\Dawn\AppData\Local\Temp\ccf7B1Wd.s 			page 86


1851:n32g430_std_periph_driver/src/n32g430_tim.c **** *\*\          - TIM1
1852:n32g430_std_periph_driver/src/n32g430_tim.c **** *\*\          - TIM2
1853:n32g430_std_periph_driver/src/n32g430_tim.c **** *\*\          - TIM3
1854:n32g430_std_periph_driver/src/n32g430_tim.c **** *\*\          - TIM4
1855:n32g430_std_periph_driver/src/n32g430_tim.c **** *\*\          - TIM5
1856:n32g430_std_periph_driver/src/n32g430_tim.c **** *\*\          - TIM8
1857:n32g430_std_periph_driver/src/n32g430_tim.c **** *\*\param   TIM_input_capture_prescaler 
1858:n32g430_std_periph_driver/src/n32g430_tim.c **** *\*\          - TIM_IC_PSC_DIV1    no prescaler
1859:n32g430_std_periph_driver/src/n32g430_tim.c **** *\*\          - TIM_IC_PSC_DIV2    capture is done once every 2 events
1860:n32g430_std_periph_driver/src/n32g430_tim.c **** *\*\          - TIM_IC_PSC_DIV4    capture is done once every 4 events
1861:n32g430_std_periph_driver/src/n32g430_tim.c **** *\*\          - TIM_IC_PSC_DIV8    capture is done once every 8 events
1862:n32g430_std_periph_driver/src/n32g430_tim.c **** *\*\return  none 
1863:n32g430_std_periph_driver/src/n32g430_tim.c **** **/
1864:n32g430_std_periph_driver/src/n32g430_tim.c **** void TIM_Input_Capture3_Prescaler_Set(TIM_Module* TIMx, uint16_t TIM_input_capture_prescaler)
1865:n32g430_std_periph_driver/src/n32g430_tim.c **** {
 3075              		.loc 1 1865 1 is_stmt 1 view -0
 3076              		.cfi_startproc
 3077              		@ args = 0, pretend = 0, frame = 0
 3078              		@ frame_needed = 0, uses_anonymous_args = 0
 3079              		@ link register save eliminated.
1866:n32g430_std_periph_driver/src/n32g430_tim.c ****     TIMx->CCMOD2 &= (uint16_t) ~((uint16_t)TIM_IC3_PSC_MASK);
 3080              		.loc 1 1866 5 view .LVU785
 3081              		.loc 1 1866 9 is_stmt 0 view .LVU786
 3082 0000 C369     		ldr	r3, [r0, #28]
 3083              		.loc 1 1866 18 view .LVU787
 3084 0002 23F00C03 		bic	r3, r3, #12
 3085 0006 1B04     		lsls	r3, r3, #16
 3086 0008 1B0C     		lsrs	r3, r3, #16
 3087 000a C361     		str	r3, [r0, #28]
1867:n32g430_std_periph_driver/src/n32g430_tim.c ****     /* Set the IC1PSC value */
1868:n32g430_std_periph_driver/src/n32g430_tim.c ****     TIMx->CCMOD2 |= TIM_input_capture_prescaler;    
 3088              		.loc 1 1868 5 is_stmt 1 view .LVU788
 3089              		.loc 1 1868 9 is_stmt 0 view .LVU789
 3090 000c C369     		ldr	r3, [r0, #28]
 3091              		.loc 1 1868 18 view .LVU790
 3092 000e 1943     		orrs	r1, r1, r3
 3093              	.LVL252:
 3094              		.loc 1 1868 18 view .LVU791
 3095 0010 C161     		str	r1, [r0, #28]
1869:n32g430_std_periph_driver/src/n32g430_tim.c **** }
 3096              		.loc 1 1869 1 view .LVU792
 3097 0012 7047     		bx	lr
 3098              		.cfi_endproc
 3099              	.LFE202:
 3101              		.section	.text.TIM_Input_Capture4_Prescaler_Set,"ax",%progbits
 3102              		.align	1
 3103              		.global	TIM_Input_Capture4_Prescaler_Set
 3104              		.syntax unified
 3105              		.thumb
 3106              		.thumb_func
 3108              	TIM_Input_Capture4_Prescaler_Set:
 3109              	.LVL253:
 3110              	.LFB203:
1870:n32g430_std_periph_driver/src/n32g430_tim.c **** 
1871:n32g430_std_periph_driver/src/n32g430_tim.c **** /**
1872:n32g430_std_periph_driver/src/n32g430_tim.c **** *\*\name    TIM_Input_Capture4_Prescaler_Set
1873:n32g430_std_periph_driver/src/n32g430_tim.c **** *\*\fun     Sets the TIMx Input Capture 4 prescaler.
ARM GAS  C:\Users\Dawn\AppData\Local\Temp\ccf7B1Wd.s 			page 87


1874:n32g430_std_periph_driver/src/n32g430_tim.c **** *\*\param   TIMx:
1875:n32g430_std_periph_driver/src/n32g430_tim.c **** *\*\          - TIM1
1876:n32g430_std_periph_driver/src/n32g430_tim.c **** *\*\          - TIM2
1877:n32g430_std_periph_driver/src/n32g430_tim.c **** *\*\          - TIM3
1878:n32g430_std_periph_driver/src/n32g430_tim.c **** *\*\          - TIM4
1879:n32g430_std_periph_driver/src/n32g430_tim.c **** *\*\          - TIM5
1880:n32g430_std_periph_driver/src/n32g430_tim.c **** *\*\          - TIM8
1881:n32g430_std_periph_driver/src/n32g430_tim.c **** *\*\param   TIM_input_capture_prescaler 
1882:n32g430_std_periph_driver/src/n32g430_tim.c **** *\*\          - TIM_IC_PSC_DIV1    no prescaler
1883:n32g430_std_periph_driver/src/n32g430_tim.c **** *\*\          - TIM_IC_PSC_DIV2    capture is done once every 2 events
1884:n32g430_std_periph_driver/src/n32g430_tim.c **** *\*\          - TIM_IC_PSC_DIV4    capture is done once every 4 events
1885:n32g430_std_periph_driver/src/n32g430_tim.c **** *\*\          - TIM_IC_PSC_DIV8    capture is done once every 8 events
1886:n32g430_std_periph_driver/src/n32g430_tim.c **** *\*\return  none 
1887:n32g430_std_periph_driver/src/n32g430_tim.c **** **/
1888:n32g430_std_periph_driver/src/n32g430_tim.c **** void TIM_Input_Capture4_Prescaler_Set(TIM_Module* TIMx, uint16_t TIM_input_capture_prescaler)
1889:n32g430_std_periph_driver/src/n32g430_tim.c **** {
 3111              		.loc 1 1889 1 is_stmt 1 view -0
 3112              		.cfi_startproc
 3113              		@ args = 0, pretend = 0, frame = 0
 3114              		@ frame_needed = 0, uses_anonymous_args = 0
 3115              		@ link register save eliminated.
1890:n32g430_std_periph_driver/src/n32g430_tim.c ****     TIMx->CCMOD2 &= (uint16_t) ~((uint16_t)TIM_IC4_PSC_MASK);
 3116              		.loc 1 1890 5 view .LVU794
 3117              		.loc 1 1890 9 is_stmt 0 view .LVU795
 3118 0000 C369     		ldr	r3, [r0, #28]
 3119              		.loc 1 1890 18 view .LVU796
 3120 0002 23F44063 		bic	r3, r3, #3072
 3121 0006 1B04     		lsls	r3, r3, #16
 3122 0008 1B0C     		lsrs	r3, r3, #16
 3123 000a C361     		str	r3, [r0, #28]
1891:n32g430_std_periph_driver/src/n32g430_tim.c ****     /* Set the IC1PSC value */
1892:n32g430_std_periph_driver/src/n32g430_tim.c ****     TIMx->CCMOD2 |= (TIM_input_capture_prescaler << 8);    
 3124              		.loc 1 1892 5 is_stmt 1 view .LVU797
 3125              		.loc 1 1892 9 is_stmt 0 view .LVU798
 3126 000c C369     		ldr	r3, [r0, #28]
 3127              		.loc 1 1892 18 view .LVU799
 3128 000e 43EA0123 		orr	r3, r3, r1, lsl #8
 3129 0012 C361     		str	r3, [r0, #28]
1893:n32g430_std_periph_driver/src/n32g430_tim.c **** }
 3130              		.loc 1 1893 1 view .LVU800
 3131 0014 7047     		bx	lr
 3132              		.cfi_endproc
 3133              	.LFE203:
 3135              		.section	.text.TIM_Internal_Trig_To_Ext_Set,"ax",%progbits
 3136              		.align	1
 3137              		.global	TIM_Internal_Trig_To_Ext_Set
 3138              		.syntax unified
 3139              		.thumb
 3140              		.thumb_func
 3142              	TIM_Internal_Trig_To_Ext_Set:
 3143              	.LVL254:
 3144              	.LFB204:
1894:n32g430_std_periph_driver/src/n32g430_tim.c **** 
1895:n32g430_std_periph_driver/src/n32g430_tim.c **** /**
1896:n32g430_std_periph_driver/src/n32g430_tim.c **** *\*\name    TIM_Internal_Trig_To_Ext_Set.
1897:n32g430_std_periph_driver/src/n32g430_tim.c **** *\*\fun     Configures the TIMx Internal Trigger as External Clock
1898:n32g430_std_periph_driver/src/n32g430_tim.c **** *\*\param   TIMx:
ARM GAS  C:\Users\Dawn\AppData\Local\Temp\ccf7B1Wd.s 			page 88


1899:n32g430_std_periph_driver/src/n32g430_tim.c **** *\*\          - TIM1
1900:n32g430_std_periph_driver/src/n32g430_tim.c **** *\*\          - TIM2
1901:n32g430_std_periph_driver/src/n32g430_tim.c **** *\*\          - TIM3
1902:n32g430_std_periph_driver/src/n32g430_tim.c **** *\*\          - TIM4
1903:n32g430_std_periph_driver/src/n32g430_tim.c **** *\*\          - TIM5
1904:n32g430_std_periph_driver/src/n32g430_tim.c **** *\*\          - TIM8
1905:n32g430_std_periph_driver/src/n32g430_tim.c **** *\*\param   input_trigger_source:
1906:n32g430_std_periph_driver/src/n32g430_tim.c **** *\*\          - TIM_TRIG_SEL_IN_TR0    Internal Trigger 0
1907:n32g430_std_periph_driver/src/n32g430_tim.c **** *\*\          - TIM_TRIG_SEL_IN_TR1    Internal Trigger 1
1908:n32g430_std_periph_driver/src/n32g430_tim.c **** *\*\          - TIM_TRIG_SEL_IN_TR2    Internal Trigger 2
1909:n32g430_std_periph_driver/src/n32g430_tim.c **** *\*\          - TIM_TRIG_SEL_IN_TR3    Internal Trigger 3
1910:n32g430_std_periph_driver/src/n32g430_tim.c **** *\*\return  none
1911:n32g430_std_periph_driver/src/n32g430_tim.c **** **/
1912:n32g430_std_periph_driver/src/n32g430_tim.c **** void TIM_Internal_Trig_To_Ext_Set(TIM_Module* TIMx, uint16_t input_trigger_source)
1913:n32g430_std_periph_driver/src/n32g430_tim.c **** {
 3145              		.loc 1 1913 1 is_stmt 1 view -0
 3146              		.cfi_startproc
 3147              		@ args = 0, pretend = 0, frame = 0
 3148              		@ frame_needed = 0, uses_anonymous_args = 0
 3149              		.loc 1 1913 1 is_stmt 0 view .LVU802
 3150 0000 10B5     		push	{r4, lr}
 3151              	.LCFI8:
 3152              		.cfi_def_cfa_offset 8
 3153              		.cfi_offset 4, -8
 3154              		.cfi_offset 14, -4
 3155 0002 0446     		mov	r4, r0
1914:n32g430_std_periph_driver/src/n32g430_tim.c ****     /* Select the Internal Trigger */
1915:n32g430_std_periph_driver/src/n32g430_tim.c ****     TIM_Trigger_Source_Select(TIMx, input_trigger_source);
 3156              		.loc 1 1915 5 is_stmt 1 view .LVU803
 3157 0004 FFF7FEFF 		bl	TIM_Trigger_Source_Select
 3158              	.LVL255:
1916:n32g430_std_periph_driver/src/n32g430_tim.c **** 
1917:n32g430_std_periph_driver/src/n32g430_tim.c ****     /* Select the External clock mode1 */
1918:n32g430_std_periph_driver/src/n32g430_tim.c ****     TIMx->SMCTRL |= TIM_SLAVE_MODE_EXT1;
 3159              		.loc 1 1918 5 view .LVU804
 3160              		.loc 1 1918 9 is_stmt 0 view .LVU805
 3161 0008 2389     		ldrh	r3, [r4, #8]
 3162 000a 9BB2     		uxth	r3, r3
 3163              		.loc 1 1918 18 view .LVU806
 3164 000c 43F00703 		orr	r3, r3, #7
 3165 0010 2381     		strh	r3, [r4, #8]	@ movhi
1919:n32g430_std_periph_driver/src/n32g430_tim.c **** }
 3166              		.loc 1 1919 1 view .LVU807
 3167 0012 10BD     		pop	{r4, pc}
 3168              		.loc 1 1919 1 view .LVU808
 3169              		.cfi_endproc
 3170              	.LFE204:
 3172              		.section	.text.TIM_Trigger_As_External_Clock,"ax",%progbits
 3173              		.align	1
 3174              		.global	TIM_Trigger_As_External_Clock
 3175              		.syntax unified
 3176              		.thumb
 3177              		.thumb_func
 3179              	TIM_Trigger_As_External_Clock:
 3180              	.LVL256:
 3181              	.LFB205:
1920:n32g430_std_periph_driver/src/n32g430_tim.c **** 
ARM GAS  C:\Users\Dawn\AppData\Local\Temp\ccf7B1Wd.s 			page 89


1921:n32g430_std_periph_driver/src/n32g430_tim.c **** 
1922:n32g430_std_periph_driver/src/n32g430_tim.c **** /**
1923:n32g430_std_periph_driver/src/n32g430_tim.c **** *\*\name    TIM_Trigger_As_External_Clock.
1924:n32g430_std_periph_driver/src/n32g430_tim.c **** *\*\fun     Configures the TIMx Trigger as External Clock
1925:n32g430_std_periph_driver/src/n32g430_tim.c **** *\*\param   TIMx:
1926:n32g430_std_periph_driver/src/n32g430_tim.c **** *\*\          - TIM1
1927:n32g430_std_periph_driver/src/n32g430_tim.c **** *\*\          - TIM2
1928:n32g430_std_periph_driver/src/n32g430_tim.c **** *\*\          - TIM3
1929:n32g430_std_periph_driver/src/n32g430_tim.c **** *\*\          - TIM4
1930:n32g430_std_periph_driver/src/n32g430_tim.c **** *\*\          - TIM5
1931:n32g430_std_periph_driver/src/n32g430_tim.c **** *\*\          - TIM8
1932:n32g430_std_periph_driver/src/n32g430_tim.c **** *\*\param   external_clock_source
1933:n32g430_std_periph_driver/src/n32g430_tim.c **** *\*\          - TIM_EXT_CLK_SRC_TI1ED    TI1 Edge Detector
1934:n32g430_std_periph_driver/src/n32g430_tim.c **** *\*\          - TIM_EXT_CLK_SRC_TI1      Filtered Timer Input 1
1935:n32g430_std_periph_driver/src/n32g430_tim.c **** *\*\          - TIM_EXT_CLK_SRC_TI2      Filtered Timer Input 2
1936:n32g430_std_periph_driver/src/n32g430_tim.c **** *\*\param   input_channel_polarity specifies the TIx Polarity.
1937:n32g430_std_periph_driver/src/n32g430_tim.c **** *\*\          - TIM_IC_POLARITY_RISING
1938:n32g430_std_periph_driver/src/n32g430_tim.c **** *\*\          - TIM_IC_POLARITY_FALLING
1939:n32g430_std_periph_driver/src/n32g430_tim.c **** *\*\param   input_channel_filter 
1940:n32g430_std_periph_driver/src/n32g430_tim.c **** *\*\          - [0x0 0xF]
1941:n32g430_std_periph_driver/src/n32g430_tim.c **** *\*\return  none
1942:n32g430_std_periph_driver/src/n32g430_tim.c **** **/
1943:n32g430_std_periph_driver/src/n32g430_tim.c **** void TIM_Trigger_As_External_Clock(TIM_Module* TIMx, uint16_t external_clock_source, 
1944:n32g430_std_periph_driver/src/n32g430_tim.c ****                                    uint16_t input_channel_polarity, 
1945:n32g430_std_periph_driver/src/n32g430_tim.c ****                                    uint16_t input_channel_filter)
1946:n32g430_std_periph_driver/src/n32g430_tim.c **** {
 3182              		.loc 1 1946 1 is_stmt 1 view -0
 3183              		.cfi_startproc
 3184              		@ args = 0, pretend = 0, frame = 0
 3185              		@ frame_needed = 0, uses_anonymous_args = 0
 3186              		.loc 1 1946 1 is_stmt 0 view .LVU810
 3187 0000 38B5     		push	{r3, r4, r5, lr}
 3188              	.LCFI9:
 3189              		.cfi_def_cfa_offset 16
 3190              		.cfi_offset 3, -16
 3191              		.cfi_offset 4, -12
 3192              		.cfi_offset 5, -8
 3193              		.cfi_offset 14, -4
 3194 0002 0446     		mov	r4, r0
 3195 0004 0D46     		mov	r5, r1
 3196 0006 1146     		mov	r1, r2
 3197              	.LVL257:
1947:n32g430_std_periph_driver/src/n32g430_tim.c ****     /* Configure the Timer Input Clock Source */
1948:n32g430_std_periph_driver/src/n32g430_tim.c ****     if (external_clock_source == TIM_EXT_CLK_SRC_TI2)
 3198              		.loc 1 1948 5 is_stmt 1 view .LVU811
 3199              		.loc 1 1948 8 is_stmt 0 view .LVU812
 3200 0008 602D     		cmp	r5, #96
 3201 000a 0CD0     		beq	.L164
1949:n32g430_std_periph_driver/src/n32g430_tim.c ****     {
1950:n32g430_std_periph_driver/src/n32g430_tim.c ****         Input_Channel2_Config(TIMx, input_channel_polarity, TIM_IC_SELECTION_DIRECTTI, input_channe
1951:n32g430_std_periph_driver/src/n32g430_tim.c ****     }
1952:n32g430_std_periph_driver/src/n32g430_tim.c ****     else
1953:n32g430_std_periph_driver/src/n32g430_tim.c ****     {
1954:n32g430_std_periph_driver/src/n32g430_tim.c ****         Input_Channel1_Config(TIMx, input_channel_polarity, TIM_IC_SELECTION_DIRECTTI, input_channe
 3202              		.loc 1 1954 9 is_stmt 1 view .LVU813
 3203 000c 0122     		movs	r2, #1
 3204              	.LVL258:
ARM GAS  C:\Users\Dawn\AppData\Local\Temp\ccf7B1Wd.s 			page 90


 3205              		.loc 1 1954 9 is_stmt 0 view .LVU814
 3206 000e FFF7FEFF 		bl	Input_Channel1_Config
 3207              	.LVL259:
 3208              	.L162:
1955:n32g430_std_periph_driver/src/n32g430_tim.c ****     }
1956:n32g430_std_periph_driver/src/n32g430_tim.c ****     /* Select the Trigger source */
1957:n32g430_std_periph_driver/src/n32g430_tim.c ****     TIM_Trigger_Source_Select(TIMx, external_clock_source);
 3209              		.loc 1 1957 5 is_stmt 1 view .LVU815
 3210 0012 2946     		mov	r1, r5
 3211 0014 2046     		mov	r0, r4
 3212 0016 FFF7FEFF 		bl	TIM_Trigger_Source_Select
 3213              	.LVL260:
1958:n32g430_std_periph_driver/src/n32g430_tim.c ****     /* Select the External clock mode1 */
1959:n32g430_std_periph_driver/src/n32g430_tim.c ****     TIMx->SMCTRL |= TIM_SLAVE_MODE_EXT1;
 3214              		.loc 1 1959 5 view .LVU816
 3215              		.loc 1 1959 9 is_stmt 0 view .LVU817
 3216 001a 2389     		ldrh	r3, [r4, #8]
 3217 001c 9BB2     		uxth	r3, r3
 3218              		.loc 1 1959 18 view .LVU818
 3219 001e 43F00703 		orr	r3, r3, #7
 3220 0022 2381     		strh	r3, [r4, #8]	@ movhi
1960:n32g430_std_periph_driver/src/n32g430_tim.c **** }
 3221              		.loc 1 1960 1 view .LVU819
 3222 0024 38BD     		pop	{r3, r4, r5, pc}
 3223              	.LVL261:
 3224              	.L164:
1950:n32g430_std_periph_driver/src/n32g430_tim.c ****     }
 3225              		.loc 1 1950 9 is_stmt 1 view .LVU820
 3226 0026 0122     		movs	r2, #1
 3227              	.LVL262:
1950:n32g430_std_periph_driver/src/n32g430_tim.c ****     }
 3228              		.loc 1 1950 9 is_stmt 0 view .LVU821
 3229 0028 FFF7FEFF 		bl	Input_Channel2_Config
 3230              	.LVL263:
1950:n32g430_std_periph_driver/src/n32g430_tim.c ****     }
 3231              		.loc 1 1950 9 view .LVU822
 3232 002c F1E7     		b	.L162
 3233              		.cfi_endproc
 3234              	.LFE205:
 3236              		.section	.text.TIM_External_Clock_Mode1_Set,"ax",%progbits
 3237              		.align	1
 3238              		.global	TIM_External_Clock_Mode1_Set
 3239              		.syntax unified
 3240              		.thumb
 3241              		.thumb_func
 3243              	TIM_External_Clock_Mode1_Set:
 3244              	.LVL264:
 3245              	.LFB206:
1961:n32g430_std_periph_driver/src/n32g430_tim.c **** 
1962:n32g430_std_periph_driver/src/n32g430_tim.c **** /**
1963:n32g430_std_periph_driver/src/n32g430_tim.c **** *\*\name    TIM_External_Clock_Mode1_Set.
1964:n32g430_std_periph_driver/src/n32g430_tim.c **** *\*\fun     Configures the External clock Mode1
1965:n32g430_std_periph_driver/src/n32g430_tim.c **** *\*\param   TIMx:
1966:n32g430_std_periph_driver/src/n32g430_tim.c **** *\*\          - TIM1
1967:n32g430_std_periph_driver/src/n32g430_tim.c **** *\*\          - TIM2
1968:n32g430_std_periph_driver/src/n32g430_tim.c **** *\*\          - TIM3
1969:n32g430_std_periph_driver/src/n32g430_tim.c **** *\*\          - TIM4
ARM GAS  C:\Users\Dawn\AppData\Local\Temp\ccf7B1Wd.s 			page 91


1970:n32g430_std_periph_driver/src/n32g430_tim.c **** *\*\          - TIM5
1971:n32g430_std_periph_driver/src/n32g430_tim.c **** *\*\          - TIM8
1972:n32g430_std_periph_driver/src/n32g430_tim.c **** *\*\param   external_trigger_prescaler
1973:n32g430_std_periph_driver/src/n32g430_tim.c **** *\*\          - TIM_EXT_TRG_PSC_OFF     ETRP Prescaler OFF.
1974:n32g430_std_periph_driver/src/n32g430_tim.c **** *\*\          - TIM_EXT_TRG_PSC_DIV2    ETRP frequency divided by 2.
1975:n32g430_std_periph_driver/src/n32g430_tim.c **** *\*\          - TIM_EXT_TRG_PSC_DIV4    ETRP frequency divided by 4.
1976:n32g430_std_periph_driver/src/n32g430_tim.c **** *\*\          - TIM_EXT_TRG_PSC_DIV8    ETRP frequency divided by 8.
1977:n32g430_std_periph_driver/src/n32g430_tim.c ****  * @param external_trigger_polarity The external Trigger Polarity.
1978:n32g430_std_periph_driver/src/n32g430_tim.c **** *\*\          - TIM_EXT_TRIG_POLARITY_INVERTED active low or falling edge active.
1979:n32g430_std_periph_driver/src/n32g430_tim.c **** *\*\          - TIM_EXT_TRIG_POLARITY_NONINVERTED active high or rising edge active.
1980:n32g430_std_periph_driver/src/n32g430_tim.c **** *\*\param   external_trigger_filter 
1981:n32g430_std_periph_driver/src/n32g430_tim.c **** *\*\          - [0x0 0xF]
1982:n32g430_std_periph_driver/src/n32g430_tim.c **** *\*\return  none
1983:n32g430_std_periph_driver/src/n32g430_tim.c **** **/
1984:n32g430_std_periph_driver/src/n32g430_tim.c **** void TIM_External_Clock_Mode1_Set(TIM_Module* TIMx, uint16_t external_trigger_prescaler,
1985:n32g430_std_periph_driver/src/n32g430_tim.c ****                                          uint16_t external_trigger_polarity, 
1986:n32g430_std_periph_driver/src/n32g430_tim.c ****                                          uint16_t external_trigger_filter)
1987:n32g430_std_periph_driver/src/n32g430_tim.c **** {
 3246              		.loc 1 1987 1 is_stmt 1 view -0
 3247              		.cfi_startproc
 3248              		@ args = 0, pretend = 0, frame = 0
 3249              		@ frame_needed = 0, uses_anonymous_args = 0
 3250              		.loc 1 1987 1 is_stmt 0 view .LVU824
 3251 0000 70B5     		push	{r4, r5, r6, lr}
 3252              	.LCFI10:
 3253              		.cfi_def_cfa_offset 16
 3254              		.cfi_offset 4, -16
 3255              		.cfi_offset 5, -12
 3256              		.cfi_offset 6, -8
 3257              		.cfi_offset 14, -4
 3258 0002 0446     		mov	r4, r0
 3259 0004 0D46     		mov	r5, r1
 3260 0006 1646     		mov	r6, r2
1988:n32g430_std_periph_driver/src/n32g430_tim.c ****     uint16_t temp_value = 0;
 3261              		.loc 1 1988 5 is_stmt 1 view .LVU825
 3262              	.LVL265:
1989:n32g430_std_periph_driver/src/n32g430_tim.c **** 
1990:n32g430_std_periph_driver/src/n32g430_tim.c ****     TIM_External_Trigger_Filter_Set(TIMx, external_trigger_filter);
 3263              		.loc 1 1990 5 view .LVU826
 3264 0008 1946     		mov	r1, r3
 3265              	.LVL266:
 3266              		.loc 1 1990 5 is_stmt 0 view .LVU827
 3267 000a FFF7FEFF 		bl	TIM_External_Trigger_Filter_Set
 3268              	.LVL267:
1991:n32g430_std_periph_driver/src/n32g430_tim.c ****     TIM_External_Trigger_Polarity_Set(TIMx, external_trigger_polarity);
 3269              		.loc 1 1991 5 is_stmt 1 view .LVU828
 3270 000e 3146     		mov	r1, r6
 3271 0010 2046     		mov	r0, r4
 3272 0012 FFF7FEFF 		bl	TIM_External_Trigger_Polarity_Set
 3273              	.LVL268:
1992:n32g430_std_periph_driver/src/n32g430_tim.c ****     TIM_External_Trigger_Prescaler_Set(TIMx, external_trigger_prescaler);
 3274              		.loc 1 1992 5 view .LVU829
 3275 0016 2946     		mov	r1, r5
 3276 0018 2046     		mov	r0, r4
 3277 001a FFF7FEFF 		bl	TIM_External_Trigger_Prescaler_Set
 3278              	.LVL269:
1993:n32g430_std_periph_driver/src/n32g430_tim.c **** 
ARM GAS  C:\Users\Dawn\AppData\Local\Temp\ccf7B1Wd.s 			page 92


1994:n32g430_std_periph_driver/src/n32g430_tim.c ****     /* Get the TIMx SMCTRL register value */
1995:n32g430_std_periph_driver/src/n32g430_tim.c ****     temp_value = TIMx->SMCTRL;
 3279              		.loc 1 1995 5 view .LVU830
 3280              		.loc 1 1995 16 is_stmt 0 view .LVU831
 3281 001e 2389     		ldrh	r3, [r4, #8]
 3282 0020 9BB2     		uxth	r3, r3
 3283              	.LVL270:
1996:n32g430_std_periph_driver/src/n32g430_tim.c ****     /* Reset the SMS Bits */
1997:n32g430_std_periph_driver/src/n32g430_tim.c ****     temp_value &= (uint16_t)(~((uint16_t)TIM_SLAVE_MODE_MASK));
 3284              		.loc 1 1997 5 is_stmt 1 view .LVU832
1998:n32g430_std_periph_driver/src/n32g430_tim.c ****     /* Select the External clock mode1 */
1999:n32g430_std_periph_driver/src/n32g430_tim.c ****     temp_value |= TIM_SLAVE_MODE_EXT1;
 3285              		.loc 1 1999 5 view .LVU833
2000:n32g430_std_periph_driver/src/n32g430_tim.c ****     /* Select the Trigger selection : ETRF */
2001:n32g430_std_periph_driver/src/n32g430_tim.c ****     temp_value &= (uint16_t)(~((uint16_t)TIM_TRIG_SEL_MASK));
 3286              		.loc 1 2001 5 view .LVU834
2002:n32g430_std_periph_driver/src/n32g430_tim.c ****     temp_value |= TIM_TRIG_SEL_ETRF;
 3287              		.loc 1 2002 5 view .LVU835
 3288              		.loc 1 2002 16 is_stmt 0 view .LVU836
 3289 0022 43F07703 		orr	r3, r3, #119
 3290              	.LVL271:
2003:n32g430_std_periph_driver/src/n32g430_tim.c ****     /* Write to TIMx SMCTRL */
2004:n32g430_std_periph_driver/src/n32g430_tim.c ****     TIMx->SMCTRL = temp_value;
 3291              		.loc 1 2004 5 is_stmt 1 view .LVU837
 3292              		.loc 1 2004 18 is_stmt 0 view .LVU838
 3293 0026 2381     		strh	r3, [r4, #8]	@ movhi
2005:n32g430_std_periph_driver/src/n32g430_tim.c **** }
 3294              		.loc 1 2005 1 view .LVU839
 3295 0028 70BD     		pop	{r4, r5, r6, pc}
 3296              		.loc 1 2005 1 view .LVU840
 3297              		.cfi_endproc
 3298              	.LFE206:
 3300              		.section	.text.TIM_External_Clock_Mode2_Set,"ax",%progbits
 3301              		.align	1
 3302              		.global	TIM_External_Clock_Mode2_Set
 3303              		.syntax unified
 3304              		.thumb
 3305              		.thumb_func
 3307              	TIM_External_Clock_Mode2_Set:
 3308              	.LVL272:
 3309              	.LFB207:
2006:n32g430_std_periph_driver/src/n32g430_tim.c **** 
2007:n32g430_std_periph_driver/src/n32g430_tim.c **** /**
2008:n32g430_std_periph_driver/src/n32g430_tim.c **** *\*\name    TIM_ConfigExtClkMode2.
2009:n32g430_std_periph_driver/src/n32g430_tim.c **** *\*\fun     Configures the External clock Mode1
2010:n32g430_std_periph_driver/src/n32g430_tim.c **** *\*\param   TIMx:
2011:n32g430_std_periph_driver/src/n32g430_tim.c **** *\*\          - TIM1
2012:n32g430_std_periph_driver/src/n32g430_tim.c **** *\*\          - TIM2
2013:n32g430_std_periph_driver/src/n32g430_tim.c **** *\*\          - TIM3
2014:n32g430_std_periph_driver/src/n32g430_tim.c **** *\*\          - TIM4
2015:n32g430_std_periph_driver/src/n32g430_tim.c **** *\*\          - TIM5
2016:n32g430_std_periph_driver/src/n32g430_tim.c **** *\*\          - TIM8
2017:n32g430_std_periph_driver/src/n32g430_tim.c **** *\*\param   external_trigger_prescaler
2018:n32g430_std_periph_driver/src/n32g430_tim.c **** *\*\          - TIM_EXT_TRG_PSC_OFF ETRP Prescaler OFF.
2019:n32g430_std_periph_driver/src/n32g430_tim.c **** *\*\          - TIM_EXT_TRG_PSC_DIV2 ETRP frequency divided by 2.
2020:n32g430_std_periph_driver/src/n32g430_tim.c **** *\*\          - TIM_EXT_TRG_PSC_DIV4 ETRP frequency divided by 4.
2021:n32g430_std_periph_driver/src/n32g430_tim.c **** *\*\          - TIM_EXT_TRG_PSC_DIV8 ETRP frequency divided by 8.
ARM GAS  C:\Users\Dawn\AppData\Local\Temp\ccf7B1Wd.s 			page 93


2022:n32g430_std_periph_driver/src/n32g430_tim.c ****  * @param external_trigger_polarity The external Trigger Polarity.
2023:n32g430_std_periph_driver/src/n32g430_tim.c **** *\*\          - TIM_EXT_TRIG_POLARITY_INVERTED active low or falling edge active.
2024:n32g430_std_periph_driver/src/n32g430_tim.c **** *\*\          - TIM_EXT_TRIG_POLARITY_NONINVERTED active high or rising edge active.
2025:n32g430_std_periph_driver/src/n32g430_tim.c **** *\*\param   external_trigger_filter 
2026:n32g430_std_periph_driver/src/n32g430_tim.c **** *\*\          - [0x0 0xF]
2027:n32g430_std_periph_driver/src/n32g430_tim.c **** *\*\return  none
2028:n32g430_std_periph_driver/src/n32g430_tim.c **** **/
2029:n32g430_std_periph_driver/src/n32g430_tim.c **** void TIM_External_Clock_Mode2_Set(TIM_Module* TIMx,
2030:n32g430_std_periph_driver/src/n32g430_tim.c ****                                   uint16_t external_trigger_prescaler,
2031:n32g430_std_periph_driver/src/n32g430_tim.c ****                                   uint16_t external_trigger_polarity,
2032:n32g430_std_periph_driver/src/n32g430_tim.c ****                                   uint16_t external_trigger_filter)
2033:n32g430_std_periph_driver/src/n32g430_tim.c **** {
 3310              		.loc 1 2033 1 is_stmt 1 view -0
 3311              		.cfi_startproc
 3312              		@ args = 0, pretend = 0, frame = 0
 3313              		@ frame_needed = 0, uses_anonymous_args = 0
 3314              		.loc 1 2033 1 is_stmt 0 view .LVU842
 3315 0000 70B5     		push	{r4, r5, r6, lr}
 3316              	.LCFI11:
 3317              		.cfi_def_cfa_offset 16
 3318              		.cfi_offset 4, -16
 3319              		.cfi_offset 5, -12
 3320              		.cfi_offset 6, -8
 3321              		.cfi_offset 14, -4
 3322 0002 0446     		mov	r4, r0
 3323 0004 0D46     		mov	r5, r1
 3324 0006 1646     		mov	r6, r2
2034:n32g430_std_periph_driver/src/n32g430_tim.c ****     TIM_External_Trigger_Filter_Set(TIMx, external_trigger_filter);
 3325              		.loc 1 2034 5 is_stmt 1 view .LVU843
 3326 0008 1946     		mov	r1, r3
 3327              	.LVL273:
 3328              		.loc 1 2034 5 is_stmt 0 view .LVU844
 3329 000a FFF7FEFF 		bl	TIM_External_Trigger_Filter_Set
 3330              	.LVL274:
2035:n32g430_std_periph_driver/src/n32g430_tim.c **** 
2036:n32g430_std_periph_driver/src/n32g430_tim.c ****     TIM_External_Trigger_Polarity_Set(TIMx, external_trigger_polarity);
 3331              		.loc 1 2036 5 is_stmt 1 view .LVU845
 3332 000e 3146     		mov	r1, r6
 3333 0010 2046     		mov	r0, r4
 3334 0012 FFF7FEFF 		bl	TIM_External_Trigger_Polarity_Set
 3335              	.LVL275:
2037:n32g430_std_periph_driver/src/n32g430_tim.c **** 
2038:n32g430_std_periph_driver/src/n32g430_tim.c ****     TIM_External_Trigger_Prescaler_Set(TIMx, external_trigger_prescaler);
 3336              		.loc 1 2038 5 view .LVU846
 3337 0016 2946     		mov	r1, r5
 3338 0018 2046     		mov	r0, r4
 3339 001a FFF7FEFF 		bl	TIM_External_Trigger_Prescaler_Set
 3340              	.LVL276:
2039:n32g430_std_periph_driver/src/n32g430_tim.c **** 
2040:n32g430_std_periph_driver/src/n32g430_tim.c ****     TIMx->SMCTRL |= TIM_EXT_CLOCK_MODE2_ENABLE;
 3341              		.loc 1 2040 5 view .LVU847
 3342              		.loc 1 2040 9 is_stmt 0 view .LVU848
 3343 001e 2389     		ldrh	r3, [r4, #8]
 3344 0020 9BB2     		uxth	r3, r3
 3345              		.loc 1 2040 18 view .LVU849
 3346 0022 43F48043 		orr	r3, r3, #16384
 3347 0026 2381     		strh	r3, [r4, #8]	@ movhi
ARM GAS  C:\Users\Dawn\AppData\Local\Temp\ccf7B1Wd.s 			page 94


2041:n32g430_std_periph_driver/src/n32g430_tim.c **** 
2042:n32g430_std_periph_driver/src/n32g430_tim.c **** }
 3348              		.loc 1 2042 1 view .LVU850
 3349 0028 70BD     		pop	{r4, r5, r6, pc}
 3350              		.loc 1 2042 1 view .LVU851
 3351              		.cfi_endproc
 3352              	.LFE207:
 3354              		.section	.text.TIM_Slave_Mode_Select,"ax",%progbits
 3355              		.align	1
 3356              		.global	TIM_Slave_Mode_Select
 3357              		.syntax unified
 3358              		.thumb
 3359              		.thumb_func
 3361              	TIM_Slave_Mode_Select:
 3362              	.LVL277:
 3363              	.LFB208:
2043:n32g430_std_periph_driver/src/n32g430_tim.c **** 
2044:n32g430_std_periph_driver/src/n32g430_tim.c **** /**
2045:n32g430_std_periph_driver/src/n32g430_tim.c **** *\*\name    TIM_Slave_Mode_Select.
2046:n32g430_std_periph_driver/src/n32g430_tim.c **** *\*\param   TIMx:
2047:n32g430_std_periph_driver/src/n32g430_tim.c **** *\*\          - TIM1
2048:n32g430_std_periph_driver/src/n32g430_tim.c **** *\*\          - TIM2
2049:n32g430_std_periph_driver/src/n32g430_tim.c **** *\*\          - TIM3
2050:n32g430_std_periph_driver/src/n32g430_tim.c **** *\*\          - TIM4
2051:n32g430_std_periph_driver/src/n32g430_tim.c **** *\*\          - TIM5
2052:n32g430_std_periph_driver/src/n32g430_tim.c **** *\*\          - TIM8
2053:n32g430_std_periph_driver/src/n32g430_tim.c **** *\*\param   TIM_slave_mode:
2054:n32g430_std_periph_driver/src/n32g430_tim.c **** *\*\          - TIM_SLAVE_MODE_RESET    Rising edge of the selected trigger signal (TRGI) re-initia
2055:n32g430_std_periph_driver/src/n32g430_tim.c **** *\*\                                    the counter and triggers an update of the registers.
2056:n32g430_std_periph_driver/src/n32g430_tim.c **** *\*\          - TIM_SLAVE_MODE_GATED    The counter clock is enabled when the trigger signal (TRGI)
2057:n32g430_std_periph_driver/src/n32g430_tim.c **** *\*\          - TIM_SLAVE_MODE_TRIG     The counter starts at a rising edge of the trigger TRGI.
2058:n32g430_std_periph_driver/src/n32g430_tim.c **** *\*\          - TIM_SLAVE_MODE_EXT1     Rising edges of the selected trigger (TRGI) clock the count
2059:n32g430_std_periph_driver/src/n32g430_tim.c **** *\*\return  none
2060:n32g430_std_periph_driver/src/n32g430_tim.c **** **/
2061:n32g430_std_periph_driver/src/n32g430_tim.c **** void TIM_Slave_Mode_Select(TIM_Module* TIMx, uint16_t TIM_slave_mode)
2062:n32g430_std_periph_driver/src/n32g430_tim.c **** {
 3364              		.loc 1 2062 1 is_stmt 1 view -0
 3365              		.cfi_startproc
 3366              		@ args = 0, pretend = 0, frame = 0
 3367              		@ frame_needed = 0, uses_anonymous_args = 0
 3368              		@ link register save eliminated.
2063:n32g430_std_periph_driver/src/n32g430_tim.c ****     /* Reset the SMS Bits */
2064:n32g430_std_periph_driver/src/n32g430_tim.c ****     TIMx->SMCTRL &= (uint16_t) ~((uint16_t)TIM_SLAVE_MODE_MASK);
 3369              		.loc 1 2064 5 view .LVU853
 3370              		.loc 1 2064 9 is_stmt 0 view .LVU854
 3371 0000 0389     		ldrh	r3, [r0, #8]
 3372 0002 9BB2     		uxth	r3, r3
 3373              		.loc 1 2064 18 view .LVU855
 3374 0004 23F00703 		bic	r3, r3, #7
 3375 0008 9BB2     		uxth	r3, r3
 3376 000a 0381     		strh	r3, [r0, #8]	@ movhi
2065:n32g430_std_periph_driver/src/n32g430_tim.c ****     /* Select the Slave Mode */
2066:n32g430_std_periph_driver/src/n32g430_tim.c ****     TIMx->SMCTRL |= TIM_slave_mode;
 3377              		.loc 1 2066 5 is_stmt 1 view .LVU856
 3378              		.loc 1 2066 9 is_stmt 0 view .LVU857
 3379 000c 0389     		ldrh	r3, [r0, #8]
 3380 000e 9BB2     		uxth	r3, r3
ARM GAS  C:\Users\Dawn\AppData\Local\Temp\ccf7B1Wd.s 			page 95


 3381              		.loc 1 2066 18 view .LVU858
 3382 0010 0B43     		orrs	r3, r3, r1
 3383 0012 0381     		strh	r3, [r0, #8]	@ movhi
2067:n32g430_std_periph_driver/src/n32g430_tim.c **** }
 3384              		.loc 1 2067 1 view .LVU859
 3385 0014 7047     		bx	lr
 3386              		.cfi_endproc
 3387              	.LFE208:
 3389              		.section	.text.TIM_Master_Slave_Mode_Set,"ax",%progbits
 3390              		.align	1
 3391              		.global	TIM_Master_Slave_Mode_Set
 3392              		.syntax unified
 3393              		.thumb
 3394              		.thumb_func
 3396              	TIM_Master_Slave_Mode_Set:
 3397              	.LVL278:
 3398              	.LFB209:
2068:n32g430_std_periph_driver/src/n32g430_tim.c **** 
2069:n32g430_std_periph_driver/src/n32g430_tim.c **** /**
2070:n32g430_std_periph_driver/src/n32g430_tim.c **** *\*\name    TIM_Break_And_Dead_Time_Set.
2071:n32g430_std_periph_driver/src/n32g430_tim.c **** *\*\fun     Initializes the TIM break and dead time register
2072:n32g430_std_periph_driver/src/n32g430_tim.c **** *\*\param   TIMx:
2073:n32g430_std_periph_driver/src/n32g430_tim.c **** *\*\          - TIM1
2074:n32g430_std_periph_driver/src/n32g430_tim.c **** *\*\          - TIM2
2075:n32g430_std_periph_driver/src/n32g430_tim.c **** *\*\          - TIM3
2076:n32g430_std_periph_driver/src/n32g430_tim.c **** *\*\          - TIM4
2077:n32g430_std_periph_driver/src/n32g430_tim.c **** *\*\          - TIM5
2078:n32g430_std_periph_driver/src/n32g430_tim.c **** *\*\          - TIM8
2079:n32g430_std_periph_driver/src/n32g430_tim.c **** *\*\param   TIM_slave_mode:
2080:n32g430_std_periph_driver/src/n32g430_tim.c **** *\*\          - TIM_MASTER_SLAVE_MODE_ENABLE    synchronization between the current timer
2081:n32g430_std_periph_driver/src/n32g430_tim.c **** *\*\                                            and its slaves (through TRGO).
2082:n32g430_std_periph_driver/src/n32g430_tim.c **** *\*\          - TIM_MASTER_SLAVE_MODE_DISABLE   No action
2083:n32g430_std_periph_driver/src/n32g430_tim.c **** *\*\return  none
2084:n32g430_std_periph_driver/src/n32g430_tim.c **** **/
2085:n32g430_std_periph_driver/src/n32g430_tim.c **** void TIM_Master_Slave_Mode_Set(TIM_Module* TIMx, uint16_t TIM_master_slave_mode)
2086:n32g430_std_periph_driver/src/n32g430_tim.c **** {
 3399              		.loc 1 2086 1 is_stmt 1 view -0
 3400              		.cfi_startproc
 3401              		@ args = 0, pretend = 0, frame = 0
 3402              		@ frame_needed = 0, uses_anonymous_args = 0
 3403              		@ link register save eliminated.
2087:n32g430_std_periph_driver/src/n32g430_tim.c ****     /* Reset the MSM Bit */
2088:n32g430_std_periph_driver/src/n32g430_tim.c ****     TIMx->SMCTRL &= (uint16_t) ~((uint16_t)TIM_MASTER_SLAVE_MODE_MASK);
 3404              		.loc 1 2088 5 view .LVU861
 3405              		.loc 1 2088 9 is_stmt 0 view .LVU862
 3406 0000 0389     		ldrh	r3, [r0, #8]
 3407 0002 9BB2     		uxth	r3, r3
 3408              		.loc 1 2088 18 view .LVU863
 3409 0004 23F08003 		bic	r3, r3, #128
 3410 0008 9BB2     		uxth	r3, r3
 3411 000a 0381     		strh	r3, [r0, #8]	@ movhi
2089:n32g430_std_periph_driver/src/n32g430_tim.c **** 
2090:n32g430_std_periph_driver/src/n32g430_tim.c ****     /* Set or Reset the MSM Bit */
2091:n32g430_std_periph_driver/src/n32g430_tim.c ****     TIMx->SMCTRL |= TIM_master_slave_mode;
 3412              		.loc 1 2091 5 is_stmt 1 view .LVU864
 3413              		.loc 1 2091 9 is_stmt 0 view .LVU865
 3414 000c 0389     		ldrh	r3, [r0, #8]
ARM GAS  C:\Users\Dawn\AppData\Local\Temp\ccf7B1Wd.s 			page 96


 3415 000e 9BB2     		uxth	r3, r3
 3416              		.loc 1 2091 18 view .LVU866
 3417 0010 0B43     		orrs	r3, r3, r1
 3418 0012 0381     		strh	r3, [r0, #8]	@ movhi
2092:n32g430_std_periph_driver/src/n32g430_tim.c **** }
 3419              		.loc 1 2092 1 view .LVU867
 3420 0014 7047     		bx	lr
 3421              		.cfi_endproc
 3422              	.LFE209:
 3424              		.section	.text.TIM_Output_Trigger_Select,"ax",%progbits
 3425              		.align	1
 3426              		.global	TIM_Output_Trigger_Select
 3427              		.syntax unified
 3428              		.thumb
 3429              		.thumb_func
 3431              	TIM_Output_Trigger_Select:
 3432              	.LVL279:
 3433              	.LFB210:
2093:n32g430_std_periph_driver/src/n32g430_tim.c **** 
2094:n32g430_std_periph_driver/src/n32g430_tim.c **** 
2095:n32g430_std_periph_driver/src/n32g430_tim.c **** 
2096:n32g430_std_periph_driver/src/n32g430_tim.c **** /**
2097:n32g430_std_periph_driver/src/n32g430_tim.c **** *\*\name    TIM_Output_Trigger_Select.
2098:n32g430_std_periph_driver/src/n32g430_tim.c **** *\*\fun     Initializes the TIM break and dead time register
2099:n32g430_std_periph_driver/src/n32g430_tim.c **** *\*\param   TIMx:
2100:n32g430_std_periph_driver/src/n32g430_tim.c **** *\*\          - TIM1
2101:n32g430_std_periph_driver/src/n32g430_tim.c **** *\*\          - TIM2
2102:n32g430_std_periph_driver/src/n32g430_tim.c **** *\*\          - TIM3
2103:n32g430_std_periph_driver/src/n32g430_tim.c **** *\*\          - TIM4
2104:n32g430_std_periph_driver/src/n32g430_tim.c **** *\*\          - TIM5
2105:n32g430_std_periph_driver/src/n32g430_tim.c **** *\*\          - TIM6
2106:n32g430_std_periph_driver/src/n32g430_tim.c **** *\*\          - TIM8
2107:n32g430_std_periph_driver/src/n32g430_tim.c **** *\*\param   TIM_TRGOSource
2108:n32g430_std_periph_driver/src/n32g430_tim.c **** *\*\          For all TIMx:
2109:n32g430_std_periph_driver/src/n32g430_tim.c **** *\*\          - TIM_TRGO_SRC_RESET           The UG bit in the TIM_EVTGEN register is used as the t
2110:n32g430_std_periph_driver/src/n32g430_tim.c **** *\*\          - TIM_TRGO_SRC_ENABLE          The Counter Enable CEN is used as the trigger output (
2111:n32g430_std_periph_driver/src/n32g430_tim.c **** *\*\          - TIM_TRGO_SRC_UPDATE          The update event is selected as the trigger output (TR
2112:n32g430_std_periph_driver/src/n32g430_tim.c **** *\*\          For all TIMx except TIM6:
2113:n32g430_std_periph_driver/src/n32g430_tim.c **** *\*\          - TIM_TRGO_SRC_OC1             The trigger output sends a positive pulse when the CC1
2114:n32g430_std_periph_driver/src/n32g430_tim.c **** *\*\                                         is to be set, as soon as a capture or compare match oc
2115:n32g430_std_periph_driver/src/n32g430_tim.c **** *\*\          - TIM_TRGO_SRC_OC1REF          OC1REF signal is used as the trigger output (TRGO).
2116:n32g430_std_periph_driver/src/n32g430_tim.c **** *\*\          - TIM_TRGO_SRC_OC2REF          OC2REF signal is used as the trigger output (TRGO).
2117:n32g430_std_periph_driver/src/n32g430_tim.c **** *\*\          - TIM_TRGO_SRC_OC3REF          OC3REF signal is used as the trigger output (TRGO).
2118:n32g430_std_periph_driver/src/n32g430_tim.c **** *\*\          - TIM_TRGO_SRC_OC4REF          OC4REF signal is used as the trigger output (TRGO).
2119:n32g430_std_periph_driver/src/n32g430_tim.c **** *\*\          For TIM1:
2120:n32g430_std_periph_driver/src/n32g430_tim.c **** *\*\          - TIM_TRGO_SRC_OC4_7_8_9REF    OC4REF signal is used as the trigger output (TRGO).
2121:n32g430_std_periph_driver/src/n32g430_tim.c **** *\*\return  none
2122:n32g430_std_periph_driver/src/n32g430_tim.c **** **/
2123:n32g430_std_periph_driver/src/n32g430_tim.c **** void TIM_Output_Trigger_Select(TIM_Module* TIMx, uint16_t TIM_trigger_output_source)
2124:n32g430_std_periph_driver/src/n32g430_tim.c **** {
 3434              		.loc 1 2124 1 is_stmt 1 view -0
 3435              		.cfi_startproc
 3436              		@ args = 0, pretend = 0, frame = 0
 3437              		@ frame_needed = 0, uses_anonymous_args = 0
 3438              		@ link register save eliminated.
2125:n32g430_std_periph_driver/src/n32g430_tim.c ****     /* Reset the MMS Bits */
2126:n32g430_std_periph_driver/src/n32g430_tim.c ****     TIMx->CTRL2 &= (uint32_t) ~((uint32_t)TIM_TRGO_SRC_MASK);
ARM GAS  C:\Users\Dawn\AppData\Local\Temp\ccf7B1Wd.s 			page 97


 3439              		.loc 1 2126 5 view .LVU869
 3440              		.loc 1 2126 9 is_stmt 0 view .LVU870
 3441 0000 4368     		ldr	r3, [r0, #4]
 3442              		.loc 1 2126 17 view .LVU871
 3443 0002 23F08073 		bic	r3, r3, #16777216
 3444 0006 23F07003 		bic	r3, r3, #112
 3445 000a 4360     		str	r3, [r0, #4]
2127:n32g430_std_periph_driver/src/n32g430_tim.c ****     /* Select the TRGO source */
2128:n32g430_std_periph_driver/src/n32g430_tim.c ****     TIMx->CTRL2 |= TIM_trigger_output_source;
 3446              		.loc 1 2128 5 is_stmt 1 view .LVU872
 3447              		.loc 1 2128 9 is_stmt 0 view .LVU873
 3448 000c 4368     		ldr	r3, [r0, #4]
 3449              		.loc 1 2128 17 view .LVU874
 3450 000e 1943     		orrs	r1, r1, r3
 3451              	.LVL280:
 3452              		.loc 1 2128 17 view .LVU875
 3453 0010 4160     		str	r1, [r0, #4]
2129:n32g430_std_periph_driver/src/n32g430_tim.c **** }
 3454              		.loc 1 2129 1 view .LVU876
 3455 0012 7047     		bx	lr
 3456              		.cfi_endproc
 3457              	.LFE210:
 3459              		.section	.text.TIM_OC4REF_Trigger_To_ADC_Enable,"ax",%progbits
 3460              		.align	1
 3461              		.global	TIM_OC4REF_Trigger_To_ADC_Enable
 3462              		.syntax unified
 3463              		.thumb
 3464              		.thumb_func
 3466              	TIM_OC4REF_Trigger_To_ADC_Enable:
 3467              	.LVL281:
 3468              	.LFB211:
2130:n32g430_std_periph_driver/src/n32g430_tim.c **** 
2131:n32g430_std_periph_driver/src/n32g430_tim.c **** 
2132:n32g430_std_periph_driver/src/n32g430_tim.c **** /**
2133:n32g430_std_periph_driver/src/n32g430_tim.c **** *\*\name    TIM_OC4REF_Trigger_To_ADC_Enable
2134:n32g430_std_periph_driver/src/n32g430_tim.c **** *\*\param   TIMx:
2135:n32g430_std_periph_driver/src/n32g430_tim.c **** *\*\          - TIM1
2136:n32g430_std_periph_driver/src/n32g430_tim.c **** *\*\return  none
2137:n32g430_std_periph_driver/src/n32g430_tim.c **** **/
2138:n32g430_std_periph_driver/src/n32g430_tim.c **** void TIM_OC4REF_Trigger_To_ADC_Enable(TIM_Module* TIMx)
2139:n32g430_std_periph_driver/src/n32g430_tim.c **** {
 3469              		.loc 1 2139 1 is_stmt 1 view -0
 3470              		.cfi_startproc
 3471              		@ args = 0, pretend = 0, frame = 0
 3472              		@ frame_needed = 0, uses_anonymous_args = 0
 3473              		@ link register save eliminated.
2140:n32g430_std_periph_driver/src/n32g430_tim.c ****     TIMx->CTRL2 |= TIM_OCREF4_TRIGGER_TO_ADC_ENABLE;
 3474              		.loc 1 2140 5 view .LVU878
 3475              		.loc 1 2140 9 is_stmt 0 view .LVU879
 3476 0000 4368     		ldr	r3, [r0, #4]
 3477              		.loc 1 2140 17 view .LVU880
 3478 0002 43F40043 		orr	r3, r3, #32768
 3479 0006 4360     		str	r3, [r0, #4]
2141:n32g430_std_periph_driver/src/n32g430_tim.c **** }
 3480              		.loc 1 2141 1 view .LVU881
 3481 0008 7047     		bx	lr
 3482              		.cfi_endproc
ARM GAS  C:\Users\Dawn\AppData\Local\Temp\ccf7B1Wd.s 			page 98


 3483              	.LFE211:
 3485              		.section	.text.TIM_OC4REF_Trigger_To_ADC_Disable,"ax",%progbits
 3486              		.align	1
 3487              		.global	TIM_OC4REF_Trigger_To_ADC_Disable
 3488              		.syntax unified
 3489              		.thumb
 3490              		.thumb_func
 3492              	TIM_OC4REF_Trigger_To_ADC_Disable:
 3493              	.LVL282:
 3494              	.LFB212:
2142:n32g430_std_periph_driver/src/n32g430_tim.c **** 
2143:n32g430_std_periph_driver/src/n32g430_tim.c **** /**
2144:n32g430_std_periph_driver/src/n32g430_tim.c **** *\*\name    TIM_OC4REF_Trigger_To_ADC_Disable
2145:n32g430_std_periph_driver/src/n32g430_tim.c **** *\*\param   TIMx:
2146:n32g430_std_periph_driver/src/n32g430_tim.c **** *\*\          - TIM1
2147:n32g430_std_periph_driver/src/n32g430_tim.c **** *\*\return  none
2148:n32g430_std_periph_driver/src/n32g430_tim.c **** **/
2149:n32g430_std_periph_driver/src/n32g430_tim.c **** void TIM_OC4REF_Trigger_To_ADC_Disable(TIM_Module* TIMx)
2150:n32g430_std_periph_driver/src/n32g430_tim.c **** {
 3495              		.loc 1 2150 1 is_stmt 1 view -0
 3496              		.cfi_startproc
 3497              		@ args = 0, pretend = 0, frame = 0
 3498              		@ frame_needed = 0, uses_anonymous_args = 0
 3499              		@ link register save eliminated.
2151:n32g430_std_periph_driver/src/n32g430_tim.c ****     TIMx->CTRL2 &= (uint32_t)(~TIM_OCREF4_TRIGGER_TO_ADC_ENABLE);
 3500              		.loc 1 2151 5 view .LVU883
 3501              		.loc 1 2151 9 is_stmt 0 view .LVU884
 3502 0000 4368     		ldr	r3, [r0, #4]
 3503              		.loc 1 2151 17 view .LVU885
 3504 0002 23F40043 		bic	r3, r3, #32768
 3505 0006 4360     		str	r3, [r0, #4]
2152:n32g430_std_periph_driver/src/n32g430_tim.c **** }
 3506              		.loc 1 2152 1 view .LVU886
 3507 0008 7047     		bx	lr
 3508              		.cfi_endproc
 3509              	.LFE212:
 3511              		.section	.text.TIM_OC7REF_Trigger_To_ADC_Enable,"ax",%progbits
 3512              		.align	1
 3513              		.global	TIM_OC7REF_Trigger_To_ADC_Enable
 3514              		.syntax unified
 3515              		.thumb
 3516              		.thumb_func
 3518              	TIM_OC7REF_Trigger_To_ADC_Enable:
 3519              	.LVL283:
 3520              	.LFB213:
2153:n32g430_std_periph_driver/src/n32g430_tim.c **** 
2154:n32g430_std_periph_driver/src/n32g430_tim.c **** 
2155:n32g430_std_periph_driver/src/n32g430_tim.c **** /**
2156:n32g430_std_periph_driver/src/n32g430_tim.c **** *\*\name    TIM_OC7REF_Trigger_To_ADC_Enable
2157:n32g430_std_periph_driver/src/n32g430_tim.c **** *\*\param   TIMx:
2158:n32g430_std_periph_driver/src/n32g430_tim.c **** *\*\          - TIM1
2159:n32g430_std_periph_driver/src/n32g430_tim.c **** *\*\return  none
2160:n32g430_std_periph_driver/src/n32g430_tim.c **** **/
2161:n32g430_std_periph_driver/src/n32g430_tim.c **** void TIM_OC7REF_Trigger_To_ADC_Enable(TIM_Module* TIMx)
2162:n32g430_std_periph_driver/src/n32g430_tim.c **** {
 3521              		.loc 1 2162 1 is_stmt 1 view -0
 3522              		.cfi_startproc
ARM GAS  C:\Users\Dawn\AppData\Local\Temp\ccf7B1Wd.s 			page 99


 3523              		@ args = 0, pretend = 0, frame = 0
 3524              		@ frame_needed = 0, uses_anonymous_args = 0
 3525              		@ link register save eliminated.
2163:n32g430_std_periph_driver/src/n32g430_tim.c ****     TIMx->CTRL2 |= TIM_OCREF7_TRIGGER_TO_ADC_ENABLE;
 3526              		.loc 1 2163 5 view .LVU888
 3527              		.loc 1 2163 9 is_stmt 0 view .LVU889
 3528 0000 4368     		ldr	r3, [r0, #4]
 3529              		.loc 1 2163 17 view .LVU890
 3530 0002 43F40023 		orr	r3, r3, #524288
 3531 0006 4360     		str	r3, [r0, #4]
2164:n32g430_std_periph_driver/src/n32g430_tim.c **** }
 3532              		.loc 1 2164 1 view .LVU891
 3533 0008 7047     		bx	lr
 3534              		.cfi_endproc
 3535              	.LFE213:
 3537              		.section	.text.TIM_OC7REF_Trigger_To_ADC_Disable,"ax",%progbits
 3538              		.align	1
 3539              		.global	TIM_OC7REF_Trigger_To_ADC_Disable
 3540              		.syntax unified
 3541              		.thumb
 3542              		.thumb_func
 3544              	TIM_OC7REF_Trigger_To_ADC_Disable:
 3545              	.LVL284:
 3546              	.LFB214:
2165:n32g430_std_periph_driver/src/n32g430_tim.c **** 
2166:n32g430_std_periph_driver/src/n32g430_tim.c **** /**
2167:n32g430_std_periph_driver/src/n32g430_tim.c **** *\*\name    TIM_OC7REF_Trigger_To_ADC_Disable
2168:n32g430_std_periph_driver/src/n32g430_tim.c **** *\*\param   TIMx:
2169:n32g430_std_periph_driver/src/n32g430_tim.c **** *\*\          - TIM1
2170:n32g430_std_periph_driver/src/n32g430_tim.c **** *\*\return  none
2171:n32g430_std_periph_driver/src/n32g430_tim.c **** **/
2172:n32g430_std_periph_driver/src/n32g430_tim.c **** void TIM_OC7REF_Trigger_To_ADC_Disable(TIM_Module* TIMx)
2173:n32g430_std_periph_driver/src/n32g430_tim.c **** {
 3547              		.loc 1 2173 1 is_stmt 1 view -0
 3548              		.cfi_startproc
 3549              		@ args = 0, pretend = 0, frame = 0
 3550              		@ frame_needed = 0, uses_anonymous_args = 0
 3551              		@ link register save eliminated.
2174:n32g430_std_periph_driver/src/n32g430_tim.c ****     TIMx->CTRL2 &= (uint32_t)(~TIM_OCREF7_TRIGGER_TO_ADC_ENABLE);
 3552              		.loc 1 2174 5 view .LVU893
 3553              		.loc 1 2174 9 is_stmt 0 view .LVU894
 3554 0000 4368     		ldr	r3, [r0, #4]
 3555              		.loc 1 2174 17 view .LVU895
 3556 0002 23F40023 		bic	r3, r3, #524288
 3557 0006 4360     		str	r3, [r0, #4]
2175:n32g430_std_periph_driver/src/n32g430_tim.c **** }
 3558              		.loc 1 2175 1 view .LVU896
 3559 0008 7047     		bx	lr
 3560              		.cfi_endproc
 3561              	.LFE214:
 3563              		.section	.text.TIM_OC8REF_Trigger_To_ADC_Enable,"ax",%progbits
 3564              		.align	1
 3565              		.global	TIM_OC8REF_Trigger_To_ADC_Enable
 3566              		.syntax unified
 3567              		.thumb
 3568              		.thumb_func
 3570              	TIM_OC8REF_Trigger_To_ADC_Enable:
ARM GAS  C:\Users\Dawn\AppData\Local\Temp\ccf7B1Wd.s 			page 100


 3571              	.LVL285:
 3572              	.LFB215:
2176:n32g430_std_periph_driver/src/n32g430_tim.c **** 
2177:n32g430_std_periph_driver/src/n32g430_tim.c **** 
2178:n32g430_std_periph_driver/src/n32g430_tim.c **** /**
2179:n32g430_std_periph_driver/src/n32g430_tim.c **** *\*\name    TIM_OC8REF_Trigger_To_ADC_Enable
2180:n32g430_std_periph_driver/src/n32g430_tim.c **** *\*\param   TIMx:
2181:n32g430_std_periph_driver/src/n32g430_tim.c **** *\*\          - TIM1
2182:n32g430_std_periph_driver/src/n32g430_tim.c **** *\*\return  none
2183:n32g430_std_periph_driver/src/n32g430_tim.c **** **/
2184:n32g430_std_periph_driver/src/n32g430_tim.c **** void TIM_OC8REF_Trigger_To_ADC_Enable(TIM_Module* TIMx)
2185:n32g430_std_periph_driver/src/n32g430_tim.c **** {
 3573              		.loc 1 2185 1 is_stmt 1 view -0
 3574              		.cfi_startproc
 3575              		@ args = 0, pretend = 0, frame = 0
 3576              		@ frame_needed = 0, uses_anonymous_args = 0
 3577              		@ link register save eliminated.
2186:n32g430_std_periph_driver/src/n32g430_tim.c ****     TIMx->CTRL2 |= TIM_OCREF8_TRIGGER_TO_ADC_ENABLE;
 3578              		.loc 1 2186 5 view .LVU898
 3579              		.loc 1 2186 9 is_stmt 0 view .LVU899
 3580 0000 4368     		ldr	r3, [r0, #4]
 3581              		.loc 1 2186 17 view .LVU900
 3582 0002 43F40013 		orr	r3, r3, #2097152
 3583 0006 4360     		str	r3, [r0, #4]
2187:n32g430_std_periph_driver/src/n32g430_tim.c **** }
 3584              		.loc 1 2187 1 view .LVU901
 3585 0008 7047     		bx	lr
 3586              		.cfi_endproc
 3587              	.LFE215:
 3589              		.section	.text.TIM_OC8REF_Trigger_To_ADC_Disable,"ax",%progbits
 3590              		.align	1
 3591              		.global	TIM_OC8REF_Trigger_To_ADC_Disable
 3592              		.syntax unified
 3593              		.thumb
 3594              		.thumb_func
 3596              	TIM_OC8REF_Trigger_To_ADC_Disable:
 3597              	.LVL286:
 3598              	.LFB216:
2188:n32g430_std_periph_driver/src/n32g430_tim.c **** 
2189:n32g430_std_periph_driver/src/n32g430_tim.c **** /**
2190:n32g430_std_periph_driver/src/n32g430_tim.c **** *\*\name    TIM_OC8REF_Trigger_To_ADC_Disable
2191:n32g430_std_periph_driver/src/n32g430_tim.c **** *\*\param   TIMx:
2192:n32g430_std_periph_driver/src/n32g430_tim.c **** *\*\          - TIM1
2193:n32g430_std_periph_driver/src/n32g430_tim.c **** *\*\return  none
2194:n32g430_std_periph_driver/src/n32g430_tim.c **** **/
2195:n32g430_std_periph_driver/src/n32g430_tim.c **** void TIM_OC8REF_Trigger_To_ADC_Disable(TIM_Module* TIMx)
2196:n32g430_std_periph_driver/src/n32g430_tim.c **** {
 3599              		.loc 1 2196 1 is_stmt 1 view -0
 3600              		.cfi_startproc
 3601              		@ args = 0, pretend = 0, frame = 0
 3602              		@ frame_needed = 0, uses_anonymous_args = 0
 3603              		@ link register save eliminated.
2197:n32g430_std_periph_driver/src/n32g430_tim.c ****     TIMx->CTRL2 &= (uint32_t)(~TIM_OCREF8_TRIGGER_TO_ADC_ENABLE);
 3604              		.loc 1 2197 5 view .LVU903
 3605              		.loc 1 2197 9 is_stmt 0 view .LVU904
 3606 0000 4368     		ldr	r3, [r0, #4]
 3607              		.loc 1 2197 17 view .LVU905
ARM GAS  C:\Users\Dawn\AppData\Local\Temp\ccf7B1Wd.s 			page 101


 3608 0002 23F40013 		bic	r3, r3, #2097152
 3609 0006 4360     		str	r3, [r0, #4]
2198:n32g430_std_periph_driver/src/n32g430_tim.c **** }
 3610              		.loc 1 2198 1 view .LVU906
 3611 0008 7047     		bx	lr
 3612              		.cfi_endproc
 3613              	.LFE216:
 3615              		.section	.text.TIM_OC9REF_Trigger_To_ADC_Enable,"ax",%progbits
 3616              		.align	1
 3617              		.global	TIM_OC9REF_Trigger_To_ADC_Enable
 3618              		.syntax unified
 3619              		.thumb
 3620              		.thumb_func
 3622              	TIM_OC9REF_Trigger_To_ADC_Enable:
 3623              	.LVL287:
 3624              	.LFB217:
2199:n32g430_std_periph_driver/src/n32g430_tim.c **** 
2200:n32g430_std_periph_driver/src/n32g430_tim.c **** 
2201:n32g430_std_periph_driver/src/n32g430_tim.c **** /**
2202:n32g430_std_periph_driver/src/n32g430_tim.c **** *\*\name    TIM_OC9REF_Trigger_To_ADC_Enable
2203:n32g430_std_periph_driver/src/n32g430_tim.c **** *\*\param   TIMx:
2204:n32g430_std_periph_driver/src/n32g430_tim.c **** *\*\          - TIM1
2205:n32g430_std_periph_driver/src/n32g430_tim.c **** *\*\return  none
2206:n32g430_std_periph_driver/src/n32g430_tim.c **** **/
2207:n32g430_std_periph_driver/src/n32g430_tim.c **** void TIM_OC9REF_Trigger_To_ADC_Enable(TIM_Module* TIMx)
2208:n32g430_std_periph_driver/src/n32g430_tim.c **** {
 3625              		.loc 1 2208 1 is_stmt 1 view -0
 3626              		.cfi_startproc
 3627              		@ args = 0, pretend = 0, frame = 0
 3628              		@ frame_needed = 0, uses_anonymous_args = 0
 3629              		@ link register save eliminated.
2209:n32g430_std_periph_driver/src/n32g430_tim.c ****     TIMx->CTRL2 |= TIM_OCREF9_TRIGGER_TO_ADC_ENABLE;
 3630              		.loc 1 2209 5 view .LVU908
 3631              		.loc 1 2209 9 is_stmt 0 view .LVU909
 3632 0000 4368     		ldr	r3, [r0, #4]
 3633              		.loc 1 2209 17 view .LVU910
 3634 0002 43F40003 		orr	r3, r3, #8388608
 3635 0006 4360     		str	r3, [r0, #4]
2210:n32g430_std_periph_driver/src/n32g430_tim.c **** }
 3636              		.loc 1 2210 1 view .LVU911
 3637 0008 7047     		bx	lr
 3638              		.cfi_endproc
 3639              	.LFE217:
 3641              		.section	.text.TIM_OC9REF_Trigger_To_ADC_Disable,"ax",%progbits
 3642              		.align	1
 3643              		.global	TIM_OC9REF_Trigger_To_ADC_Disable
 3644              		.syntax unified
 3645              		.thumb
 3646              		.thumb_func
 3648              	TIM_OC9REF_Trigger_To_ADC_Disable:
 3649              	.LVL288:
 3650              	.LFB218:
2211:n32g430_std_periph_driver/src/n32g430_tim.c **** 
2212:n32g430_std_periph_driver/src/n32g430_tim.c **** /**
2213:n32g430_std_periph_driver/src/n32g430_tim.c **** *\*\name    TIM_OC9REF_Trigger_To_ADC_Disable
2214:n32g430_std_periph_driver/src/n32g430_tim.c **** *\*\param   TIMx:
2215:n32g430_std_periph_driver/src/n32g430_tim.c **** *\*\          - TIM1
ARM GAS  C:\Users\Dawn\AppData\Local\Temp\ccf7B1Wd.s 			page 102


2216:n32g430_std_periph_driver/src/n32g430_tim.c **** *\*\return  none
2217:n32g430_std_periph_driver/src/n32g430_tim.c **** **/
2218:n32g430_std_periph_driver/src/n32g430_tim.c **** void TIM_OC9REF_Trigger_To_ADC_Disable(TIM_Module* TIMx)
2219:n32g430_std_periph_driver/src/n32g430_tim.c **** {
 3651              		.loc 1 2219 1 is_stmt 1 view -0
 3652              		.cfi_startproc
 3653              		@ args = 0, pretend = 0, frame = 0
 3654              		@ frame_needed = 0, uses_anonymous_args = 0
 3655              		@ link register save eliminated.
2220:n32g430_std_periph_driver/src/n32g430_tim.c ****     TIMx->CTRL2 &= (uint32_t)(~TIM_OCREF9_TRIGGER_TO_ADC_ENABLE);
 3656              		.loc 1 2220 5 view .LVU913
 3657              		.loc 1 2220 9 is_stmt 0 view .LVU914
 3658 0000 4368     		ldr	r3, [r0, #4]
 3659              		.loc 1 2220 17 view .LVU915
 3660 0002 23F40003 		bic	r3, r3, #8388608
 3661 0006 4360     		str	r3, [r0, #4]
2221:n32g430_std_periph_driver/src/n32g430_tim.c **** }
 3662              		.loc 1 2221 1 view .LVU916
 3663 0008 7047     		bx	lr
 3664              		.cfi_endproc
 3665              	.LFE218:
 3667              		.section	.text.TIM_One_Pulse_Mode_Select,"ax",%progbits
 3668              		.align	1
 3669              		.global	TIM_One_Pulse_Mode_Select
 3670              		.syntax unified
 3671              		.thumb
 3672              		.thumb_func
 3674              	TIM_One_Pulse_Mode_Select:
 3675              	.LVL289:
 3676              	.LFB219:
2222:n32g430_std_periph_driver/src/n32g430_tim.c **** 
2223:n32g430_std_periph_driver/src/n32g430_tim.c **** 
2224:n32g430_std_periph_driver/src/n32g430_tim.c **** 
2225:n32g430_std_periph_driver/src/n32g430_tim.c **** /**
2226:n32g430_std_periph_driver/src/n32g430_tim.c **** *\*\name    TIM_One_Pulse_Mode_Select.
2227:n32g430_std_periph_driver/src/n32g430_tim.c **** *\*\param   TIMx:
2228:n32g430_std_periph_driver/src/n32g430_tim.c **** *\*\          - TIM1
2229:n32g430_std_periph_driver/src/n32g430_tim.c **** *\*\          - TIM2
2230:n32g430_std_periph_driver/src/n32g430_tim.c **** *\*\          - TIM3
2231:n32g430_std_periph_driver/src/n32g430_tim.c **** *\*\          - TIM4
2232:n32g430_std_periph_driver/src/n32g430_tim.c **** *\*\          - TIM5
2233:n32g430_std_periph_driver/src/n32g430_tim.c **** *\*\          - TIM8
2234:n32g430_std_periph_driver/src/n32g430_tim.c **** *\*\param   TIM_slave_mode:
2235:n32g430_std_periph_driver/src/n32g430_tim.c **** *\*\          - TIM_OPMODE_SINGLE
2236:n32g430_std_periph_driver/src/n32g430_tim.c **** *\*\          - TIM_OPMODE_REPET
2237:n32g430_std_periph_driver/src/n32g430_tim.c **** *\*\return  none
2238:n32g430_std_periph_driver/src/n32g430_tim.c **** **/
2239:n32g430_std_periph_driver/src/n32g430_tim.c **** void TIM_One_Pulse_Mode_Select(TIM_Module* TIMx, uint16_t TIM_one_pulse_mode)
2240:n32g430_std_periph_driver/src/n32g430_tim.c **** {
 3677              		.loc 1 2240 1 is_stmt 1 view -0
 3678              		.cfi_startproc
 3679              		@ args = 0, pretend = 0, frame = 0
 3680              		@ frame_needed = 0, uses_anonymous_args = 0
 3681              		@ link register save eliminated.
2241:n32g430_std_periph_driver/src/n32g430_tim.c ****     /* Reset the OPM Bit */
2242:n32g430_std_periph_driver/src/n32g430_tim.c ****     TIMx->CTRL1 &= (uint32_t) ~((uint32_t)TIM_OPMODE_MASK);
 3682              		.loc 1 2242 5 view .LVU918
ARM GAS  C:\Users\Dawn\AppData\Local\Temp\ccf7B1Wd.s 			page 103


 3683              		.loc 1 2242 9 is_stmt 0 view .LVU919
 3684 0000 0368     		ldr	r3, [r0]
 3685              		.loc 1 2242 17 view .LVU920
 3686 0002 23F00803 		bic	r3, r3, #8
 3687 0006 0360     		str	r3, [r0]
2243:n32g430_std_periph_driver/src/n32g430_tim.c ****     /* Configure the OPM Mode */
2244:n32g430_std_periph_driver/src/n32g430_tim.c ****     TIMx->CTRL1 |= TIM_one_pulse_mode;    
 3688              		.loc 1 2244 5 is_stmt 1 view .LVU921
 3689              		.loc 1 2244 9 is_stmt 0 view .LVU922
 3690 0008 0368     		ldr	r3, [r0]
 3691              		.loc 1 2244 17 view .LVU923
 3692 000a 1943     		orrs	r1, r1, r3
 3693              	.LVL290:
 3694              		.loc 1 2244 17 view .LVU924
 3695 000c 0160     		str	r1, [r0]
2245:n32g430_std_periph_driver/src/n32g430_tim.c **** }
 3696              		.loc 1 2245 1 view .LVU925
 3697 000e 7047     		bx	lr
 3698              		.cfi_endproc
 3699              	.LFE219:
 3701              		.section	.text.TIM_Input_Struct_Initialize,"ax",%progbits
 3702              		.align	1
 3703              		.global	TIM_Input_Struct_Initialize
 3704              		.syntax unified
 3705              		.thumb
 3706              		.thumb_func
 3708              	TIM_Input_Struct_Initialize:
 3709              	.LVL291:
 3710              	.LFB220:
2246:n32g430_std_periph_driver/src/n32g430_tim.c **** 
2247:n32g430_std_periph_driver/src/n32g430_tim.c **** /**
2248:n32g430_std_periph_driver/src/n32g430_tim.c **** *\*name TIM_Input_Struct_Initialize
2249:n32g430_std_periph_driver/src/n32g430_tim.c **** *\*\fun     Initialize the TIM_ICInitStruct
2250:n32g430_std_periph_driver/src/n32g430_tim.c **** *\*\param   TIMx:
2251:n32g430_std_periph_driver/src/n32g430_tim.c **** *\*\          - TIM1
2252:n32g430_std_periph_driver/src/n32g430_tim.c **** *\*\          - TIM2
2253:n32g430_std_periph_driver/src/n32g430_tim.c **** *\*\          - TIM3
2254:n32g430_std_periph_driver/src/n32g430_tim.c **** *\*\          - TIM4
2255:n32g430_std_periph_driver/src/n32g430_tim.c **** *\*\          - TIM5
2256:n32g430_std_periph_driver/src/n32g430_tim.c **** *\*\          - TIM8
2257:n32g430_std_periph_driver/src/n32g430_tim.c **** *\*\param   TIM_ICInitStruct 
2258:n32g430_std_periph_driver/src/n32g430_tim.c **** *\*\          - refer to the definition of TIM_ICInitType
2259:n32g430_std_periph_driver/src/n32g430_tim.c **** *\*\return  none
2260:n32g430_std_periph_driver/src/n32g430_tim.c **** **/
2261:n32g430_std_periph_driver/src/n32g430_tim.c **** void TIM_Input_Struct_Initialize(TIM_ICInitType* TIM_ICInitStruct)
2262:n32g430_std_periph_driver/src/n32g430_tim.c **** {
 3711              		.loc 1 2262 1 is_stmt 1 view -0
 3712              		.cfi_startproc
 3713              		@ args = 0, pretend = 0, frame = 0
 3714              		@ frame_needed = 0, uses_anonymous_args = 0
 3715              		@ link register save eliminated.
2263:n32g430_std_periph_driver/src/n32g430_tim.c ****     /* Set the default configuration */
2264:n32g430_std_periph_driver/src/n32g430_tim.c ****     TIM_ICInitStruct->IcPolarity  = TIM_IC_POLARITY_RISING;
 3716              		.loc 1 2264 5 view .LVU927
 3717              		.loc 1 2264 35 is_stmt 0 view .LVU928
 3718 0000 0023     		movs	r3, #0
 3719 0002 4380     		strh	r3, [r0, #2]	@ movhi
ARM GAS  C:\Users\Dawn\AppData\Local\Temp\ccf7B1Wd.s 			page 104


2265:n32g430_std_periph_driver/src/n32g430_tim.c ****     TIM_ICInitStruct->IcSelection = TIM_IC_SELECTION_DIRECTTI;
 3720              		.loc 1 2265 5 is_stmt 1 view .LVU929
 3721              		.loc 1 2265 35 is_stmt 0 view .LVU930
 3722 0004 0122     		movs	r2, #1
 3723 0006 8280     		strh	r2, [r0, #4]	@ movhi
2266:n32g430_std_periph_driver/src/n32g430_tim.c ****     TIM_ICInitStruct->IcPrescaler = TIM_IC_PSC_DIV1;
 3724              		.loc 1 2266 5 is_stmt 1 view .LVU931
 3725              		.loc 1 2266 35 is_stmt 0 view .LVU932
 3726 0008 C380     		strh	r3, [r0, #6]	@ movhi
2267:n32g430_std_periph_driver/src/n32g430_tim.c ****     TIM_ICInitStruct->IcFilter    = 0x00;    
 3727              		.loc 1 2267 5 is_stmt 1 view .LVU933
 3728              		.loc 1 2267 35 is_stmt 0 view .LVU934
 3729 000a 0381     		strh	r3, [r0, #8]	@ movhi
2268:n32g430_std_periph_driver/src/n32g430_tim.c **** }
 3730              		.loc 1 2268 1 view .LVU935
 3731 000c 7047     		bx	lr
 3732              		.cfi_endproc
 3733              	.LFE220:
 3735              		.section	.text.TIM_Input_Channel_Initialize,"ax",%progbits
 3736              		.align	1
 3737              		.global	TIM_Input_Channel_Initialize
 3738              		.syntax unified
 3739              		.thumb
 3740              		.thumb_func
 3742              	TIM_Input_Channel_Initialize:
 3743              	.LVL292:
 3744              	.LFB221:
2269:n32g430_std_periph_driver/src/n32g430_tim.c **** 
2270:n32g430_std_periph_driver/src/n32g430_tim.c **** /**
2271:n32g430_std_periph_driver/src/n32g430_tim.c **** *\*\name    TIM_Input_Channel_Initialize
2272:n32g430_std_periph_driver/src/n32g430_tim.c **** *\*\param   TIMx:
2273:n32g430_std_periph_driver/src/n32g430_tim.c **** *\*\          - TIM1
2274:n32g430_std_periph_driver/src/n32g430_tim.c **** *\*\          - TIM2
2275:n32g430_std_periph_driver/src/n32g430_tim.c **** *\*\          - TIM3
2276:n32g430_std_periph_driver/src/n32g430_tim.c **** *\*\          - TIM4
2277:n32g430_std_periph_driver/src/n32g430_tim.c **** *\*\          - TIM5
2278:n32g430_std_periph_driver/src/n32g430_tim.c **** *\*\          - TIM8
2279:n32g430_std_periph_driver/src/n32g430_tim.c **** *\*\param   TIM_ICInitStruct 
2280:n32g430_std_periph_driver/src/n32g430_tim.c **** *\*           - refer to the definition of TIM_ICInitType
2281:n32g430_std_periph_driver/src/n32g430_tim.c **** *\*\return  none
2282:n32g430_std_periph_driver/src/n32g430_tim.c **** **/
2283:n32g430_std_periph_driver/src/n32g430_tim.c **** void TIM_Input_Channel_Initialize(TIM_Module* TIMx, TIM_ICInitType* TIM_ICInitStruct)
2284:n32g430_std_periph_driver/src/n32g430_tim.c **** {
 3745              		.loc 1 2284 1 is_stmt 1 view -0
 3746              		.cfi_startproc
 3747              		@ args = 0, pretend = 0, frame = 0
 3748              		@ frame_needed = 0, uses_anonymous_args = 0
 3749              		.loc 1 2284 1 is_stmt 0 view .LVU937
 3750 0000 38B5     		push	{r3, r4, r5, lr}
 3751              	.LCFI12:
 3752              		.cfi_def_cfa_offset 16
 3753              		.cfi_offset 3, -16
 3754              		.cfi_offset 4, -12
 3755              		.cfi_offset 5, -8
 3756              		.cfi_offset 14, -4
 3757 0002 0546     		mov	r5, r0
 3758 0004 0C46     		mov	r4, r1
ARM GAS  C:\Users\Dawn\AppData\Local\Temp\ccf7B1Wd.s 			page 105


2285:n32g430_std_periph_driver/src/n32g430_tim.c ****     if (TIM_ICInitStruct->Channel == TIM_CH_1)
 3759              		.loc 1 2285 5 is_stmt 1 view .LVU938
 3760              		.loc 1 2285 25 is_stmt 0 view .LVU939
 3761 0006 0B88     		ldrh	r3, [r1]
 3762              		.loc 1 2285 8 view .LVU940
 3763 0008 6BB1     		cbz	r3, .L188
2286:n32g430_std_periph_driver/src/n32g430_tim.c ****     {
2287:n32g430_std_periph_driver/src/n32g430_tim.c ****         /* TI1 Configuration */
2288:n32g430_std_periph_driver/src/n32g430_tim.c ****         Input_Channel1_Config(TIMx, TIM_ICInitStruct->IcPolarity, TIM_ICInitStruct->IcSelection, TI
2289:n32g430_std_periph_driver/src/n32g430_tim.c ****         /* Set the Input Capture Prescaler value */
2290:n32g430_std_periph_driver/src/n32g430_tim.c ****         TIM_Input_Capture1_Prescaler_Set(TIMx, TIM_ICInitStruct->IcPrescaler);
2291:n32g430_std_periph_driver/src/n32g430_tim.c ****     }
2292:n32g430_std_periph_driver/src/n32g430_tim.c ****     else if (TIM_ICInitStruct->Channel == TIM_CH_2)
 3764              		.loc 1 2292 10 is_stmt 1 view .LVU941
 3765              		.loc 1 2292 13 is_stmt 0 view .LVU942
 3766 000a 042B     		cmp	r3, #4
 3767 000c 15D0     		beq	.L189
2293:n32g430_std_periph_driver/src/n32g430_tim.c ****     {
2294:n32g430_std_periph_driver/src/n32g430_tim.c ****         /* TI2 Configuration */
2295:n32g430_std_periph_driver/src/n32g430_tim.c ****         Input_Channel2_Config(TIMx, TIM_ICInitStruct->IcPolarity, TIM_ICInitStruct->IcSelection, TI
2296:n32g430_std_periph_driver/src/n32g430_tim.c ****         /* Set the Input Capture Prescaler value */
2297:n32g430_std_periph_driver/src/n32g430_tim.c ****         TIM_Input_Capture2_Prescaler_Set(TIMx, TIM_ICInitStruct->IcPrescaler);
2298:n32g430_std_periph_driver/src/n32g430_tim.c ****     }
2299:n32g430_std_periph_driver/src/n32g430_tim.c ****     else if (TIM_ICInitStruct->Channel == TIM_CH_3)
 3768              		.loc 1 2299 10 is_stmt 1 view .LVU943
 3769              		.loc 1 2299 13 is_stmt 0 view .LVU944
 3770 000e 082B     		cmp	r3, #8
 3771 0010 1DD0     		beq	.L190
2300:n32g430_std_periph_driver/src/n32g430_tim.c ****     {
2301:n32g430_std_periph_driver/src/n32g430_tim.c ****         /* TI3 Configuration */
2302:n32g430_std_periph_driver/src/n32g430_tim.c ****         Input_Channel3_Config(TIMx, TIM_ICInitStruct->IcPolarity, TIM_ICInitStruct->IcSelection, TI
2303:n32g430_std_periph_driver/src/n32g430_tim.c ****         /* Set the Input Capture Prescaler value */
2304:n32g430_std_periph_driver/src/n32g430_tim.c ****         TIM_Input_Capture3_Prescaler_Set(TIMx, TIM_ICInitStruct->IcPrescaler);
2305:n32g430_std_periph_driver/src/n32g430_tim.c ****     }
2306:n32g430_std_periph_driver/src/n32g430_tim.c ****     else
2307:n32g430_std_periph_driver/src/n32g430_tim.c ****     {
2308:n32g430_std_periph_driver/src/n32g430_tim.c ****         /* TI4 Configuration */
2309:n32g430_std_periph_driver/src/n32g430_tim.c ****         Input_Channel4_Config(TIMx, TIM_ICInitStruct->IcPolarity, TIM_ICInitStruct->IcSelection, TI
 3772              		.loc 1 2309 9 is_stmt 1 view .LVU945
 3773 0012 0B89     		ldrh	r3, [r1, #8]
 3774 0014 8A88     		ldrh	r2, [r1, #4]
 3775 0016 4988     		ldrh	r1, [r1, #2]
 3776              	.LVL293:
 3777              		.loc 1 2309 9 is_stmt 0 view .LVU946
 3778 0018 FFF7FEFF 		bl	Input_Channel4_Config
 3779              	.LVL294:
2310:n32g430_std_periph_driver/src/n32g430_tim.c ****         /* Set the Input Capture Prescaler value */
2311:n32g430_std_periph_driver/src/n32g430_tim.c ****         TIM_Input_Capture4_Prescaler_Set(TIMx, TIM_ICInitStruct->IcPrescaler);
 3780              		.loc 1 2311 9 is_stmt 1 view .LVU947
 3781 001c E188     		ldrh	r1, [r4, #6]
 3782 001e 2846     		mov	r0, r5
 3783 0020 FFF7FEFF 		bl	TIM_Input_Capture4_Prescaler_Set
 3784              	.LVL295:
 3785              	.L182:
2312:n32g430_std_periph_driver/src/n32g430_tim.c ****     }
2313:n32g430_std_periph_driver/src/n32g430_tim.c **** }
 3786              		.loc 1 2313 1 is_stmt 0 view .LVU948
ARM GAS  C:\Users\Dawn\AppData\Local\Temp\ccf7B1Wd.s 			page 106


 3787 0024 38BD     		pop	{r3, r4, r5, pc}
 3788              	.LVL296:
 3789              	.L188:
2288:n32g430_std_periph_driver/src/n32g430_tim.c ****         /* Set the Input Capture Prescaler value */
 3790              		.loc 1 2288 9 is_stmt 1 view .LVU949
 3791 0026 0B89     		ldrh	r3, [r1, #8]
 3792 0028 8A88     		ldrh	r2, [r1, #4]
 3793 002a 4988     		ldrh	r1, [r1, #2]
 3794              	.LVL297:
2288:n32g430_std_periph_driver/src/n32g430_tim.c ****         /* Set the Input Capture Prescaler value */
 3795              		.loc 1 2288 9 is_stmt 0 view .LVU950
 3796 002c FFF7FEFF 		bl	Input_Channel1_Config
 3797              	.LVL298:
2290:n32g430_std_periph_driver/src/n32g430_tim.c ****     }
 3798              		.loc 1 2290 9 is_stmt 1 view .LVU951
 3799 0030 E188     		ldrh	r1, [r4, #6]
 3800 0032 2846     		mov	r0, r5
 3801 0034 FFF7FEFF 		bl	TIM_Input_Capture1_Prescaler_Set
 3802              	.LVL299:
 3803 0038 F4E7     		b	.L182
 3804              	.LVL300:
 3805              	.L189:
2295:n32g430_std_periph_driver/src/n32g430_tim.c ****         /* Set the Input Capture Prescaler value */
 3806              		.loc 1 2295 9 view .LVU952
 3807 003a 0B89     		ldrh	r3, [r1, #8]
 3808 003c 8A88     		ldrh	r2, [r1, #4]
 3809 003e 4988     		ldrh	r1, [r1, #2]
 3810              	.LVL301:
2295:n32g430_std_periph_driver/src/n32g430_tim.c ****         /* Set the Input Capture Prescaler value */
 3811              		.loc 1 2295 9 is_stmt 0 view .LVU953
 3812 0040 FFF7FEFF 		bl	Input_Channel2_Config
 3813              	.LVL302:
2297:n32g430_std_periph_driver/src/n32g430_tim.c ****     }
 3814              		.loc 1 2297 9 is_stmt 1 view .LVU954
 3815 0044 E188     		ldrh	r1, [r4, #6]
 3816 0046 2846     		mov	r0, r5
 3817 0048 FFF7FEFF 		bl	TIM_Input_Capture2_Prescaler_Set
 3818              	.LVL303:
 3819 004c EAE7     		b	.L182
 3820              	.LVL304:
 3821              	.L190:
2302:n32g430_std_periph_driver/src/n32g430_tim.c ****         /* Set the Input Capture Prescaler value */
 3822              		.loc 1 2302 9 view .LVU955
 3823 004e 0B89     		ldrh	r3, [r1, #8]
 3824 0050 8A88     		ldrh	r2, [r1, #4]
 3825 0052 4988     		ldrh	r1, [r1, #2]
 3826              	.LVL305:
2302:n32g430_std_periph_driver/src/n32g430_tim.c ****         /* Set the Input Capture Prescaler value */
 3827              		.loc 1 2302 9 is_stmt 0 view .LVU956
 3828 0054 FFF7FEFF 		bl	Input_Channel3_Config
 3829              	.LVL306:
2304:n32g430_std_periph_driver/src/n32g430_tim.c ****     }
 3830              		.loc 1 2304 9 is_stmt 1 view .LVU957
 3831 0058 E188     		ldrh	r1, [r4, #6]
 3832 005a 2846     		mov	r0, r5
 3833 005c FFF7FEFF 		bl	TIM_Input_Capture3_Prescaler_Set
 3834              	.LVL307:
ARM GAS  C:\Users\Dawn\AppData\Local\Temp\ccf7B1Wd.s 			page 107


 3835 0060 E0E7     		b	.L182
 3836              		.cfi_endproc
 3837              	.LFE221:
 3839              		.section	.text.TIM_PWM_Input_Channel_Config,"ax",%progbits
 3840              		.align	1
 3841              		.global	TIM_PWM_Input_Channel_Config
 3842              		.syntax unified
 3843              		.thumb
 3844              		.thumb_func
 3846              	TIM_PWM_Input_Channel_Config:
 3847              	.LVL308:
 3848              	.LFB222:
2314:n32g430_std_periph_driver/src/n32g430_tim.c **** 
2315:n32g430_std_periph_driver/src/n32g430_tim.c **** 
2316:n32g430_std_periph_driver/src/n32g430_tim.c **** /**
2317:n32g430_std_periph_driver/src/n32g430_tim.c **** *\*\name    TIM_PWM_Input_Channel_Operation
2318:n32g430_std_periph_driver/src/n32g430_tim.c **** *\*\fun     Configures the TIM peripheral according to the specified
2319:n32g430_std_periph_driver/src/n32g430_tim.c ****  *          parameters in the TIM_ICInitStruct to measure an external PWM signal.
2320:n32g430_std_periph_driver/src/n32g430_tim.c **** *\*\param   TIMx:
2321:n32g430_std_periph_driver/src/n32g430_tim.c **** *\*\          - TIM1
2322:n32g430_std_periph_driver/src/n32g430_tim.c **** *\*\          - TIM2
2323:n32g430_std_periph_driver/src/n32g430_tim.c **** *\*\          - TIM3
2324:n32g430_std_periph_driver/src/n32g430_tim.c **** *\*\          - TIM4
2325:n32g430_std_periph_driver/src/n32g430_tim.c **** *\*\          - TIM5
2326:n32g430_std_periph_driver/src/n32g430_tim.c **** *\*\          - TIM8
2327:n32g430_std_periph_driver/src/n32g430_tim.c **** *\*\param   TIM_ICInitStruct 
2328:n32g430_std_periph_driver/src/n32g430_tim.c **** *\*           - refer to the definition of TIM_ICInitType
2329:n32g430_std_periph_driver/src/n32g430_tim.c **** *\*\return  none
2330:n32g430_std_periph_driver/src/n32g430_tim.c **** **/
2331:n32g430_std_periph_driver/src/n32g430_tim.c **** void TIM_PWM_Input_Channel_Config(TIM_Module* TIMx, TIM_ICInitType* TIM_ICInitStruct)
2332:n32g430_std_periph_driver/src/n32g430_tim.c **** {
 3849              		.loc 1 2332 1 view -0
 3850              		.cfi_startproc
 3851              		@ args = 0, pretend = 0, frame = 0
 3852              		@ frame_needed = 0, uses_anonymous_args = 0
 3853              		.loc 1 2332 1 is_stmt 0 view .LVU959
 3854 0000 F8B5     		push	{r3, r4, r5, r6, r7, lr}
 3855              	.LCFI13:
 3856              		.cfi_def_cfa_offset 24
 3857              		.cfi_offset 3, -24
 3858              		.cfi_offset 4, -20
 3859              		.cfi_offset 5, -16
 3860              		.cfi_offset 6, -12
 3861              		.cfi_offset 7, -8
 3862              		.cfi_offset 14, -4
 3863 0002 0546     		mov	r5, r0
 3864 0004 0C46     		mov	r4, r1
2333:n32g430_std_periph_driver/src/n32g430_tim.c ****     uint16_t input_channel_opposite_polarity  = TIM_IC_POLARITY_RISING;
 3865              		.loc 1 2333 5 is_stmt 1 view .LVU960
 3866              	.LVL309:
2334:n32g430_std_periph_driver/src/n32g430_tim.c ****     uint16_t input_channel_opposite_selection = TIM_IC_SELECTION_DIRECTTI;
 3867              		.loc 1 2334 5 view .LVU961
2335:n32g430_std_periph_driver/src/n32g430_tim.c ****     /* Select the Opposite Input Polarity */
2336:n32g430_std_periph_driver/src/n32g430_tim.c ****     if (TIM_ICInitStruct->IcPolarity == TIM_IC_POLARITY_RISING)
 3868              		.loc 1 2336 5 view .LVU962
 3869              		.loc 1 2336 25 is_stmt 0 view .LVU963
 3870 0006 4988     		ldrh	r1, [r1, #2]
ARM GAS  C:\Users\Dawn\AppData\Local\Temp\ccf7B1Wd.s 			page 108


 3871              	.LVL310:
 3872              		.loc 1 2336 8 view .LVU964
 3873 0008 C9B9     		cbnz	r1, .L196
2337:n32g430_std_periph_driver/src/n32g430_tim.c ****     {
2338:n32g430_std_periph_driver/src/n32g430_tim.c ****         input_channel_opposite_polarity = TIM_IC_POLARITY_FALLING;
 3874              		.loc 1 2338 41 view .LVU965
 3875 000a 0226     		movs	r6, #2
 3876              	.L192:
 3877              	.LVL311:
2339:n32g430_std_periph_driver/src/n32g430_tim.c ****     }
2340:n32g430_std_periph_driver/src/n32g430_tim.c ****     else
2341:n32g430_std_periph_driver/src/n32g430_tim.c ****     {
2342:n32g430_std_periph_driver/src/n32g430_tim.c ****         input_channel_opposite_polarity = TIM_IC_POLARITY_RISING;
2343:n32g430_std_periph_driver/src/n32g430_tim.c ****     }
2344:n32g430_std_periph_driver/src/n32g430_tim.c ****     /* Select the Opposite Input */
2345:n32g430_std_periph_driver/src/n32g430_tim.c ****     if (TIM_ICInitStruct->IcSelection == TIM_IC_SELECTION_DIRECTTI)
 3878              		.loc 1 2345 5 is_stmt 1 view .LVU966
 3879              		.loc 1 2345 25 is_stmt 0 view .LVU967
 3880 000c A288     		ldrh	r2, [r4, #4]
 3881              		.loc 1 2345 8 view .LVU968
 3882 000e 012A     		cmp	r2, #1
 3883 0010 17D0     		beq	.L199
2346:n32g430_std_periph_driver/src/n32g430_tim.c ****     {
2347:n32g430_std_periph_driver/src/n32g430_tim.c ****         input_channel_opposite_selection = TIM_IC_SELECTION_INDIRECTTI;
2348:n32g430_std_periph_driver/src/n32g430_tim.c ****     }
2349:n32g430_std_periph_driver/src/n32g430_tim.c ****     else
2350:n32g430_std_periph_driver/src/n32g430_tim.c ****     {
2351:n32g430_std_periph_driver/src/n32g430_tim.c ****         input_channel_opposite_selection = TIM_IC_SELECTION_DIRECTTI;
 3884              		.loc 1 2351 42 view .LVU969
 3885 0012 0127     		movs	r7, #1
 3886              	.L193:
 3887              	.LVL312:
2352:n32g430_std_periph_driver/src/n32g430_tim.c ****     }
2353:n32g430_std_periph_driver/src/n32g430_tim.c ****     if (TIM_ICInitStruct->Channel == TIM_CH_1)
 3888              		.loc 1 2353 5 is_stmt 1 view .LVU970
 3889              		.loc 1 2353 25 is_stmt 0 view .LVU971
 3890 0014 2388     		ldrh	r3, [r4]
 3891              		.loc 1 2353 8 view .LVU972
 3892 0016 B3B9     		cbnz	r3, .L194
2354:n32g430_std_periph_driver/src/n32g430_tim.c ****     {
2355:n32g430_std_periph_driver/src/n32g430_tim.c ****         /* TI1 Configuration */
2356:n32g430_std_periph_driver/src/n32g430_tim.c ****         Input_Channel1_Config(TIMx, TIM_ICInitStruct->IcPolarity, TIM_ICInitStruct->IcSelection, TI
 3893              		.loc 1 2356 9 is_stmt 1 view .LVU973
 3894 0018 2389     		ldrh	r3, [r4, #8]
 3895 001a 2846     		mov	r0, r5
 3896              	.LVL313:
 3897              		.loc 1 2356 9 is_stmt 0 view .LVU974
 3898 001c FFF7FEFF 		bl	Input_Channel1_Config
 3899              	.LVL314:
2357:n32g430_std_periph_driver/src/n32g430_tim.c ****         /* Set the Input Capture Prescaler value */
2358:n32g430_std_periph_driver/src/n32g430_tim.c ****         TIM_Input_Capture1_Prescaler_Set(TIMx, TIM_ICInitStruct->IcPrescaler);
 3900              		.loc 1 2358 9 is_stmt 1 view .LVU975
 3901 0020 E188     		ldrh	r1, [r4, #6]
 3902 0022 2846     		mov	r0, r5
 3903 0024 FFF7FEFF 		bl	TIM_Input_Capture1_Prescaler_Set
 3904              	.LVL315:
2359:n32g430_std_periph_driver/src/n32g430_tim.c ****         /* TI2 Configuration */
ARM GAS  C:\Users\Dawn\AppData\Local\Temp\ccf7B1Wd.s 			page 109


2360:n32g430_std_periph_driver/src/n32g430_tim.c ****         Input_Channel2_Config(TIMx, input_channel_opposite_polarity, input_channel_opposite_selecti
 3905              		.loc 1 2360 9 view .LVU976
 3906 0028 2389     		ldrh	r3, [r4, #8]
 3907 002a 3A46     		mov	r2, r7
 3908 002c 3146     		mov	r1, r6
 3909 002e 2846     		mov	r0, r5
 3910 0030 FFF7FEFF 		bl	Input_Channel2_Config
 3911              	.LVL316:
2361:n32g430_std_periph_driver/src/n32g430_tim.c ****         /* Set the Input Capture Prescaler value */
2362:n32g430_std_periph_driver/src/n32g430_tim.c ****         TIM_Input_Capture2_Prescaler_Set(TIMx, TIM_ICInitStruct->IcPrescaler);
 3912              		.loc 1 2362 9 view .LVU977
 3913 0034 E188     		ldrh	r1, [r4, #6]
 3914 0036 2846     		mov	r0, r5
 3915 0038 FFF7FEFF 		bl	TIM_Input_Capture2_Prescaler_Set
 3916              	.LVL317:
 3917              	.L191:
2363:n32g430_std_periph_driver/src/n32g430_tim.c ****     }
2364:n32g430_std_periph_driver/src/n32g430_tim.c ****     else
2365:n32g430_std_periph_driver/src/n32g430_tim.c ****     {
2366:n32g430_std_periph_driver/src/n32g430_tim.c ****         /* TI2 Configuration */
2367:n32g430_std_periph_driver/src/n32g430_tim.c ****         Input_Channel2_Config(TIMx, TIM_ICInitStruct->IcPolarity, TIM_ICInitStruct->IcSelection, TI
2368:n32g430_std_periph_driver/src/n32g430_tim.c ****         /* Set the Input Capture Prescaler value */
2369:n32g430_std_periph_driver/src/n32g430_tim.c ****         TIM_Input_Capture2_Prescaler_Set(TIMx, TIM_ICInitStruct->IcPrescaler);
2370:n32g430_std_periph_driver/src/n32g430_tim.c ****         /* TI1 Configuration */
2371:n32g430_std_periph_driver/src/n32g430_tim.c ****         Input_Channel1_Config(TIMx, input_channel_opposite_polarity, input_channel_opposite_selecti
2372:n32g430_std_periph_driver/src/n32g430_tim.c ****         /* Set the Input Capture Prescaler value */
2373:n32g430_std_periph_driver/src/n32g430_tim.c ****         TIM_Input_Capture1_Prescaler_Set(TIMx, TIM_ICInitStruct->IcPrescaler);
2374:n32g430_std_periph_driver/src/n32g430_tim.c ****     }
2375:n32g430_std_periph_driver/src/n32g430_tim.c **** }
 3918              		.loc 1 2375 1 is_stmt 0 view .LVU978
 3919 003c F8BD     		pop	{r3, r4, r5, r6, r7, pc}
 3920              	.LVL318:
 3921              	.L196:
2342:n32g430_std_periph_driver/src/n32g430_tim.c ****     }
 3922              		.loc 1 2342 41 view .LVU979
 3923 003e 0026     		movs	r6, #0
 3924 0040 E4E7     		b	.L192
 3925              	.LVL319:
 3926              	.L199:
2347:n32g430_std_periph_driver/src/n32g430_tim.c ****     }
 3927              		.loc 1 2347 42 view .LVU980
 3928 0042 0227     		movs	r7, #2
 3929 0044 E6E7     		b	.L193
 3930              	.LVL320:
 3931              	.L194:
2367:n32g430_std_periph_driver/src/n32g430_tim.c ****         /* Set the Input Capture Prescaler value */
 3932              		.loc 1 2367 9 is_stmt 1 view .LVU981
 3933 0046 2389     		ldrh	r3, [r4, #8]
 3934 0048 2846     		mov	r0, r5
 3935              	.LVL321:
2367:n32g430_std_periph_driver/src/n32g430_tim.c ****         /* Set the Input Capture Prescaler value */
 3936              		.loc 1 2367 9 is_stmt 0 view .LVU982
 3937 004a FFF7FEFF 		bl	Input_Channel2_Config
 3938              	.LVL322:
2369:n32g430_std_periph_driver/src/n32g430_tim.c ****         /* TI1 Configuration */
 3939              		.loc 1 2369 9 is_stmt 1 view .LVU983
 3940 004e E188     		ldrh	r1, [r4, #6]
ARM GAS  C:\Users\Dawn\AppData\Local\Temp\ccf7B1Wd.s 			page 110


 3941 0050 2846     		mov	r0, r5
 3942 0052 FFF7FEFF 		bl	TIM_Input_Capture2_Prescaler_Set
 3943              	.LVL323:
2371:n32g430_std_periph_driver/src/n32g430_tim.c ****         /* Set the Input Capture Prescaler value */
 3944              		.loc 1 2371 9 view .LVU984
 3945 0056 2389     		ldrh	r3, [r4, #8]
 3946 0058 3A46     		mov	r2, r7
 3947 005a 3146     		mov	r1, r6
 3948 005c 2846     		mov	r0, r5
 3949 005e FFF7FEFF 		bl	Input_Channel1_Config
 3950              	.LVL324:
2373:n32g430_std_periph_driver/src/n32g430_tim.c ****     }
 3951              		.loc 1 2373 9 view .LVU985
 3952 0062 E188     		ldrh	r1, [r4, #6]
 3953 0064 2846     		mov	r0, r5
 3954 0066 FFF7FEFF 		bl	TIM_Input_Capture1_Prescaler_Set
 3955              	.LVL325:
 3956              		.loc 1 2375 1 is_stmt 0 view .LVU986
 3957 006a E7E7     		b	.L191
 3958              		.cfi_endproc
 3959              	.LFE222:
 3961              		.section	.text.TIM_Output_Channel_Polarity_Set,"ax",%progbits
 3962              		.align	1
 3963              		.global	TIM_Output_Channel_Polarity_Set
 3964              		.syntax unified
 3965              		.thumb
 3966              		.thumb_func
 3968              	TIM_Output_Channel_Polarity_Set:
 3969              	.LVL326:
 3970              	.LFB223:
2376:n32g430_std_periph_driver/src/n32g430_tim.c **** 
2377:n32g430_std_periph_driver/src/n32g430_tim.c **** 
2378:n32g430_std_periph_driver/src/n32g430_tim.c **** 
2379:n32g430_std_periph_driver/src/n32g430_tim.c **** /**
2380:n32g430_std_periph_driver/src/n32g430_tim.c **** *\*\name    TIM_Output_Channel_Polarity_Set.
2381:n32g430_std_periph_driver/src/n32g430_tim.c **** *\*\fun     set the polarity of TIMx channel
2382:n32g430_std_periph_driver/src/n32g430_tim.c **** *\*\param   TIMx:
2383:n32g430_std_periph_driver/src/n32g430_tim.c **** *\*\          - TIM1
2384:n32g430_std_periph_driver/src/n32g430_tim.c **** *\*\          - TIM2
2385:n32g430_std_periph_driver/src/n32g430_tim.c **** *\*\          - TIM3
2386:n32g430_std_periph_driver/src/n32g430_tim.c **** *\*\          - TIM4
2387:n32g430_std_periph_driver/src/n32g430_tim.c **** *\*\          - TIM5
2388:n32g430_std_periph_driver/src/n32g430_tim.c **** *\*\          - TIM8
2389:n32g430_std_periph_driver/src/n32g430_tim.c **** *\*\param   output_channel_polarity:
2390:n32g430_std_periph_driver/src/n32g430_tim.c **** **\           - TIM_OC_POLARITY_LOW
2391:n32g430_std_periph_driver/src/n32g430_tim.c **** **\           - TIM_OC_POLARITY_HIGH
2392:n32g430_std_periph_driver/src/n32g430_tim.c **** *\*\param   channel:
2393:n32g430_std_periph_driver/src/n32g430_tim.c **** **\           - TIM_CH_1
2394:n32g430_std_periph_driver/src/n32g430_tim.c **** **\           - TIM_CH_2
2395:n32g430_std_periph_driver/src/n32g430_tim.c **** **\           - TIM_CH_3
2396:n32g430_std_periph_driver/src/n32g430_tim.c **** **\           - TIM_CH_4
2397:n32g430_std_periph_driver/src/n32g430_tim.c **** **\           - TIM_CH_5
2398:n32g430_std_periph_driver/src/n32g430_tim.c **** **\           - TIM_CH_6
2399:n32g430_std_periph_driver/src/n32g430_tim.c **** *\*\return  none
2400:n32g430_std_periph_driver/src/n32g430_tim.c **** *\*\note    - TIM2 TIM3 TIM4 TIM5 does not support channel 5 and channel 6
2401:n32g430_std_periph_driver/src/n32g430_tim.c **** **/
2402:n32g430_std_periph_driver/src/n32g430_tim.c **** void TIM_Output_Channel_Polarity_Set(TIM_Module* TIMx, uint32_t output_channel_polarity, uint16_t c
ARM GAS  C:\Users\Dawn\AppData\Local\Temp\ccf7B1Wd.s 			page 111


2403:n32g430_std_periph_driver/src/n32g430_tim.c **** {
 3971              		.loc 1 2403 1 is_stmt 1 view -0
 3972              		.cfi_startproc
 3973              		@ args = 0, pretend = 0, frame = 0
 3974              		@ frame_needed = 0, uses_anonymous_args = 0
 3975              		@ link register save eliminated.
2404:n32g430_std_periph_driver/src/n32g430_tim.c ****     uint32_t temp_value = TIMx->CCEN;
 3976              		.loc 1 2404 5 view .LVU988
 3977              		.loc 1 2404 14 is_stmt 0 view .LVU989
 3978 0000 036A     		ldr	r3, [r0, #32]
 3979              	.LVL327:
2405:n32g430_std_periph_driver/src/n32g430_tim.c ****     /* Clear the CCxEN bit */
2406:n32g430_std_periph_driver/src/n32g430_tim.c ****     temp_value &= (uint32_t)(~(uint32_t)(TIM_OC_POLARITY_MASK << channel));
 3980              		.loc 1 2406 5 is_stmt 1 view .LVU990
 3981              		.loc 1 2406 31 is_stmt 0 view .LVU991
 3982 0002 4FF0020C 		mov	ip, #2
 3983 0006 0CFA02FC 		lsl	ip, ip, r2
 3984              		.loc 1 2406 16 view .LVU992
 3985 000a 23EA0C03 		bic	r3, r3, ip
 3986              	.LVL328:
2407:n32g430_std_periph_driver/src/n32g430_tim.c **** 
2408:n32g430_std_periph_driver/src/n32g430_tim.c ****     /* Set the CCxEN bit */
2409:n32g430_std_periph_driver/src/n32g430_tim.c ****     temp_value |= (uint32_t)(output_channel_polarity << channel);
 3987              		.loc 1 2409 5 is_stmt 1 view .LVU993
 3988              		.loc 1 2409 54 is_stmt 0 view .LVU994
 3989 000e 9140     		lsls	r1, r1, r2
 3990              	.LVL329:
 3991              		.loc 1 2409 16 view .LVU995
 3992 0010 1943     		orrs	r1, r1, r3
 3993              	.LVL330:
2410:n32g430_std_periph_driver/src/n32g430_tim.c **** 
2411:n32g430_std_periph_driver/src/n32g430_tim.c ****     /* Write to TIMx CCEN register */
2412:n32g430_std_periph_driver/src/n32g430_tim.c ****     TIMx->CCEN = temp_value;
 3994              		.loc 1 2412 5 is_stmt 1 view .LVU996
 3995              		.loc 1 2412 16 is_stmt 0 view .LVU997
 3996 0012 0162     		str	r1, [r0, #32]
2413:n32g430_std_periph_driver/src/n32g430_tim.c **** }
 3997              		.loc 1 2413 1 view .LVU998
 3998 0014 7047     		bx	lr
 3999              		.cfi_endproc
 4000              	.LFE223:
 4002              		.section	.text.TIM_Output_Channel_N_Polarity_Set,"ax",%progbits
 4003              		.align	1
 4004              		.global	TIM_Output_Channel_N_Polarity_Set
 4005              		.syntax unified
 4006              		.thumb
 4007              		.thumb_func
 4009              	TIM_Output_Channel_N_Polarity_Set:
 4010              	.LVL331:
 4011              	.LFB224:
2414:n32g430_std_periph_driver/src/n32g430_tim.c **** 
2415:n32g430_std_periph_driver/src/n32g430_tim.c **** /**
2416:n32g430_std_periph_driver/src/n32g430_tim.c **** *\*\name    TIM_Output_Channel_N_Polarity_Set.
2417:n32g430_std_periph_driver/src/n32g430_tim.c **** *\*\fun     set the mode of polarity of TIMx channel
2418:n32g430_std_periph_driver/src/n32g430_tim.c **** *\*\param   TIMx:
2419:n32g430_std_periph_driver/src/n32g430_tim.c **** *\*\          - TIM1
2420:n32g430_std_periph_driver/src/n32g430_tim.c **** *\*\          - TIM8
ARM GAS  C:\Users\Dawn\AppData\Local\Temp\ccf7B1Wd.s 			page 112


2421:n32g430_std_periph_driver/src/n32g430_tim.c **** *\*\param   output_channel_N_polarity:
2422:n32g430_std_periph_driver/src/n32g430_tim.c **** **\           - TIM_OCN_POLARITY_LOW
2423:n32g430_std_periph_driver/src/n32g430_tim.c **** **\           - TIM_OCN_POLARITY_HIGH
2424:n32g430_std_periph_driver/src/n32g430_tim.c **** *\*\param   channel:
2425:n32g430_std_periph_driver/src/n32g430_tim.c **** **\           - TIM_CH_1
2426:n32g430_std_periph_driver/src/n32g430_tim.c **** **\           - TIM_CH_2
2427:n32g430_std_periph_driver/src/n32g430_tim.c **** **\           - TIM_CH_3
2428:n32g430_std_periph_driver/src/n32g430_tim.c **** **\           - TIM_CH_4
2429:n32g430_std_periph_driver/src/n32g430_tim.c **** *\*\return  none
2430:n32g430_std_periph_driver/src/n32g430_tim.c **** *\*\note    This function is only for TIM1 and TIM8
2431:n32g430_std_periph_driver/src/n32g430_tim.c **** **/
2432:n32g430_std_periph_driver/src/n32g430_tim.c **** void TIM_Output_Channel_N_Polarity_Set(TIM_Module* TIMx, uint32_t output_channel_N_polarity, uint16
2433:n32g430_std_periph_driver/src/n32g430_tim.c **** {
 4012              		.loc 1 2433 1 is_stmt 1 view -0
 4013              		.cfi_startproc
 4014              		@ args = 0, pretend = 0, frame = 0
 4015              		@ frame_needed = 0, uses_anonymous_args = 0
 4016              		@ link register save eliminated.
2434:n32g430_std_periph_driver/src/n32g430_tim.c ****     uint32_t temp_value = TIMx->CCEN;
 4017              		.loc 1 2434 5 view .LVU1000
 4018              		.loc 1 2434 14 is_stmt 0 view .LVU1001
 4019 0000 036A     		ldr	r3, [r0, #32]
 4020              	.LVL332:
2435:n32g430_std_periph_driver/src/n32g430_tim.c ****     /* Clear the CCxEN bit */
2436:n32g430_std_periph_driver/src/n32g430_tim.c ****     temp_value &= (uint32_t)(~(uint32_t)(TIM_OCN_POLARITY_MASK << channel));
 4021              		.loc 1 2436 5 is_stmt 1 view .LVU1002
 4022              		.loc 1 2436 31 is_stmt 0 view .LVU1003
 4023 0002 4FF0080C 		mov	ip, #8
 4024 0006 0CFA02FC 		lsl	ip, ip, r2
 4025              		.loc 1 2436 16 view .LVU1004
 4026 000a 23EA0C03 		bic	r3, r3, ip
 4027              	.LVL333:
2437:n32g430_std_periph_driver/src/n32g430_tim.c **** 
2438:n32g430_std_periph_driver/src/n32g430_tim.c ****     /* Set the CCxEN bit */
2439:n32g430_std_periph_driver/src/n32g430_tim.c ****     temp_value |= (uint32_t)(output_channel_N_polarity << channel);
 4028              		.loc 1 2439 5 is_stmt 1 view .LVU1005
 4029              		.loc 1 2439 56 is_stmt 0 view .LVU1006
 4030 000e 9140     		lsls	r1, r1, r2
 4031              	.LVL334:
 4032              		.loc 1 2439 16 view .LVU1007
 4033 0010 1943     		orrs	r1, r1, r3
 4034              	.LVL335:
2440:n32g430_std_periph_driver/src/n32g430_tim.c **** 
2441:n32g430_std_periph_driver/src/n32g430_tim.c ****     TIMx->CCEN = temp_value;
 4035              		.loc 1 2441 5 is_stmt 1 view .LVU1008
 4036              		.loc 1 2441 16 is_stmt 0 view .LVU1009
 4037 0012 0162     		str	r1, [r0, #32]
2442:n32g430_std_periph_driver/src/n32g430_tim.c **** }
 4038              		.loc 1 2442 1 view .LVU1010
 4039 0014 7047     		bx	lr
 4040              		.cfi_endproc
 4041              	.LFE224:
 4043              		.section	.text.TIM_Capture_Compare_Ch_Enable,"ax",%progbits
 4044              		.align	1
 4045              		.global	TIM_Capture_Compare_Ch_Enable
 4046              		.syntax unified
 4047              		.thumb
ARM GAS  C:\Users\Dawn\AppData\Local\Temp\ccf7B1Wd.s 			page 113


 4048              		.thumb_func
 4050              	TIM_Capture_Compare_Ch_Enable:
 4051              	.LVL336:
 4052              	.LFB225:
2443:n32g430_std_periph_driver/src/n32g430_tim.c **** 
2444:n32g430_std_periph_driver/src/n32g430_tim.c **** /**
2445:n32g430_std_periph_driver/src/n32g430_tim.c **** *\*\name    TIM_Capture_Compare_Ch_Enable.
2446:n32g430_std_periph_driver/src/n32g430_tim.c **** *\*\param   TIMx:
2447:n32g430_std_periph_driver/src/n32g430_tim.c **** *\*\          - TIM1
2448:n32g430_std_periph_driver/src/n32g430_tim.c **** *\*\          - TIM2
2449:n32g430_std_periph_driver/src/n32g430_tim.c **** *\*\          - TIM3
2450:n32g430_std_periph_driver/src/n32g430_tim.c **** *\*\          - TIM4
2451:n32g430_std_periph_driver/src/n32g430_tim.c **** *\*\          - TIM5
2452:n32g430_std_periph_driver/src/n32g430_tim.c **** *\*\          - TIM8
2453:n32g430_std_periph_driver/src/n32g430_tim.c **** *\*\param   channel:
2454:n32g430_std_periph_driver/src/n32g430_tim.c **** **\           - TIM_CH_1
2455:n32g430_std_periph_driver/src/n32g430_tim.c **** **\           - TIM_CH_2
2456:n32g430_std_periph_driver/src/n32g430_tim.c **** **\           - TIM_CH_3
2457:n32g430_std_periph_driver/src/n32g430_tim.c **** **\           - TIM_CH_4
2458:n32g430_std_periph_driver/src/n32g430_tim.c **** **\           - TIM_CH_5
2459:n32g430_std_periph_driver/src/n32g430_tim.c **** **\           - TIM_CH_6
2460:n32g430_std_periph_driver/src/n32g430_tim.c **** *\*\return  none
2461:n32g430_std_periph_driver/src/n32g430_tim.c **** *\*\note    - TIM2 TIM3 TIM4 TIM5 does not support channel 5 and channel 6
2462:n32g430_std_periph_driver/src/n32g430_tim.c **** **/
2463:n32g430_std_periph_driver/src/n32g430_tim.c **** void TIM_Capture_Compare_Ch_Enable(TIM_Module* TIMx, uint16_t channel)
2464:n32g430_std_periph_driver/src/n32g430_tim.c **** {
 4053              		.loc 1 2464 1 is_stmt 1 view -0
 4054              		.cfi_startproc
 4055              		@ args = 0, pretend = 0, frame = 0
 4056              		@ frame_needed = 0, uses_anonymous_args = 0
 4057              		@ link register save eliminated.
2465:n32g430_std_periph_driver/src/n32g430_tim.c ****     TIMx->CCEN |= (uint32_t)(TIM_CAP_CMP_ENABLE << channel);
 4058              		.loc 1 2465 5 view .LVU1012
 4059              		.loc 1 2465 9 is_stmt 0 view .LVU1013
 4060 0000 036A     		ldr	r3, [r0, #32]
 4061              		.loc 1 2465 19 view .LVU1014
 4062 0002 0122     		movs	r2, #1
 4063 0004 8A40     		lsls	r2, r2, r1
 4064              		.loc 1 2465 16 view .LVU1015
 4065 0006 1343     		orrs	r3, r3, r2
 4066 0008 0362     		str	r3, [r0, #32]
2466:n32g430_std_periph_driver/src/n32g430_tim.c **** }
 4067              		.loc 1 2466 1 view .LVU1016
 4068 000a 7047     		bx	lr
 4069              		.cfi_endproc
 4070              	.LFE225:
 4072              		.section	.text.TIM_Capture_Compare_Ch_Disable,"ax",%progbits
 4073              		.align	1
 4074              		.global	TIM_Capture_Compare_Ch_Disable
 4075              		.syntax unified
 4076              		.thumb
 4077              		.thumb_func
 4079              	TIM_Capture_Compare_Ch_Disable:
 4080              	.LVL337:
 4081              	.LFB226:
2467:n32g430_std_periph_driver/src/n32g430_tim.c **** 
2468:n32g430_std_periph_driver/src/n32g430_tim.c **** /**
ARM GAS  C:\Users\Dawn\AppData\Local\Temp\ccf7B1Wd.s 			page 114


2469:n32g430_std_periph_driver/src/n32g430_tim.c **** *\*\name    TIM_Capture_Compare_Ch_Disable.
2470:n32g430_std_periph_driver/src/n32g430_tim.c **** *\*\param   TIMx:
2471:n32g430_std_periph_driver/src/n32g430_tim.c **** *\*\          - TIM1
2472:n32g430_std_periph_driver/src/n32g430_tim.c **** *\*\          - TIM2
2473:n32g430_std_periph_driver/src/n32g430_tim.c **** *\*\          - TIM3
2474:n32g430_std_periph_driver/src/n32g430_tim.c **** *\*\          - TIM4
2475:n32g430_std_periph_driver/src/n32g430_tim.c **** *\*\          - TIM5
2476:n32g430_std_periph_driver/src/n32g430_tim.c **** *\*\          - TIM8
2477:n32g430_std_periph_driver/src/n32g430_tim.c **** *\*\param   channel:
2478:n32g430_std_periph_driver/src/n32g430_tim.c **** **\           - TIM_CH_1
2479:n32g430_std_periph_driver/src/n32g430_tim.c **** **\           - TIM_CH_2
2480:n32g430_std_periph_driver/src/n32g430_tim.c **** **\           - TIM_CH_3
2481:n32g430_std_periph_driver/src/n32g430_tim.c **** **\           - TIM_CH_4
2482:n32g430_std_periph_driver/src/n32g430_tim.c **** **\           - TIM_CH_5
2483:n32g430_std_periph_driver/src/n32g430_tim.c **** **\           - TIM_CH_6
2484:n32g430_std_periph_driver/src/n32g430_tim.c **** *\*\return  none
2485:n32g430_std_periph_driver/src/n32g430_tim.c **** *\*\note    - TIM2 TIM3 TIM4 TIM5 does not support channel 5 and channel 6
2486:n32g430_std_periph_driver/src/n32g430_tim.c **** **/
2487:n32g430_std_periph_driver/src/n32g430_tim.c **** void TIM_Capture_Compare_Ch_Disable(TIM_Module* TIMx, uint16_t channel)
2488:n32g430_std_periph_driver/src/n32g430_tim.c **** {
 4082              		.loc 1 2488 1 is_stmt 1 view -0
 4083              		.cfi_startproc
 4084              		@ args = 0, pretend = 0, frame = 0
 4085              		@ frame_needed = 0, uses_anonymous_args = 0
 4086              		@ link register save eliminated.
2489:n32g430_std_periph_driver/src/n32g430_tim.c ****     TIMx->CCEN &= (uint32_t)(~(TIM_CAP_CMP_ENABLE << channel));
 4087              		.loc 1 2489 5 view .LVU1018
 4088              		.loc 1 2489 9 is_stmt 0 view .LVU1019
 4089 0000 036A     		ldr	r3, [r0, #32]
 4090              		.loc 1 2489 51 view .LVU1020
 4091 0002 0122     		movs	r2, #1
 4092 0004 8A40     		lsls	r2, r2, r1
 4093              		.loc 1 2489 16 view .LVU1021
 4094 0006 23EA0203 		bic	r3, r3, r2
 4095 000a 0362     		str	r3, [r0, #32]
2490:n32g430_std_periph_driver/src/n32g430_tim.c **** }
 4096              		.loc 1 2490 1 view .LVU1022
 4097 000c 7047     		bx	lr
 4098              		.cfi_endproc
 4099              	.LFE226:
 4101              		.section	.text.TIM_Capture_Compare_Ch_N_Enable,"ax",%progbits
 4102              		.align	1
 4103              		.global	TIM_Capture_Compare_Ch_N_Enable
 4104              		.syntax unified
 4105              		.thumb
 4106              		.thumb_func
 4108              	TIM_Capture_Compare_Ch_N_Enable:
 4109              	.LVL338:
 4110              	.LFB227:
2491:n32g430_std_periph_driver/src/n32g430_tim.c **** 
2492:n32g430_std_periph_driver/src/n32g430_tim.c **** /**
2493:n32g430_std_periph_driver/src/n32g430_tim.c **** *\*\name    TIM_Capture_Compare_Ch_N_Enable.
2494:n32g430_std_periph_driver/src/n32g430_tim.c **** *\*\param   TIMx:
2495:n32g430_std_periph_driver/src/n32g430_tim.c **** *\*\          - TIM1
2496:n32g430_std_periph_driver/src/n32g430_tim.c **** *\*\          - TIM8
2497:n32g430_std_periph_driver/src/n32g430_tim.c **** *\*\param   channel:
2498:n32g430_std_periph_driver/src/n32g430_tim.c **** **\           - TIM_CH_1
ARM GAS  C:\Users\Dawn\AppData\Local\Temp\ccf7B1Wd.s 			page 115


2499:n32g430_std_periph_driver/src/n32g430_tim.c **** **\           - TIM_CH_2
2500:n32g430_std_periph_driver/src/n32g430_tim.c **** **\           - TIM_CH_3
2501:n32g430_std_periph_driver/src/n32g430_tim.c **** **\           - TIM_CH_4
2502:n32g430_std_periph_driver/src/n32g430_tim.c **** *\*\return  none
2503:n32g430_std_periph_driver/src/n32g430_tim.c **** *\*\note    - TIM_CH_4 is only for TIM1, only TIM1 has CH4N.
2504:n32g430_std_periph_driver/src/n32g430_tim.c **** **/
2505:n32g430_std_periph_driver/src/n32g430_tim.c **** void TIM_Capture_Compare_Ch_N_Enable(TIM_Module* TIMx, uint16_t channel)
2506:n32g430_std_periph_driver/src/n32g430_tim.c **** {
 4111              		.loc 1 2506 1 is_stmt 1 view -0
 4112              		.cfi_startproc
 4113              		@ args = 0, pretend = 0, frame = 0
 4114              		@ frame_needed = 0, uses_anonymous_args = 0
 4115              		@ link register save eliminated.
2507:n32g430_std_periph_driver/src/n32g430_tim.c ****     TIMx->CCEN |= (uint32_t)(TIM_CAP_CMP_N_ENABLE << channel);
 4116              		.loc 1 2507 5 view .LVU1024
 4117              		.loc 1 2507 9 is_stmt 0 view .LVU1025
 4118 0000 036A     		ldr	r3, [r0, #32]
 4119              		.loc 1 2507 19 view .LVU1026
 4120 0002 0422     		movs	r2, #4
 4121 0004 8A40     		lsls	r2, r2, r1
 4122              		.loc 1 2507 16 view .LVU1027
 4123 0006 1343     		orrs	r3, r3, r2
 4124 0008 0362     		str	r3, [r0, #32]
2508:n32g430_std_periph_driver/src/n32g430_tim.c **** }
 4125              		.loc 1 2508 1 view .LVU1028
 4126 000a 7047     		bx	lr
 4127              		.cfi_endproc
 4128              	.LFE227:
 4130              		.section	.text.TIM_Capture_Compare_Ch_N_Disable,"ax",%progbits
 4131              		.align	1
 4132              		.global	TIM_Capture_Compare_Ch_N_Disable
 4133              		.syntax unified
 4134              		.thumb
 4135              		.thumb_func
 4137              	TIM_Capture_Compare_Ch_N_Disable:
 4138              	.LVL339:
 4139              	.LFB228:
2509:n32g430_std_periph_driver/src/n32g430_tim.c **** 
2510:n32g430_std_periph_driver/src/n32g430_tim.c **** /**
2511:n32g430_std_periph_driver/src/n32g430_tim.c **** *\*\name    TIM_Capture_Compare_Ch_N_Disable.
2512:n32g430_std_periph_driver/src/n32g430_tim.c **** *\*\param   TIMx:
2513:n32g430_std_periph_driver/src/n32g430_tim.c **** *\*\          - TIM1
2514:n32g430_std_periph_driver/src/n32g430_tim.c **** *\*\          - TIM2
2515:n32g430_std_periph_driver/src/n32g430_tim.c **** *\*\          - TIM3
2516:n32g430_std_periph_driver/src/n32g430_tim.c **** *\*\          - TIM4
2517:n32g430_std_periph_driver/src/n32g430_tim.c **** *\*\          - TIM5
2518:n32g430_std_periph_driver/src/n32g430_tim.c **** *\*\          - TIM8
2519:n32g430_std_periph_driver/src/n32g430_tim.c **** *\*\param   channel:
2520:n32g430_std_periph_driver/src/n32g430_tim.c **** **\           - TIM_CH_1
2521:n32g430_std_periph_driver/src/n32g430_tim.c **** **\           - TIM_CH_2
2522:n32g430_std_periph_driver/src/n32g430_tim.c **** **\           - TIM_CH_3
2523:n32g430_std_periph_driver/src/n32g430_tim.c **** **\           - TIM_CH_4
2524:n32g430_std_periph_driver/src/n32g430_tim.c **** *\*\return  none
2525:n32g430_std_periph_driver/src/n32g430_tim.c **** *\*\note    - TIM_CH_4 is only for TIM1, only TIM1 has CH4N.
2526:n32g430_std_periph_driver/src/n32g430_tim.c **** **/
2527:n32g430_std_periph_driver/src/n32g430_tim.c **** void TIM_Capture_Compare_Ch_N_Disable(TIM_Module* TIMx, uint16_t channel)
2528:n32g430_std_periph_driver/src/n32g430_tim.c **** {
ARM GAS  C:\Users\Dawn\AppData\Local\Temp\ccf7B1Wd.s 			page 116


 4140              		.loc 1 2528 1 is_stmt 1 view -0
 4141              		.cfi_startproc
 4142              		@ args = 0, pretend = 0, frame = 0
 4143              		@ frame_needed = 0, uses_anonymous_args = 0
 4144              		@ link register save eliminated.
2529:n32g430_std_periph_driver/src/n32g430_tim.c ****     TIMx->CCEN &= (uint32_t)(~(TIM_CAP_CMP_N_ENABLE << channel));
 4145              		.loc 1 2529 5 view .LVU1030
 4146              		.loc 1 2529 9 is_stmt 0 view .LVU1031
 4147 0000 036A     		ldr	r3, [r0, #32]
 4148              		.loc 1 2529 53 view .LVU1032
 4149 0002 0422     		movs	r2, #4
 4150 0004 8A40     		lsls	r2, r2, r1
 4151              		.loc 1 2529 16 view .LVU1033
 4152 0006 23EA0203 		bic	r3, r3, r2
 4153 000a 0362     		str	r3, [r0, #32]
2530:n32g430_std_periph_driver/src/n32g430_tim.c **** }
 4154              		.loc 1 2530 1 view .LVU1034
 4155 000c 7047     		bx	lr
 4156              		.cfi_endproc
 4157              	.LFE228:
 4159              		.section	.text.TIM_CCEN_Status_Get,"ax",%progbits
 4160              		.align	1
 4161              		.global	TIM_CCEN_Status_Get
 4162              		.syntax unified
 4163              		.thumb
 4164              		.thumb_func
 4166              	TIM_CCEN_Status_Get:
 4167              	.LVL340:
 4168              	.LFB229:
2531:n32g430_std_periph_driver/src/n32g430_tim.c **** 
2532:n32g430_std_periph_driver/src/n32g430_tim.c **** /**
2533:n32g430_std_periph_driver/src/n32g430_tim.c **** *\*\name    TIM_CCEN_Status_Get
2534:n32g430_std_periph_driver/src/n32g430_tim.c **** *\*\fun     Checks whether the specified TIM flag is set or not.
2535:n32g430_std_periph_driver/src/n32g430_tim.c **** *\*\param   TIMx:
2536:n32g430_std_periph_driver/src/n32g430_tim.c **** *\*\          - TIM1
2537:n32g430_std_periph_driver/src/n32g430_tim.c **** *\*\          - TIM2
2538:n32g430_std_periph_driver/src/n32g430_tim.c **** *\*\          - TIM3
2539:n32g430_std_periph_driver/src/n32g430_tim.c **** *\*\          - TIM4
2540:n32g430_std_periph_driver/src/n32g430_tim.c **** *\*\          - TIM5
2541:n32g430_std_periph_driver/src/n32g430_tim.c **** *\*\          - TIM8
2542:n32g430_std_periph_driver/src/n32g430_tim.c **** *\*\param   TIM_CCEN:
2543:n32g430_std_periph_driver/src/n32g430_tim.c **** *\*\          - TIM_CC1EN Bit
2544:n32g430_std_periph_driver/src/n32g430_tim.c **** *\*\          - TIM_CC1NEN Bit
2545:n32g430_std_periph_driver/src/n32g430_tim.c **** *\*\          - TIM_CC2EN Bit
2546:n32g430_std_periph_driver/src/n32g430_tim.c **** *\*\          - TIM_CC2NEN Bit
2547:n32g430_std_periph_driver/src/n32g430_tim.c **** *\*\          - TIM_CC3EN Bit
2548:n32g430_std_periph_driver/src/n32g430_tim.c **** *\*\          - TIM_CC3NEN Bit
2549:n32g430_std_periph_driver/src/n32g430_tim.c **** *\*\          - TIM_CC4EN Bit
2550:n32g430_std_periph_driver/src/n32g430_tim.c **** *\*\          - TIM_CC4NEN Bit
2551:n32g430_std_periph_driver/src/n32g430_tim.c **** *\*\          - TIM_CC5EN Bit
2552:n32g430_std_periph_driver/src/n32g430_tim.c **** *\*\          - TIM_CC6EN Bit
2553:n32g430_std_periph_driver/src/n32g430_tim.c **** *\*\return:
2554:n32g430_std_periph_driver/src/n32g430_tim.c **** *\*\          - SET
2555:n32g430_std_periph_driver/src/n32g430_tim.c **** *\*\          - RESET
2556:n32g430_std_periph_driver/src/n32g430_tim.c **** *\*\note:
2557:n32g430_std_periph_driver/src/n32g430_tim.c **** *\*\          - TIM_CC1NEN TIM_CC2NEN TIM_CC3NEN is used only with TIM1, TIM8.
2558:n32g430_std_periph_driver/src/n32g430_tim.c **** *\*\          - TIM_CC4NEN is used only with TIM1.
ARM GAS  C:\Users\Dawn\AppData\Local\Temp\ccf7B1Wd.s 			page 117


2559:n32g430_std_periph_driver/src/n32g430_tim.c **** **/
2560:n32g430_std_periph_driver/src/n32g430_tim.c **** FlagStatus TIM_CCEN_Status_Get(TIM_Module* TIMx, uint32_t TIM_CCEN)
2561:n32g430_std_periph_driver/src/n32g430_tim.c **** {
 4169              		.loc 1 2561 1 is_stmt 1 view -0
 4170              		.cfi_startproc
 4171              		@ args = 0, pretend = 0, frame = 0
 4172              		@ frame_needed = 0, uses_anonymous_args = 0
 4173              		@ link register save eliminated.
2562:n32g430_std_periph_driver/src/n32g430_tim.c ****     if ((TIMx->CCEN & TIM_CCEN) != (uint32_t)RESET)
 4174              		.loc 1 2562 5 view .LVU1036
 4175              		.loc 1 2562 14 is_stmt 0 view .LVU1037
 4176 0000 036A     		ldr	r3, [r0, #32]
 4177              		.loc 1 2562 8 view .LVU1038
 4178 0002 0B42     		tst	r3, r1
 4179 0004 01D0     		beq	.L208
2563:n32g430_std_periph_driver/src/n32g430_tim.c ****     {
2564:n32g430_std_periph_driver/src/n32g430_tim.c ****         return SET;
 4180              		.loc 1 2564 16 view .LVU1039
 4181 0006 0120     		movs	r0, #1
 4182              	.LVL341:
 4183              		.loc 1 2564 16 view .LVU1040
 4184 0008 7047     		bx	lr
 4185              	.LVL342:
 4186              	.L208:
2565:n32g430_std_periph_driver/src/n32g430_tim.c ****     }
2566:n32g430_std_periph_driver/src/n32g430_tim.c ****     else
2567:n32g430_std_periph_driver/src/n32g430_tim.c ****     {
2568:n32g430_std_periph_driver/src/n32g430_tim.c ****         return RESET;
 4187              		.loc 1 2568 16 view .LVU1041
 4188 000a 0020     		movs	r0, #0
 4189              	.LVL343:
2569:n32g430_std_periph_driver/src/n32g430_tim.c ****     }
2570:n32g430_std_periph_driver/src/n32g430_tim.c **** }
 4190              		.loc 1 2570 1 view .LVU1042
 4191 000c 7047     		bx	lr
 4192              		.cfi_endproc
 4193              	.LFE229:
 4195              		.section	.text.TIM_Output_Channel_Mode_Set,"ax",%progbits
 4196              		.align	1
 4197              		.global	TIM_Output_Channel_Mode_Set
 4198              		.syntax unified
 4199              		.thumb
 4200              		.thumb_func
 4202              	TIM_Output_Channel_Mode_Set:
 4203              	.LVL344:
 4204              	.LFB230:
2571:n32g430_std_periph_driver/src/n32g430_tim.c **** 
2572:n32g430_std_periph_driver/src/n32g430_tim.c **** /**
2573:n32g430_std_periph_driver/src/n32g430_tim.c **** *\*\name    TIM_Output_Channel_Mode_Set.
2574:n32g430_std_periph_driver/src/n32g430_tim.c **** *\*\fun     set the mode of output channel of TIMx
2575:n32g430_std_periph_driver/src/n32g430_tim.c **** *\*\param   TIMx:
2576:n32g430_std_periph_driver/src/n32g430_tim.c **** *\*\          - TIM1
2577:n32g430_std_periph_driver/src/n32g430_tim.c **** *\*\          - TIM2
2578:n32g430_std_periph_driver/src/n32g430_tim.c **** *\*\          - TIM3
2579:n32g430_std_periph_driver/src/n32g430_tim.c **** *\*\          - TIM4
2580:n32g430_std_periph_driver/src/n32g430_tim.c **** *\*\          - TIM5
2581:n32g430_std_periph_driver/src/n32g430_tim.c **** *\*\          - TIM8
ARM GAS  C:\Users\Dawn\AppData\Local\Temp\ccf7B1Wd.s 			page 118


2582:n32g430_std_periph_driver/src/n32g430_tim.c **** *\*\param   output_channel_mode:
2583:n32g430_std_periph_driver/src/n32g430_tim.c **** *\*\          - TIM_OCMODE_TIMING
2584:n32g430_std_periph_driver/src/n32g430_tim.c **** *\*\          - TIM_OCMODE_ACTIVE
2585:n32g430_std_periph_driver/src/n32g430_tim.c **** *\*\          - TIM_OCMODE_TOGGLE
2586:n32g430_std_periph_driver/src/n32g430_tim.c **** *\*\          - TIM_OCMODE_PWM1
2587:n32g430_std_periph_driver/src/n32g430_tim.c **** *\*\          - TIM_OCMODE_PWM2
2588:n32g430_std_periph_driver/src/n32g430_tim.c **** *\*\          - TIM_FORCED_ACTION_ACTIVE
2589:n32g430_std_periph_driver/src/n32g430_tim.c **** *\*\          - TIM_FORCED_ACTION_INACTIVE
2590:n32g430_std_periph_driver/src/n32g430_tim.c **** *\*\param   channel:
2591:n32g430_std_periph_driver/src/n32g430_tim.c **** **\           - TIM_CH_1
2592:n32g430_std_periph_driver/src/n32g430_tim.c **** **\           - TIM_CH_2
2593:n32g430_std_periph_driver/src/n32g430_tim.c **** **\           - TIM_CH_3
2594:n32g430_std_periph_driver/src/n32g430_tim.c **** **\           - TIM_CH_4
2595:n32g430_std_periph_driver/src/n32g430_tim.c **** *\*\return  none
2596:n32g430_std_periph_driver/src/n32g430_tim.c **** *\*\note    - This function disables the selected channel before changing the Output Compare Mode.
2597:n32g430_std_periph_driver/src/n32g430_tim.c **** *\*\           User has to enable this channel using TIM_Capture_Compare_Ch_Enable,TIM_Capture_Comp
2598:n32g430_std_periph_driver/src/n32g430_tim.c **** **/
2599:n32g430_std_periph_driver/src/n32g430_tim.c **** void TIM_Output_Channel_Mode_Set(TIM_Module* TIMx, uint32_t output_channel_mode, uint16_t channel)
2600:n32g430_std_periph_driver/src/n32g430_tim.c **** {
 4205              		.loc 1 2600 1 is_stmt 1 view -0
 4206              		.cfi_startproc
 4207              		@ args = 0, pretend = 0, frame = 0
 4208              		@ frame_needed = 0, uses_anonymous_args = 0
 4209              		@ link register save eliminated.
 4210              		.loc 1 2600 1 is_stmt 0 view .LVU1044
 4211 0000 10B4     		push	{r4}
 4212              	.LCFI14:
 4213              		.cfi_def_cfa_offset 4
 4214              		.cfi_offset 4, -4
2601:n32g430_std_periph_driver/src/n32g430_tim.c ****     uint32_t temp  = 0;
 4215              		.loc 1 2601 5 is_stmt 1 view .LVU1045
 4216              	.LVL345:
2602:n32g430_std_periph_driver/src/n32g430_tim.c ****     uint16_t temp1 = 0;
 4217              		.loc 1 2602 5 view .LVU1046
2603:n32g430_std_periph_driver/src/n32g430_tim.c **** 
2604:n32g430_std_periph_driver/src/n32g430_tim.c ****     temp = (uint32_t)TIMx;
 4218              		.loc 1 2604 5 view .LVU1047
2605:n32g430_std_periph_driver/src/n32g430_tim.c ****     temp += CAPCMPMOD_OFFSET;
 4219              		.loc 1 2605 5 view .LVU1048
 4220              		.loc 1 2605 10 is_stmt 0 view .LVU1049
 4221 0002 00F1180C 		add	ip, r0, #24
 4222              	.LVL346:
2606:n32g430_std_periph_driver/src/n32g430_tim.c **** 
2607:n32g430_std_periph_driver/src/n32g430_tim.c ****     temp1 = CAPCMPEN_CCE_SET << (uint16_t)channel;
 4223              		.loc 1 2607 5 is_stmt 1 view .LVU1050
 4224              		.loc 1 2607 30 is_stmt 0 view .LVU1051
 4225 0006 0123     		movs	r3, #1
 4226 0008 9340     		lsls	r3, r3, r2
 4227              		.loc 1 2607 11 view .LVU1052
 4228 000a 9BB2     		uxth	r3, r3
 4229              	.LVL347:
2608:n32g430_std_periph_driver/src/n32g430_tim.c **** 
2609:n32g430_std_periph_driver/src/n32g430_tim.c ****     /* Disable the channel: Reset the CCxE Bit */
2610:n32g430_std_periph_driver/src/n32g430_tim.c ****     TIMx->CCEN &= (uint16_t)~temp1;
 4230              		.loc 1 2610 5 is_stmt 1 view .LVU1053
 4231              		.loc 1 2610 9 is_stmt 0 view .LVU1054
 4232 000c 046A     		ldr	r4, [r0, #32]
ARM GAS  C:\Users\Dawn\AppData\Local\Temp\ccf7B1Wd.s 			page 119


 4233              		.loc 1 2610 19 view .LVU1055
 4234 000e DB43     		mvns	r3, r3
 4235              	.LVL348:
 4236              		.loc 1 2610 19 view .LVU1056
 4237 0010 9BB2     		uxth	r3, r3
 4238              	.LVL349:
 4239              		.loc 1 2610 16 view .LVU1057
 4240 0012 2340     		ands	r3, r3, r4
 4241 0014 0362     		str	r3, [r0, #32]
2611:n32g430_std_periph_driver/src/n32g430_tim.c **** 
2612:n32g430_std_periph_driver/src/n32g430_tim.c ****     if ((channel == TIM_CH_1) || (channel == TIM_CH_3))
 4242              		.loc 1 2612 5 is_stmt 1 view .LVU1058
 4243              		.loc 1 2612 8 is_stmt 0 view .LVU1059
 4244 0016 92B1     		cbz	r2, .L210
 4245              		.loc 1 2612 31 discriminator 1 view .LVU1060
 4246 0018 082A     		cmp	r2, #8
 4247 001a 10D0     		beq	.L210
2613:n32g430_std_periph_driver/src/n32g430_tim.c ****     {
2614:n32g430_std_periph_driver/src/n32g430_tim.c ****         temp += (channel >> 1);
2615:n32g430_std_periph_driver/src/n32g430_tim.c **** 
2616:n32g430_std_periph_driver/src/n32g430_tim.c ****         /* Reset the OCxM bits in the CCMRx register */
2617:n32g430_std_periph_driver/src/n32g430_tim.c ****         *(__IO uint32_t*)temp &= (uint32_t) ~((uint32_t)TIM_OC1MODE_MASK);
2618:n32g430_std_periph_driver/src/n32g430_tim.c **** 
2619:n32g430_std_periph_driver/src/n32g430_tim.c ****         /* Configure the OCxM bits in the CCMRx register */
2620:n32g430_std_periph_driver/src/n32g430_tim.c ****         *(__IO uint32_t*)temp |= output_channel_mode;
2621:n32g430_std_periph_driver/src/n32g430_tim.c ****     }
2622:n32g430_std_periph_driver/src/n32g430_tim.c ****     else
2623:n32g430_std_periph_driver/src/n32g430_tim.c ****     {
2624:n32g430_std_periph_driver/src/n32g430_tim.c ****         temp += (uint16_t)(channel - (uint16_t)4) >> (uint16_t)1;
 4248              		.loc 1 2624 9 is_stmt 1 view .LVU1061
 4249              		.loc 1 2624 17 is_stmt 0 view .LVU1062
 4250 001c 043A     		subs	r2, r2, #4
 4251              	.LVL350:
 4252              		.loc 1 2624 51 view .LVU1063
 4253 001e C2F34E02 		ubfx	r2, r2, #1, #15
 4254              	.LVL351:
2625:n32g430_std_periph_driver/src/n32g430_tim.c **** 
2626:n32g430_std_periph_driver/src/n32g430_tim.c ****         /* Reset the OCxM bits in the CCMRx register */
2627:n32g430_std_periph_driver/src/n32g430_tim.c ****         *(__IO uint32_t*)temp &= (uint32_t) ~((uint32_t)TIM_OC2MODE_MASK);
 4255              		.loc 1 2627 9 is_stmt 1 view .LVU1064
 4256 0022 52F80C30 		ldr	r3, [r2, ip]
 4257              		.loc 1 2627 31 is_stmt 0 view .LVU1065
 4258 0026 23F4E043 		bic	r3, r3, #28672
 4259 002a 42F80C30 		str	r3, [r2, ip]
2628:n32g430_std_periph_driver/src/n32g430_tim.c **** 
2629:n32g430_std_periph_driver/src/n32g430_tim.c ****         /* Configure the OCxM bits in the CCMRx register */
2630:n32g430_std_periph_driver/src/n32g430_tim.c ****         *(__IO uint32_t*)temp |= (uint16_t)(output_channel_mode << 8);
 4260              		.loc 1 2630 9 is_stmt 1 view .LVU1066
 4261 002e 52F80C30 		ldr	r3, [r2, ip]
 4262              		.loc 1 2630 34 is_stmt 0 view .LVU1067
 4263 0032 0902     		lsls	r1, r1, #8
 4264              	.LVL352:
 4265              		.loc 1 2630 34 view .LVU1068
 4266 0034 89B2     		uxth	r1, r1
 4267              		.loc 1 2630 31 view .LVU1069
 4268 0036 0B43     		orrs	r3, r3, r1
 4269 0038 42F80C30 		str	r3, [r2, ip]
ARM GAS  C:\Users\Dawn\AppData\Local\Temp\ccf7B1Wd.s 			page 120


2631:n32g430_std_periph_driver/src/n32g430_tim.c ****     }
2632:n32g430_std_periph_driver/src/n32g430_tim.c **** }
 4270              		.loc 1 2632 1 view .LVU1070
 4271 003c 0BE0     		b	.L209
 4272              	.LVL353:
 4273              	.L210:
2614:n32g430_std_periph_driver/src/n32g430_tim.c **** 
 4274              		.loc 1 2614 9 is_stmt 1 view .LVU1071
2614:n32g430_std_periph_driver/src/n32g430_tim.c **** 
 4275              		.loc 1 2614 26 is_stmt 0 view .LVU1072
 4276 003e 5208     		lsrs	r2, r2, #1
 4277              	.LVL354:
2617:n32g430_std_periph_driver/src/n32g430_tim.c **** 
 4278              		.loc 1 2617 9 is_stmt 1 view .LVU1073
 4279 0040 52F80C30 		ldr	r3, [r2, ip]
2617:n32g430_std_periph_driver/src/n32g430_tim.c **** 
 4280              		.loc 1 2617 31 is_stmt 0 view .LVU1074
 4281 0044 23F07003 		bic	r3, r3, #112
 4282 0048 42F80C30 		str	r3, [r2, ip]
2620:n32g430_std_periph_driver/src/n32g430_tim.c ****     }
 4283              		.loc 1 2620 9 is_stmt 1 view .LVU1075
 4284 004c 52F80C30 		ldr	r3, [r2, ip]
2620:n32g430_std_periph_driver/src/n32g430_tim.c ****     }
 4285              		.loc 1 2620 31 is_stmt 0 view .LVU1076
 4286 0050 0B43     		orrs	r3, r3, r1
 4287 0052 42F80C30 		str	r3, [r2, ip]
 4288              	.LVL355:
 4289              	.L209:
 4290              		.loc 1 2632 1 view .LVU1077
 4291 0056 10BC     		pop	{r4}
 4292              	.LCFI15:
 4293              		.cfi_restore 4
 4294              		.cfi_def_cfa_offset 0
 4295 0058 7047     		bx	lr
 4296              		.cfi_endproc
 4297              	.LFE230:
 4299              		.section	.text.TIM_Forced_Output_Channel1_Set,"ax",%progbits
 4300              		.align	1
 4301              		.global	TIM_Forced_Output_Channel1_Set
 4302              		.syntax unified
 4303              		.thumb
 4304              		.thumb_func
 4306              	TIM_Forced_Output_Channel1_Set:
 4307              	.LVL356:
 4308              	.LFB231:
2633:n32g430_std_periph_driver/src/n32g430_tim.c **** 
2634:n32g430_std_periph_driver/src/n32g430_tim.c **** /**
2635:n32g430_std_periph_driver/src/n32g430_tim.c **** *\*\name    TIM_Forced_Output_Channel1_Set.
2636:n32g430_std_periph_driver/src/n32g430_tim.c **** *\*\fun     set the mode of output channel of TIMx
2637:n32g430_std_periph_driver/src/n32g430_tim.c **** *\*\param   TIMx:
2638:n32g430_std_periph_driver/src/n32g430_tim.c **** *\*\          - TIM1
2639:n32g430_std_periph_driver/src/n32g430_tim.c **** *\*\          - TIM2
2640:n32g430_std_periph_driver/src/n32g430_tim.c **** *\*\          - TIM3
2641:n32g430_std_periph_driver/src/n32g430_tim.c **** *\*\          - TIM4
2642:n32g430_std_periph_driver/src/n32g430_tim.c **** *\*\          - TIM5
2643:n32g430_std_periph_driver/src/n32g430_tim.c **** *\*\          - TIM8
2644:n32g430_std_periph_driver/src/n32g430_tim.c **** *\*\param   TIM_forced_action:
ARM GAS  C:\Users\Dawn\AppData\Local\Temp\ccf7B1Wd.s 			page 121


2645:n32g430_std_periph_driver/src/n32g430_tim.c **** *\*\          - TIM_FORCED_ACTION_ACTIVE Force active level on OC1REF
2646:n32g430_std_periph_driver/src/n32g430_tim.c **** *\*\          - TIM_FORCED_ACTION_INACTIVE Force inactive level on OC1REF.
2647:n32g430_std_periph_driver/src/n32g430_tim.c **** *\*\return  none
2648:n32g430_std_periph_driver/src/n32g430_tim.c **** **/
2649:n32g430_std_periph_driver/src/n32g430_tim.c **** void TIM_Forced_Output_Channel1_Set(TIM_Module* TIMx, uint16_t TIM_forced_action)
2650:n32g430_std_periph_driver/src/n32g430_tim.c **** {
 4309              		.loc 1 2650 1 is_stmt 1 view -0
 4310              		.cfi_startproc
 4311              		@ args = 0, pretend = 0, frame = 0
 4312              		@ frame_needed = 0, uses_anonymous_args = 0
 4313              		@ link register save eliminated.
2651:n32g430_std_periph_driver/src/n32g430_tim.c ****     uint16_t temp_value = 0;
 4314              		.loc 1 2651 5 view .LVU1079
2652:n32g430_std_periph_driver/src/n32g430_tim.c ****     /* Check the parameters */
2653:n32g430_std_periph_driver/src/n32g430_tim.c ****     temp_value = TIMx->CCMOD1;
 4315              		.loc 1 2653 5 view .LVU1080
 4316              		.loc 1 2653 16 is_stmt 0 view .LVU1081
 4317 0000 038B     		ldrh	r3, [r0, #24]
 4318 0002 9BB2     		uxth	r3, r3
 4319              	.LVL357:
2654:n32g430_std_periph_driver/src/n32g430_tim.c ****     /* Reset the OC1M Bits */
2655:n32g430_std_periph_driver/src/n32g430_tim.c ****     temp_value &= (uint16_t) ~((uint16_t)TIM_OC1MODE_MASK);
 4320              		.loc 1 2655 5 is_stmt 1 view .LVU1082
 4321              		.loc 1 2655 16 is_stmt 0 view .LVU1083
 4322 0004 23F07003 		bic	r3, r3, #112
 4323              	.LVL358:
2656:n32g430_std_periph_driver/src/n32g430_tim.c ****     /* Configure The Forced output Mode */
2657:n32g430_std_periph_driver/src/n32g430_tim.c ****     temp_value |= TIM_forced_action;
 4324              		.loc 1 2657 5 is_stmt 1 view .LVU1084
 4325              		.loc 1 2657 16 is_stmt 0 view .LVU1085
 4326 0008 0B43     		orrs	r3, r3, r1
 4327              	.LVL359:
2658:n32g430_std_periph_driver/src/n32g430_tim.c ****     /* Write to TIMx CCMOD1 register */
2659:n32g430_std_periph_driver/src/n32g430_tim.c ****     TIMx->CCMOD1 = temp_value;    
 4328              		.loc 1 2659 5 is_stmt 1 view .LVU1086
 4329              		.loc 1 2659 18 is_stmt 0 view .LVU1087
 4330 000a 0383     		strh	r3, [r0, #24]	@ movhi
2660:n32g430_std_periph_driver/src/n32g430_tim.c **** }
 4331              		.loc 1 2660 1 view .LVU1088
 4332 000c 7047     		bx	lr
 4333              		.cfi_endproc
 4334              	.LFE231:
 4336              		.section	.text.TIM_Forced_Output_Channel2_Set,"ax",%progbits
 4337              		.align	1
 4338              		.global	TIM_Forced_Output_Channel2_Set
 4339              		.syntax unified
 4340              		.thumb
 4341              		.thumb_func
 4343              	TIM_Forced_Output_Channel2_Set:
 4344              	.LVL360:
 4345              	.LFB232:
2661:n32g430_std_periph_driver/src/n32g430_tim.c **** 
2662:n32g430_std_periph_driver/src/n32g430_tim.c **** /**
2663:n32g430_std_periph_driver/src/n32g430_tim.c **** *\*\name    TIM_Output_Channe2_Mode_Set.
2664:n32g430_std_periph_driver/src/n32g430_tim.c **** *\*\fun     set the mode of output channe2 of TIMx
2665:n32g430_std_periph_driver/src/n32g430_tim.c **** *\*\param   TIMx:
2666:n32g430_std_periph_driver/src/n32g430_tim.c **** *\*\          - TIM1
ARM GAS  C:\Users\Dawn\AppData\Local\Temp\ccf7B1Wd.s 			page 122


2667:n32g430_std_periph_driver/src/n32g430_tim.c **** *\*\          - TIM2
2668:n32g430_std_periph_driver/src/n32g430_tim.c **** *\*\          - TIM3
2669:n32g430_std_periph_driver/src/n32g430_tim.c **** *\*\          - TIM4
2670:n32g430_std_periph_driver/src/n32g430_tim.c **** *\*\          - TIM5
2671:n32g430_std_periph_driver/src/n32g430_tim.c **** *\*\          - TIM8
2672:n32g430_std_periph_driver/src/n32g430_tim.c **** *\*\param   TIM_forced_action:
2673:n32g430_std_periph_driver/src/n32g430_tim.c **** *\*\          - TIM_FORCED_ACTION_ACTIVE Force active level on OC2REF
2674:n32g430_std_periph_driver/src/n32g430_tim.c **** *\*\          - TIM_FORCED_ACTION_INACTIVE Force inactive level on OC2REF.
2675:n32g430_std_periph_driver/src/n32g430_tim.c **** *\*\return  none
2676:n32g430_std_periph_driver/src/n32g430_tim.c **** **/
2677:n32g430_std_periph_driver/src/n32g430_tim.c **** void TIM_Forced_Output_Channel2_Set(TIM_Module* TIMx, uint16_t TIM_forced_action)
2678:n32g430_std_periph_driver/src/n32g430_tim.c **** {
 4346              		.loc 1 2678 1 is_stmt 1 view -0
 4347              		.cfi_startproc
 4348              		@ args = 0, pretend = 0, frame = 0
 4349              		@ frame_needed = 0, uses_anonymous_args = 0
 4350              		@ link register save eliminated.
2679:n32g430_std_periph_driver/src/n32g430_tim.c ****     uint16_t temp_value = 0;
 4351              		.loc 1 2679 5 view .LVU1090
2680:n32g430_std_periph_driver/src/n32g430_tim.c ****     /* Check the parameters */
2681:n32g430_std_periph_driver/src/n32g430_tim.c ****     temp_value = TIMx->CCMOD1;
 4352              		.loc 1 2681 5 view .LVU1091
 4353              		.loc 1 2681 16 is_stmt 0 view .LVU1092
 4354 0000 038B     		ldrh	r3, [r0, #24]
 4355 0002 9BB2     		uxth	r3, r3
 4356              	.LVL361:
2682:n32g430_std_periph_driver/src/n32g430_tim.c ****     /* Reset the OC1M Bits */
2683:n32g430_std_periph_driver/src/n32g430_tim.c ****     temp_value &= (uint16_t) ~((uint16_t)TIM_OC2MODE_MASK);
 4357              		.loc 1 2683 5 is_stmt 1 view .LVU1093
 4358              		.loc 1 2683 16 is_stmt 0 view .LVU1094
 4359 0004 23F4E043 		bic	r3, r3, #28672
 4360              	.LVL362:
2684:n32g430_std_periph_driver/src/n32g430_tim.c ****     /* Configure The Forced output Mode */
2685:n32g430_std_periph_driver/src/n32g430_tim.c ****     temp_value |= (uint16_t)(TIM_forced_action << 8);
 4361              		.loc 1 2685 5 is_stmt 1 view .LVU1095
 4362              		.loc 1 2685 19 is_stmt 0 view .LVU1096
 4363 0008 0902     		lsls	r1, r1, #8
 4364              	.LVL363:
 4365              		.loc 1 2685 19 view .LVU1097
 4366 000a 89B2     		uxth	r1, r1
 4367              		.loc 1 2685 16 view .LVU1098
 4368 000c 0B43     		orrs	r3, r3, r1
 4369              	.LVL364:
2686:n32g430_std_periph_driver/src/n32g430_tim.c ****     /* Write to TIMx CCMOD1 register */
2687:n32g430_std_periph_driver/src/n32g430_tim.c ****     TIMx->CCMOD1 = temp_value;    
 4370              		.loc 1 2687 5 is_stmt 1 view .LVU1099
 4371              		.loc 1 2687 18 is_stmt 0 view .LVU1100
 4372 000e 0383     		strh	r3, [r0, #24]	@ movhi
2688:n32g430_std_periph_driver/src/n32g430_tim.c **** }
 4373              		.loc 1 2688 1 view .LVU1101
 4374 0010 7047     		bx	lr
 4375              		.cfi_endproc
 4376              	.LFE232:
 4378              		.section	.text.TIM_Forced_Output_Channel3_Set,"ax",%progbits
 4379              		.align	1
 4380              		.global	TIM_Forced_Output_Channel3_Set
 4381              		.syntax unified
ARM GAS  C:\Users\Dawn\AppData\Local\Temp\ccf7B1Wd.s 			page 123


 4382              		.thumb
 4383              		.thumb_func
 4385              	TIM_Forced_Output_Channel3_Set:
 4386              	.LVL365:
 4387              	.LFB233:
2689:n32g430_std_periph_driver/src/n32g430_tim.c **** 
2690:n32g430_std_periph_driver/src/n32g430_tim.c **** /**
2691:n32g430_std_periph_driver/src/n32g430_tim.c **** *\*\name    TIM_Output_Channe3_Mode_Set.
2692:n32g430_std_periph_driver/src/n32g430_tim.c **** *\*\fun     set the mode of output channe3 of TIMx
2693:n32g430_std_periph_driver/src/n32g430_tim.c **** *\*\param   TIMx:
2694:n32g430_std_periph_driver/src/n32g430_tim.c **** *\*\          - TIM1
2695:n32g430_std_periph_driver/src/n32g430_tim.c **** *\*\          - TIM2
2696:n32g430_std_periph_driver/src/n32g430_tim.c **** *\*\          - TIM3
2697:n32g430_std_periph_driver/src/n32g430_tim.c **** *\*\          - TIM4
2698:n32g430_std_periph_driver/src/n32g430_tim.c **** *\*\          - TIM5
2699:n32g430_std_periph_driver/src/n32g430_tim.c **** *\*\          - TIM8
2700:n32g430_std_periph_driver/src/n32g430_tim.c **** *\*\param   TIM_forced_action:
2701:n32g430_std_periph_driver/src/n32g430_tim.c **** *\*\          - TIM_FORCED_ACTION_ACTIVE Force active level on OC3REF
2702:n32g430_std_periph_driver/src/n32g430_tim.c **** *\*\          - TIM_FORCED_ACTION_INACTIVE Force inactive level on OC3REF.
2703:n32g430_std_periph_driver/src/n32g430_tim.c **** *\*\return  none
2704:n32g430_std_periph_driver/src/n32g430_tim.c **** **/
2705:n32g430_std_periph_driver/src/n32g430_tim.c **** void TIM_Forced_Output_Channel3_Set(TIM_Module* TIMx, uint16_t TIM_forced_action)
2706:n32g430_std_periph_driver/src/n32g430_tim.c **** {
 4388              		.loc 1 2706 1 is_stmt 1 view -0
 4389              		.cfi_startproc
 4390              		@ args = 0, pretend = 0, frame = 0
 4391              		@ frame_needed = 0, uses_anonymous_args = 0
 4392              		@ link register save eliminated.
2707:n32g430_std_periph_driver/src/n32g430_tim.c ****     uint16_t temp_value = 0;
 4393              		.loc 1 2707 5 view .LVU1103
2708:n32g430_std_periph_driver/src/n32g430_tim.c ****     /* Check the parameters */
2709:n32g430_std_periph_driver/src/n32g430_tim.c ****     temp_value = TIMx->CCMOD2;
 4394              		.loc 1 2709 5 view .LVU1104
 4395              		.loc 1 2709 22 is_stmt 0 view .LVU1105
 4396 0000 C369     		ldr	r3, [r0, #28]
 4397              		.loc 1 2709 16 view .LVU1106
 4398 0002 9BB2     		uxth	r3, r3
 4399              	.LVL366:
2710:n32g430_std_periph_driver/src/n32g430_tim.c ****     /* Reset the OC1M Bits */
2711:n32g430_std_periph_driver/src/n32g430_tim.c ****     temp_value &= (uint16_t) ~((uint16_t)TIM_OC3MODE_MASK);
 4400              		.loc 1 2711 5 is_stmt 1 view .LVU1107
 4401              		.loc 1 2711 16 is_stmt 0 view .LVU1108
 4402 0004 23F07003 		bic	r3, r3, #112
 4403              	.LVL367:
2712:n32g430_std_periph_driver/src/n32g430_tim.c ****     /* Configure The Forced output Mode */
2713:n32g430_std_periph_driver/src/n32g430_tim.c ****     temp_value |= TIM_forced_action;
 4404              		.loc 1 2713 5 is_stmt 1 view .LVU1109
 4405              		.loc 1 2713 16 is_stmt 0 view .LVU1110
 4406 0008 0B43     		orrs	r3, r3, r1
 4407              	.LVL368:
2714:n32g430_std_periph_driver/src/n32g430_tim.c ****     /* Write to TIMx CCMOD1 register */
2715:n32g430_std_periph_driver/src/n32g430_tim.c ****     TIMx->CCMOD2 = temp_value;    
 4408              		.loc 1 2715 5 is_stmt 1 view .LVU1111
 4409              		.loc 1 2715 18 is_stmt 0 view .LVU1112
 4410 000a C361     		str	r3, [r0, #28]
2716:n32g430_std_periph_driver/src/n32g430_tim.c **** }
 4411              		.loc 1 2716 1 view .LVU1113
ARM GAS  C:\Users\Dawn\AppData\Local\Temp\ccf7B1Wd.s 			page 124


 4412 000c 7047     		bx	lr
 4413              		.cfi_endproc
 4414              	.LFE233:
 4416              		.section	.text.TIM_Forced_Output_Channel4_Set,"ax",%progbits
 4417              		.align	1
 4418              		.global	TIM_Forced_Output_Channel4_Set
 4419              		.syntax unified
 4420              		.thumb
 4421              		.thumb_func
 4423              	TIM_Forced_Output_Channel4_Set:
 4424              	.LVL369:
 4425              	.LFB234:
2717:n32g430_std_periph_driver/src/n32g430_tim.c **** 
2718:n32g430_std_periph_driver/src/n32g430_tim.c **** /**
2719:n32g430_std_periph_driver/src/n32g430_tim.c **** *\*\name    TIM_Output_Channe4_Mode_Set.
2720:n32g430_std_periph_driver/src/n32g430_tim.c **** *\*\fun     set the mode of output channe4 of TIMx
2721:n32g430_std_periph_driver/src/n32g430_tim.c **** *\*\param   TIMx:
2722:n32g430_std_periph_driver/src/n32g430_tim.c **** *\*\          - TIM1
2723:n32g430_std_periph_driver/src/n32g430_tim.c **** *\*\          - TIM2
2724:n32g430_std_periph_driver/src/n32g430_tim.c **** *\*\          - TIM3
2725:n32g430_std_periph_driver/src/n32g430_tim.c **** *\*\          - TIM4
2726:n32g430_std_periph_driver/src/n32g430_tim.c **** *\*\          - TIM5
2727:n32g430_std_periph_driver/src/n32g430_tim.c **** *\*\          - TIM8
2728:n32g430_std_periph_driver/src/n32g430_tim.c **** *\*\param   TIM_forced_action:
2729:n32g430_std_periph_driver/src/n32g430_tim.c **** *\*\          - TIM_FORCED_ACTION_ACTIVE Force active level on OC4REF
2730:n32g430_std_periph_driver/src/n32g430_tim.c **** *\*\          - TIM_FORCED_ACTION_INACTIVE Force inactive level on OC4REF.
2731:n32g430_std_periph_driver/src/n32g430_tim.c **** *\*\return  none
2732:n32g430_std_periph_driver/src/n32g430_tim.c **** **/
2733:n32g430_std_periph_driver/src/n32g430_tim.c **** void TIM_Forced_Output_Channel4_Set(TIM_Module* TIMx, uint16_t TIM_forced_action)
2734:n32g430_std_periph_driver/src/n32g430_tim.c **** {
 4426              		.loc 1 2734 1 is_stmt 1 view -0
 4427              		.cfi_startproc
 4428              		@ args = 0, pretend = 0, frame = 0
 4429              		@ frame_needed = 0, uses_anonymous_args = 0
 4430              		@ link register save eliminated.
2735:n32g430_std_periph_driver/src/n32g430_tim.c ****     uint16_t temp_value = 0;
 4431              		.loc 1 2735 5 view .LVU1115
2736:n32g430_std_periph_driver/src/n32g430_tim.c ****     /* Check the parameters */
2737:n32g430_std_periph_driver/src/n32g430_tim.c ****     temp_value = TIMx->CCMOD2;
 4432              		.loc 1 2737 5 view .LVU1116
 4433              		.loc 1 2737 22 is_stmt 0 view .LVU1117
 4434 0000 C369     		ldr	r3, [r0, #28]
 4435              		.loc 1 2737 16 view .LVU1118
 4436 0002 9BB2     		uxth	r3, r3
 4437              	.LVL370:
2738:n32g430_std_periph_driver/src/n32g430_tim.c ****     /* Reset the OC1M Bits */
2739:n32g430_std_periph_driver/src/n32g430_tim.c ****     temp_value &= (uint16_t) ~((uint16_t)TIM_OC4MODE_MASK);
 4438              		.loc 1 2739 5 is_stmt 1 view .LVU1119
 4439              		.loc 1 2739 16 is_stmt 0 view .LVU1120
 4440 0004 23F4E043 		bic	r3, r3, #28672
 4441              	.LVL371:
2740:n32g430_std_periph_driver/src/n32g430_tim.c ****     /* Configure The Forced output Mode */
2741:n32g430_std_periph_driver/src/n32g430_tim.c ****     temp_value |= (uint16_t)(TIM_forced_action << 8);
 4442              		.loc 1 2741 5 is_stmt 1 view .LVU1121
 4443              		.loc 1 2741 19 is_stmt 0 view .LVU1122
 4444 0008 0902     		lsls	r1, r1, #8
 4445              	.LVL372:
ARM GAS  C:\Users\Dawn\AppData\Local\Temp\ccf7B1Wd.s 			page 125


 4446              		.loc 1 2741 19 view .LVU1123
 4447 000a 89B2     		uxth	r1, r1
 4448              		.loc 1 2741 16 view .LVU1124
 4449 000c 0B43     		orrs	r3, r3, r1
 4450              	.LVL373:
2742:n32g430_std_periph_driver/src/n32g430_tim.c ****     /* Write to TIMx CCMOD1 register */
2743:n32g430_std_periph_driver/src/n32g430_tim.c ****     TIMx->CCMOD2 = temp_value;    
 4451              		.loc 1 2743 5 is_stmt 1 view .LVU1125
 4452              		.loc 1 2743 18 is_stmt 0 view .LVU1126
 4453 000e C361     		str	r3, [r0, #28]
2744:n32g430_std_periph_driver/src/n32g430_tim.c **** }
 4454              		.loc 1 2744 1 view .LVU1127
 4455 0010 7047     		bx	lr
 4456              		.cfi_endproc
 4457              	.LFE234:
 4459              		.section	.text.TIM_Forced_Output_Channel5_Set,"ax",%progbits
 4460              		.align	1
 4461              		.global	TIM_Forced_Output_Channel5_Set
 4462              		.syntax unified
 4463              		.thumb
 4464              		.thumb_func
 4466              	TIM_Forced_Output_Channel5_Set:
 4467              	.LVL374:
 4468              	.LFB235:
2745:n32g430_std_periph_driver/src/n32g430_tim.c **** 
2746:n32g430_std_periph_driver/src/n32g430_tim.c **** /**
2747:n32g430_std_periph_driver/src/n32g430_tim.c **** *\*\name    TIM_Output_Channe5_Mode_Set.
2748:n32g430_std_periph_driver/src/n32g430_tim.c **** *\*\fun     set the mode of output channe5 of TIMx
2749:n32g430_std_periph_driver/src/n32g430_tim.c **** *\*\param   TIMx:
2750:n32g430_std_periph_driver/src/n32g430_tim.c **** *\*\          - TIM1
2751:n32g430_std_periph_driver/src/n32g430_tim.c **** *\*\          - TIM8
2752:n32g430_std_periph_driver/src/n32g430_tim.c **** *\*\param   TIM_forced_action:
2753:n32g430_std_periph_driver/src/n32g430_tim.c **** *\*\          - TIM_FORCED_ACTION_ACTIVE Force active level on OC5REF
2754:n32g430_std_periph_driver/src/n32g430_tim.c **** *\*\          - TIM_FORCED_ACTION_INACTIVE Force inactive level on OC5REF.
2755:n32g430_std_periph_driver/src/n32g430_tim.c **** *\*\return  none
2756:n32g430_std_periph_driver/src/n32g430_tim.c **** **/
2757:n32g430_std_periph_driver/src/n32g430_tim.c **** void TIM_Forced_Output_Channel5_Set(TIM_Module* TIMx, uint16_t TIM_forced_action)
2758:n32g430_std_periph_driver/src/n32g430_tim.c **** {
 4469              		.loc 1 2758 1 is_stmt 1 view -0
 4470              		.cfi_startproc
 4471              		@ args = 0, pretend = 0, frame = 0
 4472              		@ frame_needed = 0, uses_anonymous_args = 0
 4473              		@ link register save eliminated.
2759:n32g430_std_periph_driver/src/n32g430_tim.c ****     uint16_t temp_value = 0;
 4474              		.loc 1 2759 5 view .LVU1129
2760:n32g430_std_periph_driver/src/n32g430_tim.c ****     /* Check the parameters */
2761:n32g430_std_periph_driver/src/n32g430_tim.c ****     temp_value = TIMx->CCMOD3;
 4475              		.loc 1 2761 5 view .LVU1130
 4476              		.loc 1 2761 16 is_stmt 0 view .LVU1131
 4477 0000 B0F85430 		ldrh	r3, [r0, #84]
 4478 0004 9BB2     		uxth	r3, r3
 4479              	.LVL375:
2762:n32g430_std_periph_driver/src/n32g430_tim.c ****     /* Reset the OC1M Bits */
2763:n32g430_std_periph_driver/src/n32g430_tim.c ****     temp_value &= (uint16_t) ~((uint16_t)TIM_OC5MODE_MASK);
 4480              		.loc 1 2763 5 is_stmt 1 view .LVU1132
 4481              		.loc 1 2763 16 is_stmt 0 view .LVU1133
 4482 0006 23F07003 		bic	r3, r3, #112
ARM GAS  C:\Users\Dawn\AppData\Local\Temp\ccf7B1Wd.s 			page 126


 4483              	.LVL376:
2764:n32g430_std_periph_driver/src/n32g430_tim.c ****     /* Configure The Forced output Mode */
2765:n32g430_std_periph_driver/src/n32g430_tim.c ****     temp_value |= TIM_forced_action;
 4484              		.loc 1 2765 5 is_stmt 1 view .LVU1134
 4485              		.loc 1 2765 16 is_stmt 0 view .LVU1135
 4486 000a 0B43     		orrs	r3, r3, r1
 4487              	.LVL377:
2766:n32g430_std_periph_driver/src/n32g430_tim.c ****     /* Write to TIMx CCMOD3 register */
2767:n32g430_std_periph_driver/src/n32g430_tim.c ****     TIMx->CCMOD3 = temp_value;    
 4488              		.loc 1 2767 5 is_stmt 1 view .LVU1136
 4489              		.loc 1 2767 18 is_stmt 0 view .LVU1137
 4490 000c A0F85430 		strh	r3, [r0, #84]	@ movhi
2768:n32g430_std_periph_driver/src/n32g430_tim.c **** }
 4491              		.loc 1 2768 1 view .LVU1138
 4492 0010 7047     		bx	lr
 4493              		.cfi_endproc
 4494              	.LFE235:
 4496              		.section	.text.TIM_Forced_Output_Channel6_Set,"ax",%progbits
 4497              		.align	1
 4498              		.global	TIM_Forced_Output_Channel6_Set
 4499              		.syntax unified
 4500              		.thumb
 4501              		.thumb_func
 4503              	TIM_Forced_Output_Channel6_Set:
 4504              	.LVL378:
 4505              	.LFB236:
2769:n32g430_std_periph_driver/src/n32g430_tim.c **** 
2770:n32g430_std_periph_driver/src/n32g430_tim.c **** /**
2771:n32g430_std_periph_driver/src/n32g430_tim.c **** *\*\name    TIM_Output_Channe6_Mode_Set.
2772:n32g430_std_periph_driver/src/n32g430_tim.c **** *\*\fun     set the mode of output channe6 of TIMx
2773:n32g430_std_periph_driver/src/n32g430_tim.c **** *\*\param   TIMx:
2774:n32g430_std_periph_driver/src/n32g430_tim.c **** *\*\          - TIM1
2775:n32g430_std_periph_driver/src/n32g430_tim.c **** *\*\          - TIM8
2776:n32g430_std_periph_driver/src/n32g430_tim.c **** *\*\param   TIM_forced_action:
2777:n32g430_std_periph_driver/src/n32g430_tim.c **** *\*\          - TIM_FORCED_ACTION_ACTIVE Force active level on OC6REF
2778:n32g430_std_periph_driver/src/n32g430_tim.c **** *\*\          - TIM_FORCED_ACTION_INACTIVE Force inactive level on OC6REF.
2779:n32g430_std_periph_driver/src/n32g430_tim.c **** *\*\return  none
2780:n32g430_std_periph_driver/src/n32g430_tim.c **** **/
2781:n32g430_std_periph_driver/src/n32g430_tim.c **** void TIM_Forced_Output_Channel6_Set(TIM_Module* TIMx, uint16_t TIM_forced_action)
2782:n32g430_std_periph_driver/src/n32g430_tim.c **** {
 4506              		.loc 1 2782 1 is_stmt 1 view -0
 4507              		.cfi_startproc
 4508              		@ args = 0, pretend = 0, frame = 0
 4509              		@ frame_needed = 0, uses_anonymous_args = 0
 4510              		@ link register save eliminated.
2783:n32g430_std_periph_driver/src/n32g430_tim.c ****     uint16_t temp_value = 0;
 4511              		.loc 1 2783 5 view .LVU1140
2784:n32g430_std_periph_driver/src/n32g430_tim.c ****     /* Check the parameters */
2785:n32g430_std_periph_driver/src/n32g430_tim.c ****     temp_value = TIMx->CCMOD3;
 4512              		.loc 1 2785 5 view .LVU1141
 4513              		.loc 1 2785 16 is_stmt 0 view .LVU1142
 4514 0000 B0F85430 		ldrh	r3, [r0, #84]
 4515 0004 9BB2     		uxth	r3, r3
 4516              	.LVL379:
2786:n32g430_std_periph_driver/src/n32g430_tim.c ****     /* Reset the OC1M Bits */
2787:n32g430_std_periph_driver/src/n32g430_tim.c ****     temp_value &= (uint16_t) ~((uint16_t)TIM_OC6MODE_MASK);
 4517              		.loc 1 2787 5 is_stmt 1 view .LVU1143
ARM GAS  C:\Users\Dawn\AppData\Local\Temp\ccf7B1Wd.s 			page 127


 4518              		.loc 1 2787 16 is_stmt 0 view .LVU1144
 4519 0006 23F4E043 		bic	r3, r3, #28672
 4520              	.LVL380:
2788:n32g430_std_periph_driver/src/n32g430_tim.c ****     /* Configure The Forced output Mode */
2789:n32g430_std_periph_driver/src/n32g430_tim.c ****     temp_value |= (uint16_t)(TIM_forced_action << 8);
 4521              		.loc 1 2789 5 is_stmt 1 view .LVU1145
 4522              		.loc 1 2789 19 is_stmt 0 view .LVU1146
 4523 000a 0902     		lsls	r1, r1, #8
 4524              	.LVL381:
 4525              		.loc 1 2789 19 view .LVU1147
 4526 000c 89B2     		uxth	r1, r1
 4527              		.loc 1 2789 16 view .LVU1148
 4528 000e 0B43     		orrs	r3, r3, r1
 4529              	.LVL382:
2790:n32g430_std_periph_driver/src/n32g430_tim.c ****     /* Write to TIMx CCMOD3 register */
2791:n32g430_std_periph_driver/src/n32g430_tim.c ****     TIMx->CCMOD3 = temp_value;    
 4530              		.loc 1 2791 5 is_stmt 1 view .LVU1149
 4531              		.loc 1 2791 18 is_stmt 0 view .LVU1150
 4532 0010 A0F85430 		strh	r3, [r0, #84]	@ movhi
2792:n32g430_std_periph_driver/src/n32g430_tim.c **** }
 4533              		.loc 1 2792 1 view .LVU1151
 4534 0014 7047     		bx	lr
 4535              		.cfi_endproc
 4536              	.LFE236:
 4538              		.section	.text.TIM_Output_Channel1_Fast_Set,"ax",%progbits
 4539              		.align	1
 4540              		.global	TIM_Output_Channel1_Fast_Set
 4541              		.syntax unified
 4542              		.thumb
 4543              		.thumb_func
 4545              	TIM_Output_Channel1_Fast_Set:
 4546              	.LVL383:
 4547              	.LFB237:
2793:n32g430_std_periph_driver/src/n32g430_tim.c **** 
2794:n32g430_std_periph_driver/src/n32g430_tim.c **** /**
2795:n32g430_std_periph_driver/src/n32g430_tim.c **** *\*\name    TIM_Output_Channel1_Fast_Set
2796:n32g430_std_periph_driver/src/n32g430_tim.c **** *\*\fun     Initializes the TIM break and dead time register
2797:n32g430_std_periph_driver/src/n32g430_tim.c **** *\*\param   TIMx:
2798:n32g430_std_periph_driver/src/n32g430_tim.c **** *\*\          - TIM1
2799:n32g430_std_periph_driver/src/n32g430_tim.c **** *\*\          - TIM2
2800:n32g430_std_periph_driver/src/n32g430_tim.c **** *\*\          - TIM3
2801:n32g430_std_periph_driver/src/n32g430_tim.c **** *\*\          - TIM4
2802:n32g430_std_periph_driver/src/n32g430_tim.c **** *\*\          - TIM5
2803:n32g430_std_periph_driver/src/n32g430_tim.c **** *\*\          - TIM8
2804:n32g430_std_periph_driver/src/n32g430_tim.c **** *\*\param   TIM_output_channel_fast:
2805:n32g430_std_periph_driver/src/n32g430_tim.c **** *\*\          - TIM_OC_FAST_ENABLE TIM Output fast enable
2806:n32g430_std_periph_driver/src/n32g430_tim.c **** *\*\          - TIM_OC_FAST_DISABLE TIM Output fast disable
2807:n32g430_std_periph_driver/src/n32g430_tim.c **** *\*\return  none
2808:n32g430_std_periph_driver/src/n32g430_tim.c **** **/
2809:n32g430_std_periph_driver/src/n32g430_tim.c **** void TIM_Output_Channel1_Fast_Set(TIM_Module* TIMx, uint16_t TIM_output_channel_fast)
2810:n32g430_std_periph_driver/src/n32g430_tim.c **** {
 4548              		.loc 1 2810 1 is_stmt 1 view -0
 4549              		.cfi_startproc
 4550              		@ args = 0, pretend = 0, frame = 0
 4551              		@ frame_needed = 0, uses_anonymous_args = 0
 4552              		@ link register save eliminated.
2811:n32g430_std_periph_driver/src/n32g430_tim.c ****     uint16_t temp_value = 0;
ARM GAS  C:\Users\Dawn\AppData\Local\Temp\ccf7B1Wd.s 			page 128


 4553              		.loc 1 2811 5 view .LVU1153
2812:n32g430_std_periph_driver/src/n32g430_tim.c ****     /* Get the TIMx CCMOD1 register value */
2813:n32g430_std_periph_driver/src/n32g430_tim.c ****     temp_value = TIMx->CCMOD1;
 4554              		.loc 1 2813 5 view .LVU1154
 4555              		.loc 1 2813 16 is_stmt 0 view .LVU1155
 4556 0000 038B     		ldrh	r3, [r0, #24]
 4557 0002 9BB2     		uxth	r3, r3
 4558              	.LVL384:
2814:n32g430_std_periph_driver/src/n32g430_tim.c ****     /* Reset the OC1FE Bit */
2815:n32g430_std_periph_driver/src/n32g430_tim.c ****     temp_value &= (uint16_t) ~((uint16_t)TIM_OC_FAST_ENABLE);
 4559              		.loc 1 2815 5 is_stmt 1 view .LVU1156
 4560              		.loc 1 2815 16 is_stmt 0 view .LVU1157
 4561 0004 23F00403 		bic	r3, r3, #4
 4562              	.LVL385:
2816:n32g430_std_periph_driver/src/n32g430_tim.c ****     /* Enable or Disable the Output Compare Fast Bit */
2817:n32g430_std_periph_driver/src/n32g430_tim.c ****     temp_value |= TIM_output_channel_fast;
 4563              		.loc 1 2817 5 is_stmt 1 view .LVU1158
 4564              		.loc 1 2817 16 is_stmt 0 view .LVU1159
 4565 0008 0B43     		orrs	r3, r3, r1
 4566              	.LVL386:
2818:n32g430_std_periph_driver/src/n32g430_tim.c ****     /* Write to TIMx CCMOD1 */
2819:n32g430_std_periph_driver/src/n32g430_tim.c ****     TIMx->CCMOD1 = temp_value;
 4567              		.loc 1 2819 5 is_stmt 1 view .LVU1160
 4568              		.loc 1 2819 18 is_stmt 0 view .LVU1161
 4569 000a 0383     		strh	r3, [r0, #24]	@ movhi
2820:n32g430_std_periph_driver/src/n32g430_tim.c **** }
 4570              		.loc 1 2820 1 view .LVU1162
 4571 000c 7047     		bx	lr
 4572              		.cfi_endproc
 4573              	.LFE237:
 4575              		.section	.text.TIM_Output_Channel2_Fast_Set,"ax",%progbits
 4576              		.align	1
 4577              		.global	TIM_Output_Channel2_Fast_Set
 4578              		.syntax unified
 4579              		.thumb
 4580              		.thumb_func
 4582              	TIM_Output_Channel2_Fast_Set:
 4583              	.LVL387:
 4584              	.LFB238:
2821:n32g430_std_periph_driver/src/n32g430_tim.c **** 
2822:n32g430_std_periph_driver/src/n32g430_tim.c **** /**
2823:n32g430_std_periph_driver/src/n32g430_tim.c **** *\*\name    TIM_Output_Channel2_Fast_Set
2824:n32g430_std_periph_driver/src/n32g430_tim.c **** *\*\fun     Initializes the TIM break and dead time register
2825:n32g430_std_periph_driver/src/n32g430_tim.c **** *\*\param   TIMx:
2826:n32g430_std_periph_driver/src/n32g430_tim.c **** *\*\          - TIM1
2827:n32g430_std_periph_driver/src/n32g430_tim.c **** *\*\          - TIM2
2828:n32g430_std_periph_driver/src/n32g430_tim.c **** *\*\          - TIM3
2829:n32g430_std_periph_driver/src/n32g430_tim.c **** *\*\          - TIM4
2830:n32g430_std_periph_driver/src/n32g430_tim.c **** *\*\          - TIM5
2831:n32g430_std_periph_driver/src/n32g430_tim.c **** *\*\          - TIM8
2832:n32g430_std_periph_driver/src/n32g430_tim.c **** *\*\param   TIM_output_channel_fast:
2833:n32g430_std_periph_driver/src/n32g430_tim.c **** *\*\          - TIM_OC_FAST_ENABLE TIM Output fast enable
2834:n32g430_std_periph_driver/src/n32g430_tim.c **** *\*\          - TIM_OC_FAST_DISABLE TIM Output fast disable
2835:n32g430_std_periph_driver/src/n32g430_tim.c **** *\*\return  none
2836:n32g430_std_periph_driver/src/n32g430_tim.c **** **/
2837:n32g430_std_periph_driver/src/n32g430_tim.c **** void TIM_Output_Channel2_Fast_Set(TIM_Module* TIMx, uint16_t TIM_output_channel_fast)
2838:n32g430_std_periph_driver/src/n32g430_tim.c **** {
ARM GAS  C:\Users\Dawn\AppData\Local\Temp\ccf7B1Wd.s 			page 129


 4585              		.loc 1 2838 1 is_stmt 1 view -0
 4586              		.cfi_startproc
 4587              		@ args = 0, pretend = 0, frame = 0
 4588              		@ frame_needed = 0, uses_anonymous_args = 0
 4589              		@ link register save eliminated.
2839:n32g430_std_periph_driver/src/n32g430_tim.c ****     uint16_t temp_value = 0;
 4590              		.loc 1 2839 5 view .LVU1164
2840:n32g430_std_periph_driver/src/n32g430_tim.c ****     /* Get the TIMx CCMOD1 register value */
2841:n32g430_std_periph_driver/src/n32g430_tim.c ****     temp_value = TIMx->CCMOD1;
 4591              		.loc 1 2841 5 view .LVU1165
 4592              		.loc 1 2841 16 is_stmt 0 view .LVU1166
 4593 0000 038B     		ldrh	r3, [r0, #24]
 4594 0002 9BB2     		uxth	r3, r3
 4595              	.LVL388:
2842:n32g430_std_periph_driver/src/n32g430_tim.c ****     /* Reset the OC1FE Bit */
2843:n32g430_std_periph_driver/src/n32g430_tim.c ****     temp_value &= (uint16_t) ~((uint16_t)TIM_CCMOD1_OC2FEN);
 4596              		.loc 1 2843 5 is_stmt 1 view .LVU1167
 4597              		.loc 1 2843 16 is_stmt 0 view .LVU1168
 4598 0004 23F48063 		bic	r3, r3, #1024
 4599              	.LVL389:
2844:n32g430_std_periph_driver/src/n32g430_tim.c ****     /* Enable or Disable the Output Compare Fast Bit */
2845:n32g430_std_periph_driver/src/n32g430_tim.c ****     temp_value |= (uint16_t)(TIM_output_channel_fast << 8);
 4600              		.loc 1 2845 5 is_stmt 1 view .LVU1169
 4601              		.loc 1 2845 19 is_stmt 0 view .LVU1170
 4602 0008 0902     		lsls	r1, r1, #8
 4603              	.LVL390:
 4604              		.loc 1 2845 19 view .LVU1171
 4605 000a 89B2     		uxth	r1, r1
 4606              		.loc 1 2845 16 view .LVU1172
 4607 000c 0B43     		orrs	r3, r3, r1
 4608              	.LVL391:
2846:n32g430_std_periph_driver/src/n32g430_tim.c ****     /* Write to TIMx CCMOD1 */
2847:n32g430_std_periph_driver/src/n32g430_tim.c ****     TIMx->CCMOD1 = temp_value;
 4609              		.loc 1 2847 5 is_stmt 1 view .LVU1173
 4610              		.loc 1 2847 18 is_stmt 0 view .LVU1174
 4611 000e 0383     		strh	r3, [r0, #24]	@ movhi
2848:n32g430_std_periph_driver/src/n32g430_tim.c **** }
 4612              		.loc 1 2848 1 view .LVU1175
 4613 0010 7047     		bx	lr
 4614              		.cfi_endproc
 4615              	.LFE238:
 4617              		.section	.text.TIM_Output_Channel3_Fast_Set,"ax",%progbits
 4618              		.align	1
 4619              		.global	TIM_Output_Channel3_Fast_Set
 4620              		.syntax unified
 4621              		.thumb
 4622              		.thumb_func
 4624              	TIM_Output_Channel3_Fast_Set:
 4625              	.LVL392:
 4626              	.LFB239:
2849:n32g430_std_periph_driver/src/n32g430_tim.c **** 
2850:n32g430_std_periph_driver/src/n32g430_tim.c **** /**
2851:n32g430_std_periph_driver/src/n32g430_tim.c **** *\*\name    TIM_Output_Channel3_Fast_Set
2852:n32g430_std_periph_driver/src/n32g430_tim.c **** *\*\fun     Initializes the TIM break and dead time register
2853:n32g430_std_periph_driver/src/n32g430_tim.c **** *\*\param   TIMx:
2854:n32g430_std_periph_driver/src/n32g430_tim.c **** *\*\          - TIM1
2855:n32g430_std_periph_driver/src/n32g430_tim.c **** *\*\          - TIM2
ARM GAS  C:\Users\Dawn\AppData\Local\Temp\ccf7B1Wd.s 			page 130


2856:n32g430_std_periph_driver/src/n32g430_tim.c **** *\*\          - TIM3
2857:n32g430_std_periph_driver/src/n32g430_tim.c **** *\*\          - TIM4
2858:n32g430_std_periph_driver/src/n32g430_tim.c **** *\*\          - TIM5
2859:n32g430_std_periph_driver/src/n32g430_tim.c **** *\*\          - TIM8
2860:n32g430_std_periph_driver/src/n32g430_tim.c **** *\*\param   TIM_output_channel_fast:
2861:n32g430_std_periph_driver/src/n32g430_tim.c **** *\*\          - TIM_OC_FAST_ENABLE TIM Output fast enable
2862:n32g430_std_periph_driver/src/n32g430_tim.c **** *\*\          - TIM_OC_FAST_DISABLE TIM Output fast disable
2863:n32g430_std_periph_driver/src/n32g430_tim.c **** *\*\return  none
2864:n32g430_std_periph_driver/src/n32g430_tim.c **** **/
2865:n32g430_std_periph_driver/src/n32g430_tim.c **** void TIM_Output_Channel3_Fast_Set(TIM_Module* TIMx, uint16_t TIM_output_channel_fast)
2866:n32g430_std_periph_driver/src/n32g430_tim.c **** {
 4627              		.loc 1 2866 1 is_stmt 1 view -0
 4628              		.cfi_startproc
 4629              		@ args = 0, pretend = 0, frame = 0
 4630              		@ frame_needed = 0, uses_anonymous_args = 0
 4631              		@ link register save eliminated.
2867:n32g430_std_periph_driver/src/n32g430_tim.c ****     uint16_t temp_value = 0;
 4632              		.loc 1 2867 5 view .LVU1177
2868:n32g430_std_periph_driver/src/n32g430_tim.c ****     /* Get the TIMx CCMOD1 register value */
2869:n32g430_std_periph_driver/src/n32g430_tim.c ****     temp_value = TIMx->CCMOD2;
 4633              		.loc 1 2869 5 view .LVU1178
 4634              		.loc 1 2869 22 is_stmt 0 view .LVU1179
 4635 0000 C369     		ldr	r3, [r0, #28]
 4636              		.loc 1 2869 16 view .LVU1180
 4637 0002 9BB2     		uxth	r3, r3
 4638              	.LVL393:
2870:n32g430_std_periph_driver/src/n32g430_tim.c ****     /* Reset the OC1FE Bit */
2871:n32g430_std_periph_driver/src/n32g430_tim.c ****     temp_value &= (uint16_t) ~((uint16_t)TIM_CCMOD2_OC3FEN);
 4639              		.loc 1 2871 5 is_stmt 1 view .LVU1181
 4640              		.loc 1 2871 16 is_stmt 0 view .LVU1182
 4641 0004 23F00403 		bic	r3, r3, #4
 4642              	.LVL394:
2872:n32g430_std_periph_driver/src/n32g430_tim.c ****     /* Enable or Disable the Output Compare Fast Bit */
2873:n32g430_std_periph_driver/src/n32g430_tim.c ****     temp_value |= TIM_output_channel_fast;
 4643              		.loc 1 2873 5 is_stmt 1 view .LVU1183
 4644              		.loc 1 2873 16 is_stmt 0 view .LVU1184
 4645 0008 0B43     		orrs	r3, r3, r1
 4646              	.LVL395:
2874:n32g430_std_periph_driver/src/n32g430_tim.c ****     /* Write to TIMx CCMOD2 */
2875:n32g430_std_periph_driver/src/n32g430_tim.c ****     TIMx->CCMOD2 = temp_value;
 4647              		.loc 1 2875 5 is_stmt 1 view .LVU1185
 4648              		.loc 1 2875 18 is_stmt 0 view .LVU1186
 4649 000a C361     		str	r3, [r0, #28]
2876:n32g430_std_periph_driver/src/n32g430_tim.c **** }
 4650              		.loc 1 2876 1 view .LVU1187
 4651 000c 7047     		bx	lr
 4652              		.cfi_endproc
 4653              	.LFE239:
 4655              		.section	.text.TIM_Output_Channel4_Fast_Set,"ax",%progbits
 4656              		.align	1
 4657              		.global	TIM_Output_Channel4_Fast_Set
 4658              		.syntax unified
 4659              		.thumb
 4660              		.thumb_func
 4662              	TIM_Output_Channel4_Fast_Set:
 4663              	.LVL396:
 4664              	.LFB240:
ARM GAS  C:\Users\Dawn\AppData\Local\Temp\ccf7B1Wd.s 			page 131


2877:n32g430_std_periph_driver/src/n32g430_tim.c **** 
2878:n32g430_std_periph_driver/src/n32g430_tim.c **** /**
2879:n32g430_std_periph_driver/src/n32g430_tim.c **** *\*\name    TIM_Output_Channel4_Fast_Set
2880:n32g430_std_periph_driver/src/n32g430_tim.c **** *\*\fun     Initializes the TIM break and dead time register
2881:n32g430_std_periph_driver/src/n32g430_tim.c **** *\*\param   TIMx:
2882:n32g430_std_periph_driver/src/n32g430_tim.c **** *\*\          - TIM1
2883:n32g430_std_periph_driver/src/n32g430_tim.c **** *\*\          - TIM2
2884:n32g430_std_periph_driver/src/n32g430_tim.c **** *\*\          - TIM3
2885:n32g430_std_periph_driver/src/n32g430_tim.c **** *\*\          - TIM4
2886:n32g430_std_periph_driver/src/n32g430_tim.c **** *\*\          - TIM5
2887:n32g430_std_periph_driver/src/n32g430_tim.c **** *\*\          - TIM8
2888:n32g430_std_periph_driver/src/n32g430_tim.c **** *\*\param   TIM_output_channel_fast:
2889:n32g430_std_periph_driver/src/n32g430_tim.c **** *\*\          - TIM_OC_FAST_ENABLE TIM Output fast enable
2890:n32g430_std_periph_driver/src/n32g430_tim.c **** *\*\          - TIM_OC_FAST_DISABLE TIM Output fast disable
2891:n32g430_std_periph_driver/src/n32g430_tim.c **** *\*\return  none
2892:n32g430_std_periph_driver/src/n32g430_tim.c **** **/
2893:n32g430_std_periph_driver/src/n32g430_tim.c **** void TIM_Output_Channel4_Fast_Set(TIM_Module* TIMx, uint16_t TIM_output_channel_fast)
2894:n32g430_std_periph_driver/src/n32g430_tim.c **** {
 4665              		.loc 1 2894 1 is_stmt 1 view -0
 4666              		.cfi_startproc
 4667              		@ args = 0, pretend = 0, frame = 0
 4668              		@ frame_needed = 0, uses_anonymous_args = 0
 4669              		@ link register save eliminated.
2895:n32g430_std_periph_driver/src/n32g430_tim.c ****     uint16_t temp_value = 0;
 4670              		.loc 1 2895 5 view .LVU1189
2896:n32g430_std_periph_driver/src/n32g430_tim.c ****     /* Get the TIMx CCMOD1 register value */
2897:n32g430_std_periph_driver/src/n32g430_tim.c ****     temp_value = TIMx->CCMOD2;
 4671              		.loc 1 2897 5 view .LVU1190
 4672              		.loc 1 2897 22 is_stmt 0 view .LVU1191
 4673 0000 C369     		ldr	r3, [r0, #28]
 4674              		.loc 1 2897 16 view .LVU1192
 4675 0002 9BB2     		uxth	r3, r3
 4676              	.LVL397:
2898:n32g430_std_periph_driver/src/n32g430_tim.c ****     /* Reset the OC1FE Bit */
2899:n32g430_std_periph_driver/src/n32g430_tim.c ****     temp_value &= (uint16_t) ~((uint16_t)TIM_CCMOD2_OC4FEN);
 4677              		.loc 1 2899 5 is_stmt 1 view .LVU1193
 4678              		.loc 1 2899 16 is_stmt 0 view .LVU1194
 4679 0004 23F48063 		bic	r3, r3, #1024
 4680              	.LVL398:
2900:n32g430_std_periph_driver/src/n32g430_tim.c ****     /* Enable or Disable the Output Compare Fast Bit */
2901:n32g430_std_periph_driver/src/n32g430_tim.c ****     temp_value |= (uint16_t)(TIM_output_channel_fast << 8);
 4681              		.loc 1 2901 5 is_stmt 1 view .LVU1195
 4682              		.loc 1 2901 19 is_stmt 0 view .LVU1196
 4683 0008 0902     		lsls	r1, r1, #8
 4684              	.LVL399:
 4685              		.loc 1 2901 19 view .LVU1197
 4686 000a 89B2     		uxth	r1, r1
 4687              		.loc 1 2901 16 view .LVU1198
 4688 000c 0B43     		orrs	r3, r3, r1
 4689              	.LVL400:
2902:n32g430_std_periph_driver/src/n32g430_tim.c ****     /* Write to TIMx CCMOD2 */
2903:n32g430_std_periph_driver/src/n32g430_tim.c ****     TIMx->CCMOD2 = temp_value;
 4690              		.loc 1 2903 5 is_stmt 1 view .LVU1199
 4691              		.loc 1 2903 18 is_stmt 0 view .LVU1200
 4692 000e C361     		str	r3, [r0, #28]
2904:n32g430_std_periph_driver/src/n32g430_tim.c **** }
 4693              		.loc 1 2904 1 view .LVU1201
ARM GAS  C:\Users\Dawn\AppData\Local\Temp\ccf7B1Wd.s 			page 132


 4694 0010 7047     		bx	lr
 4695              		.cfi_endproc
 4696              	.LFE240:
 4698              		.section	.text.TIM_Output_Channel5_Fast_Set,"ax",%progbits
 4699              		.align	1
 4700              		.global	TIM_Output_Channel5_Fast_Set
 4701              		.syntax unified
 4702              		.thumb
 4703              		.thumb_func
 4705              	TIM_Output_Channel5_Fast_Set:
 4706              	.LVL401:
 4707              	.LFB241:
2905:n32g430_std_periph_driver/src/n32g430_tim.c **** 
2906:n32g430_std_periph_driver/src/n32g430_tim.c **** /**
2907:n32g430_std_periph_driver/src/n32g430_tim.c **** *\*\name    TIM_Output_Channel5_Fast_Set
2908:n32g430_std_periph_driver/src/n32g430_tim.c **** *\*\fun     Initializes the TIM break and dead time register
2909:n32g430_std_periph_driver/src/n32g430_tim.c **** *\*\param   TIMx:
2910:n32g430_std_periph_driver/src/n32g430_tim.c **** *\*\          - TIM1
2911:n32g430_std_periph_driver/src/n32g430_tim.c **** *\*\          - TIM8
2912:n32g430_std_periph_driver/src/n32g430_tim.c **** *\*\param   TIM_output_channel_fast:
2913:n32g430_std_periph_driver/src/n32g430_tim.c **** *\*\          - TIM_OC_FAST_ENABLE TIM Output fast enable
2914:n32g430_std_periph_driver/src/n32g430_tim.c **** *\*\          - TIM_OC_FAST_DISABLE TIM Output fast disable
2915:n32g430_std_periph_driver/src/n32g430_tim.c **** *\*\return  none
2916:n32g430_std_periph_driver/src/n32g430_tim.c **** **/
2917:n32g430_std_periph_driver/src/n32g430_tim.c **** void TIM_Output_Channel5_Fast_Set(TIM_Module* TIMx, uint16_t TIM_output_channel_fast)
2918:n32g430_std_periph_driver/src/n32g430_tim.c **** {
 4708              		.loc 1 2918 1 is_stmt 1 view -0
 4709              		.cfi_startproc
 4710              		@ args = 0, pretend = 0, frame = 0
 4711              		@ frame_needed = 0, uses_anonymous_args = 0
 4712              		@ link register save eliminated.
2919:n32g430_std_periph_driver/src/n32g430_tim.c ****     uint16_t temp_value = 0;
 4713              		.loc 1 2919 5 view .LVU1203
2920:n32g430_std_periph_driver/src/n32g430_tim.c ****     /* Get the TIMx CCMOD1 register value */
2921:n32g430_std_periph_driver/src/n32g430_tim.c ****     temp_value = TIMx->CCMOD3;
 4714              		.loc 1 2921 5 view .LVU1204
 4715              		.loc 1 2921 16 is_stmt 0 view .LVU1205
 4716 0000 B0F85430 		ldrh	r3, [r0, #84]
 4717 0004 9BB2     		uxth	r3, r3
 4718              	.LVL402:
2922:n32g430_std_periph_driver/src/n32g430_tim.c ****     /* Reset the OC1FE Bit */
2923:n32g430_std_periph_driver/src/n32g430_tim.c ****     temp_value &= (uint16_t) ~((uint16_t)TIM_CCMOD3_OC5FEN);
 4719              		.loc 1 2923 5 is_stmt 1 view .LVU1206
 4720              		.loc 1 2923 16 is_stmt 0 view .LVU1207
 4721 0006 23F00403 		bic	r3, r3, #4
 4722              	.LVL403:
2924:n32g430_std_periph_driver/src/n32g430_tim.c ****     /* Enable or Disable the Output Compare Fast Bit */
2925:n32g430_std_periph_driver/src/n32g430_tim.c ****     temp_value |= TIM_output_channel_fast;
 4723              		.loc 1 2925 5 is_stmt 1 view .LVU1208
 4724              		.loc 1 2925 16 is_stmt 0 view .LVU1209
 4725 000a 0B43     		orrs	r3, r3, r1
 4726              	.LVL404:
2926:n32g430_std_periph_driver/src/n32g430_tim.c ****     /* Write to TIMx CCMOD3 */
2927:n32g430_std_periph_driver/src/n32g430_tim.c ****     TIMx->CCMOD3 = temp_value;
 4727              		.loc 1 2927 5 is_stmt 1 view .LVU1210
 4728              		.loc 1 2927 18 is_stmt 0 view .LVU1211
 4729 000c A0F85430 		strh	r3, [r0, #84]	@ movhi
ARM GAS  C:\Users\Dawn\AppData\Local\Temp\ccf7B1Wd.s 			page 133


2928:n32g430_std_periph_driver/src/n32g430_tim.c **** }
 4730              		.loc 1 2928 1 view .LVU1212
 4731 0010 7047     		bx	lr
 4732              		.cfi_endproc
 4733              	.LFE241:
 4735              		.section	.text.TIM_Output_Channel6_Fast_Set,"ax",%progbits
 4736              		.align	1
 4737              		.global	TIM_Output_Channel6_Fast_Set
 4738              		.syntax unified
 4739              		.thumb
 4740              		.thumb_func
 4742              	TIM_Output_Channel6_Fast_Set:
 4743              	.LVL405:
 4744              	.LFB242:
2929:n32g430_std_periph_driver/src/n32g430_tim.c **** 
2930:n32g430_std_periph_driver/src/n32g430_tim.c **** /**
2931:n32g430_std_periph_driver/src/n32g430_tim.c **** *\*\name    TIM_Output_Channel6_Fast_Set
2932:n32g430_std_periph_driver/src/n32g430_tim.c **** *\*\fun     Initializes the TIM break and dead time register
2933:n32g430_std_periph_driver/src/n32g430_tim.c **** *\*\param   TIMx:
2934:n32g430_std_periph_driver/src/n32g430_tim.c **** *\*\          - TIM1
2935:n32g430_std_periph_driver/src/n32g430_tim.c **** *\*\          - TIM8
2936:n32g430_std_periph_driver/src/n32g430_tim.c **** *\*\param   TIM_output_channel_fast:
2937:n32g430_std_periph_driver/src/n32g430_tim.c **** *\*\          - TIM_OC_FAST_ENABLE TIM Output fast enable
2938:n32g430_std_periph_driver/src/n32g430_tim.c **** *\*\          - TIM_OC_FAST_DISABLE TIM Output fast disable
2939:n32g430_std_periph_driver/src/n32g430_tim.c **** *\*\return  none
2940:n32g430_std_periph_driver/src/n32g430_tim.c **** **/
2941:n32g430_std_periph_driver/src/n32g430_tim.c **** void TIM_Output_Channel6_Fast_Set(TIM_Module* TIMx, uint16_t TIM_output_channel_fast)
2942:n32g430_std_periph_driver/src/n32g430_tim.c **** {
 4745              		.loc 1 2942 1 is_stmt 1 view -0
 4746              		.cfi_startproc
 4747              		@ args = 0, pretend = 0, frame = 0
 4748              		@ frame_needed = 0, uses_anonymous_args = 0
 4749              		@ link register save eliminated.
2943:n32g430_std_periph_driver/src/n32g430_tim.c ****     uint16_t temp_value = 0;
 4750              		.loc 1 2943 5 view .LVU1214
2944:n32g430_std_periph_driver/src/n32g430_tim.c ****     /* Get the TIMx CCMOD3 register value */
2945:n32g430_std_periph_driver/src/n32g430_tim.c ****     temp_value = TIMx->CCMOD3;
 4751              		.loc 1 2945 5 view .LVU1215
 4752              		.loc 1 2945 16 is_stmt 0 view .LVU1216
 4753 0000 B0F85430 		ldrh	r3, [r0, #84]
 4754 0004 9BB2     		uxth	r3, r3
 4755              	.LVL406:
2946:n32g430_std_periph_driver/src/n32g430_tim.c ****     /* Reset the OC1FE Bit */
2947:n32g430_std_periph_driver/src/n32g430_tim.c ****     temp_value &= (uint16_t) ~((uint16_t)TIM_CCMOD3_OC6FEN);
 4756              		.loc 1 2947 5 is_stmt 1 view .LVU1217
 4757              		.loc 1 2947 16 is_stmt 0 view .LVU1218
 4758 0006 23F48063 		bic	r3, r3, #1024
 4759              	.LVL407:
2948:n32g430_std_periph_driver/src/n32g430_tim.c ****     /* Enable or Disable the Output Compare Fast Bit */
2949:n32g430_std_periph_driver/src/n32g430_tim.c ****     temp_value |= (uint16_t)(TIM_output_channel_fast << 8);
 4760              		.loc 1 2949 5 is_stmt 1 view .LVU1219
 4761              		.loc 1 2949 19 is_stmt 0 view .LVU1220
 4762 000a 0902     		lsls	r1, r1, #8
 4763              	.LVL408:
 4764              		.loc 1 2949 19 view .LVU1221
 4765 000c 89B2     		uxth	r1, r1
 4766              		.loc 1 2949 16 view .LVU1222
ARM GAS  C:\Users\Dawn\AppData\Local\Temp\ccf7B1Wd.s 			page 134


 4767 000e 0B43     		orrs	r3, r3, r1
 4768              	.LVL409:
2950:n32g430_std_periph_driver/src/n32g430_tim.c ****     /* Write to TIMx CCMOD3 */
2951:n32g430_std_periph_driver/src/n32g430_tim.c ****     TIMx->CCMOD3 = temp_value;
 4769              		.loc 1 2951 5 is_stmt 1 view .LVU1223
 4770              		.loc 1 2951 18 is_stmt 0 view .LVU1224
 4771 0010 A0F85430 		strh	r3, [r0, #84]	@ movhi
2952:n32g430_std_periph_driver/src/n32g430_tim.c **** }
 4772              		.loc 1 2952 1 view .LVU1225
 4773 0014 7047     		bx	lr
 4774              		.cfi_endproc
 4775              	.LFE242:
 4777              		.section	.text.TIM_Output_Channel1_Reference_Clear,"ax",%progbits
 4778              		.align	1
 4779              		.global	TIM_Output_Channel1_Reference_Clear
 4780              		.syntax unified
 4781              		.thumb
 4782              		.thumb_func
 4784              	TIM_Output_Channel1_Reference_Clear:
 4785              	.LVL410:
 4786              	.LFB243:
2953:n32g430_std_periph_driver/src/n32g430_tim.c **** 
2954:n32g430_std_periph_driver/src/n32g430_tim.c **** /**
2955:n32g430_std_periph_driver/src/n32g430_tim.c **** *\*\name    TIM_Output_Channel1_Reference_Clear
2956:n32g430_std_periph_driver/src/n32g430_tim.c **** *\*\fun     Initializes the TIM break and dead time register
2957:n32g430_std_periph_driver/src/n32g430_tim.c **** *\*\param   TIMx:
2958:n32g430_std_periph_driver/src/n32g430_tim.c **** *\*\          - TIM1
2959:n32g430_std_periph_driver/src/n32g430_tim.c **** *\*\          - TIM2
2960:n32g430_std_periph_driver/src/n32g430_tim.c **** *\*\          - TIM3
2961:n32g430_std_periph_driver/src/n32g430_tim.c **** *\*\          - TIM4
2962:n32g430_std_periph_driver/src/n32g430_tim.c **** *\*\          - TIM5
2963:n32g430_std_periph_driver/src/n32g430_tim.c **** *\*\          - TIM8
2964:n32g430_std_periph_driver/src/n32g430_tim.c **** *\*\param   TIM_output_channel_clear:
2965:n32g430_std_periph_driver/src/n32g430_tim.c **** *\*\          - TIM_OC_CLEAR_ENABLE TIM Output clear enable
2966:n32g430_std_periph_driver/src/n32g430_tim.c **** *\*\          - TIM_OC_CLEAR_DISABLE TIM Output clear disable
2967:n32g430_std_periph_driver/src/n32g430_tim.c **** *\*\return  none
2968:n32g430_std_periph_driver/src/n32g430_tim.c **** **/
2969:n32g430_std_periph_driver/src/n32g430_tim.c **** void TIM_Output_Channel1_Reference_Clear(TIM_Module* TIMx, uint16_t TIM_output_channel_clear)
2970:n32g430_std_periph_driver/src/n32g430_tim.c **** {
 4787              		.loc 1 2970 1 is_stmt 1 view -0
 4788              		.cfi_startproc
 4789              		@ args = 0, pretend = 0, frame = 0
 4790              		@ frame_needed = 0, uses_anonymous_args = 0
 4791              		@ link register save eliminated.
2971:n32g430_std_periph_driver/src/n32g430_tim.c ****     uint16_t temp_value = 0;
 4792              		.loc 1 2971 5 view .LVU1227
2972:n32g430_std_periph_driver/src/n32g430_tim.c ****     /* Check the parameters */
2973:n32g430_std_periph_driver/src/n32g430_tim.c **** 
2974:n32g430_std_periph_driver/src/n32g430_tim.c ****     temp_value = TIMx->CCMOD1;
 4793              		.loc 1 2974 5 view .LVU1228
 4794              		.loc 1 2974 16 is_stmt 0 view .LVU1229
 4795 0000 038B     		ldrh	r3, [r0, #24]
 4796 0002 9BB2     		uxth	r3, r3
 4797              	.LVL411:
2975:n32g430_std_periph_driver/src/n32g430_tim.c **** 
2976:n32g430_std_periph_driver/src/n32g430_tim.c ****     /* Reset the OC1CE Bit */
2977:n32g430_std_periph_driver/src/n32g430_tim.c ****     temp_value &= (uint16_t) ~((uint16_t)TIM_OC1_CLEAR_MASK);
ARM GAS  C:\Users\Dawn\AppData\Local\Temp\ccf7B1Wd.s 			page 135


 4798              		.loc 1 2977 5 is_stmt 1 view .LVU1230
 4799              		.loc 1 2977 16 is_stmt 0 view .LVU1231
 4800 0004 23F08003 		bic	r3, r3, #128
 4801              	.LVL412:
2978:n32g430_std_periph_driver/src/n32g430_tim.c ****     /* Enable or Disable the Output Compare Clear Bit */
2979:n32g430_std_periph_driver/src/n32g430_tim.c ****     temp_value |= TIM_output_channel_clear;
 4802              		.loc 1 2979 5 is_stmt 1 view .LVU1232
 4803              		.loc 1 2979 16 is_stmt 0 view .LVU1233
 4804 0008 0B43     		orrs	r3, r3, r1
 4805              	.LVL413:
2980:n32g430_std_periph_driver/src/n32g430_tim.c ****     /* Write to TIMx CCMOD1 register */
2981:n32g430_std_periph_driver/src/n32g430_tim.c ****     TIMx->CCMOD1 = temp_value;    
 4806              		.loc 1 2981 5 is_stmt 1 view .LVU1234
 4807              		.loc 1 2981 18 is_stmt 0 view .LVU1235
 4808 000a 0383     		strh	r3, [r0, #24]	@ movhi
2982:n32g430_std_periph_driver/src/n32g430_tim.c **** }
 4809              		.loc 1 2982 1 view .LVU1236
 4810 000c 7047     		bx	lr
 4811              		.cfi_endproc
 4812              	.LFE243:
 4814              		.section	.text.TIM_Output_Channel2_Reference_Clear,"ax",%progbits
 4815              		.align	1
 4816              		.global	TIM_Output_Channel2_Reference_Clear
 4817              		.syntax unified
 4818              		.thumb
 4819              		.thumb_func
 4821              	TIM_Output_Channel2_Reference_Clear:
 4822              	.LVL414:
 4823              	.LFB244:
2983:n32g430_std_periph_driver/src/n32g430_tim.c **** 
2984:n32g430_std_periph_driver/src/n32g430_tim.c **** /**
2985:n32g430_std_periph_driver/src/n32g430_tim.c **** *\*\name    TIM_Output_Channel2_Reference_Clear
2986:n32g430_std_periph_driver/src/n32g430_tim.c **** *\*\fun     Initializes the TIM break and dead time register
2987:n32g430_std_periph_driver/src/n32g430_tim.c **** *\*\param   TIMx:
2988:n32g430_std_periph_driver/src/n32g430_tim.c **** *\*\          - TIM1
2989:n32g430_std_periph_driver/src/n32g430_tim.c **** *\*\          - TIM2
2990:n32g430_std_periph_driver/src/n32g430_tim.c **** *\*\          - TIM3
2991:n32g430_std_periph_driver/src/n32g430_tim.c **** *\*\          - TIM4
2992:n32g430_std_periph_driver/src/n32g430_tim.c **** *\*\          - TIM5
2993:n32g430_std_periph_driver/src/n32g430_tim.c **** *\*\          - TIM8
2994:n32g430_std_periph_driver/src/n32g430_tim.c **** *\*\param   TIM_output_channel_clear:
2995:n32g430_std_periph_driver/src/n32g430_tim.c **** *\*\          - TIM_OC_CLEAR_ENABLE TIM Output clear enable
2996:n32g430_std_periph_driver/src/n32g430_tim.c **** *\*\          - TIM_OC_CLEAR_DISABLE TIM Output clear disable
2997:n32g430_std_periph_driver/src/n32g430_tim.c **** *\*\return  none
2998:n32g430_std_periph_driver/src/n32g430_tim.c **** **/
2999:n32g430_std_periph_driver/src/n32g430_tim.c **** void TIM_Output_Channel2_Reference_Clear(TIM_Module* TIMx, uint16_t TIM_output_channel_clear)
3000:n32g430_std_periph_driver/src/n32g430_tim.c **** {
 4824              		.loc 1 3000 1 is_stmt 1 view -0
 4825              		.cfi_startproc
 4826              		@ args = 0, pretend = 0, frame = 0
 4827              		@ frame_needed = 0, uses_anonymous_args = 0
 4828              		@ link register save eliminated.
3001:n32g430_std_periph_driver/src/n32g430_tim.c ****     uint16_t temp_value = 0;
 4829              		.loc 1 3001 5 view .LVU1238
3002:n32g430_std_periph_driver/src/n32g430_tim.c ****     /* Check the parameters */
3003:n32g430_std_periph_driver/src/n32g430_tim.c **** 
3004:n32g430_std_periph_driver/src/n32g430_tim.c ****     temp_value = TIMx->CCMOD1;
ARM GAS  C:\Users\Dawn\AppData\Local\Temp\ccf7B1Wd.s 			page 136


 4830              		.loc 1 3004 5 view .LVU1239
 4831              		.loc 1 3004 16 is_stmt 0 view .LVU1240
 4832 0000 038B     		ldrh	r3, [r0, #24]
 4833              	.LVL415:
3005:n32g430_std_periph_driver/src/n32g430_tim.c **** 
3006:n32g430_std_periph_driver/src/n32g430_tim.c ****     /* Reset the OC1CE Bit */
3007:n32g430_std_periph_driver/src/n32g430_tim.c ****     temp_value &= (uint16_t) ~((uint16_t)TIM_OC2_CLEAR_MASK);
 4834              		.loc 1 3007 5 is_stmt 1 view .LVU1241
 4835              		.loc 1 3007 16 is_stmt 0 view .LVU1242
 4836 0002 C3F30E03 		ubfx	r3, r3, #0, #15
 4837              	.LVL416:
3008:n32g430_std_periph_driver/src/n32g430_tim.c ****     /* Enable or Disable the Output Compare Clear Bit */
3009:n32g430_std_periph_driver/src/n32g430_tim.c ****     temp_value |= (uint16_t)(TIM_output_channel_clear << 8);
 4838              		.loc 1 3009 5 is_stmt 1 view .LVU1243
 4839              		.loc 1 3009 19 is_stmt 0 view .LVU1244
 4840 0006 0902     		lsls	r1, r1, #8
 4841              	.LVL417:
 4842              		.loc 1 3009 19 view .LVU1245
 4843 0008 89B2     		uxth	r1, r1
 4844              		.loc 1 3009 16 view .LVU1246
 4845 000a 1943     		orrs	r1, r1, r3
 4846              	.LVL418:
3010:n32g430_std_periph_driver/src/n32g430_tim.c ****     /* Write to TIMx CCMOD1 register */
3011:n32g430_std_periph_driver/src/n32g430_tim.c ****     TIMx->CCMOD1 = temp_value;    
 4847              		.loc 1 3011 5 is_stmt 1 view .LVU1247
 4848              		.loc 1 3011 18 is_stmt 0 view .LVU1248
 4849 000c 0183     		strh	r1, [r0, #24]	@ movhi
3012:n32g430_std_periph_driver/src/n32g430_tim.c **** }
 4850              		.loc 1 3012 1 view .LVU1249
 4851 000e 7047     		bx	lr
 4852              		.cfi_endproc
 4853              	.LFE244:
 4855              		.section	.text.TIM_Output_Channel3_Reference_Clear,"ax",%progbits
 4856              		.align	1
 4857              		.global	TIM_Output_Channel3_Reference_Clear
 4858              		.syntax unified
 4859              		.thumb
 4860              		.thumb_func
 4862              	TIM_Output_Channel3_Reference_Clear:
 4863              	.LVL419:
 4864              	.LFB245:
3013:n32g430_std_periph_driver/src/n32g430_tim.c **** 
3014:n32g430_std_periph_driver/src/n32g430_tim.c **** /**
3015:n32g430_std_periph_driver/src/n32g430_tim.c **** *\*\name    TIM_Output_Channel3_Reference_Clear
3016:n32g430_std_periph_driver/src/n32g430_tim.c **** *\*\fun     Initializes the TIM break and dead time register
3017:n32g430_std_periph_driver/src/n32g430_tim.c **** *\*\param   TIMx:
3018:n32g430_std_periph_driver/src/n32g430_tim.c **** *\*\          - TIM1
3019:n32g430_std_periph_driver/src/n32g430_tim.c **** *\*\          - TIM2
3020:n32g430_std_periph_driver/src/n32g430_tim.c **** *\*\          - TIM3
3021:n32g430_std_periph_driver/src/n32g430_tim.c **** *\*\          - TIM4
3022:n32g430_std_periph_driver/src/n32g430_tim.c **** *\*\          - TIM5
3023:n32g430_std_periph_driver/src/n32g430_tim.c **** *\*\          - TIM8
3024:n32g430_std_periph_driver/src/n32g430_tim.c **** *\*\param   TIM_output_channel_clear:
3025:n32g430_std_periph_driver/src/n32g430_tim.c **** *\*\          - TIM_OC_CLEAR_ENABLE TIM Output clear enable
3026:n32g430_std_periph_driver/src/n32g430_tim.c **** *\*\          - TIM_OC_CLEAR_DISABLE TIM Output clear disable
3027:n32g430_std_periph_driver/src/n32g430_tim.c **** *\*\return  none
3028:n32g430_std_periph_driver/src/n32g430_tim.c **** **/
ARM GAS  C:\Users\Dawn\AppData\Local\Temp\ccf7B1Wd.s 			page 137


3029:n32g430_std_periph_driver/src/n32g430_tim.c **** void TIM_Output_Channel3_Reference_Clear(TIM_Module* TIMx, uint16_t TIM_output_channel_clear)
3030:n32g430_std_periph_driver/src/n32g430_tim.c **** {
 4865              		.loc 1 3030 1 is_stmt 1 view -0
 4866              		.cfi_startproc
 4867              		@ args = 0, pretend = 0, frame = 0
 4868              		@ frame_needed = 0, uses_anonymous_args = 0
 4869              		@ link register save eliminated.
3031:n32g430_std_periph_driver/src/n32g430_tim.c ****     uint16_t temp_value = 0;
 4870              		.loc 1 3031 5 view .LVU1251
3032:n32g430_std_periph_driver/src/n32g430_tim.c ****     /* Check the parameters */
3033:n32g430_std_periph_driver/src/n32g430_tim.c **** 
3034:n32g430_std_periph_driver/src/n32g430_tim.c ****     temp_value = TIMx->CCMOD2;
 4871              		.loc 1 3034 5 view .LVU1252
 4872              		.loc 1 3034 22 is_stmt 0 view .LVU1253
 4873 0000 C369     		ldr	r3, [r0, #28]
 4874              		.loc 1 3034 16 view .LVU1254
 4875 0002 9BB2     		uxth	r3, r3
 4876              	.LVL420:
3035:n32g430_std_periph_driver/src/n32g430_tim.c **** 
3036:n32g430_std_periph_driver/src/n32g430_tim.c ****     /* Reset the OC1CE Bit */
3037:n32g430_std_periph_driver/src/n32g430_tim.c ****     temp_value &= (uint16_t) ~((uint16_t)TIM_OC3_CLEAR_MASK);
 4877              		.loc 1 3037 5 is_stmt 1 view .LVU1255
 4878              		.loc 1 3037 16 is_stmt 0 view .LVU1256
 4879 0004 23F08003 		bic	r3, r3, #128
 4880              	.LVL421:
3038:n32g430_std_periph_driver/src/n32g430_tim.c ****     /* Enable or Disable the Output Compare Clear Bit */
3039:n32g430_std_periph_driver/src/n32g430_tim.c ****     temp_value |= TIM_output_channel_clear;
 4881              		.loc 1 3039 5 is_stmt 1 view .LVU1257
 4882              		.loc 1 3039 16 is_stmt 0 view .LVU1258
 4883 0008 0B43     		orrs	r3, r3, r1
 4884              	.LVL422:
3040:n32g430_std_periph_driver/src/n32g430_tim.c ****     /* Write to TIMx CCMOD2 register */
3041:n32g430_std_periph_driver/src/n32g430_tim.c ****     TIMx->CCMOD2 = temp_value;    
 4885              		.loc 1 3041 5 is_stmt 1 view .LVU1259
 4886              		.loc 1 3041 18 is_stmt 0 view .LVU1260
 4887 000a C361     		str	r3, [r0, #28]
3042:n32g430_std_periph_driver/src/n32g430_tim.c **** }
 4888              		.loc 1 3042 1 view .LVU1261
 4889 000c 7047     		bx	lr
 4890              		.cfi_endproc
 4891              	.LFE245:
 4893              		.section	.text.TIM_Output_Channel4_Reference_Clear,"ax",%progbits
 4894              		.align	1
 4895              		.global	TIM_Output_Channel4_Reference_Clear
 4896              		.syntax unified
 4897              		.thumb
 4898              		.thumb_func
 4900              	TIM_Output_Channel4_Reference_Clear:
 4901              	.LVL423:
 4902              	.LFB246:
3043:n32g430_std_periph_driver/src/n32g430_tim.c **** 
3044:n32g430_std_periph_driver/src/n32g430_tim.c **** /**
3045:n32g430_std_periph_driver/src/n32g430_tim.c **** *\*\name    TIM_Output_Channel4_Reference_Clear
3046:n32g430_std_periph_driver/src/n32g430_tim.c **** *\*\fun     Initializes the TIM break and dead time register
3047:n32g430_std_periph_driver/src/n32g430_tim.c **** *\*\param   TIMx:
3048:n32g430_std_periph_driver/src/n32g430_tim.c **** *\*\          - TIM1
3049:n32g430_std_periph_driver/src/n32g430_tim.c **** *\*\          - TIM2
ARM GAS  C:\Users\Dawn\AppData\Local\Temp\ccf7B1Wd.s 			page 138


3050:n32g430_std_periph_driver/src/n32g430_tim.c **** *\*\          - TIM3
3051:n32g430_std_periph_driver/src/n32g430_tim.c **** *\*\          - TIM4
3052:n32g430_std_periph_driver/src/n32g430_tim.c **** *\*\          - TIM5
3053:n32g430_std_periph_driver/src/n32g430_tim.c **** *\*\          - TIM8
3054:n32g430_std_periph_driver/src/n32g430_tim.c **** *\*\param   TIM_output_channel_clear:
3055:n32g430_std_periph_driver/src/n32g430_tim.c **** *\*\          - TIM_OC_CLEAR_ENABLE TIM Output clear enable
3056:n32g430_std_periph_driver/src/n32g430_tim.c **** *\*\          - TIM_OC_CLEAR_DISABLE TIM Output clear disable
3057:n32g430_std_periph_driver/src/n32g430_tim.c **** *\*\return  none
3058:n32g430_std_periph_driver/src/n32g430_tim.c **** **/
3059:n32g430_std_periph_driver/src/n32g430_tim.c **** void TIM_Output_Channel4_Reference_Clear(TIM_Module* TIMx, uint16_t TIM_output_channel_clear)
3060:n32g430_std_periph_driver/src/n32g430_tim.c **** {
 4903              		.loc 1 3060 1 is_stmt 1 view -0
 4904              		.cfi_startproc
 4905              		@ args = 0, pretend = 0, frame = 0
 4906              		@ frame_needed = 0, uses_anonymous_args = 0
 4907              		@ link register save eliminated.
3061:n32g430_std_periph_driver/src/n32g430_tim.c ****     uint16_t temp_value = 0;
 4908              		.loc 1 3061 5 view .LVU1263
3062:n32g430_std_periph_driver/src/n32g430_tim.c ****     /* Check the parameters */
3063:n32g430_std_periph_driver/src/n32g430_tim.c **** 
3064:n32g430_std_periph_driver/src/n32g430_tim.c ****     temp_value = TIMx->CCMOD2;
 4909              		.loc 1 3064 5 view .LVU1264
 4910              		.loc 1 3064 22 is_stmt 0 view .LVU1265
 4911 0000 C369     		ldr	r3, [r0, #28]
 4912              	.LVL424:
3065:n32g430_std_periph_driver/src/n32g430_tim.c **** 
3066:n32g430_std_periph_driver/src/n32g430_tim.c ****     /* Reset the OC1CE Bit */
3067:n32g430_std_periph_driver/src/n32g430_tim.c ****     temp_value &= (uint16_t) ~((uint16_t)TIM_OC4_CLEAR_MASK);
 4913              		.loc 1 3067 5 is_stmt 1 view .LVU1266
 4914              		.loc 1 3067 16 is_stmt 0 view .LVU1267
 4915 0002 C3F30E03 		ubfx	r3, r3, #0, #15
 4916              	.LVL425:
3068:n32g430_std_periph_driver/src/n32g430_tim.c ****     /* Enable or Disable the Output Compare Clear Bit */
3069:n32g430_std_periph_driver/src/n32g430_tim.c ****     temp_value |= (uint16_t)(TIM_output_channel_clear << 8);
 4917              		.loc 1 3069 5 is_stmt 1 view .LVU1268
 4918              		.loc 1 3069 19 is_stmt 0 view .LVU1269
 4919 0006 0902     		lsls	r1, r1, #8
 4920              	.LVL426:
 4921              		.loc 1 3069 19 view .LVU1270
 4922 0008 89B2     		uxth	r1, r1
 4923              		.loc 1 3069 16 view .LVU1271
 4924 000a 1943     		orrs	r1, r1, r3
 4925              	.LVL427:
3070:n32g430_std_periph_driver/src/n32g430_tim.c ****     /* Write to TIMx CCMOD2 register */
3071:n32g430_std_periph_driver/src/n32g430_tim.c ****     TIMx->CCMOD2 = temp_value;    
 4926              		.loc 1 3071 5 is_stmt 1 view .LVU1272
 4927              		.loc 1 3071 18 is_stmt 0 view .LVU1273
 4928 000c C161     		str	r1, [r0, #28]
3072:n32g430_std_periph_driver/src/n32g430_tim.c **** }
 4929              		.loc 1 3072 1 view .LVU1274
 4930 000e 7047     		bx	lr
 4931              		.cfi_endproc
 4932              	.LFE246:
 4934              		.section	.text.TIM_Output_Channel5_Reference_Clear,"ax",%progbits
 4935              		.align	1
 4936              		.global	TIM_Output_Channel5_Reference_Clear
 4937              		.syntax unified
ARM GAS  C:\Users\Dawn\AppData\Local\Temp\ccf7B1Wd.s 			page 139


 4938              		.thumb
 4939              		.thumb_func
 4941              	TIM_Output_Channel5_Reference_Clear:
 4942              	.LVL428:
 4943              	.LFB247:
3073:n32g430_std_periph_driver/src/n32g430_tim.c **** /**
3074:n32g430_std_periph_driver/src/n32g430_tim.c **** *\*\name    TIM_Output_Channel5_Reference_Clear
3075:n32g430_std_periph_driver/src/n32g430_tim.c **** *\*\fun     Initializes the TIM break and dead time register
3076:n32g430_std_periph_driver/src/n32g430_tim.c **** *\*\param   TIMx:
3077:n32g430_std_periph_driver/src/n32g430_tim.c **** *\*\          - TIM1
3078:n32g430_std_periph_driver/src/n32g430_tim.c **** *\*\          - TIM8
3079:n32g430_std_periph_driver/src/n32g430_tim.c **** *\*\param   TIM_output_channel_clear:
3080:n32g430_std_periph_driver/src/n32g430_tim.c **** *\*\          - TIM_OC_CLEAR_ENABLE TIM Output clear enable
3081:n32g430_std_periph_driver/src/n32g430_tim.c **** *\*\          - TIM_OC_CLEAR_DISABLE TIM Output clear disable
3082:n32g430_std_periph_driver/src/n32g430_tim.c **** *\*\return  none
3083:n32g430_std_periph_driver/src/n32g430_tim.c **** **/
3084:n32g430_std_periph_driver/src/n32g430_tim.c **** void TIM_Output_Channel5_Reference_Clear(TIM_Module* TIMx, uint16_t TIM_output_channel_clear)
3085:n32g430_std_periph_driver/src/n32g430_tim.c **** {
 4944              		.loc 1 3085 1 is_stmt 1 view -0
 4945              		.cfi_startproc
 4946              		@ args = 0, pretend = 0, frame = 0
 4947              		@ frame_needed = 0, uses_anonymous_args = 0
 4948              		@ link register save eliminated.
3086:n32g430_std_periph_driver/src/n32g430_tim.c ****     uint16_t temp_value = 0;
 4949              		.loc 1 3086 5 view .LVU1276
3087:n32g430_std_periph_driver/src/n32g430_tim.c ****     /* Check the parameters */
3088:n32g430_std_periph_driver/src/n32g430_tim.c **** 
3089:n32g430_std_periph_driver/src/n32g430_tim.c ****     temp_value = TIMx->CCMOD3;
 4950              		.loc 1 3089 5 view .LVU1277
 4951              		.loc 1 3089 16 is_stmt 0 view .LVU1278
 4952 0000 B0F85430 		ldrh	r3, [r0, #84]
 4953 0004 9BB2     		uxth	r3, r3
 4954              	.LVL429:
3090:n32g430_std_periph_driver/src/n32g430_tim.c **** 
3091:n32g430_std_periph_driver/src/n32g430_tim.c ****     /* Reset the OC1CE Bit */
3092:n32g430_std_periph_driver/src/n32g430_tim.c ****     temp_value &= (uint16_t) ~((uint16_t)TIM_OC5_CLEAR_MASK);
 4955              		.loc 1 3092 5 is_stmt 1 view .LVU1279
 4956              		.loc 1 3092 16 is_stmt 0 view .LVU1280
 4957 0006 23F08003 		bic	r3, r3, #128
 4958              	.LVL430:
3093:n32g430_std_periph_driver/src/n32g430_tim.c ****     /* Enable or Disable the Output Compare Clear Bit */
3094:n32g430_std_periph_driver/src/n32g430_tim.c ****     temp_value |= TIM_output_channel_clear;
 4959              		.loc 1 3094 5 is_stmt 1 view .LVU1281
 4960              		.loc 1 3094 16 is_stmt 0 view .LVU1282
 4961 000a 0B43     		orrs	r3, r3, r1
 4962              	.LVL431:
3095:n32g430_std_periph_driver/src/n32g430_tim.c ****     /* Write to TIMx CCMOD3 register */
3096:n32g430_std_periph_driver/src/n32g430_tim.c ****     TIMx->CCMOD3 = temp_value;    
 4963              		.loc 1 3096 5 is_stmt 1 view .LVU1283
 4964              		.loc 1 3096 18 is_stmt 0 view .LVU1284
 4965 000c A0F85430 		strh	r3, [r0, #84]	@ movhi
3097:n32g430_std_periph_driver/src/n32g430_tim.c **** }
 4966              		.loc 1 3097 1 view .LVU1285
 4967 0010 7047     		bx	lr
 4968              		.cfi_endproc
 4969              	.LFE247:
 4971              		.section	.text.TIM_Output_Channel6_Reference_Clear,"ax",%progbits
ARM GAS  C:\Users\Dawn\AppData\Local\Temp\ccf7B1Wd.s 			page 140


 4972              		.align	1
 4973              		.global	TIM_Output_Channel6_Reference_Clear
 4974              		.syntax unified
 4975              		.thumb
 4976              		.thumb_func
 4978              	TIM_Output_Channel6_Reference_Clear:
 4979              	.LVL432:
 4980              	.LFB248:
3098:n32g430_std_periph_driver/src/n32g430_tim.c **** 
3099:n32g430_std_periph_driver/src/n32g430_tim.c **** /**
3100:n32g430_std_periph_driver/src/n32g430_tim.c **** *\*\name    TIM_Output_Channel6_Reference_Clear
3101:n32g430_std_periph_driver/src/n32g430_tim.c **** *\*\fun     Initializes the TIM break and dead time register
3102:n32g430_std_periph_driver/src/n32g430_tim.c **** *\*\param   TIMx:
3103:n32g430_std_periph_driver/src/n32g430_tim.c **** *\*\          - TIM1
3104:n32g430_std_periph_driver/src/n32g430_tim.c **** *\*\          - TIM8
3105:n32g430_std_periph_driver/src/n32g430_tim.c **** *\*\param   TIM_output_channel_clear:
3106:n32g430_std_periph_driver/src/n32g430_tim.c **** *\*\          - TIM_OC_CLEAR_ENABLE TIM Output clear enable
3107:n32g430_std_periph_driver/src/n32g430_tim.c **** *\*\          - TIM_OC_CLEAR_DISABLE TIM Output clear disable
3108:n32g430_std_periph_driver/src/n32g430_tim.c **** *\*\return  none
3109:n32g430_std_periph_driver/src/n32g430_tim.c **** **/
3110:n32g430_std_periph_driver/src/n32g430_tim.c **** void TIM_Output_Channel6_Reference_Clear(TIM_Module* TIMx, uint16_t TIM_output_channel_clear)
3111:n32g430_std_periph_driver/src/n32g430_tim.c **** {
 4981              		.loc 1 3111 1 is_stmt 1 view -0
 4982              		.cfi_startproc
 4983              		@ args = 0, pretend = 0, frame = 0
 4984              		@ frame_needed = 0, uses_anonymous_args = 0
 4985              		@ link register save eliminated.
3112:n32g430_std_periph_driver/src/n32g430_tim.c ****     uint16_t temp_value = 0;
 4986              		.loc 1 3112 5 view .LVU1287
3113:n32g430_std_periph_driver/src/n32g430_tim.c ****     /* Check the parameters */
3114:n32g430_std_periph_driver/src/n32g430_tim.c **** 
3115:n32g430_std_periph_driver/src/n32g430_tim.c ****     temp_value = TIMx->CCMOD3;
 4987              		.loc 1 3115 5 view .LVU1288
 4988              		.loc 1 3115 16 is_stmt 0 view .LVU1289
 4989 0000 B0F85430 		ldrh	r3, [r0, #84]
 4990              	.LVL433:
3116:n32g430_std_periph_driver/src/n32g430_tim.c **** 
3117:n32g430_std_periph_driver/src/n32g430_tim.c ****     /* Reset the OC1CE Bit */
3118:n32g430_std_periph_driver/src/n32g430_tim.c ****     temp_value &= (uint16_t) ~((uint16_t)TIM_OC6_CLEAR_MASK);
 4991              		.loc 1 3118 5 is_stmt 1 view .LVU1290
 4992              		.loc 1 3118 16 is_stmt 0 view .LVU1291
 4993 0004 C3F30E03 		ubfx	r3, r3, #0, #15
 4994              	.LVL434:
3119:n32g430_std_periph_driver/src/n32g430_tim.c ****     /* Enable or Disable the Output Compare Clear Bit */
3120:n32g430_std_periph_driver/src/n32g430_tim.c ****     temp_value |= (uint16_t)(TIM_output_channel_clear << 8);
 4995              		.loc 1 3120 5 is_stmt 1 view .LVU1292
 4996              		.loc 1 3120 19 is_stmt 0 view .LVU1293
 4997 0008 0902     		lsls	r1, r1, #8
 4998              	.LVL435:
 4999              		.loc 1 3120 19 view .LVU1294
 5000 000a 89B2     		uxth	r1, r1
 5001              		.loc 1 3120 16 view .LVU1295
 5002 000c 1943     		orrs	r1, r1, r3
 5003              	.LVL436:
3121:n32g430_std_periph_driver/src/n32g430_tim.c ****     /* Write to TIMx CCMOD3 register */
3122:n32g430_std_periph_driver/src/n32g430_tim.c ****     TIMx->CCMOD3 = temp_value;    
 5004              		.loc 1 3122 5 is_stmt 1 view .LVU1296
ARM GAS  C:\Users\Dawn\AppData\Local\Temp\ccf7B1Wd.s 			page 141


 5005              		.loc 1 3122 18 is_stmt 0 view .LVU1297
 5006 000e A0F85410 		strh	r1, [r0, #84]	@ movhi
3123:n32g430_std_periph_driver/src/n32g430_tim.c **** }
 5007              		.loc 1 3123 1 view .LVU1298
 5008 0012 7047     		bx	lr
 5009              		.cfi_endproc
 5010              	.LFE248:
 5012              		.section	.text.TIM_Output_Channel1_Initialize,"ax",%progbits
 5013              		.align	1
 5014              		.global	TIM_Output_Channel1_Initialize
 5015              		.syntax unified
 5016              		.thumb
 5017              		.thumb_func
 5019              	TIM_Output_Channel1_Initialize:
 5020              	.LVL437:
 5021              	.LFB249:
3124:n32g430_std_periph_driver/src/n32g430_tim.c **** 
3125:n32g430_std_periph_driver/src/n32g430_tim.c **** /**
3126:n32g430_std_periph_driver/src/n32g430_tim.c **** *\*\name    TIM_Output_Channel1_Initialize
3127:n32g430_std_periph_driver/src/n32g430_tim.c **** *\*\fun     Initializes the TIM break and dead time register
3128:n32g430_std_periph_driver/src/n32g430_tim.c **** *\*\param   TIMx:
3129:n32g430_std_periph_driver/src/n32g430_tim.c **** *\*\          - TIM1
3130:n32g430_std_periph_driver/src/n32g430_tim.c **** *\*\          - TIM2
3131:n32g430_std_periph_driver/src/n32g430_tim.c **** *\*\          - TIM3
3132:n32g430_std_periph_driver/src/n32g430_tim.c **** *\*\          - TIM4
3133:n32g430_std_periph_driver/src/n32g430_tim.c **** *\*\          - TIM5
3134:n32g430_std_periph_driver/src/n32g430_tim.c **** *\*\          - TIM8
3135:n32g430_std_periph_driver/src/n32g430_tim.c **** *\*\param   TIM_OCInitStruct:
3136:n32g430_std_periph_driver/src/n32g430_tim.c **** *\*\          - Refer to the definition of OCInitType.
3137:n32g430_std_periph_driver/src/n32g430_tim.c **** *\*\return  none
3138:n32g430_std_periph_driver/src/n32g430_tim.c **** **/
3139:n32g430_std_periph_driver/src/n32g430_tim.c **** void TIM_Output_Channel1_Initialize(TIM_Module* TIMx, OCInitType* TIM_OCInitStruct)
3140:n32g430_std_periph_driver/src/n32g430_tim.c **** {
 5022              		.loc 1 3140 1 is_stmt 1 view -0
 5023              		.cfi_startproc
 5024              		@ args = 0, pretend = 0, frame = 0
 5025              		@ frame_needed = 0, uses_anonymous_args = 0
 5026              		.loc 1 3140 1 is_stmt 0 view .LVU1300
 5027 0000 F8B5     		push	{r3, r4, r5, r6, r7, lr}
 5028              	.LCFI16:
 5029              		.cfi_def_cfa_offset 24
 5030              		.cfi_offset 3, -24
 5031              		.cfi_offset 4, -20
 5032              		.cfi_offset 5, -16
 5033              		.cfi_offset 6, -12
 5034              		.cfi_offset 7, -8
 5035              		.cfi_offset 14, -4
 5036 0002 0446     		mov	r4, r0
 5037 0004 0D46     		mov	r5, r1
3141:n32g430_std_periph_driver/src/n32g430_tim.c ****     uint16_t temp_value1 = 0;
 5038              		.loc 1 3141 5 is_stmt 1 view .LVU1301
 5039              	.LVL438:
3142:n32g430_std_periph_driver/src/n32g430_tim.c ****     uint32_t temp_value2 = 0;
 5040              		.loc 1 3142 5 view .LVU1302
3143:n32g430_std_periph_driver/src/n32g430_tim.c **** 
3144:n32g430_std_periph_driver/src/n32g430_tim.c ****     /* Disable the Channel 1, Reset the CC1EN Bit */
3145:n32g430_std_periph_driver/src/n32g430_tim.c ****     TIM_Capture_Compare_Ch_Disable(TIMx, TIM_CH_1);
ARM GAS  C:\Users\Dawn\AppData\Local\Temp\ccf7B1Wd.s 			page 142


 5041              		.loc 1 3145 5 view .LVU1303
 5042 0006 0021     		movs	r1, #0
 5043              	.LVL439:
 5044              		.loc 1 3145 5 is_stmt 0 view .LVU1304
 5045 0008 FFF7FEFF 		bl	TIM_Capture_Compare_Ch_Disable
 5046              	.LVL440:
3146:n32g430_std_periph_driver/src/n32g430_tim.c **** 
3147:n32g430_std_periph_driver/src/n32g430_tim.c ****     /* Get the TIMx CTRL2 register value */
3148:n32g430_std_periph_driver/src/n32g430_tim.c ****     temp_value2 = TIMx->CTRL2;
 5047              		.loc 1 3148 5 is_stmt 1 view .LVU1305
 5048              		.loc 1 3148 17 is_stmt 0 view .LVU1306
 5049 000c 6768     		ldr	r7, [r4, #4]
 5050              	.LVL441:
3149:n32g430_std_periph_driver/src/n32g430_tim.c **** 
3150:n32g430_std_periph_driver/src/n32g430_tim.c ****     /* Get the TIMx CCMOD1 register value */
3151:n32g430_std_periph_driver/src/n32g430_tim.c ****     temp_value1 = TIMx->CCMOD1;
 5051              		.loc 1 3151 5 is_stmt 1 view .LVU1307
 5052              		.loc 1 3151 17 is_stmt 0 view .LVU1308
 5053 000e 268B     		ldrh	r6, [r4, #24]
 5054 0010 B6B2     		uxth	r6, r6
 5055              	.LVL442:
3152:n32g430_std_periph_driver/src/n32g430_tim.c **** 
3153:n32g430_std_periph_driver/src/n32g430_tim.c ****     /* Reset the Output Compare Mode Bits */
3154:n32g430_std_periph_driver/src/n32g430_tim.c ****     temp_value1 &= (uint16_t)(~((uint16_t)TIM_OC1MODE_MASK));
 5056              		.loc 1 3154 5 is_stmt 1 view .LVU1309
3155:n32g430_std_periph_driver/src/n32g430_tim.c ****     temp_value1 &= (uint16_t)(~((uint16_t)TIM_IC1_SELECTION_MASK));
 5057              		.loc 1 3155 5 view .LVU1310
 5058              		.loc 1 3155 17 is_stmt 0 view .LVU1311
 5059 0012 26F07306 		bic	r6, r6, #115
 5060              	.LVL443:
3156:n32g430_std_periph_driver/src/n32g430_tim.c **** 
3157:n32g430_std_periph_driver/src/n32g430_tim.c ****     /* Select the Output Compare Mode */
3158:n32g430_std_periph_driver/src/n32g430_tim.c ****     temp_value1 |= TIM_OCInitStruct->OcMode;
 5061              		.loc 1 3158 5 is_stmt 1 view .LVU1312
 5062              		.loc 1 3158 36 is_stmt 0 view .LVU1313
 5063 0016 2B88     		ldrh	r3, [r5]
 5064              		.loc 1 3158 17 view .LVU1314
 5065 0018 1E43     		orrs	r6, r6, r3
 5066              	.LVL444:
3159:n32g430_std_periph_driver/src/n32g430_tim.c **** 
3160:n32g430_std_periph_driver/src/n32g430_tim.c ****     TIM_Output_Channel_Polarity_Set(TIMx, TIM_OCInitStruct->OcPolarity, TIM_CH_1);
 5067              		.loc 1 3160 5 is_stmt 1 view .LVU1315
 5068 001a 0022     		movs	r2, #0
 5069 001c 2989     		ldrh	r1, [r5, #8]
 5070 001e 2046     		mov	r0, r4
 5071 0020 FFF7FEFF 		bl	TIM_Output_Channel_Polarity_Set
 5072              	.LVL445:
3161:n32g430_std_periph_driver/src/n32g430_tim.c **** 
3162:n32g430_std_periph_driver/src/n32g430_tim.c ****     /* Set the Output State */
3163:n32g430_std_periph_driver/src/n32g430_tim.c ****     if(TIM_OCInitStruct->OutputState)
 5073              		.loc 1 3163 5 view .LVU1316
 5074              		.loc 1 3163 24 is_stmt 0 view .LVU1317
 5075 0024 6B88     		ldrh	r3, [r5, #2]
 5076              		.loc 1 3163 7 view .LVU1318
 5077 0026 7BB1     		cbz	r3, .L233
3164:n32g430_std_periph_driver/src/n32g430_tim.c ****     {
3165:n32g430_std_periph_driver/src/n32g430_tim.c ****         TIM_Capture_Compare_Ch_Enable(TIMx, TIM_CH_1);
ARM GAS  C:\Users\Dawn\AppData\Local\Temp\ccf7B1Wd.s 			page 143


 5078              		.loc 1 3165 9 is_stmt 1 view .LVU1319
 5079 0028 0021     		movs	r1, #0
 5080 002a 2046     		mov	r0, r4
 5081 002c FFF7FEFF 		bl	TIM_Capture_Compare_Ch_Enable
 5082              	.LVL446:
 5083              	.L234:
3166:n32g430_std_periph_driver/src/n32g430_tim.c ****     }
3167:n32g430_std_periph_driver/src/n32g430_tim.c ****     else
3168:n32g430_std_periph_driver/src/n32g430_tim.c ****     {
3169:n32g430_std_periph_driver/src/n32g430_tim.c ****         TIM_Capture_Compare_Ch_Disable(TIMx, TIM_CH_1);
3170:n32g430_std_periph_driver/src/n32g430_tim.c ****     }
3171:n32g430_std_periph_driver/src/n32g430_tim.c **** 
3172:n32g430_std_periph_driver/src/n32g430_tim.c ****     if ((TIMx == TIM1) || (TIMx == TIM8))
 5084              		.loc 1 3172 5 view .LVU1320
 5085              		.loc 1 3172 8 is_stmt 0 view .LVU1321
 5086 0030 134B     		ldr	r3, .L240
 5087 0032 9C42     		cmp	r4, r3
 5088 0034 0DD0     		beq	.L235
 5089              		.loc 1 3172 24 discriminator 1 view .LVU1322
 5090 0036 03F50063 		add	r3, r3, #2048
 5091 003a 9C42     		cmp	r4, r3
 5092 003c 09D0     		beq	.L235
 5093              	.LVL447:
 5094              	.L236:
3173:n32g430_std_periph_driver/src/n32g430_tim.c ****     {
3174:n32g430_std_periph_driver/src/n32g430_tim.c ****         /* Set the Output N Polarity level */
3175:n32g430_std_periph_driver/src/n32g430_tim.c ****         TIM_Output_Channel_N_Polarity_Set(TIMx, TIM_OCInitStruct->OcNPolarity, TIM_CH_1);
3176:n32g430_std_periph_driver/src/n32g430_tim.c **** 
3177:n32g430_std_periph_driver/src/n32g430_tim.c ****         /* Set the Output N State */
3178:n32g430_std_periph_driver/src/n32g430_tim.c ****         if(TIM_OCInitStruct->OutputNState)
3179:n32g430_std_periph_driver/src/n32g430_tim.c ****         {
3180:n32g430_std_periph_driver/src/n32g430_tim.c ****             TIM_Capture_Compare_Ch_N_Enable(TIMx, TIM_CH_1);
3181:n32g430_std_periph_driver/src/n32g430_tim.c ****         }
3182:n32g430_std_periph_driver/src/n32g430_tim.c ****         else
3183:n32g430_std_periph_driver/src/n32g430_tim.c ****         {
3184:n32g430_std_periph_driver/src/n32g430_tim.c ****             TIM_Capture_Compare_Ch_N_Disable(TIMx, TIM_CH_1);
3185:n32g430_std_periph_driver/src/n32g430_tim.c ****         }
3186:n32g430_std_periph_driver/src/n32g430_tim.c **** 
3187:n32g430_std_periph_driver/src/n32g430_tim.c ****         /* Reset the Output Compare and Output Compare N IDLE State */
3188:n32g430_std_periph_driver/src/n32g430_tim.c ****         temp_value2 &= (uint32_t)(~((uint32_t)TIM_OC1_IDLE_STATE_MASK));
3189:n32g430_std_periph_driver/src/n32g430_tim.c ****         temp_value2 &= (uint32_t)(~((uint32_t)TIM_OC1N_IDLE_STATE_MASK));
3190:n32g430_std_periph_driver/src/n32g430_tim.c **** 
3191:n32g430_std_periph_driver/src/n32g430_tim.c ****         /* Set the Output Idle state */
3192:n32g430_std_periph_driver/src/n32g430_tim.c ****         temp_value2 |= TIM_OCInitStruct->OcIdleState;
3193:n32g430_std_periph_driver/src/n32g430_tim.c ****         /* Set the Output N Idle state */
3194:n32g430_std_periph_driver/src/n32g430_tim.c ****         temp_value2 |= TIM_OCInitStruct->OcNIdleState;
3195:n32g430_std_periph_driver/src/n32g430_tim.c ****     }
3196:n32g430_std_periph_driver/src/n32g430_tim.c ****     /* Write to TIMx CTRL2 */
3197:n32g430_std_periph_driver/src/n32g430_tim.c ****     TIMx->CTRL2 = temp_value2;
 5095              		.loc 1 3197 5 is_stmt 1 view .LVU1323
 5096              		.loc 1 3197 17 is_stmt 0 view .LVU1324
 5097 003e 6760     		str	r7, [r4, #4]
3198:n32g430_std_periph_driver/src/n32g430_tim.c **** 
3199:n32g430_std_periph_driver/src/n32g430_tim.c ****     /* Write to TIMx CCMOD1 */
3200:n32g430_std_periph_driver/src/n32g430_tim.c ****     TIMx->CCMOD1 = temp_value1;
 5098              		.loc 1 3200 5 is_stmt 1 view .LVU1325
 5099              		.loc 1 3200 18 is_stmt 0 view .LVU1326
ARM GAS  C:\Users\Dawn\AppData\Local\Temp\ccf7B1Wd.s 			page 144


 5100 0040 2683     		strh	r6, [r4, #24]	@ movhi
3201:n32g430_std_periph_driver/src/n32g430_tim.c **** 
3202:n32g430_std_periph_driver/src/n32g430_tim.c ****     /* Set the Capture Compare Register value */
3203:n32g430_std_periph_driver/src/n32g430_tim.c ****     TIMx->CCDAT1 = TIM_OCInitStruct->Pulse;
 5101              		.loc 1 3203 5 is_stmt 1 view .LVU1327
 5102              		.loc 1 3203 36 is_stmt 0 view .LVU1328
 5103 0042 EB88     		ldrh	r3, [r5, #6]
 5104              		.loc 1 3203 18 view .LVU1329
 5105 0044 6363     		str	r3, [r4, #52]
3204:n32g430_std_periph_driver/src/n32g430_tim.c ****     
3205:n32g430_std_periph_driver/src/n32g430_tim.c **** }
 5106              		.loc 1 3205 1 view .LVU1330
 5107 0046 F8BD     		pop	{r3, r4, r5, r6, r7, pc}
 5108              	.LVL448:
 5109              	.L233:
3169:n32g430_std_periph_driver/src/n32g430_tim.c ****     }
 5110              		.loc 1 3169 9 is_stmt 1 view .LVU1331
 5111 0048 0021     		movs	r1, #0
 5112 004a 2046     		mov	r0, r4
 5113 004c FFF7FEFF 		bl	TIM_Capture_Compare_Ch_Disable
 5114              	.LVL449:
 5115 0050 EEE7     		b	.L234
 5116              	.L235:
3175:n32g430_std_periph_driver/src/n32g430_tim.c **** 
 5117              		.loc 1 3175 9 view .LVU1332
 5118 0052 0022     		movs	r2, #0
 5119 0054 6989     		ldrh	r1, [r5, #10]
 5120 0056 2046     		mov	r0, r4
 5121 0058 FFF7FEFF 		bl	TIM_Output_Channel_N_Polarity_Set
 5122              	.LVL450:
3178:n32g430_std_periph_driver/src/n32g430_tim.c ****         {
 5123              		.loc 1 3178 9 view .LVU1333
3178:n32g430_std_periph_driver/src/n32g430_tim.c ****         {
 5124              		.loc 1 3178 28 is_stmt 0 view .LVU1334
 5125 005c AB88     		ldrh	r3, [r5, #4]
3178:n32g430_std_periph_driver/src/n32g430_tim.c ****         {
 5126              		.loc 1 3178 11 view .LVU1335
 5127 005e 53B1     		cbz	r3, .L237
3180:n32g430_std_periph_driver/src/n32g430_tim.c ****         }
 5128              		.loc 1 3180 13 is_stmt 1 view .LVU1336
 5129 0060 0021     		movs	r1, #0
 5130 0062 2046     		mov	r0, r4
 5131 0064 FFF7FEFF 		bl	TIM_Capture_Compare_Ch_N_Enable
 5132              	.LVL451:
 5133              	.L238:
3188:n32g430_std_periph_driver/src/n32g430_tim.c ****         temp_value2 &= (uint32_t)(~((uint32_t)TIM_OC1N_IDLE_STATE_MASK));
 5134              		.loc 1 3188 9 view .LVU1337
3189:n32g430_std_periph_driver/src/n32g430_tim.c **** 
 5135              		.loc 1 3189 9 view .LVU1338
3189:n32g430_std_periph_driver/src/n32g430_tim.c **** 
 5136              		.loc 1 3189 21 is_stmt 0 view .LVU1339
 5137 0068 27F44077 		bic	r7, r7, #768
 5138              	.LVL452:
3192:n32g430_std_periph_driver/src/n32g430_tim.c ****         /* Set the Output N Idle state */
 5139              		.loc 1 3192 9 is_stmt 1 view .LVU1340
3192:n32g430_std_periph_driver/src/n32g430_tim.c ****         /* Set the Output N Idle state */
 5140              		.loc 1 3192 40 is_stmt 0 view .LVU1341
ARM GAS  C:\Users\Dawn\AppData\Local\Temp\ccf7B1Wd.s 			page 145


 5141 006c AB89     		ldrh	r3, [r5, #12]
3192:n32g430_std_periph_driver/src/n32g430_tim.c ****         /* Set the Output N Idle state */
 5142              		.loc 1 3192 21 view .LVU1342
 5143 006e 3B43     		orrs	r3, r3, r7
 5144              	.LVL453:
3194:n32g430_std_periph_driver/src/n32g430_tim.c ****     }
 5145              		.loc 1 3194 9 is_stmt 1 view .LVU1343
3194:n32g430_std_periph_driver/src/n32g430_tim.c ****     }
 5146              		.loc 1 3194 40 is_stmt 0 view .LVU1344
 5147 0070 EF89     		ldrh	r7, [r5, #14]
3194:n32g430_std_periph_driver/src/n32g430_tim.c ****     }
 5148              		.loc 1 3194 21 view .LVU1345
 5149 0072 1F43     		orrs	r7, r7, r3
 5150 0074 E3E7     		b	.L236
 5151              	.LVL454:
 5152              	.L237:
3184:n32g430_std_periph_driver/src/n32g430_tim.c ****         }
 5153              		.loc 1 3184 13 is_stmt 1 view .LVU1346
 5154 0076 0021     		movs	r1, #0
 5155 0078 2046     		mov	r0, r4
 5156 007a FFF7FEFF 		bl	TIM_Capture_Compare_Ch_N_Disable
 5157              	.LVL455:
 5158 007e F3E7     		b	.L238
 5159              	.L241:
 5160              		.align	2
 5161              	.L240:
 5162 0080 002C0140 		.word	1073818624
 5163              		.cfi_endproc
 5164              	.LFE249:
 5166              		.section	.text.TIM_Output_Channel2_Initialize,"ax",%progbits
 5167              		.align	1
 5168              		.global	TIM_Output_Channel2_Initialize
 5169              		.syntax unified
 5170              		.thumb
 5171              		.thumb_func
 5173              	TIM_Output_Channel2_Initialize:
 5174              	.LVL456:
 5175              	.LFB250:
3206:n32g430_std_periph_driver/src/n32g430_tim.c **** 
3207:n32g430_std_periph_driver/src/n32g430_tim.c **** /**
3208:n32g430_std_periph_driver/src/n32g430_tim.c **** *\*\name    TIM_Output_Channel2_Initialize
3209:n32g430_std_periph_driver/src/n32g430_tim.c **** *\*\fun     Initializes the TIM break and dead time register
3210:n32g430_std_periph_driver/src/n32g430_tim.c **** *\*\param   TIMx:
3211:n32g430_std_periph_driver/src/n32g430_tim.c **** *\*\          - TIM1
3212:n32g430_std_periph_driver/src/n32g430_tim.c **** *\*\          - TIM2
3213:n32g430_std_periph_driver/src/n32g430_tim.c **** *\*\          - TIM3
3214:n32g430_std_periph_driver/src/n32g430_tim.c **** *\*\          - TIM4
3215:n32g430_std_periph_driver/src/n32g430_tim.c **** *\*\          - TIM5
3216:n32g430_std_periph_driver/src/n32g430_tim.c **** *\*\          - TIM8
3217:n32g430_std_periph_driver/src/n32g430_tim.c **** *\*\param   TIM_OCInitStruct:
3218:n32g430_std_periph_driver/src/n32g430_tim.c **** *\*\          - Refer to the definition of OCInitType.
3219:n32g430_std_periph_driver/src/n32g430_tim.c **** *\*\return  none
3220:n32g430_std_periph_driver/src/n32g430_tim.c **** **/
3221:n32g430_std_periph_driver/src/n32g430_tim.c **** void TIM_Output_Channel2_Initialize(TIM_Module* TIMx, OCInitType* TIM_OCInitStruct)
3222:n32g430_std_periph_driver/src/n32g430_tim.c **** {
 5176              		.loc 1 3222 1 view -0
 5177              		.cfi_startproc
ARM GAS  C:\Users\Dawn\AppData\Local\Temp\ccf7B1Wd.s 			page 146


 5178              		@ args = 0, pretend = 0, frame = 0
 5179              		@ frame_needed = 0, uses_anonymous_args = 0
 5180              		.loc 1 3222 1 is_stmt 0 view .LVU1348
 5181 0000 F8B5     		push	{r3, r4, r5, r6, r7, lr}
 5182              	.LCFI17:
 5183              		.cfi_def_cfa_offset 24
 5184              		.cfi_offset 3, -24
 5185              		.cfi_offset 4, -20
 5186              		.cfi_offset 5, -16
 5187              		.cfi_offset 6, -12
 5188              		.cfi_offset 7, -8
 5189              		.cfi_offset 14, -4
 5190 0002 0446     		mov	r4, r0
 5191 0004 0D46     		mov	r5, r1
3223:n32g430_std_periph_driver/src/n32g430_tim.c ****     uint16_t temp_value1 = 0;
 5192              		.loc 1 3223 5 is_stmt 1 view .LVU1349
 5193              	.LVL457:
3224:n32g430_std_periph_driver/src/n32g430_tim.c ****     uint32_t temp_value2 = 0;
 5194              		.loc 1 3224 5 view .LVU1350
3225:n32g430_std_periph_driver/src/n32g430_tim.c **** 
3226:n32g430_std_periph_driver/src/n32g430_tim.c ****     /* Disable the Channel 2, Reset the CC2EN Bit */
3227:n32g430_std_periph_driver/src/n32g430_tim.c ****     TIM_Capture_Compare_Ch_Disable(TIMx, TIM_CH_2);
 5195              		.loc 1 3227 5 view .LVU1351
 5196 0006 0421     		movs	r1, #4
 5197              	.LVL458:
 5198              		.loc 1 3227 5 is_stmt 0 view .LVU1352
 5199 0008 FFF7FEFF 		bl	TIM_Capture_Compare_Ch_Disable
 5200              	.LVL459:
3228:n32g430_std_periph_driver/src/n32g430_tim.c **** 
3229:n32g430_std_periph_driver/src/n32g430_tim.c ****     /* Get the TIMx CTRL2 register value */
3230:n32g430_std_periph_driver/src/n32g430_tim.c ****     temp_value2 = TIMx->CTRL2;
 5201              		.loc 1 3230 5 is_stmt 1 view .LVU1353
 5202              		.loc 1 3230 17 is_stmt 0 view .LVU1354
 5203 000c 6768     		ldr	r7, [r4, #4]
 5204              	.LVL460:
3231:n32g430_std_periph_driver/src/n32g430_tim.c **** 
3232:n32g430_std_periph_driver/src/n32g430_tim.c ****     /* Get the TIMx CCMOD1 register value */
3233:n32g430_std_periph_driver/src/n32g430_tim.c ****     temp_value1 = TIMx->CCMOD1;
 5205              		.loc 1 3233 5 is_stmt 1 view .LVU1355
 5206              		.loc 1 3233 17 is_stmt 0 view .LVU1356
 5207 000e 268B     		ldrh	r6, [r4, #24]
 5208 0010 B6B2     		uxth	r6, r6
 5209              	.LVL461:
3234:n32g430_std_periph_driver/src/n32g430_tim.c **** 
3235:n32g430_std_periph_driver/src/n32g430_tim.c ****     /* Reset the Output Compare mode and Capture/Compare selection Bits */
3236:n32g430_std_periph_driver/src/n32g430_tim.c ****     temp_value1 &= (uint16_t)(~((uint16_t)TIM_OC2MODE_MASK));
 5210              		.loc 1 3236 5 is_stmt 1 view .LVU1357
3237:n32g430_std_periph_driver/src/n32g430_tim.c ****     temp_value1 &= (uint16_t)(~((uint16_t)TIM_IC2_SELECTION_MASK));
 5211              		.loc 1 3237 5 view .LVU1358
 5212              		.loc 1 3237 17 is_stmt 0 view .LVU1359
 5213 0012 26F4E646 		bic	r6, r6, #29440
 5214              	.LVL462:
3238:n32g430_std_periph_driver/src/n32g430_tim.c **** 
3239:n32g430_std_periph_driver/src/n32g430_tim.c ****     /* Select the Output Compare Mode */
3240:n32g430_std_periph_driver/src/n32g430_tim.c ****     temp_value1 |= (uint16_t)(TIM_OCInitStruct->OcMode << 8);
 5215              		.loc 1 3240 5 is_stmt 1 view .LVU1360
 5216              		.loc 1 3240 47 is_stmt 0 view .LVU1361
ARM GAS  C:\Users\Dawn\AppData\Local\Temp\ccf7B1Wd.s 			page 147


 5217 0016 2B88     		ldrh	r3, [r5]
 5218              		.loc 1 3240 20 view .LVU1362
 5219 0018 1B02     		lsls	r3, r3, #8
 5220 001a 9BB2     		uxth	r3, r3
 5221              		.loc 1 3240 17 view .LVU1363
 5222 001c 1E43     		orrs	r6, r6, r3
 5223              	.LVL463:
3241:n32g430_std_periph_driver/src/n32g430_tim.c **** 
3242:n32g430_std_periph_driver/src/n32g430_tim.c ****     TIM_Output_Channel_Polarity_Set(TIMx, TIM_OCInitStruct->OcPolarity, TIM_CH_2);
 5224              		.loc 1 3242 5 is_stmt 1 view .LVU1364
 5225 001e 0422     		movs	r2, #4
 5226 0020 2989     		ldrh	r1, [r5, #8]
 5227 0022 2046     		mov	r0, r4
 5228 0024 FFF7FEFF 		bl	TIM_Output_Channel_Polarity_Set
 5229              	.LVL464:
3243:n32g430_std_periph_driver/src/n32g430_tim.c **** 
3244:n32g430_std_periph_driver/src/n32g430_tim.c ****     /* Set the Output State */
3245:n32g430_std_periph_driver/src/n32g430_tim.c ****     if(TIM_OCInitStruct->OutputState)
 5230              		.loc 1 3245 5 view .LVU1365
 5231              		.loc 1 3245 24 is_stmt 0 view .LVU1366
 5232 0028 6B88     		ldrh	r3, [r5, #2]
 5233              		.loc 1 3245 7 view .LVU1367
 5234 002a 7BB1     		cbz	r3, .L243
3246:n32g430_std_periph_driver/src/n32g430_tim.c ****     {
3247:n32g430_std_periph_driver/src/n32g430_tim.c ****         TIM_Capture_Compare_Ch_Enable(TIMx, TIM_CH_2);
 5235              		.loc 1 3247 9 is_stmt 1 view .LVU1368
 5236 002c 0421     		movs	r1, #4
 5237 002e 2046     		mov	r0, r4
 5238 0030 FFF7FEFF 		bl	TIM_Capture_Compare_Ch_Enable
 5239              	.LVL465:
 5240              	.L244:
3248:n32g430_std_periph_driver/src/n32g430_tim.c ****     }
3249:n32g430_std_periph_driver/src/n32g430_tim.c ****     else
3250:n32g430_std_periph_driver/src/n32g430_tim.c ****     {
3251:n32g430_std_periph_driver/src/n32g430_tim.c ****         TIM_Capture_Compare_Ch_Disable(TIMx, TIM_CH_2);
3252:n32g430_std_periph_driver/src/n32g430_tim.c ****     }
3253:n32g430_std_periph_driver/src/n32g430_tim.c **** 
3254:n32g430_std_periph_driver/src/n32g430_tim.c ****     if ((TIMx == TIM1) || (TIMx == TIM8))
 5241              		.loc 1 3254 5 view .LVU1369
 5242              		.loc 1 3254 8 is_stmt 0 view .LVU1370
 5243 0034 144B     		ldr	r3, .L250
 5244 0036 9C42     		cmp	r4, r3
 5245 0038 0DD0     		beq	.L245
 5246              		.loc 1 3254 24 discriminator 1 view .LVU1371
 5247 003a 03F50063 		add	r3, r3, #2048
 5248 003e 9C42     		cmp	r4, r3
 5249 0040 09D0     		beq	.L245
 5250              	.LVL466:
 5251              	.L246:
3255:n32g430_std_periph_driver/src/n32g430_tim.c ****     {
3256:n32g430_std_periph_driver/src/n32g430_tim.c ****         /* Set the Output N Polarity level */
3257:n32g430_std_periph_driver/src/n32g430_tim.c ****         TIM_Output_Channel_N_Polarity_Set(TIMx, TIM_OCInitStruct->OcNPolarity, TIM_CH_2);
3258:n32g430_std_periph_driver/src/n32g430_tim.c **** 
3259:n32g430_std_periph_driver/src/n32g430_tim.c ****         /* Set the Output N State */
3260:n32g430_std_periph_driver/src/n32g430_tim.c ****         if(TIM_OCInitStruct->OutputNState)
3261:n32g430_std_periph_driver/src/n32g430_tim.c ****         {
3262:n32g430_std_periph_driver/src/n32g430_tim.c ****             TIM_Capture_Compare_Ch_N_Enable(TIMx, TIM_CH_2);
ARM GAS  C:\Users\Dawn\AppData\Local\Temp\ccf7B1Wd.s 			page 148


3263:n32g430_std_periph_driver/src/n32g430_tim.c ****         }
3264:n32g430_std_periph_driver/src/n32g430_tim.c ****         else
3265:n32g430_std_periph_driver/src/n32g430_tim.c ****         {
3266:n32g430_std_periph_driver/src/n32g430_tim.c ****             TIM_Capture_Compare_Ch_N_Disable(TIMx, TIM_CH_2);
3267:n32g430_std_periph_driver/src/n32g430_tim.c ****         }
3268:n32g430_std_periph_driver/src/n32g430_tim.c **** 
3269:n32g430_std_periph_driver/src/n32g430_tim.c ****         /* Reset the Output Compare and Output Compare N IDLE State */
3270:n32g430_std_periph_driver/src/n32g430_tim.c ****         temp_value2 &= (uint32_t)(~((uint32_t)TIM_OC2_IDLE_STATE_MASK));
3271:n32g430_std_periph_driver/src/n32g430_tim.c ****         temp_value2 &= (uint32_t)(~((uint32_t)TIM_OC2N_IDLE_STATE_MASK));
3272:n32g430_std_periph_driver/src/n32g430_tim.c **** 
3273:n32g430_std_periph_driver/src/n32g430_tim.c ****         /* Set the Output Idle state */
3274:n32g430_std_periph_driver/src/n32g430_tim.c ****         temp_value2 |= (uint32_t)(TIM_OCInitStruct->OcIdleState << 2);
3275:n32g430_std_periph_driver/src/n32g430_tim.c ****         /* Set the Output N Idle state */
3276:n32g430_std_periph_driver/src/n32g430_tim.c ****         temp_value2 |= (uint32_t)(TIM_OCInitStruct->OcNIdleState << 2);
3277:n32g430_std_periph_driver/src/n32g430_tim.c ****     }
3278:n32g430_std_periph_driver/src/n32g430_tim.c ****     /* Write to TIMx CTRL2 */
3279:n32g430_std_periph_driver/src/n32g430_tim.c ****     TIMx->CTRL2 = temp_value2;
 5252              		.loc 1 3279 5 is_stmt 1 view .LVU1372
 5253              		.loc 1 3279 17 is_stmt 0 view .LVU1373
 5254 0042 6760     		str	r7, [r4, #4]
3280:n32g430_std_periph_driver/src/n32g430_tim.c **** 
3281:n32g430_std_periph_driver/src/n32g430_tim.c ****     /* Write to TIMx CCMOD1 */
3282:n32g430_std_periph_driver/src/n32g430_tim.c ****     TIMx->CCMOD1 = temp_value1;
 5255              		.loc 1 3282 5 is_stmt 1 view .LVU1374
 5256              		.loc 1 3282 18 is_stmt 0 view .LVU1375
 5257 0044 2683     		strh	r6, [r4, #24]	@ movhi
3283:n32g430_std_periph_driver/src/n32g430_tim.c **** 
3284:n32g430_std_periph_driver/src/n32g430_tim.c ****     /* Set the Capture Compare Register value */
3285:n32g430_std_periph_driver/src/n32g430_tim.c ****     TIMx->CCDAT2 = TIM_OCInitStruct->Pulse;
 5258              		.loc 1 3285 5 is_stmt 1 view .LVU1376
 5259              		.loc 1 3285 36 is_stmt 0 view .LVU1377
 5260 0046 EB88     		ldrh	r3, [r5, #6]
 5261              		.loc 1 3285 18 view .LVU1378
 5262 0048 A363     		str	r3, [r4, #56]
3286:n32g430_std_periph_driver/src/n32g430_tim.c **** 
3287:n32g430_std_periph_driver/src/n32g430_tim.c **** }
 5263              		.loc 1 3287 1 view .LVU1379
 5264 004a F8BD     		pop	{r3, r4, r5, r6, r7, pc}
 5265              	.LVL467:
 5266              	.L243:
3251:n32g430_std_periph_driver/src/n32g430_tim.c ****     }
 5267              		.loc 1 3251 9 is_stmt 1 view .LVU1380
 5268 004c 0421     		movs	r1, #4
 5269 004e 2046     		mov	r0, r4
 5270 0050 FFF7FEFF 		bl	TIM_Capture_Compare_Ch_Disable
 5271              	.LVL468:
 5272 0054 EEE7     		b	.L244
 5273              	.L245:
3257:n32g430_std_periph_driver/src/n32g430_tim.c **** 
 5274              		.loc 1 3257 9 view .LVU1381
 5275 0056 0422     		movs	r2, #4
 5276 0058 6989     		ldrh	r1, [r5, #10]
 5277 005a 2046     		mov	r0, r4
 5278 005c FFF7FEFF 		bl	TIM_Output_Channel_N_Polarity_Set
 5279              	.LVL469:
3260:n32g430_std_periph_driver/src/n32g430_tim.c ****         {
 5280              		.loc 1 3260 9 view .LVU1382
ARM GAS  C:\Users\Dawn\AppData\Local\Temp\ccf7B1Wd.s 			page 149


3260:n32g430_std_periph_driver/src/n32g430_tim.c ****         {
 5281              		.loc 1 3260 28 is_stmt 0 view .LVU1383
 5282 0060 AB88     		ldrh	r3, [r5, #4]
3260:n32g430_std_periph_driver/src/n32g430_tim.c ****         {
 5283              		.loc 1 3260 11 view .LVU1384
 5284 0062 63B1     		cbz	r3, .L247
3262:n32g430_std_periph_driver/src/n32g430_tim.c ****         }
 5285              		.loc 1 3262 13 is_stmt 1 view .LVU1385
 5286 0064 0421     		movs	r1, #4
 5287 0066 2046     		mov	r0, r4
 5288 0068 FFF7FEFF 		bl	TIM_Capture_Compare_Ch_N_Enable
 5289              	.LVL470:
 5290              	.L248:
3270:n32g430_std_periph_driver/src/n32g430_tim.c ****         temp_value2 &= (uint32_t)(~((uint32_t)TIM_OC2N_IDLE_STATE_MASK));
 5291              		.loc 1 3270 9 view .LVU1386
3271:n32g430_std_periph_driver/src/n32g430_tim.c **** 
 5292              		.loc 1 3271 9 view .LVU1387
3271:n32g430_std_periph_driver/src/n32g430_tim.c **** 
 5293              		.loc 1 3271 21 is_stmt 0 view .LVU1388
 5294 006c 27F44067 		bic	r7, r7, #3072
 5295              	.LVL471:
3274:n32g430_std_periph_driver/src/n32g430_tim.c ****         /* Set the Output N Idle state */
 5296              		.loc 1 3274 9 is_stmt 1 view .LVU1389
3274:n32g430_std_periph_driver/src/n32g430_tim.c ****         /* Set the Output N Idle state */
 5297              		.loc 1 3274 51 is_stmt 0 view .LVU1390
 5298 0070 AB89     		ldrh	r3, [r5, #12]
3274:n32g430_std_periph_driver/src/n32g430_tim.c ****         /* Set the Output N Idle state */
 5299              		.loc 1 3274 21 view .LVU1391
 5300 0072 47EA8307 		orr	r7, r7, r3, lsl #2
 5301              	.LVL472:
3276:n32g430_std_periph_driver/src/n32g430_tim.c ****     }
 5302              		.loc 1 3276 9 is_stmt 1 view .LVU1392
3276:n32g430_std_periph_driver/src/n32g430_tim.c ****     }
 5303              		.loc 1 3276 51 is_stmt 0 view .LVU1393
 5304 0076 EB89     		ldrh	r3, [r5, #14]
3276:n32g430_std_periph_driver/src/n32g430_tim.c ****     }
 5305              		.loc 1 3276 21 view .LVU1394
 5306 0078 47EA8307 		orr	r7, r7, r3, lsl #2
 5307              	.LVL473:
3276:n32g430_std_periph_driver/src/n32g430_tim.c ****     }
 5308              		.loc 1 3276 21 view .LVU1395
 5309 007c E1E7     		b	.L246
 5310              	.LVL474:
 5311              	.L247:
3266:n32g430_std_periph_driver/src/n32g430_tim.c ****         }
 5312              		.loc 1 3266 13 is_stmt 1 view .LVU1396
 5313 007e 0421     		movs	r1, #4
 5314 0080 2046     		mov	r0, r4
 5315 0082 FFF7FEFF 		bl	TIM_Capture_Compare_Ch_N_Disable
 5316              	.LVL475:
 5317 0086 F1E7     		b	.L248
 5318              	.L251:
 5319              		.align	2
 5320              	.L250:
 5321 0088 002C0140 		.word	1073818624
 5322              		.cfi_endproc
 5323              	.LFE250:
ARM GAS  C:\Users\Dawn\AppData\Local\Temp\ccf7B1Wd.s 			page 150


 5325              		.section	.text.TIM_Output_Channel3_Initialize,"ax",%progbits
 5326              		.align	1
 5327              		.global	TIM_Output_Channel3_Initialize
 5328              		.syntax unified
 5329              		.thumb
 5330              		.thumb_func
 5332              	TIM_Output_Channel3_Initialize:
 5333              	.LVL476:
 5334              	.LFB251:
3288:n32g430_std_periph_driver/src/n32g430_tim.c **** 
3289:n32g430_std_periph_driver/src/n32g430_tim.c **** /**
3290:n32g430_std_periph_driver/src/n32g430_tim.c **** *\*\name    TIM_Output_Channel3_Initialize
3291:n32g430_std_periph_driver/src/n32g430_tim.c **** *\*\fun     Initializes the TIM break and dead time register
3292:n32g430_std_periph_driver/src/n32g430_tim.c **** *\*\param   TIMx:
3293:n32g430_std_periph_driver/src/n32g430_tim.c **** *\*\          - TIM1
3294:n32g430_std_periph_driver/src/n32g430_tim.c **** *\*\          - TIM2
3295:n32g430_std_periph_driver/src/n32g430_tim.c **** *\*\          - TIM3
3296:n32g430_std_periph_driver/src/n32g430_tim.c **** *\*\          - TIM4
3297:n32g430_std_periph_driver/src/n32g430_tim.c **** *\*\          - TIM5
3298:n32g430_std_periph_driver/src/n32g430_tim.c **** *\*\          - TIM8
3299:n32g430_std_periph_driver/src/n32g430_tim.c **** *\*\param   TIM_OCInitStruct:
3300:n32g430_std_periph_driver/src/n32g430_tim.c **** *\*\              - Refer to the definition of OCInitType.
3301:n32g430_std_periph_driver/src/n32g430_tim.c **** *\*\return  none
3302:n32g430_std_periph_driver/src/n32g430_tim.c **** **/
3303:n32g430_std_periph_driver/src/n32g430_tim.c **** void TIM_Output_Channel3_Initialize(TIM_Module* TIMx, OCInitType* TIM_OCInitStruct)
3304:n32g430_std_periph_driver/src/n32g430_tim.c **** {
 5335              		.loc 1 3304 1 view -0
 5336              		.cfi_startproc
 5337              		@ args = 0, pretend = 0, frame = 0
 5338              		@ frame_needed = 0, uses_anonymous_args = 0
 5339              		.loc 1 3304 1 is_stmt 0 view .LVU1398
 5340 0000 F8B5     		push	{r3, r4, r5, r6, r7, lr}
 5341              	.LCFI18:
 5342              		.cfi_def_cfa_offset 24
 5343              		.cfi_offset 3, -24
 5344              		.cfi_offset 4, -20
 5345              		.cfi_offset 5, -16
 5346              		.cfi_offset 6, -12
 5347              		.cfi_offset 7, -8
 5348              		.cfi_offset 14, -4
 5349 0002 0446     		mov	r4, r0
 5350 0004 0D46     		mov	r5, r1
3305:n32g430_std_periph_driver/src/n32g430_tim.c ****     uint16_t temp_value1 = 0;
 5351              		.loc 1 3305 5 is_stmt 1 view .LVU1399
 5352              	.LVL477:
3306:n32g430_std_periph_driver/src/n32g430_tim.c ****     uint32_t temp_value2 = 0;
 5353              		.loc 1 3306 5 view .LVU1400
3307:n32g430_std_periph_driver/src/n32g430_tim.c **** 
3308:n32g430_std_periph_driver/src/n32g430_tim.c ****     /* Disable the Channel 3, Reset the CC3EN Bit */
3309:n32g430_std_periph_driver/src/n32g430_tim.c ****     TIM_Capture_Compare_Ch_Disable(TIMx, TIM_CH_3);
 5354              		.loc 1 3309 5 view .LVU1401
 5355 0006 0821     		movs	r1, #8
 5356              	.LVL478:
 5357              		.loc 1 3309 5 is_stmt 0 view .LVU1402
 5358 0008 FFF7FEFF 		bl	TIM_Capture_Compare_Ch_Disable
 5359              	.LVL479:
3310:n32g430_std_periph_driver/src/n32g430_tim.c **** 
ARM GAS  C:\Users\Dawn\AppData\Local\Temp\ccf7B1Wd.s 			page 151


3311:n32g430_std_periph_driver/src/n32g430_tim.c ****     /* Get the TIMx CTRL2 register value */
3312:n32g430_std_periph_driver/src/n32g430_tim.c ****     temp_value2 = TIMx->CTRL2;
 5360              		.loc 1 3312 5 is_stmt 1 view .LVU1403
 5361              		.loc 1 3312 17 is_stmt 0 view .LVU1404
 5362 000c 6768     		ldr	r7, [r4, #4]
 5363              	.LVL480:
3313:n32g430_std_periph_driver/src/n32g430_tim.c **** 
3314:n32g430_std_periph_driver/src/n32g430_tim.c ****     /* Get the TIMx CCMOD2 register value */
3315:n32g430_std_periph_driver/src/n32g430_tim.c ****     temp_value1 = TIMx->CCMOD2;
 5364              		.loc 1 3315 5 is_stmt 1 view .LVU1405
 5365              		.loc 1 3315 23 is_stmt 0 view .LVU1406
 5366 000e E669     		ldr	r6, [r4, #28]
 5367              		.loc 1 3315 17 view .LVU1407
 5368 0010 B6B2     		uxth	r6, r6
 5369              	.LVL481:
3316:n32g430_std_periph_driver/src/n32g430_tim.c **** 
3317:n32g430_std_periph_driver/src/n32g430_tim.c ****     /* Reset the Output Compare mode and Capture/Compare selection Bits */
3318:n32g430_std_periph_driver/src/n32g430_tim.c ****     temp_value1 &= (uint16_t)(~((uint16_t)TIM_OC3MODE_MASK));
 5370              		.loc 1 3318 5 is_stmt 1 view .LVU1408
3319:n32g430_std_periph_driver/src/n32g430_tim.c ****     temp_value1 &= (uint16_t)(~((uint16_t)TIM_IC3_SELECTION_MASK));
 5371              		.loc 1 3319 5 view .LVU1409
 5372              		.loc 1 3319 17 is_stmt 0 view .LVU1410
 5373 0012 26F07306 		bic	r6, r6, #115
 5374              	.LVL482:
3320:n32g430_std_periph_driver/src/n32g430_tim.c ****     /* Select the Output Compare Mode */
3321:n32g430_std_periph_driver/src/n32g430_tim.c ****     temp_value1 |= TIM_OCInitStruct->OcMode;
 5375              		.loc 1 3321 5 is_stmt 1 view .LVU1411
 5376              		.loc 1 3321 36 is_stmt 0 view .LVU1412
 5377 0016 2B88     		ldrh	r3, [r5]
 5378              		.loc 1 3321 17 view .LVU1413
 5379 0018 1E43     		orrs	r6, r6, r3
 5380              	.LVL483:
3322:n32g430_std_periph_driver/src/n32g430_tim.c **** 
3323:n32g430_std_periph_driver/src/n32g430_tim.c ****     TIM_Output_Channel_Polarity_Set(TIMx, TIM_OCInitStruct->OcPolarity, TIM_CH_3);
 5381              		.loc 1 3323 5 is_stmt 1 view .LVU1414
 5382 001a 0822     		movs	r2, #8
 5383 001c 2989     		ldrh	r1, [r5, #8]
 5384 001e 2046     		mov	r0, r4
 5385 0020 FFF7FEFF 		bl	TIM_Output_Channel_Polarity_Set
 5386              	.LVL484:
3324:n32g430_std_periph_driver/src/n32g430_tim.c **** 
3325:n32g430_std_periph_driver/src/n32g430_tim.c ****     /* Set the Output State */
3326:n32g430_std_periph_driver/src/n32g430_tim.c ****     if(TIM_OCInitStruct->OutputState)
 5387              		.loc 1 3326 5 view .LVU1415
 5388              		.loc 1 3326 24 is_stmt 0 view .LVU1416
 5389 0024 6B88     		ldrh	r3, [r5, #2]
 5390              		.loc 1 3326 7 view .LVU1417
 5391 0026 7BB1     		cbz	r3, .L253
3327:n32g430_std_periph_driver/src/n32g430_tim.c ****     {
3328:n32g430_std_periph_driver/src/n32g430_tim.c ****         TIM_Capture_Compare_Ch_Enable(TIMx, TIM_CH_3);
 5392              		.loc 1 3328 9 is_stmt 1 view .LVU1418
 5393 0028 0821     		movs	r1, #8
 5394 002a 2046     		mov	r0, r4
 5395 002c FFF7FEFF 		bl	TIM_Capture_Compare_Ch_Enable
 5396              	.LVL485:
 5397              	.L254:
3329:n32g430_std_periph_driver/src/n32g430_tim.c ****     }
ARM GAS  C:\Users\Dawn\AppData\Local\Temp\ccf7B1Wd.s 			page 152


3330:n32g430_std_periph_driver/src/n32g430_tim.c ****     else
3331:n32g430_std_periph_driver/src/n32g430_tim.c ****     {
3332:n32g430_std_periph_driver/src/n32g430_tim.c ****         TIM_Capture_Compare_Ch_Disable(TIMx, TIM_CH_3);
3333:n32g430_std_periph_driver/src/n32g430_tim.c ****     }
3334:n32g430_std_periph_driver/src/n32g430_tim.c **** 
3335:n32g430_std_periph_driver/src/n32g430_tim.c ****     if ((TIMx == TIM1) || (TIMx == TIM8))
 5398              		.loc 1 3335 5 view .LVU1419
 5399              		.loc 1 3335 8 is_stmt 0 view .LVU1420
 5400 0030 144B     		ldr	r3, .L260
 5401 0032 9C42     		cmp	r4, r3
 5402 0034 0DD0     		beq	.L255
 5403              		.loc 1 3335 24 discriminator 1 view .LVU1421
 5404 0036 03F50063 		add	r3, r3, #2048
 5405 003a 9C42     		cmp	r4, r3
 5406 003c 09D0     		beq	.L255
 5407              	.LVL486:
 5408              	.L256:
3336:n32g430_std_periph_driver/src/n32g430_tim.c ****     {
3337:n32g430_std_periph_driver/src/n32g430_tim.c ****         /* Set the Output N Polarity level */
3338:n32g430_std_periph_driver/src/n32g430_tim.c ****         TIM_Output_Channel_N_Polarity_Set(TIMx, TIM_OCInitStruct->OcNPolarity, TIM_CH_3);
3339:n32g430_std_periph_driver/src/n32g430_tim.c **** 
3340:n32g430_std_periph_driver/src/n32g430_tim.c ****         /* Set the Output N State */
3341:n32g430_std_periph_driver/src/n32g430_tim.c ****         if(TIM_OCInitStruct->OutputNState)
3342:n32g430_std_periph_driver/src/n32g430_tim.c ****         {
3343:n32g430_std_periph_driver/src/n32g430_tim.c ****             TIM_Capture_Compare_Ch_N_Enable(TIMx, TIM_CH_3);
3344:n32g430_std_periph_driver/src/n32g430_tim.c ****         }
3345:n32g430_std_periph_driver/src/n32g430_tim.c ****         else
3346:n32g430_std_periph_driver/src/n32g430_tim.c ****         {
3347:n32g430_std_periph_driver/src/n32g430_tim.c ****             TIM_Capture_Compare_Ch_N_Disable(TIMx, TIM_CH_3);
3348:n32g430_std_periph_driver/src/n32g430_tim.c ****         }
3349:n32g430_std_periph_driver/src/n32g430_tim.c ****         /* Reset the Output Compare and Output Compare N IDLE State */
3350:n32g430_std_periph_driver/src/n32g430_tim.c ****         temp_value2 &= (uint32_t)(~((uint32_t)TIM_OC3_IDLE_STATE_MASK));
3351:n32g430_std_periph_driver/src/n32g430_tim.c ****         temp_value2 &= (uint32_t)(~((uint32_t)TIM_OC3N_IDLE_STATE_MASK));
3352:n32g430_std_periph_driver/src/n32g430_tim.c ****         /* Set the Output Idle state */
3353:n32g430_std_periph_driver/src/n32g430_tim.c ****         temp_value2 |= (uint32_t)(TIM_OCInitStruct->OcIdleState << 4);
3354:n32g430_std_periph_driver/src/n32g430_tim.c ****         /* Set the Output N Idle state */
3355:n32g430_std_periph_driver/src/n32g430_tim.c ****         temp_value2 |= (uint32_t)(TIM_OCInitStruct->OcNIdleState << 4);
3356:n32g430_std_periph_driver/src/n32g430_tim.c ****     }
3357:n32g430_std_periph_driver/src/n32g430_tim.c ****     /* Write to TIMx CTRL2 */
3358:n32g430_std_periph_driver/src/n32g430_tim.c ****     TIMx->CTRL2 = temp_value2;
 5409              		.loc 1 3358 5 is_stmt 1 view .LVU1422
 5410              		.loc 1 3358 17 is_stmt 0 view .LVU1423
 5411 003e 6760     		str	r7, [r4, #4]
3359:n32g430_std_periph_driver/src/n32g430_tim.c **** 
3360:n32g430_std_periph_driver/src/n32g430_tim.c ****     /* Write to TIMx CCMOD2 */
3361:n32g430_std_periph_driver/src/n32g430_tim.c ****     TIMx->CCMOD2 = temp_value1;
 5412              		.loc 1 3361 5 is_stmt 1 view .LVU1424
 5413              		.loc 1 3361 18 is_stmt 0 view .LVU1425
 5414 0040 E661     		str	r6, [r4, #28]
3362:n32g430_std_periph_driver/src/n32g430_tim.c **** 
3363:n32g430_std_periph_driver/src/n32g430_tim.c ****     /* Set the Capture Compare Register value */
3364:n32g430_std_periph_driver/src/n32g430_tim.c ****     TIMx->CCDAT3 = TIM_OCInitStruct->Pulse;
 5415              		.loc 1 3364 5 is_stmt 1 view .LVU1426
 5416              		.loc 1 3364 36 is_stmt 0 view .LVU1427
 5417 0042 EB88     		ldrh	r3, [r5, #6]
 5418              		.loc 1 3364 18 view .LVU1428
 5419 0044 E363     		str	r3, [r4, #60]
ARM GAS  C:\Users\Dawn\AppData\Local\Temp\ccf7B1Wd.s 			page 153


3365:n32g430_std_periph_driver/src/n32g430_tim.c **** 
3366:n32g430_std_periph_driver/src/n32g430_tim.c **** }
 5420              		.loc 1 3366 1 view .LVU1429
 5421 0046 F8BD     		pop	{r3, r4, r5, r6, r7, pc}
 5422              	.LVL487:
 5423              	.L253:
3332:n32g430_std_periph_driver/src/n32g430_tim.c ****     }
 5424              		.loc 1 3332 9 is_stmt 1 view .LVU1430
 5425 0048 0821     		movs	r1, #8
 5426 004a 2046     		mov	r0, r4
 5427 004c FFF7FEFF 		bl	TIM_Capture_Compare_Ch_Disable
 5428              	.LVL488:
 5429 0050 EEE7     		b	.L254
 5430              	.L255:
3338:n32g430_std_periph_driver/src/n32g430_tim.c **** 
 5431              		.loc 1 3338 9 view .LVU1431
 5432 0052 0822     		movs	r2, #8
 5433 0054 6989     		ldrh	r1, [r5, #10]
 5434 0056 2046     		mov	r0, r4
 5435 0058 FFF7FEFF 		bl	TIM_Output_Channel_N_Polarity_Set
 5436              	.LVL489:
3341:n32g430_std_periph_driver/src/n32g430_tim.c ****         {
 5437              		.loc 1 3341 9 view .LVU1432
3341:n32g430_std_periph_driver/src/n32g430_tim.c ****         {
 5438              		.loc 1 3341 28 is_stmt 0 view .LVU1433
 5439 005c AB88     		ldrh	r3, [r5, #4]
3341:n32g430_std_periph_driver/src/n32g430_tim.c ****         {
 5440              		.loc 1 3341 11 view .LVU1434
 5441 005e 63B1     		cbz	r3, .L257
3343:n32g430_std_periph_driver/src/n32g430_tim.c ****         }
 5442              		.loc 1 3343 13 is_stmt 1 view .LVU1435
 5443 0060 0821     		movs	r1, #8
 5444 0062 2046     		mov	r0, r4
 5445 0064 FFF7FEFF 		bl	TIM_Capture_Compare_Ch_N_Enable
 5446              	.LVL490:
 5447              	.L258:
3350:n32g430_std_periph_driver/src/n32g430_tim.c ****         temp_value2 &= (uint32_t)(~((uint32_t)TIM_OC3N_IDLE_STATE_MASK));
 5448              		.loc 1 3350 9 view .LVU1436
3351:n32g430_std_periph_driver/src/n32g430_tim.c ****         /* Set the Output Idle state */
 5449              		.loc 1 3351 9 view .LVU1437
3351:n32g430_std_periph_driver/src/n32g430_tim.c ****         /* Set the Output Idle state */
 5450              		.loc 1 3351 21 is_stmt 0 view .LVU1438
 5451 0068 27F44057 		bic	r7, r7, #12288
 5452              	.LVL491:
3353:n32g430_std_periph_driver/src/n32g430_tim.c ****         /* Set the Output N Idle state */
 5453              		.loc 1 3353 9 is_stmt 1 view .LVU1439
3353:n32g430_std_periph_driver/src/n32g430_tim.c ****         /* Set the Output N Idle state */
 5454              		.loc 1 3353 51 is_stmt 0 view .LVU1440
 5455 006c AB89     		ldrh	r3, [r5, #12]
3353:n32g430_std_periph_driver/src/n32g430_tim.c ****         /* Set the Output N Idle state */
 5456              		.loc 1 3353 21 view .LVU1441
 5457 006e 47EA0317 		orr	r7, r7, r3, lsl #4
 5458              	.LVL492:
3355:n32g430_std_periph_driver/src/n32g430_tim.c ****     }
 5459              		.loc 1 3355 9 is_stmt 1 view .LVU1442
3355:n32g430_std_periph_driver/src/n32g430_tim.c ****     }
 5460              		.loc 1 3355 51 is_stmt 0 view .LVU1443
ARM GAS  C:\Users\Dawn\AppData\Local\Temp\ccf7B1Wd.s 			page 154


 5461 0072 EB89     		ldrh	r3, [r5, #14]
3355:n32g430_std_periph_driver/src/n32g430_tim.c ****     }
 5462              		.loc 1 3355 21 view .LVU1444
 5463 0074 47EA0317 		orr	r7, r7, r3, lsl #4
 5464              	.LVL493:
3355:n32g430_std_periph_driver/src/n32g430_tim.c ****     }
 5465              		.loc 1 3355 21 view .LVU1445
 5466 0078 E1E7     		b	.L256
 5467              	.LVL494:
 5468              	.L257:
3347:n32g430_std_periph_driver/src/n32g430_tim.c ****         }
 5469              		.loc 1 3347 13 is_stmt 1 view .LVU1446
 5470 007a 0821     		movs	r1, #8
 5471 007c 2046     		mov	r0, r4
 5472 007e FFF7FEFF 		bl	TIM_Capture_Compare_Ch_N_Disable
 5473              	.LVL495:
 5474 0082 F1E7     		b	.L258
 5475              	.L261:
 5476              		.align	2
 5477              	.L260:
 5478 0084 002C0140 		.word	1073818624
 5479              		.cfi_endproc
 5480              	.LFE251:
 5482              		.section	.text.TIM_Output_Channel4_Initialize,"ax",%progbits
 5483              		.align	1
 5484              		.global	TIM_Output_Channel4_Initialize
 5485              		.syntax unified
 5486              		.thumb
 5487              		.thumb_func
 5489              	TIM_Output_Channel4_Initialize:
 5490              	.LVL496:
 5491              	.LFB252:
3367:n32g430_std_periph_driver/src/n32g430_tim.c **** 
3368:n32g430_std_periph_driver/src/n32g430_tim.c **** /**
3369:n32g430_std_periph_driver/src/n32g430_tim.c **** *\*\name    TIM_Output_Channel4_Initialize
3370:n32g430_std_periph_driver/src/n32g430_tim.c **** *\*\fun     Initializes the TIM break and dead time register
3371:n32g430_std_periph_driver/src/n32g430_tim.c **** *\*\param   TIMx:
3372:n32g430_std_periph_driver/src/n32g430_tim.c **** *\*\          - TIM1
3373:n32g430_std_periph_driver/src/n32g430_tim.c **** *\*\          - TIM2
3374:n32g430_std_periph_driver/src/n32g430_tim.c **** *\*\          - TIM3
3375:n32g430_std_periph_driver/src/n32g430_tim.c **** *\*\          - TIM4
3376:n32g430_std_periph_driver/src/n32g430_tim.c **** *\*\          - TIM5
3377:n32g430_std_periph_driver/src/n32g430_tim.c **** *\*\          - TIM8
3378:n32g430_std_periph_driver/src/n32g430_tim.c **** *\*\param   TIM_OCInitStruct:
3379:n32g430_std_periph_driver/src/n32g430_tim.c **** *\*\              - Refer to the definition of OCInitType.
3380:n32g430_std_periph_driver/src/n32g430_tim.c **** *\*\return  none
3381:n32g430_std_periph_driver/src/n32g430_tim.c **** *\*\note    The CH4N is only for TIM1.
3382:n32g430_std_periph_driver/src/n32g430_tim.c **** **/
3383:n32g430_std_periph_driver/src/n32g430_tim.c **** void TIM_Output_Channel4_Initialize(TIM_Module* TIMx, OCInitType* TIM_OCInitStruct)
3384:n32g430_std_periph_driver/src/n32g430_tim.c **** {
 5492              		.loc 1 3384 1 view -0
 5493              		.cfi_startproc
 5494              		@ args = 0, pretend = 0, frame = 0
 5495              		@ frame_needed = 0, uses_anonymous_args = 0
 5496              		.loc 1 3384 1 is_stmt 0 view .LVU1448
 5497 0000 F8B5     		push	{r3, r4, r5, r6, r7, lr}
 5498              	.LCFI19:
ARM GAS  C:\Users\Dawn\AppData\Local\Temp\ccf7B1Wd.s 			page 155


 5499              		.cfi_def_cfa_offset 24
 5500              		.cfi_offset 3, -24
 5501              		.cfi_offset 4, -20
 5502              		.cfi_offset 5, -16
 5503              		.cfi_offset 6, -12
 5504              		.cfi_offset 7, -8
 5505              		.cfi_offset 14, -4
 5506 0002 0446     		mov	r4, r0
 5507 0004 0E46     		mov	r6, r1
3385:n32g430_std_periph_driver/src/n32g430_tim.c ****     uint16_t temp_value1 = 0;
 5508              		.loc 1 3385 5 is_stmt 1 view .LVU1449
 5509              	.LVL497:
3386:n32g430_std_periph_driver/src/n32g430_tim.c ****     uint32_t temp_value2 = 0;
 5510              		.loc 1 3386 5 view .LVU1450
3387:n32g430_std_periph_driver/src/n32g430_tim.c **** 
3388:n32g430_std_periph_driver/src/n32g430_tim.c ****     /* Disable the Channel 4, Reset the CC4EN Bit */
3389:n32g430_std_periph_driver/src/n32g430_tim.c ****     TIM_Capture_Compare_Ch_Disable(TIMx, TIM_CH_4);
 5511              		.loc 1 3389 5 view .LVU1451
 5512 0006 0C21     		movs	r1, #12
 5513              	.LVL498:
 5514              		.loc 1 3389 5 is_stmt 0 view .LVU1452
 5515 0008 FFF7FEFF 		bl	TIM_Capture_Compare_Ch_Disable
 5516              	.LVL499:
3390:n32g430_std_periph_driver/src/n32g430_tim.c **** 
3391:n32g430_std_periph_driver/src/n32g430_tim.c ****     /* Get the TIMx CTRL2 register value */
3392:n32g430_std_periph_driver/src/n32g430_tim.c ****     temp_value2 = TIMx->CTRL2;
 5517              		.loc 1 3392 5 is_stmt 1 view .LVU1453
 5518              		.loc 1 3392 17 is_stmt 0 view .LVU1454
 5519 000c 6768     		ldr	r7, [r4, #4]
 5520              	.LVL500:
3393:n32g430_std_periph_driver/src/n32g430_tim.c **** 
3394:n32g430_std_periph_driver/src/n32g430_tim.c ****     /* Get the TIMx CCMOD2 register value */
3395:n32g430_std_periph_driver/src/n32g430_tim.c ****     temp_value1 = TIMx->CCMOD2;
 5521              		.loc 1 3395 5 is_stmt 1 view .LVU1455
 5522              		.loc 1 3395 23 is_stmt 0 view .LVU1456
 5523 000e E569     		ldr	r5, [r4, #28]
 5524              		.loc 1 3395 17 view .LVU1457
 5525 0010 ADB2     		uxth	r5, r5
 5526              	.LVL501:
3396:n32g430_std_periph_driver/src/n32g430_tim.c **** 
3397:n32g430_std_periph_driver/src/n32g430_tim.c ****     /* Reset the Output Compare mode and Capture/Compare selection Bits */
3398:n32g430_std_periph_driver/src/n32g430_tim.c ****     temp_value1 &= (uint16_t)(~((uint16_t)TIM_OC4MODE_MASK));
 5527              		.loc 1 3398 5 is_stmt 1 view .LVU1458
3399:n32g430_std_periph_driver/src/n32g430_tim.c ****     temp_value1 &= (uint16_t)(~((uint16_t)TIM_IC4_SELECTION_MASK));
 5528              		.loc 1 3399 5 view .LVU1459
 5529              		.loc 1 3399 17 is_stmt 0 view .LVU1460
 5530 0012 25F4E645 		bic	r5, r5, #29440
 5531              	.LVL502:
3400:n32g430_std_periph_driver/src/n32g430_tim.c **** 
3401:n32g430_std_periph_driver/src/n32g430_tim.c ****     /* Select the Output Compare Mode */
3402:n32g430_std_periph_driver/src/n32g430_tim.c ****     temp_value1 |= (uint16_t)(TIM_OCInitStruct->OcMode << 8);
 5532              		.loc 1 3402 5 is_stmt 1 view .LVU1461
 5533              		.loc 1 3402 47 is_stmt 0 view .LVU1462
 5534 0016 3388     		ldrh	r3, [r6]
 5535              		.loc 1 3402 20 view .LVU1463
 5536 0018 1B02     		lsls	r3, r3, #8
 5537 001a 9BB2     		uxth	r3, r3
ARM GAS  C:\Users\Dawn\AppData\Local\Temp\ccf7B1Wd.s 			page 156


 5538              		.loc 1 3402 17 view .LVU1464
 5539 001c 1D43     		orrs	r5, r5, r3
 5540              	.LVL503:
3403:n32g430_std_periph_driver/src/n32g430_tim.c **** 
3404:n32g430_std_periph_driver/src/n32g430_tim.c ****     TIM_Output_Channel_Polarity_Set(TIMx, TIM_OCInitStruct->OcPolarity, TIM_CH_4);
 5541              		.loc 1 3404 5 is_stmt 1 view .LVU1465
 5542 001e 0C22     		movs	r2, #12
 5543 0020 3189     		ldrh	r1, [r6, #8]
 5544 0022 2046     		mov	r0, r4
 5545 0024 FFF7FEFF 		bl	TIM_Output_Channel_Polarity_Set
 5546              	.LVL504:
3405:n32g430_std_periph_driver/src/n32g430_tim.c **** 
3406:n32g430_std_periph_driver/src/n32g430_tim.c ****     /* Set the Output State */
3407:n32g430_std_periph_driver/src/n32g430_tim.c ****     if(TIM_OCInitStruct->OutputState)
 5547              		.loc 1 3407 5 view .LVU1466
 5548              		.loc 1 3407 24 is_stmt 0 view .LVU1467
 5549 0028 7388     		ldrh	r3, [r6, #2]
 5550              		.loc 1 3407 7 view .LVU1468
 5551 002a 73B1     		cbz	r3, .L263
3408:n32g430_std_periph_driver/src/n32g430_tim.c ****     {
3409:n32g430_std_periph_driver/src/n32g430_tim.c ****         TIM_Capture_Compare_Ch_Enable(TIMx, TIM_CH_4);
 5552              		.loc 1 3409 9 is_stmt 1 view .LVU1469
 5553 002c 0C21     		movs	r1, #12
 5554 002e 2046     		mov	r0, r4
 5555 0030 FFF7FEFF 		bl	TIM_Capture_Compare_Ch_Enable
 5556              	.LVL505:
 5557              	.L264:
3410:n32g430_std_periph_driver/src/n32g430_tim.c ****     }
3411:n32g430_std_periph_driver/src/n32g430_tim.c ****     else
3412:n32g430_std_periph_driver/src/n32g430_tim.c ****     {
3413:n32g430_std_periph_driver/src/n32g430_tim.c ****         TIM_Capture_Compare_Ch_Disable(TIMx, TIM_CH_4);
3414:n32g430_std_periph_driver/src/n32g430_tim.c ****     }
3415:n32g430_std_periph_driver/src/n32g430_tim.c **** 
3416:n32g430_std_periph_driver/src/n32g430_tim.c ****     if (TIMx == TIM1)
 5558              		.loc 1 3416 5 view .LVU1470
 5559              		.loc 1 3416 8 is_stmt 0 view .LVU1471
 5560 0034 174B     		ldr	r3, .L272
 5561 0036 9C42     		cmp	r4, r3
 5562 0038 0CD0     		beq	.L270
3417:n32g430_std_periph_driver/src/n32g430_tim.c ****     {
3418:n32g430_std_periph_driver/src/n32g430_tim.c ****         /* Set the Output N Polarity level */
3419:n32g430_std_periph_driver/src/n32g430_tim.c ****         TIM_Output_Channel_N_Polarity_Set(TIMx, TIM_OCInitStruct->OcNPolarity, TIM_CH_4);
3420:n32g430_std_periph_driver/src/n32g430_tim.c **** 
3421:n32g430_std_periph_driver/src/n32g430_tim.c ****         /* Set the Output N State */
3422:n32g430_std_periph_driver/src/n32g430_tim.c ****         if(TIM_OCInitStruct->OutputNState)
3423:n32g430_std_periph_driver/src/n32g430_tim.c ****         {
3424:n32g430_std_periph_driver/src/n32g430_tim.c ****             TIM_Capture_Compare_Ch_N_Enable(TIMx, TIM_CH_4);
3425:n32g430_std_periph_driver/src/n32g430_tim.c ****         }
3426:n32g430_std_periph_driver/src/n32g430_tim.c ****         else
3427:n32g430_std_periph_driver/src/n32g430_tim.c ****         {
3428:n32g430_std_periph_driver/src/n32g430_tim.c ****             TIM_Capture_Compare_Ch_N_Disable(TIMx, TIM_CH_4);
3429:n32g430_std_periph_driver/src/n32g430_tim.c ****         }
3430:n32g430_std_periph_driver/src/n32g430_tim.c ****         /* Reset the Output Compare and Output Compare N IDLE State */
3431:n32g430_std_periph_driver/src/n32g430_tim.c ****         temp_value2 &= (uint32_t)(~((uint32_t)TIM_OC4_IDLE_STATE_MASK));
3432:n32g430_std_periph_driver/src/n32g430_tim.c ****         temp_value2 &= (uint32_t)(~((uint32_t)TIM_OC4N_IDLE_STATE_MASK));
3433:n32g430_std_periph_driver/src/n32g430_tim.c ****         /* Set the Output Idle state */
3434:n32g430_std_periph_driver/src/n32g430_tim.c ****         temp_value2 |= (uint32_t)(TIM_OCInitStruct->OcIdleState << 6);
ARM GAS  C:\Users\Dawn\AppData\Local\Temp\ccf7B1Wd.s 			page 157


3435:n32g430_std_periph_driver/src/n32g430_tim.c ****         /* Set the Output N Idle state */
3436:n32g430_std_periph_driver/src/n32g430_tim.c ****         temp_value2 |= (uint32_t)(TIM_OCInitStruct->OcNIdleState << 8);
3437:n32g430_std_periph_driver/src/n32g430_tim.c ****     }
3438:n32g430_std_periph_driver/src/n32g430_tim.c ****     else if(TIMx == TIM8)
 5563              		.loc 1 3438 10 is_stmt 1 view .LVU1472
 5564              		.loc 1 3438 12 is_stmt 0 view .LVU1473
 5565 003a 174B     		ldr	r3, .L272+4
 5566 003c 9C42     		cmp	r4, r3
 5567 003e 22D0     		beq	.L271
 5568              	.LVL506:
 5569              	.L268:
3439:n32g430_std_periph_driver/src/n32g430_tim.c ****     {
3440:n32g430_std_periph_driver/src/n32g430_tim.c ****         /* Reset the Output Compare IDLE State */
3441:n32g430_std_periph_driver/src/n32g430_tim.c ****         temp_value2 &= (uint32_t)(~((uint32_t)TIM_OC4_IDLE_STATE_MASK));
3442:n32g430_std_periph_driver/src/n32g430_tim.c ****         /* Set the Output Idle state */
3443:n32g430_std_periph_driver/src/n32g430_tim.c ****         temp_value2 |= (uint32_t)(TIM_OCInitStruct->OcIdleState << 6);
3444:n32g430_std_periph_driver/src/n32g430_tim.c ****     }
3445:n32g430_std_periph_driver/src/n32g430_tim.c ****     else
3446:n32g430_std_periph_driver/src/n32g430_tim.c ****     {
3447:n32g430_std_periph_driver/src/n32g430_tim.c ****         /* none */
3448:n32g430_std_periph_driver/src/n32g430_tim.c ****     }
 5570              		.loc 1 3448 5 is_stmt 1 view .LVU1474
3449:n32g430_std_periph_driver/src/n32g430_tim.c ****     /* Write to TIMx CTRL2 */
3450:n32g430_std_periph_driver/src/n32g430_tim.c ****     TIMx->CTRL2 = temp_value2;
 5571              		.loc 1 3450 5 view .LVU1475
 5572              		.loc 1 3450 17 is_stmt 0 view .LVU1476
 5573 0040 6760     		str	r7, [r4, #4]
3451:n32g430_std_periph_driver/src/n32g430_tim.c **** 
3452:n32g430_std_periph_driver/src/n32g430_tim.c ****     /* Write to TIMx CCMOD2 */
3453:n32g430_std_periph_driver/src/n32g430_tim.c ****     TIMx->CCMOD2 = temp_value1;
 5574              		.loc 1 3453 5 is_stmt 1 view .LVU1477
 5575              		.loc 1 3453 18 is_stmt 0 view .LVU1478
 5576 0042 E561     		str	r5, [r4, #28]
3454:n32g430_std_periph_driver/src/n32g430_tim.c **** 
3455:n32g430_std_periph_driver/src/n32g430_tim.c ****     /* Set the Capture Compare Register value */
3456:n32g430_std_periph_driver/src/n32g430_tim.c ****     TIMx->CCDAT4 = TIM_OCInitStruct->Pulse;
 5577              		.loc 1 3456 5 is_stmt 1 view .LVU1479
 5578              		.loc 1 3456 36 is_stmt 0 view .LVU1480
 5579 0044 F388     		ldrh	r3, [r6, #6]
 5580              		.loc 1 3456 18 view .LVU1481
 5581 0046 2364     		str	r3, [r4, #64]
3457:n32g430_std_periph_driver/src/n32g430_tim.c **** 
3458:n32g430_std_periph_driver/src/n32g430_tim.c **** }
 5582              		.loc 1 3458 1 view .LVU1482
 5583 0048 F8BD     		pop	{r3, r4, r5, r6, r7, pc}
 5584              	.LVL507:
 5585              	.L263:
3413:n32g430_std_periph_driver/src/n32g430_tim.c ****     }
 5586              		.loc 1 3413 9 is_stmt 1 view .LVU1483
 5587 004a 0C21     		movs	r1, #12
 5588 004c 2046     		mov	r0, r4
 5589 004e FFF7FEFF 		bl	TIM_Capture_Compare_Ch_Disable
 5590              	.LVL508:
 5591 0052 EFE7     		b	.L264
 5592              	.L270:
3419:n32g430_std_periph_driver/src/n32g430_tim.c **** 
 5593              		.loc 1 3419 9 view .LVU1484
ARM GAS  C:\Users\Dawn\AppData\Local\Temp\ccf7B1Wd.s 			page 158


 5594 0054 0C22     		movs	r2, #12
 5595 0056 7189     		ldrh	r1, [r6, #10]
 5596 0058 2046     		mov	r0, r4
 5597 005a FFF7FEFF 		bl	TIM_Output_Channel_N_Polarity_Set
 5598              	.LVL509:
3422:n32g430_std_periph_driver/src/n32g430_tim.c ****         {
 5599              		.loc 1 3422 9 view .LVU1485
3422:n32g430_std_periph_driver/src/n32g430_tim.c ****         {
 5600              		.loc 1 3422 28 is_stmt 0 view .LVU1486
 5601 005e B388     		ldrh	r3, [r6, #4]
3422:n32g430_std_periph_driver/src/n32g430_tim.c ****         {
 5602              		.loc 1 3422 11 view .LVU1487
 5603 0060 63B1     		cbz	r3, .L266
3424:n32g430_std_periph_driver/src/n32g430_tim.c ****         }
 5604              		.loc 1 3424 13 is_stmt 1 view .LVU1488
 5605 0062 0C21     		movs	r1, #12
 5606 0064 2046     		mov	r0, r4
 5607 0066 FFF7FEFF 		bl	TIM_Capture_Compare_Ch_N_Enable
 5608              	.LVL510:
 5609              	.L267:
3431:n32g430_std_periph_driver/src/n32g430_tim.c ****         temp_value2 &= (uint32_t)(~((uint32_t)TIM_OC4N_IDLE_STATE_MASK));
 5610              		.loc 1 3431 9 view .LVU1489
3432:n32g430_std_periph_driver/src/n32g430_tim.c ****         /* Set the Output Idle state */
 5611              		.loc 1 3432 9 view .LVU1490
3432:n32g430_std_periph_driver/src/n32g430_tim.c ****         /* Set the Output Idle state */
 5612              		.loc 1 3432 21 is_stmt 0 view .LVU1491
 5613 006a 27F41037 		bic	r7, r7, #147456
 5614              	.LVL511:
3434:n32g430_std_periph_driver/src/n32g430_tim.c ****         /* Set the Output N Idle state */
 5615              		.loc 1 3434 9 is_stmt 1 view .LVU1492
3434:n32g430_std_periph_driver/src/n32g430_tim.c ****         /* Set the Output N Idle state */
 5616              		.loc 1 3434 51 is_stmt 0 view .LVU1493
 5617 006e B389     		ldrh	r3, [r6, #12]
3434:n32g430_std_periph_driver/src/n32g430_tim.c ****         /* Set the Output N Idle state */
 5618              		.loc 1 3434 21 view .LVU1494
 5619 0070 47EA8317 		orr	r7, r7, r3, lsl #6
 5620              	.LVL512:
3436:n32g430_std_periph_driver/src/n32g430_tim.c ****     }
 5621              		.loc 1 3436 9 is_stmt 1 view .LVU1495
3436:n32g430_std_periph_driver/src/n32g430_tim.c ****     }
 5622              		.loc 1 3436 51 is_stmt 0 view .LVU1496
 5623 0074 F389     		ldrh	r3, [r6, #14]
3436:n32g430_std_periph_driver/src/n32g430_tim.c ****     }
 5624              		.loc 1 3436 21 view .LVU1497
 5625 0076 47EA0327 		orr	r7, r7, r3, lsl #8
 5626              	.LVL513:
3436:n32g430_std_periph_driver/src/n32g430_tim.c ****     }
 5627              		.loc 1 3436 21 view .LVU1498
 5628 007a E1E7     		b	.L268
 5629              	.L266:
3428:n32g430_std_periph_driver/src/n32g430_tim.c ****         }
 5630              		.loc 1 3428 13 is_stmt 1 view .LVU1499
 5631 007c 0C21     		movs	r1, #12
 5632 007e 2046     		mov	r0, r4
 5633 0080 FFF7FEFF 		bl	TIM_Capture_Compare_Ch_N_Disable
 5634              	.LVL514:
 5635 0084 F1E7     		b	.L267
ARM GAS  C:\Users\Dawn\AppData\Local\Temp\ccf7B1Wd.s 			page 159


 5636              	.L271:
3441:n32g430_std_periph_driver/src/n32g430_tim.c ****         /* Set the Output Idle state */
 5637              		.loc 1 3441 9 view .LVU1500
3441:n32g430_std_periph_driver/src/n32g430_tim.c ****         /* Set the Output Idle state */
 5638              		.loc 1 3441 21 is_stmt 0 view .LVU1501
 5639 0086 27F48047 		bic	r7, r7, #16384
 5640              	.LVL515:
3443:n32g430_std_periph_driver/src/n32g430_tim.c ****     }
 5641              		.loc 1 3443 9 is_stmt 1 view .LVU1502
3443:n32g430_std_periph_driver/src/n32g430_tim.c ****     }
 5642              		.loc 1 3443 51 is_stmt 0 view .LVU1503
 5643 008a B389     		ldrh	r3, [r6, #12]
3443:n32g430_std_periph_driver/src/n32g430_tim.c ****     }
 5644              		.loc 1 3443 21 view .LVU1504
 5645 008c 47EA8317 		orr	r7, r7, r3, lsl #6
 5646              	.LVL516:
3443:n32g430_std_periph_driver/src/n32g430_tim.c ****     }
 5647              		.loc 1 3443 21 view .LVU1505
 5648 0090 D6E7     		b	.L268
 5649              	.L273:
 5650 0092 00BF     		.align	2
 5651              	.L272:
 5652 0094 002C0140 		.word	1073818624
 5653 0098 00340140 		.word	1073820672
 5654              		.cfi_endproc
 5655              	.LFE252:
 5657              		.section	.text.TIM_Output_Channel5_Initialize,"ax",%progbits
 5658              		.align	1
 5659              		.global	TIM_Output_Channel5_Initialize
 5660              		.syntax unified
 5661              		.thumb
 5662              		.thumb_func
 5664              	TIM_Output_Channel5_Initialize:
 5665              	.LVL517:
 5666              	.LFB253:
3459:n32g430_std_periph_driver/src/n32g430_tim.c **** 
3460:n32g430_std_periph_driver/src/n32g430_tim.c **** /**
3461:n32g430_std_periph_driver/src/n32g430_tim.c **** *\*\name    TIM_Output_Channel5_Initialize
3462:n32g430_std_periph_driver/src/n32g430_tim.c **** *\*\fun     Initializes the TIM break and dead time register
3463:n32g430_std_periph_driver/src/n32g430_tim.c **** *\*\param   TIMx:
3464:n32g430_std_periph_driver/src/n32g430_tim.c **** *\*\          - TIM1
3465:n32g430_std_periph_driver/src/n32g430_tim.c **** *\*\          - TIM8
3466:n32g430_std_periph_driver/src/n32g430_tim.c **** *\*\param   TIM_OCInitStruct:
3467:n32g430_std_periph_driver/src/n32g430_tim.c **** *\*\              - Refer to the definition of OCInitType.
3468:n32g430_std_periph_driver/src/n32g430_tim.c **** *\*\return  none
3469:n32g430_std_periph_driver/src/n32g430_tim.c **** **/
3470:n32g430_std_periph_driver/src/n32g430_tim.c **** void TIM_Output_Channel5_Initialize(TIM_Module* TIMx, OCInitType* TIM_OCInitStruct)
3471:n32g430_std_periph_driver/src/n32g430_tim.c **** {
 5667              		.loc 1 3471 1 is_stmt 1 view -0
 5668              		.cfi_startproc
 5669              		@ args = 0, pretend = 0, frame = 0
 5670              		@ frame_needed = 0, uses_anonymous_args = 0
 5671              		.loc 1 3471 1 is_stmt 0 view .LVU1507
 5672 0000 F8B5     		push	{r3, r4, r5, r6, r7, lr}
 5673              	.LCFI20:
 5674              		.cfi_def_cfa_offset 24
 5675              		.cfi_offset 3, -24
ARM GAS  C:\Users\Dawn\AppData\Local\Temp\ccf7B1Wd.s 			page 160


 5676              		.cfi_offset 4, -20
 5677              		.cfi_offset 5, -16
 5678              		.cfi_offset 6, -12
 5679              		.cfi_offset 7, -8
 5680              		.cfi_offset 14, -4
 5681 0002 0446     		mov	r4, r0
 5682 0004 0E46     		mov	r6, r1
3472:n32g430_std_periph_driver/src/n32g430_tim.c ****     uint16_t temp_value1 = 0;
 5683              		.loc 1 3472 5 is_stmt 1 view .LVU1508
 5684              	.LVL518:
3473:n32g430_std_periph_driver/src/n32g430_tim.c ****     uint32_t temp_value2 = 0;
 5685              		.loc 1 3473 5 view .LVU1509
3474:n32g430_std_periph_driver/src/n32g430_tim.c **** 
3475:n32g430_std_periph_driver/src/n32g430_tim.c ****     /* Disable the Channel 5, Reset the CC5EN Bit */
3476:n32g430_std_periph_driver/src/n32g430_tim.c ****     TIM_Capture_Compare_Ch_Disable(TIMx, TIM_CH_5);
 5686              		.loc 1 3476 5 view .LVU1510
 5687 0006 1021     		movs	r1, #16
 5688              	.LVL519:
 5689              		.loc 1 3476 5 is_stmt 0 view .LVU1511
 5690 0008 FFF7FEFF 		bl	TIM_Capture_Compare_Ch_Disable
 5691              	.LVL520:
3477:n32g430_std_periph_driver/src/n32g430_tim.c **** 
3478:n32g430_std_periph_driver/src/n32g430_tim.c ****     /* Get the TIMx CTRL2 register value */
3479:n32g430_std_periph_driver/src/n32g430_tim.c ****     temp_value2 = TIMx->CTRL2;
 5692              		.loc 1 3479 5 is_stmt 1 view .LVU1512
 5693              		.loc 1 3479 17 is_stmt 0 view .LVU1513
 5694 000c 6768     		ldr	r7, [r4, #4]
 5695              	.LVL521:
3480:n32g430_std_periph_driver/src/n32g430_tim.c **** 
3481:n32g430_std_periph_driver/src/n32g430_tim.c ****     /* Get the TIMx CCMOD3 register value */
3482:n32g430_std_periph_driver/src/n32g430_tim.c ****     temp_value1 = TIMx->CCMOD3;
 5696              		.loc 1 3482 5 is_stmt 1 view .LVU1514
 5697              		.loc 1 3482 17 is_stmt 0 view .LVU1515
 5698 000e B4F85450 		ldrh	r5, [r4, #84]
 5699 0012 ADB2     		uxth	r5, r5
 5700              	.LVL522:
3483:n32g430_std_periph_driver/src/n32g430_tim.c **** 
3484:n32g430_std_periph_driver/src/n32g430_tim.c ****     /* Reset the Output Compare mode and Capture/Compare selection Bits */
3485:n32g430_std_periph_driver/src/n32g430_tim.c ****     temp_value1 &= (uint16_t)(~((uint16_t)TIM_OC5MODE_MASK));
 5701              		.loc 1 3485 5 is_stmt 1 view .LVU1516
 5702              		.loc 1 3485 17 is_stmt 0 view .LVU1517
 5703 0014 25F07005 		bic	r5, r5, #112
 5704              	.LVL523:
3486:n32g430_std_periph_driver/src/n32g430_tim.c **** 
3487:n32g430_std_periph_driver/src/n32g430_tim.c ****     /* Select the Output Compare Mode */
3488:n32g430_std_periph_driver/src/n32g430_tim.c ****     temp_value1 |= (uint16_t)(TIM_OCInitStruct->OcMode);
 5705              		.loc 1 3488 5 is_stmt 1 view .LVU1518
 5706              		.loc 1 3488 47 is_stmt 0 view .LVU1519
 5707 0018 3388     		ldrh	r3, [r6]
 5708              		.loc 1 3488 17 view .LVU1520
 5709 001a 1D43     		orrs	r5, r5, r3
 5710              	.LVL524:
3489:n32g430_std_periph_driver/src/n32g430_tim.c **** 
3490:n32g430_std_periph_driver/src/n32g430_tim.c ****     TIM_Output_Channel_Polarity_Set(TIMx, TIM_OCInitStruct->OcPolarity, TIM_CH_5);
 5711              		.loc 1 3490 5 is_stmt 1 view .LVU1521
 5712 001c 1022     		movs	r2, #16
 5713 001e 3189     		ldrh	r1, [r6, #8]
ARM GAS  C:\Users\Dawn\AppData\Local\Temp\ccf7B1Wd.s 			page 161


 5714 0020 2046     		mov	r0, r4
 5715 0022 FFF7FEFF 		bl	TIM_Output_Channel_Polarity_Set
 5716              	.LVL525:
3491:n32g430_std_periph_driver/src/n32g430_tim.c **** 
3492:n32g430_std_periph_driver/src/n32g430_tim.c ****     /* Set the Output State */
3493:n32g430_std_periph_driver/src/n32g430_tim.c ****     if(TIM_OCInitStruct->OutputState)
 5717              		.loc 1 3493 5 view .LVU1522
 5718              		.loc 1 3493 24 is_stmt 0 view .LVU1523
 5719 0026 7388     		ldrh	r3, [r6, #2]
 5720              		.loc 1 3493 7 view .LVU1524
 5721 0028 B3B1     		cbz	r3, .L275
3494:n32g430_std_periph_driver/src/n32g430_tim.c ****     {
3495:n32g430_std_periph_driver/src/n32g430_tim.c ****         TIM_Capture_Compare_Ch_Enable(TIMx, TIM_CH_5);
 5722              		.loc 1 3495 9 is_stmt 1 view .LVU1525
 5723 002a 1021     		movs	r1, #16
 5724 002c 2046     		mov	r0, r4
 5725 002e FFF7FEFF 		bl	TIM_Capture_Compare_Ch_Enable
 5726              	.LVL526:
 5727              	.L276:
3496:n32g430_std_periph_driver/src/n32g430_tim.c ****     }
3497:n32g430_std_periph_driver/src/n32g430_tim.c ****     else
3498:n32g430_std_periph_driver/src/n32g430_tim.c ****     {
3499:n32g430_std_periph_driver/src/n32g430_tim.c ****         TIM_Capture_Compare_Ch_Disable(TIMx, TIM_CH_5);
3500:n32g430_std_periph_driver/src/n32g430_tim.c ****     }
3501:n32g430_std_periph_driver/src/n32g430_tim.c **** 
3502:n32g430_std_periph_driver/src/n32g430_tim.c ****     if ((TIMx == TIM1) || (TIMx == TIM8))
 5728              		.loc 1 3502 5 view .LVU1526
 5729              		.loc 1 3502 8 is_stmt 0 view .LVU1527
 5730 0032 0C4B     		ldr	r3, .L280
 5731 0034 9C42     		cmp	r4, r3
 5732 0036 03D0     		beq	.L277
 5733              		.loc 1 3502 24 discriminator 1 view .LVU1528
 5734 0038 03F50063 		add	r3, r3, #2048
 5735 003c 9C42     		cmp	r4, r3
 5736 003e 04D1     		bne	.L278
 5737              	.L277:
3503:n32g430_std_periph_driver/src/n32g430_tim.c ****     {
3504:n32g430_std_periph_driver/src/n32g430_tim.c ****         
3505:n32g430_std_periph_driver/src/n32g430_tim.c ****         /* Reset the Output Compare IDLE State */
3506:n32g430_std_periph_driver/src/n32g430_tim.c ****         temp_value2 &= (uint32_t)(~((uint32_t)TIM_OC5_IDLE_STATE_MASK));
 5738              		.loc 1 3506 9 is_stmt 1 view .LVU1529
 5739              		.loc 1 3506 21 is_stmt 0 view .LVU1530
 5740 0040 27F48037 		bic	r7, r7, #65536
 5741              	.LVL527:
3507:n32g430_std_periph_driver/src/n32g430_tim.c ****         /* Set the Output Idle state */
3508:n32g430_std_periph_driver/src/n32g430_tim.c ****         temp_value2 |= (uint32_t)(TIM_OCInitStruct->OcIdleState << 8);
 5742              		.loc 1 3508 9 is_stmt 1 view .LVU1531
 5743              		.loc 1 3508 51 is_stmt 0 view .LVU1532
 5744 0044 B389     		ldrh	r3, [r6, #12]
 5745              		.loc 1 3508 21 view .LVU1533
 5746 0046 47EA0327 		orr	r7, r7, r3, lsl #8
 5747              	.LVL528:
 5748              	.L278:
3509:n32g430_std_periph_driver/src/n32g430_tim.c ****     }
3510:n32g430_std_periph_driver/src/n32g430_tim.c ****     /* Write to TIMx CTRL2 */
3511:n32g430_std_periph_driver/src/n32g430_tim.c ****     TIMx->CTRL2 = temp_value2;
 5749              		.loc 1 3511 5 is_stmt 1 view .LVU1534
ARM GAS  C:\Users\Dawn\AppData\Local\Temp\ccf7B1Wd.s 			page 162


 5750              		.loc 1 3511 17 is_stmt 0 view .LVU1535
 5751 004a 6760     		str	r7, [r4, #4]
3512:n32g430_std_periph_driver/src/n32g430_tim.c **** 
3513:n32g430_std_periph_driver/src/n32g430_tim.c ****     /* Write to TIMx CCMOD3 */
3514:n32g430_std_periph_driver/src/n32g430_tim.c ****     TIMx->CCMOD3 = temp_value1;
 5752              		.loc 1 3514 5 is_stmt 1 view .LVU1536
 5753              		.loc 1 3514 18 is_stmt 0 view .LVU1537
 5754 004c A4F85450 		strh	r5, [r4, #84]	@ movhi
3515:n32g430_std_periph_driver/src/n32g430_tim.c **** 
3516:n32g430_std_periph_driver/src/n32g430_tim.c ****     /* Set the Capture Compare Register value */
3517:n32g430_std_periph_driver/src/n32g430_tim.c ****     TIMx->CCDAT5 = TIM_OCInitStruct->Pulse;
 5755              		.loc 1 3517 5 is_stmt 1 view .LVU1538
 5756              		.loc 1 3517 36 is_stmt 0 view .LVU1539
 5757 0050 F388     		ldrh	r3, [r6, #6]
 5758              		.loc 1 3517 18 view .LVU1540
 5759 0052 A4F85830 		strh	r3, [r4, #88]	@ movhi
3518:n32g430_std_periph_driver/src/n32g430_tim.c **** 
3519:n32g430_std_periph_driver/src/n32g430_tim.c **** }
 5760              		.loc 1 3519 1 view .LVU1541
 5761 0056 F8BD     		pop	{r3, r4, r5, r6, r7, pc}
 5762              	.LVL529:
 5763              	.L275:
3499:n32g430_std_periph_driver/src/n32g430_tim.c ****     }
 5764              		.loc 1 3499 9 is_stmt 1 view .LVU1542
 5765 0058 1021     		movs	r1, #16
 5766 005a 2046     		mov	r0, r4
 5767 005c FFF7FEFF 		bl	TIM_Capture_Compare_Ch_Disable
 5768              	.LVL530:
 5769 0060 E7E7     		b	.L276
 5770              	.L281:
 5771 0062 00BF     		.align	2
 5772              	.L280:
 5773 0064 002C0140 		.word	1073818624
 5774              		.cfi_endproc
 5775              	.LFE253:
 5777              		.section	.text.TIM_Output_Channel6_Initialize,"ax",%progbits
 5778              		.align	1
 5779              		.global	TIM_Output_Channel6_Initialize
 5780              		.syntax unified
 5781              		.thumb
 5782              		.thumb_func
 5784              	TIM_Output_Channel6_Initialize:
 5785              	.LVL531:
 5786              	.LFB254:
3520:n32g430_std_periph_driver/src/n32g430_tim.c **** 
3521:n32g430_std_periph_driver/src/n32g430_tim.c **** /**
3522:n32g430_std_periph_driver/src/n32g430_tim.c **** *\*\name    TIM_Output_Channel6_Initialize
3523:n32g430_std_periph_driver/src/n32g430_tim.c **** *\*\fun     Initializes the TIM break and dead time register
3524:n32g430_std_periph_driver/src/n32g430_tim.c **** *\*\param   TIMx:
3525:n32g430_std_periph_driver/src/n32g430_tim.c **** *\*\          - TIM1
3526:n32g430_std_periph_driver/src/n32g430_tim.c **** *\*\          - TIM8
3527:n32g430_std_periph_driver/src/n32g430_tim.c **** *\*\param   TIM_OCInitStruct:
3528:n32g430_std_periph_driver/src/n32g430_tim.c **** *\*\              - Refer to the definition of OCInitType.
3529:n32g430_std_periph_driver/src/n32g430_tim.c **** *\*\return  none
3530:n32g430_std_periph_driver/src/n32g430_tim.c **** **/
3531:n32g430_std_periph_driver/src/n32g430_tim.c **** void TIM_Output_Channel6_Initialize(TIM_Module* TIMx, OCInitType* TIM_OCInitStruct)
3532:n32g430_std_periph_driver/src/n32g430_tim.c **** {
ARM GAS  C:\Users\Dawn\AppData\Local\Temp\ccf7B1Wd.s 			page 163


 5787              		.loc 1 3532 1 view -0
 5788              		.cfi_startproc
 5789              		@ args = 0, pretend = 0, frame = 0
 5790              		@ frame_needed = 0, uses_anonymous_args = 0
 5791              		.loc 1 3532 1 is_stmt 0 view .LVU1544
 5792 0000 F8B5     		push	{r3, r4, r5, r6, r7, lr}
 5793              	.LCFI21:
 5794              		.cfi_def_cfa_offset 24
 5795              		.cfi_offset 3, -24
 5796              		.cfi_offset 4, -20
 5797              		.cfi_offset 5, -16
 5798              		.cfi_offset 6, -12
 5799              		.cfi_offset 7, -8
 5800              		.cfi_offset 14, -4
 5801 0002 0446     		mov	r4, r0
 5802 0004 0E46     		mov	r6, r1
3533:n32g430_std_periph_driver/src/n32g430_tim.c ****     uint16_t temp_value1 = 0;
 5803              		.loc 1 3533 5 is_stmt 1 view .LVU1545
 5804              	.LVL532:
3534:n32g430_std_periph_driver/src/n32g430_tim.c ****     uint32_t temp_value2 = 0;
 5805              		.loc 1 3534 5 view .LVU1546
3535:n32g430_std_periph_driver/src/n32g430_tim.c **** 
3536:n32g430_std_periph_driver/src/n32g430_tim.c ****     /* Disable the Channel 6, Reset the CC6EN Bit */
3537:n32g430_std_periph_driver/src/n32g430_tim.c ****     TIM_Capture_Compare_Ch_Disable(TIMx, TIM_CH_6);
 5806              		.loc 1 3537 5 view .LVU1547
 5807 0006 1421     		movs	r1, #20
 5808              	.LVL533:
 5809              		.loc 1 3537 5 is_stmt 0 view .LVU1548
 5810 0008 FFF7FEFF 		bl	TIM_Capture_Compare_Ch_Disable
 5811              	.LVL534:
3538:n32g430_std_periph_driver/src/n32g430_tim.c **** 
3539:n32g430_std_periph_driver/src/n32g430_tim.c ****     /* Get the TIMx CTRL2 register value */
3540:n32g430_std_periph_driver/src/n32g430_tim.c ****     temp_value2 = TIMx->CTRL2;
 5812              		.loc 1 3540 5 is_stmt 1 view .LVU1549
 5813              		.loc 1 3540 17 is_stmt 0 view .LVU1550
 5814 000c 6768     		ldr	r7, [r4, #4]
 5815              	.LVL535:
3541:n32g430_std_periph_driver/src/n32g430_tim.c **** 
3542:n32g430_std_periph_driver/src/n32g430_tim.c ****     /* Get the TIMx CCMOD3 register value */
3543:n32g430_std_periph_driver/src/n32g430_tim.c ****     temp_value1 = TIMx->CCMOD3;
 5816              		.loc 1 3543 5 is_stmt 1 view .LVU1551
 5817              		.loc 1 3543 17 is_stmt 0 view .LVU1552
 5818 000e B4F85450 		ldrh	r5, [r4, #84]
 5819 0012 ADB2     		uxth	r5, r5
 5820              	.LVL536:
3544:n32g430_std_periph_driver/src/n32g430_tim.c **** 
3545:n32g430_std_periph_driver/src/n32g430_tim.c ****     /* Reset the Output Compare mode and Capture/Compare selection Bits */
3546:n32g430_std_periph_driver/src/n32g430_tim.c ****     temp_value1 &= (uint16_t)(~((uint16_t)TIM_OC6MODE_MASK));
 5821              		.loc 1 3546 5 is_stmt 1 view .LVU1553
 5822              		.loc 1 3546 17 is_stmt 0 view .LVU1554
 5823 0014 25F4E045 		bic	r5, r5, #28672
 5824              	.LVL537:
3547:n32g430_std_periph_driver/src/n32g430_tim.c **** 
3548:n32g430_std_periph_driver/src/n32g430_tim.c ****     /* Select the Output Compare Mode */
3549:n32g430_std_periph_driver/src/n32g430_tim.c ****     temp_value1 |= (uint16_t)(TIM_OCInitStruct->OcMode << 8);
 5825              		.loc 1 3549 5 is_stmt 1 view .LVU1555
 5826              		.loc 1 3549 47 is_stmt 0 view .LVU1556
ARM GAS  C:\Users\Dawn\AppData\Local\Temp\ccf7B1Wd.s 			page 164


 5827 0018 3388     		ldrh	r3, [r6]
 5828              		.loc 1 3549 20 view .LVU1557
 5829 001a 1B02     		lsls	r3, r3, #8
 5830 001c 9BB2     		uxth	r3, r3
 5831              		.loc 1 3549 17 view .LVU1558
 5832 001e 1D43     		orrs	r5, r5, r3
 5833              	.LVL538:
3550:n32g430_std_periph_driver/src/n32g430_tim.c **** 
3551:n32g430_std_periph_driver/src/n32g430_tim.c ****     TIM_Output_Channel_Polarity_Set(TIMx, TIM_OCInitStruct->OcPolarity, TIM_CH_6);
 5834              		.loc 1 3551 5 is_stmt 1 view .LVU1559
 5835 0020 1422     		movs	r2, #20
 5836 0022 3189     		ldrh	r1, [r6, #8]
 5837 0024 2046     		mov	r0, r4
 5838 0026 FFF7FEFF 		bl	TIM_Output_Channel_Polarity_Set
 5839              	.LVL539:
3552:n32g430_std_periph_driver/src/n32g430_tim.c **** 
3553:n32g430_std_periph_driver/src/n32g430_tim.c ****     /* Set the Output State */
3554:n32g430_std_periph_driver/src/n32g430_tim.c ****     if(TIM_OCInitStruct->OutputState)
 5840              		.loc 1 3554 5 view .LVU1560
 5841              		.loc 1 3554 24 is_stmt 0 view .LVU1561
 5842 002a 7388     		ldrh	r3, [r6, #2]
 5843              		.loc 1 3554 7 view .LVU1562
 5844 002c B3B1     		cbz	r3, .L283
3555:n32g430_std_periph_driver/src/n32g430_tim.c ****     {
3556:n32g430_std_periph_driver/src/n32g430_tim.c ****         TIM_Capture_Compare_Ch_Enable(TIMx, TIM_CH_6);
 5845              		.loc 1 3556 9 is_stmt 1 view .LVU1563
 5846 002e 1421     		movs	r1, #20
 5847 0030 2046     		mov	r0, r4
 5848 0032 FFF7FEFF 		bl	TIM_Capture_Compare_Ch_Enable
 5849              	.LVL540:
 5850              	.L284:
3557:n32g430_std_periph_driver/src/n32g430_tim.c ****     }
3558:n32g430_std_periph_driver/src/n32g430_tim.c ****     else
3559:n32g430_std_periph_driver/src/n32g430_tim.c ****     {
3560:n32g430_std_periph_driver/src/n32g430_tim.c ****         TIM_Capture_Compare_Ch_Disable(TIMx, TIM_CH_6);
3561:n32g430_std_periph_driver/src/n32g430_tim.c ****     }
3562:n32g430_std_periph_driver/src/n32g430_tim.c **** 
3563:n32g430_std_periph_driver/src/n32g430_tim.c ****     if ((TIMx == TIM1) || (TIMx == TIM8))
 5851              		.loc 1 3563 5 view .LVU1564
 5852              		.loc 1 3563 8 is_stmt 0 view .LVU1565
 5853 0036 0C4B     		ldr	r3, .L288
 5854 0038 9C42     		cmp	r4, r3
 5855 003a 03D0     		beq	.L285
 5856              		.loc 1 3563 24 discriminator 1 view .LVU1566
 5857 003c 03F50063 		add	r3, r3, #2048
 5858 0040 9C42     		cmp	r4, r3
 5859 0042 04D1     		bne	.L286
 5860              	.L285:
3564:n32g430_std_periph_driver/src/n32g430_tim.c ****     {
3565:n32g430_std_periph_driver/src/n32g430_tim.c ****         
3566:n32g430_std_periph_driver/src/n32g430_tim.c ****         /* Reset the Output Compare IDLE State */
3567:n32g430_std_periph_driver/src/n32g430_tim.c ****         temp_value2 &= (uint32_t)(~((uint32_t)TIM_OC6_IDLE_STATE_MASK));
 5861              		.loc 1 3567 9 is_stmt 1 view .LVU1567
 5862              		.loc 1 3567 21 is_stmt 0 view .LVU1568
 5863 0044 27F48027 		bic	r7, r7, #262144
 5864              	.LVL541:
3568:n32g430_std_periph_driver/src/n32g430_tim.c ****         /* Set the Output Idle state */
ARM GAS  C:\Users\Dawn\AppData\Local\Temp\ccf7B1Wd.s 			page 165


3569:n32g430_std_periph_driver/src/n32g430_tim.c ****         temp_value2 |= (uint32_t)(TIM_OCInitStruct->OcIdleState << 10);
 5865              		.loc 1 3569 9 is_stmt 1 view .LVU1569
 5866              		.loc 1 3569 51 is_stmt 0 view .LVU1570
 5867 0048 B389     		ldrh	r3, [r6, #12]
 5868              		.loc 1 3569 21 view .LVU1571
 5869 004a 47EA8327 		orr	r7, r7, r3, lsl #10
 5870              	.LVL542:
 5871              	.L286:
3570:n32g430_std_periph_driver/src/n32g430_tim.c ****     }
3571:n32g430_std_periph_driver/src/n32g430_tim.c ****     /* Write to TIMx CTRL2 */
3572:n32g430_std_periph_driver/src/n32g430_tim.c ****     TIMx->CTRL2 = temp_value2;
 5872              		.loc 1 3572 5 is_stmt 1 view .LVU1572
 5873              		.loc 1 3572 17 is_stmt 0 view .LVU1573
 5874 004e 6760     		str	r7, [r4, #4]
3573:n32g430_std_periph_driver/src/n32g430_tim.c **** 
3574:n32g430_std_periph_driver/src/n32g430_tim.c ****     /* Write to TIMx CCMOD3 */
3575:n32g430_std_periph_driver/src/n32g430_tim.c ****     TIMx->CCMOD3 = temp_value1;
 5875              		.loc 1 3575 5 is_stmt 1 view .LVU1574
 5876              		.loc 1 3575 18 is_stmt 0 view .LVU1575
 5877 0050 A4F85450 		strh	r5, [r4, #84]	@ movhi
3576:n32g430_std_periph_driver/src/n32g430_tim.c **** 
3577:n32g430_std_periph_driver/src/n32g430_tim.c ****     /* Set the Capture Compare Register value */
3578:n32g430_std_periph_driver/src/n32g430_tim.c ****     TIMx->CCDAT6 = TIM_OCInitStruct->Pulse;
 5878              		.loc 1 3578 5 is_stmt 1 view .LVU1576
 5879              		.loc 1 3578 36 is_stmt 0 view .LVU1577
 5880 0054 F388     		ldrh	r3, [r6, #6]
 5881              		.loc 1 3578 18 view .LVU1578
 5882 0056 A4F85C30 		strh	r3, [r4, #92]	@ movhi
3579:n32g430_std_periph_driver/src/n32g430_tim.c **** 
3580:n32g430_std_periph_driver/src/n32g430_tim.c **** }
 5883              		.loc 1 3580 1 view .LVU1579
 5884 005a F8BD     		pop	{r3, r4, r5, r6, r7, pc}
 5885              	.LVL543:
 5886              	.L283:
3560:n32g430_std_periph_driver/src/n32g430_tim.c ****     }
 5887              		.loc 1 3560 9 is_stmt 1 view .LVU1580
 5888 005c 1421     		movs	r1, #20
 5889 005e 2046     		mov	r0, r4
 5890 0060 FFF7FEFF 		bl	TIM_Capture_Compare_Ch_Disable
 5891              	.LVL544:
 5892 0064 E7E7     		b	.L284
 5893              	.L289:
 5894 0066 00BF     		.align	2
 5895              	.L288:
 5896 0068 002C0140 		.word	1073818624
 5897              		.cfi_endproc
 5898              	.LFE254:
 5900              		.section	.text.TIM_PWM_Output_Enable,"ax",%progbits
 5901              		.align	1
 5902              		.global	TIM_PWM_Output_Enable
 5903              		.syntax unified
 5904              		.thumb
 5905              		.thumb_func
 5907              	TIM_PWM_Output_Enable:
 5908              	.LVL545:
 5909              	.LFB255:
3581:n32g430_std_periph_driver/src/n32g430_tim.c **** 
ARM GAS  C:\Users\Dawn\AppData\Local\Temp\ccf7B1Wd.s 			page 166


3582:n32g430_std_periph_driver/src/n32g430_tim.c **** 
3583:n32g430_std_periph_driver/src/n32g430_tim.c **** /**
3584:n32g430_std_periph_driver/src/n32g430_tim.c **** *\*\name    TIM_PWM_Output_Enable.
3585:n32g430_std_periph_driver/src/n32g430_tim.c **** *\*\fun     Initializes the TIM break and dead time register
3586:n32g430_std_periph_driver/src/n32g430_tim.c **** *\*\param   TIMx:
3587:n32g430_std_periph_driver/src/n32g430_tim.c **** *\*\          - TIM1
3588:n32g430_std_periph_driver/src/n32g430_tim.c **** *\*\          - TIM8
3589:n32g430_std_periph_driver/src/n32g430_tim.c **** *\*\return  none
3590:n32g430_std_periph_driver/src/n32g430_tim.c **** **/
3591:n32g430_std_periph_driver/src/n32g430_tim.c **** void TIM_PWM_Output_Enable(TIM_Module* TIMx)
3592:n32g430_std_periph_driver/src/n32g430_tim.c **** {
 5910              		.loc 1 3592 1 view -0
 5911              		.cfi_startproc
 5912              		@ args = 0, pretend = 0, frame = 0
 5913              		@ frame_needed = 0, uses_anonymous_args = 0
 5914              		@ link register save eliminated.
3593:n32g430_std_periph_driver/src/n32g430_tim.c ****     TIMx->BKDT |= TIM_MAIN_OUTPUT_ENABLE;
 5915              		.loc 1 3593 5 view .LVU1582
 5916              		.loc 1 3593 9 is_stmt 0 view .LVU1583
 5917 0000 B0F84430 		ldrh	r3, [r0, #68]
 5918              		.loc 1 3593 16 view .LVU1584
 5919 0004 6FEA4343 		mvn	r3, r3, lsl #17
 5920 0008 6FEA5343 		mvn	r3, r3, lsr #17
 5921 000c 9BB2     		uxth	r3, r3
 5922 000e A0F84430 		strh	r3, [r0, #68]	@ movhi
3594:n32g430_std_periph_driver/src/n32g430_tim.c **** }
 5923              		.loc 1 3594 1 view .LVU1585
 5924 0012 7047     		bx	lr
 5925              		.cfi_endproc
 5926              	.LFE255:
 5928              		.section	.text.TIM_PWM_Output_Disable,"ax",%progbits
 5929              		.align	1
 5930              		.global	TIM_PWM_Output_Disable
 5931              		.syntax unified
 5932              		.thumb
 5933              		.thumb_func
 5935              	TIM_PWM_Output_Disable:
 5936              	.LVL546:
 5937              	.LFB256:
3595:n32g430_std_periph_driver/src/n32g430_tim.c **** 
3596:n32g430_std_periph_driver/src/n32g430_tim.c **** /**
3597:n32g430_std_periph_driver/src/n32g430_tim.c **** *\*\name    TIM_PWM_Output_Disable.
3598:n32g430_std_periph_driver/src/n32g430_tim.c **** *\*\fun     Initializes the TIM break and dead time register
3599:n32g430_std_periph_driver/src/n32g430_tim.c **** *\*\param   TIMx:
3600:n32g430_std_periph_driver/src/n32g430_tim.c **** *\*\          - TIM1
3601:n32g430_std_periph_driver/src/n32g430_tim.c **** *\*\          - TIM8
3602:n32g430_std_periph_driver/src/n32g430_tim.c **** *\*\return  none
3603:n32g430_std_periph_driver/src/n32g430_tim.c **** **/
3604:n32g430_std_periph_driver/src/n32g430_tim.c **** void TIM_PWM_Output_Disable(TIM_Module* TIMx)
3605:n32g430_std_periph_driver/src/n32g430_tim.c **** {
 5938              		.loc 1 3605 1 is_stmt 1 view -0
 5939              		.cfi_startproc
 5940              		@ args = 0, pretend = 0, frame = 0
 5941              		@ frame_needed = 0, uses_anonymous_args = 0
 5942              		@ link register save eliminated.
3606:n32g430_std_periph_driver/src/n32g430_tim.c ****     TIMx->BKDT &= (uint16_t)(~((uint16_t)TIM_MAIN_OUTPUT_ENABLE));
 5943              		.loc 1 3606 5 view .LVU1587
ARM GAS  C:\Users\Dawn\AppData\Local\Temp\ccf7B1Wd.s 			page 167


 5944              		.loc 1 3606 9 is_stmt 0 view .LVU1588
 5945 0000 B0F84430 		ldrh	r3, [r0, #68]
 5946              		.loc 1 3606 16 view .LVU1589
 5947 0004 C3F30E03 		ubfx	r3, r3, #0, #15
 5948 0008 A0F84430 		strh	r3, [r0, #68]	@ movhi
3607:n32g430_std_periph_driver/src/n32g430_tim.c **** }
 5949              		.loc 1 3607 1 view .LVU1590
 5950 000c 7047     		bx	lr
 5951              		.cfi_endproc
 5952              	.LFE256:
 5954              		.section	.text.TIM_Output_Channel_Struct_Initialize,"ax",%progbits
 5955              		.align	1
 5956              		.global	TIM_Output_Channel_Struct_Initialize
 5957              		.syntax unified
 5958              		.thumb
 5959              		.thumb_func
 5961              	TIM_Output_Channel_Struct_Initialize:
 5962              	.LVL547:
 5963              	.LFB257:
3608:n32g430_std_periph_driver/src/n32g430_tim.c **** 
3609:n32g430_std_periph_driver/src/n32g430_tim.c **** 
3610:n32g430_std_periph_driver/src/n32g430_tim.c **** 
3611:n32g430_std_periph_driver/src/n32g430_tim.c **** void TIM_Output_Channel_Struct_Initialize(OCInitType* TIM_OCInitStruct)
3612:n32g430_std_periph_driver/src/n32g430_tim.c **** {
 5964              		.loc 1 3612 1 is_stmt 1 view -0
 5965              		.cfi_startproc
 5966              		@ args = 0, pretend = 0, frame = 0
 5967              		@ frame_needed = 0, uses_anonymous_args = 0
 5968              		@ link register save eliminated.
3613:n32g430_std_periph_driver/src/n32g430_tim.c ****     /* Set the default configuration */
3614:n32g430_std_periph_driver/src/n32g430_tim.c ****     TIM_OCInitStruct->OcMode       = TIM_OCMODE_TIMING;
 5969              		.loc 1 3614 5 view .LVU1592
 5970              		.loc 1 3614 36 is_stmt 0 view .LVU1593
 5971 0000 0023     		movs	r3, #0
 5972 0002 0380     		strh	r3, [r0]	@ movhi
3615:n32g430_std_periph_driver/src/n32g430_tim.c ****     TIM_OCInitStruct->OutputState  = TIM_OUTPUT_STATE_DISABLE;
 5973              		.loc 1 3615 5 is_stmt 1 view .LVU1594
 5974              		.loc 1 3615 36 is_stmt 0 view .LVU1595
 5975 0004 4380     		strh	r3, [r0, #2]	@ movhi
3616:n32g430_std_periph_driver/src/n32g430_tim.c ****     TIM_OCInitStruct->OutputNState = TIM_OUTPUT_NSTATE_DISABLE;
 5976              		.loc 1 3616 5 is_stmt 1 view .LVU1596
 5977              		.loc 1 3616 36 is_stmt 0 view .LVU1597
 5978 0006 8380     		strh	r3, [r0, #4]	@ movhi
3617:n32g430_std_periph_driver/src/n32g430_tim.c ****     TIM_OCInitStruct->Pulse        = 0x0000;
 5979              		.loc 1 3617 5 is_stmt 1 view .LVU1598
 5980              		.loc 1 3617 36 is_stmt 0 view .LVU1599
 5981 0008 C380     		strh	r3, [r0, #6]	@ movhi
3618:n32g430_std_periph_driver/src/n32g430_tim.c ****     TIM_OCInitStruct->OcPolarity   = TIM_OC_POLARITY_HIGH;
 5982              		.loc 1 3618 5 is_stmt 1 view .LVU1600
 5983              		.loc 1 3618 36 is_stmt 0 view .LVU1601
 5984 000a 0381     		strh	r3, [r0, #8]	@ movhi
3619:n32g430_std_periph_driver/src/n32g430_tim.c ****     TIM_OCInitStruct->OcNPolarity  = TIM_OC_POLARITY_HIGH;
 5985              		.loc 1 3619 5 is_stmt 1 view .LVU1602
 5986              		.loc 1 3619 36 is_stmt 0 view .LVU1603
 5987 000c 4381     		strh	r3, [r0, #10]	@ movhi
3620:n32g430_std_periph_driver/src/n32g430_tim.c ****     TIM_OCInitStruct->OcIdleState  = TIM_OC_IDLE_STATE_RESET;
 5988              		.loc 1 3620 5 is_stmt 1 view .LVU1604
ARM GAS  C:\Users\Dawn\AppData\Local\Temp\ccf7B1Wd.s 			page 168


 5989              		.loc 1 3620 36 is_stmt 0 view .LVU1605
 5990 000e 8381     		strh	r3, [r0, #12]	@ movhi
3621:n32g430_std_periph_driver/src/n32g430_tim.c ****     TIM_OCInitStruct->OcNIdleState = TIM_OCN_IDLE_STATE_RESET;
 5991              		.loc 1 3621 5 is_stmt 1 view .LVU1606
 5992              		.loc 1 3621 36 is_stmt 0 view .LVU1607
 5993 0010 C381     		strh	r3, [r0, #14]	@ movhi
3622:n32g430_std_periph_driver/src/n32g430_tim.c **** }
 5994              		.loc 1 3622 1 view .LVU1608
 5995 0012 7047     		bx	lr
 5996              		.cfi_endproc
 5997              	.LFE257:
 5999              		.section	.text.TIM_Lock_Up_Break_Enable,"ax",%progbits
 6000              		.align	1
 6001              		.global	TIM_Lock_Up_Break_Enable
 6002              		.syntax unified
 6003              		.thumb
 6004              		.thumb_func
 6006              	TIM_Lock_Up_Break_Enable:
 6007              	.LVL548:
 6008              	.LFB258:
3623:n32g430_std_periph_driver/src/n32g430_tim.c **** 
3624:n32g430_std_periph_driver/src/n32g430_tim.c **** 
3625:n32g430_std_periph_driver/src/n32g430_tim.c **** /**
3626:n32g430_std_periph_driver/src/n32g430_tim.c **** *\*\name    TIM_Lock_Up_Break_Enable.
3627:n32g430_std_periph_driver/src/n32g430_tim.c **** *\*\param   TIMx:
3628:n32g430_std_periph_driver/src/n32g430_tim.c **** *\*\          - TIM1
3629:n32g430_std_periph_driver/src/n32g430_tim.c **** *\*\          - TIM8
3630:n32g430_std_periph_driver/src/n32g430_tim.c **** *\*\return  none
3631:n32g430_std_periph_driver/src/n32g430_tim.c **** **/
3632:n32g430_std_periph_driver/src/n32g430_tim.c **** void TIM_Lock_Up_Break_Enable(TIM_Module* TIMx)
3633:n32g430_std_periph_driver/src/n32g430_tim.c **** {
 6009              		.loc 1 3633 1 is_stmt 1 view -0
 6010              		.cfi_startproc
 6011              		@ args = 0, pretend = 0, frame = 0
 6012              		@ frame_needed = 0, uses_anonymous_args = 0
 6013              		@ link register save eliminated.
3634:n32g430_std_periph_driver/src/n32g430_tim.c ****     TIMx->CTRL1 |= TIM_LOCKUP_AS_BREAK_IN;
 6014              		.loc 1 3634 5 view .LVU1610
 6015              		.loc 1 3634 9 is_stmt 0 view .LVU1611
 6016 0000 0368     		ldr	r3, [r0]
 6017              		.loc 1 3634 17 view .LVU1612
 6018 0002 43F48033 		orr	r3, r3, #65536
 6019 0006 0360     		str	r3, [r0]
3635:n32g430_std_periph_driver/src/n32g430_tim.c **** }
 6020              		.loc 1 3635 1 view .LVU1613
 6021 0008 7047     		bx	lr
 6022              		.cfi_endproc
 6023              	.LFE258:
 6025              		.section	.text.TIM_Lock_Up_Break_Disable,"ax",%progbits
 6026              		.align	1
 6027              		.global	TIM_Lock_Up_Break_Disable
 6028              		.syntax unified
 6029              		.thumb
 6030              		.thumb_func
 6032              	TIM_Lock_Up_Break_Disable:
 6033              	.LVL549:
 6034              	.LFB259:
ARM GAS  C:\Users\Dawn\AppData\Local\Temp\ccf7B1Wd.s 			page 169


3636:n32g430_std_periph_driver/src/n32g430_tim.c **** /**
3637:n32g430_std_periph_driver/src/n32g430_tim.c **** *\*\name    TIM_Lock_Up_Break_Disable.
3638:n32g430_std_periph_driver/src/n32g430_tim.c **** *\*\param   TIMx:
3639:n32g430_std_periph_driver/src/n32g430_tim.c **** *\*\          - TIM1
3640:n32g430_std_periph_driver/src/n32g430_tim.c **** *\*\          - TIM8
3641:n32g430_std_periph_driver/src/n32g430_tim.c **** *\*\return  none
3642:n32g430_std_periph_driver/src/n32g430_tim.c **** **/
3643:n32g430_std_periph_driver/src/n32g430_tim.c **** void TIM_Lock_Up_Break_Disable(TIM_Module* TIMx)
3644:n32g430_std_periph_driver/src/n32g430_tim.c **** {
 6035              		.loc 1 3644 1 is_stmt 1 view -0
 6036              		.cfi_startproc
 6037              		@ args = 0, pretend = 0, frame = 0
 6038              		@ frame_needed = 0, uses_anonymous_args = 0
 6039              		@ link register save eliminated.
3645:n32g430_std_periph_driver/src/n32g430_tim.c ****     TIMx->CTRL1 &= (uint32_t)(~TIM_LOCKUP_AS_BREAK_IN);
 6040              		.loc 1 3645 5 view .LVU1615
 6041              		.loc 1 3645 9 is_stmt 0 view .LVU1616
 6042 0000 0368     		ldr	r3, [r0]
 6043              		.loc 1 3645 17 view .LVU1617
 6044 0002 23F48033 		bic	r3, r3, #65536
 6045 0006 0360     		str	r3, [r0]
3646:n32g430_std_periph_driver/src/n32g430_tim.c **** }
 6046              		.loc 1 3646 1 view .LVU1618
 6047 0008 7047     		bx	lr
 6048              		.cfi_endproc
 6049              	.LFE259:
 6051              		.section	.text.TIM_Pvd_Break_Enable,"ax",%progbits
 6052              		.align	1
 6053              		.global	TIM_Pvd_Break_Enable
 6054              		.syntax unified
 6055              		.thumb
 6056              		.thumb_func
 6058              	TIM_Pvd_Break_Enable:
 6059              	.LVL550:
 6060              	.LFB260:
3647:n32g430_std_periph_driver/src/n32g430_tim.c **** /**
3648:n32g430_std_periph_driver/src/n32g430_tim.c **** *\*\name    TIM_Pvd_Break_Enable.
3649:n32g430_std_periph_driver/src/n32g430_tim.c **** *\*\param   TIMx:
3650:n32g430_std_periph_driver/src/n32g430_tim.c **** *\*\          - TIM1
3651:n32g430_std_periph_driver/src/n32g430_tim.c **** *\*\          - TIM8
3652:n32g430_std_periph_driver/src/n32g430_tim.c **** *\*\return  none
3653:n32g430_std_periph_driver/src/n32g430_tim.c **** **/
3654:n32g430_std_periph_driver/src/n32g430_tim.c **** void TIM_Pvd_Break_Enable(TIM_Module* TIMx)
3655:n32g430_std_periph_driver/src/n32g430_tim.c **** {
 6061              		.loc 1 3655 1 is_stmt 1 view -0
 6062              		.cfi_startproc
 6063              		@ args = 0, pretend = 0, frame = 0
 6064              		@ frame_needed = 0, uses_anonymous_args = 0
 6065              		@ link register save eliminated.
3656:n32g430_std_periph_driver/src/n32g430_tim.c ****     TIMx->CTRL1 |= TIM_PVD_AS_BREAK_IN;
 6066              		.loc 1 3656 5 view .LVU1620
 6067              		.loc 1 3656 9 is_stmt 0 view .LVU1621
 6068 0000 0368     		ldr	r3, [r0]
 6069              		.loc 1 3656 17 view .LVU1622
 6070 0002 43F40033 		orr	r3, r3, #131072
 6071 0006 0360     		str	r3, [r0]
3657:n32g430_std_periph_driver/src/n32g430_tim.c **** }
ARM GAS  C:\Users\Dawn\AppData\Local\Temp\ccf7B1Wd.s 			page 170


 6072              		.loc 1 3657 1 view .LVU1623
 6073 0008 7047     		bx	lr
 6074              		.cfi_endproc
 6075              	.LFE260:
 6077              		.section	.text.TIM_Pvd_Break_Disable,"ax",%progbits
 6078              		.align	1
 6079              		.global	TIM_Pvd_Break_Disable
 6080              		.syntax unified
 6081              		.thumb
 6082              		.thumb_func
 6084              	TIM_Pvd_Break_Disable:
 6085              	.LVL551:
 6086              	.LFB261:
3658:n32g430_std_periph_driver/src/n32g430_tim.c **** 
3659:n32g430_std_periph_driver/src/n32g430_tim.c **** /**
3660:n32g430_std_periph_driver/src/n32g430_tim.c **** *\*\name    TIM_Pvd_Break_Disable.
3661:n32g430_std_periph_driver/src/n32g430_tim.c **** *\*\param   TIMx:
3662:n32g430_std_periph_driver/src/n32g430_tim.c **** *\*\          - TIM1
3663:n32g430_std_periph_driver/src/n32g430_tim.c **** *\*\          - TIM8
3664:n32g430_std_periph_driver/src/n32g430_tim.c **** *\*\return  none
3665:n32g430_std_periph_driver/src/n32g430_tim.c **** **/
3666:n32g430_std_periph_driver/src/n32g430_tim.c **** void TIM_Pvd_Break_Disable(TIM_Module* TIMx)
3667:n32g430_std_periph_driver/src/n32g430_tim.c **** {
 6087              		.loc 1 3667 1 is_stmt 1 view -0
 6088              		.cfi_startproc
 6089              		@ args = 0, pretend = 0, frame = 0
 6090              		@ frame_needed = 0, uses_anonymous_args = 0
 6091              		@ link register save eliminated.
3668:n32g430_std_periph_driver/src/n32g430_tim.c ****     TIMx->CTRL1 &= (uint32_t)(~TIM_PVD_AS_BREAK_IN);
 6092              		.loc 1 3668 5 view .LVU1625
 6093              		.loc 1 3668 9 is_stmt 0 view .LVU1626
 6094 0000 0368     		ldr	r3, [r0]
 6095              		.loc 1 3668 17 view .LVU1627
 6096 0002 23F40033 		bic	r3, r3, #131072
 6097 0006 0360     		str	r3, [r0]
3669:n32g430_std_periph_driver/src/n32g430_tim.c **** }
 6098              		.loc 1 3669 1 view .LVU1628
 6099 0008 7047     		bx	lr
 6100              		.cfi_endproc
 6101              	.LFE261:
 6103              		.section	.text.TIM_IOM_Comp_Break,"ax",%progbits
 6104              		.align	1
 6105              		.global	TIM_IOM_Comp_Break
 6106              		.syntax unified
 6107              		.thumb
 6108              		.thumb_func
 6110              	TIM_IOM_Comp_Break:
 6111              	.LVL552:
 6112              	.LFB262:
3670:n32g430_std_periph_driver/src/n32g430_tim.c **** 
3671:n32g430_std_periph_driver/src/n32g430_tim.c **** /**
3672:n32g430_std_periph_driver/src/n32g430_tim.c **** *\*\name    TIM_IOM_Comp_Break.
3673:n32g430_std_periph_driver/src/n32g430_tim.c **** *\*\param   TIMx:
3674:n32g430_std_periph_driver/src/n32g430_tim.c **** *\*\          - TIM1
3675:n32g430_std_periph_driver/src/n32g430_tim.c **** *\*\          - TIM8
3676:n32g430_std_periph_driver/src/n32g430_tim.c **** *\*\param   IOM_Comp_Selection:
3677:n32g430_std_periph_driver/src/n32g430_tim.c **** *\*\          - true     Comp as break in source
ARM GAS  C:\Users\Dawn\AppData\Local\Temp\ccf7B1Wd.s 			page 171


3678:n32g430_std_periph_driver/src/n32g430_tim.c **** *\*\          - false    IOM as break in source
3679:n32g430_std_periph_driver/src/n32g430_tim.c **** *\*\return  none
3680:n32g430_std_periph_driver/src/n32g430_tim.c **** **/
3681:n32g430_std_periph_driver/src/n32g430_tim.c **** void TIM_IOM_Comp_Break(TIM_Module* TIMx, bool IOM_Comp_Selection)
3682:n32g430_std_periph_driver/src/n32g430_tim.c **** {
 6113              		.loc 1 3682 1 is_stmt 1 view -0
 6114              		.cfi_startproc
 6115              		@ args = 0, pretend = 0, frame = 0
 6116              		@ frame_needed = 0, uses_anonymous_args = 0
 6117              		@ link register save eliminated.
3683:n32g430_std_periph_driver/src/n32g430_tim.c ****     if(IOM_Comp_Selection)
 6118              		.loc 1 3683 5 view .LVU1630
 6119              		.loc 1 3683 7 is_stmt 0 view .LVU1631
 6120 0000 21B1     		cbz	r1, .L298
3684:n32g430_std_periph_driver/src/n32g430_tim.c ****     {
3685:n32g430_std_periph_driver/src/n32g430_tim.c ****         TIMx->CTRL1 |= TIM_COMP_AS_BREAK_IN;
 6121              		.loc 1 3685 9 is_stmt 1 view .LVU1632
 6122              		.loc 1 3685 13 is_stmt 0 view .LVU1633
 6123 0002 0368     		ldr	r3, [r0]
 6124              		.loc 1 3685 21 view .LVU1634
 6125 0004 43F48063 		orr	r3, r3, #1024
 6126 0008 0360     		str	r3, [r0]
 6127 000a 7047     		bx	lr
 6128              	.L298:
3686:n32g430_std_periph_driver/src/n32g430_tim.c ****     }
3687:n32g430_std_periph_driver/src/n32g430_tim.c ****     else
3688:n32g430_std_periph_driver/src/n32g430_tim.c ****     {
3689:n32g430_std_periph_driver/src/n32g430_tim.c ****         TIMx->CTRL1 &= (uint32_t)(~TIM_COMP_AS_BREAK_IN);
 6129              		.loc 1 3689 9 is_stmt 1 view .LVU1635
 6130              		.loc 1 3689 13 is_stmt 0 view .LVU1636
 6131 000c 0368     		ldr	r3, [r0]
 6132              		.loc 1 3689 21 view .LVU1637
 6133 000e 23F48063 		bic	r3, r3, #1024
 6134 0012 0360     		str	r3, [r0]
3690:n32g430_std_periph_driver/src/n32g430_tim.c ****     }
3691:n32g430_std_periph_driver/src/n32g430_tim.c **** }
 6135              		.loc 1 3691 1 view .LVU1638
 6136 0014 7047     		bx	lr
 6137              		.cfi_endproc
 6138              	.LFE262:
 6140              		.section	.text.TIM_Break_And_Dead_Time_Set,"ax",%progbits
 6141              		.align	1
 6142              		.global	TIM_Break_And_Dead_Time_Set
 6143              		.syntax unified
 6144              		.thumb
 6145              		.thumb_func
 6147              	TIM_Break_And_Dead_Time_Set:
 6148              	.LVL553:
 6149              	.LFB263:
3692:n32g430_std_periph_driver/src/n32g430_tim.c **** 
3693:n32g430_std_periph_driver/src/n32g430_tim.c **** /**
3694:n32g430_std_periph_driver/src/n32g430_tim.c **** *\*\name    TIM_Break_And_Dead_Time_Set.
3695:n32g430_std_periph_driver/src/n32g430_tim.c **** *\*\param   TIMx:
3696:n32g430_std_periph_driver/src/n32g430_tim.c **** *\*\          - TIM1
3697:n32g430_std_periph_driver/src/n32g430_tim.c **** *\*\          - TIM8
3698:n32g430_std_periph_driver/src/n32g430_tim.c **** *\*\param   TIM_BDTRInitStruct:
3699:n32g430_std_periph_driver/src/n32g430_tim.c **** *\*\          - refer to the definition of TIM_BDTRInitType
ARM GAS  C:\Users\Dawn\AppData\Local\Temp\ccf7B1Wd.s 			page 172


3700:n32g430_std_periph_driver/src/n32g430_tim.c **** *\*\return  none
3701:n32g430_std_periph_driver/src/n32g430_tim.c **** **/
3702:n32g430_std_periph_driver/src/n32g430_tim.c **** void  TIM_Break_And_Dead_Time_Set(TIM_Module* TIMx, TIM_BDTRInitType* TIM_BDTRInitStruct)
3703:n32g430_std_periph_driver/src/n32g430_tim.c **** {
 6150              		.loc 1 3703 1 is_stmt 1 view -0
 6151              		.cfi_startproc
 6152              		@ args = 0, pretend = 0, frame = 0
 6153              		@ frame_needed = 0, uses_anonymous_args = 0
 6154              		.loc 1 3703 1 is_stmt 0 view .LVU1640
 6155 0000 70B5     		push	{r4, r5, r6, lr}
 6156              	.LCFI22:
 6157              		.cfi_def_cfa_offset 16
 6158              		.cfi_offset 4, -16
 6159              		.cfi_offset 5, -12
 6160              		.cfi_offset 6, -8
 6161              		.cfi_offset 14, -4
 6162 0002 0546     		mov	r5, r0
 6163 0004 0C46     		mov	r4, r1
3704:n32g430_std_periph_driver/src/n32g430_tim.c ****     /* Set the Lock level, the Break enable Bit and the Ploarity, the OSSR State,
3705:n32g430_std_periph_driver/src/n32g430_tim.c ****        the OSSI State, the dead time value and the Automatic Output Enable Bit */
3706:n32g430_std_periph_driver/src/n32g430_tim.c ****     TIMx->BKDT = (uint16_t)TIM_BDTRInitStruct->OssrState | TIM_BDTRInitStruct->OssiState | TIM_BDTR
 6164              		.loc 1 3706 5 is_stmt 1 view .LVU1641
 6165              		.loc 1 3706 46 is_stmt 0 view .LVU1642
 6166 0006 B1F800E0 		ldrh	lr, [r1]
 6167              		.loc 1 3706 78 view .LVU1643
 6168 000a 4E88     		ldrh	r6, [r1, #2]
 6169              		.loc 1 3706 110 view .LVU1644
 6170 000c B1F804C0 		ldrh	ip, [r1, #4]
3707:n32g430_std_periph_driver/src/n32g430_tim.c ****                  | TIM_BDTRInitStruct->DeadTime | TIM_BDTRInitStruct->Break | TIM_BDTRInitStruct->B
 6171              		.loc 1 3707 38 view .LVU1645
 6172 0010 C888     		ldrh	r0, [r1, #6]
 6173              	.LVL554:
 6174              		.loc 1 3707 69 view .LVU1646
 6175 0012 0989     		ldrh	r1, [r1, #8]
 6176              	.LVL555:
 6177              		.loc 1 3707 97 view .LVU1647
 6178 0014 6289     		ldrh	r2, [r4, #10]
3708:n32g430_std_periph_driver/src/n32g430_tim.c ****                  | TIM_BDTRInitStruct->AutomaticOutput;
 6179              		.loc 1 3708 38 view .LVU1648
 6180 0016 A389     		ldrh	r3, [r4, #12]
3706:n32g430_std_periph_driver/src/n32g430_tim.c ****                  | TIM_BDTRInitStruct->DeadTime | TIM_BDTRInitStruct->Break | TIM_BDTRInitStruct->B
 6181              		.loc 1 3706 16 view .LVU1649
 6182 0018 4EEA060E 		orr	lr, lr, r6
 6183 001c 4CEA0E0C 		orr	ip, ip, lr
 6184 0020 40EA0C00 		orr	r0, r0, ip
 6185 0024 0143     		orrs	r1, r1, r0
 6186 0026 0A43     		orrs	r2, r2, r1
 6187 0028 1343     		orrs	r3, r3, r2
 6188 002a A5F84430 		strh	r3, [r5, #68]	@ movhi
3709:n32g430_std_periph_driver/src/n32g430_tim.c **** 
3710:n32g430_std_periph_driver/src/n32g430_tim.c ****     /*IOMBKPEN 0 meaning iom as break enable*/
3711:n32g430_std_periph_driver/src/n32g430_tim.c ****     if (TIM_BDTRInitStruct->IomBreakEn)
 6189              		.loc 1 3711 5 is_stmt 1 view .LVU1650
 6190              		.loc 1 3711 27 is_stmt 0 view .LVU1651
 6191 002e A37B     		ldrb	r3, [r4, #14]	@ zero_extendqisi2
 6192              		.loc 1 3711 8 view .LVU1652
 6193 0030 73B1     		cbz	r3, .L301
ARM GAS  C:\Users\Dawn\AppData\Local\Temp\ccf7B1Wd.s 			page 173


3712:n32g430_std_periph_driver/src/n32g430_tim.c ****     {
3713:n32g430_std_periph_driver/src/n32g430_tim.c ****         TIM_IOM_Comp_Break(TIMx, false);
 6194              		.loc 1 3713 9 is_stmt 1 view .LVU1653
 6195 0032 0021     		movs	r1, #0
 6196 0034 2846     		mov	r0, r5
 6197 0036 FFF7FEFF 		bl	TIM_IOM_Comp_Break
 6198              	.LVL556:
 6199              	.L302:
3714:n32g430_std_periph_driver/src/n32g430_tim.c ****     }
3715:n32g430_std_periph_driver/src/n32g430_tim.c ****     /*IOMBKPEN 1 meaning comp as break enable*/
3716:n32g430_std_periph_driver/src/n32g430_tim.c ****     else
3717:n32g430_std_periph_driver/src/n32g430_tim.c ****     {
3718:n32g430_std_periph_driver/src/n32g430_tim.c ****         TIM_IOM_Comp_Break(TIMx, true);
3719:n32g430_std_periph_driver/src/n32g430_tim.c ****     }
3720:n32g430_std_periph_driver/src/n32g430_tim.c ****     
3721:n32g430_std_periph_driver/src/n32g430_tim.c ****     if (TIM_BDTRInitStruct->LockUpBreakEn)
 6200              		.loc 1 3721 5 view .LVU1654
 6201              		.loc 1 3721 27 is_stmt 0 view .LVU1655
 6202 003a E37B     		ldrb	r3, [r4, #15]	@ zero_extendqisi2
 6203              		.loc 1 3721 8 view .LVU1656
 6204 003c 6BB1     		cbz	r3, .L303
3722:n32g430_std_periph_driver/src/n32g430_tim.c ****     {
3723:n32g430_std_periph_driver/src/n32g430_tim.c ****         TIM_Lock_Up_Break_Enable(TIMx);
 6205              		.loc 1 3723 9 is_stmt 1 view .LVU1657
 6206 003e 2846     		mov	r0, r5
 6207 0040 FFF7FEFF 		bl	TIM_Lock_Up_Break_Enable
 6208              	.LVL557:
 6209              	.L304:
3724:n32g430_std_periph_driver/src/n32g430_tim.c ****     }
3725:n32g430_std_periph_driver/src/n32g430_tim.c ****     else
3726:n32g430_std_periph_driver/src/n32g430_tim.c ****     {
3727:n32g430_std_periph_driver/src/n32g430_tim.c ****         TIM_Lock_Up_Break_Disable(TIMx);
3728:n32g430_std_periph_driver/src/n32g430_tim.c ****     }
3729:n32g430_std_periph_driver/src/n32g430_tim.c ****     
3730:n32g430_std_periph_driver/src/n32g430_tim.c ****     if(TIM_BDTRInitStruct->PvdBreakEn)
 6210              		.loc 1 3730 5 view .LVU1658
 6211              		.loc 1 3730 26 is_stmt 0 view .LVU1659
 6212 0044 237C     		ldrb	r3, [r4, #16]	@ zero_extendqisi2
 6213              		.loc 1 3730 7 view .LVU1660
 6214 0046 63B1     		cbz	r3, .L305
3731:n32g430_std_periph_driver/src/n32g430_tim.c ****     {
3732:n32g430_std_periph_driver/src/n32g430_tim.c ****         TIM_Pvd_Break_Enable(TIMx);
 6215              		.loc 1 3732 9 is_stmt 1 view .LVU1661
 6216 0048 2846     		mov	r0, r5
 6217 004a FFF7FEFF 		bl	TIM_Pvd_Break_Enable
 6218              	.LVL558:
 6219              	.L300:
3733:n32g430_std_periph_driver/src/n32g430_tim.c ****     }
3734:n32g430_std_periph_driver/src/n32g430_tim.c ****     else
3735:n32g430_std_periph_driver/src/n32g430_tim.c ****     {
3736:n32g430_std_periph_driver/src/n32g430_tim.c ****         TIM_Pvd_Break_Disable(TIMx);
3737:n32g430_std_periph_driver/src/n32g430_tim.c ****     }
3738:n32g430_std_periph_driver/src/n32g430_tim.c **** }
 6220              		.loc 1 3738 1 is_stmt 0 view .LVU1662
 6221 004e 70BD     		pop	{r4, r5, r6, pc}
 6222              	.LVL559:
 6223              	.L301:
ARM GAS  C:\Users\Dawn\AppData\Local\Temp\ccf7B1Wd.s 			page 174


3718:n32g430_std_periph_driver/src/n32g430_tim.c ****     }
 6224              		.loc 1 3718 9 is_stmt 1 view .LVU1663
 6225 0050 0121     		movs	r1, #1
 6226 0052 2846     		mov	r0, r5
 6227 0054 FFF7FEFF 		bl	TIM_IOM_Comp_Break
 6228              	.LVL560:
 6229 0058 EFE7     		b	.L302
 6230              	.L303:
3727:n32g430_std_periph_driver/src/n32g430_tim.c ****     }
 6231              		.loc 1 3727 9 view .LVU1664
 6232 005a 2846     		mov	r0, r5
 6233 005c FFF7FEFF 		bl	TIM_Lock_Up_Break_Disable
 6234              	.LVL561:
 6235 0060 F0E7     		b	.L304
 6236              	.L305:
3736:n32g430_std_periph_driver/src/n32g430_tim.c ****     }
 6237              		.loc 1 3736 9 view .LVU1665
 6238 0062 2846     		mov	r0, r5
 6239 0064 FFF7FEFF 		bl	TIM_Pvd_Break_Disable
 6240              	.LVL562:
 6241              		.loc 1 3738 1 is_stmt 0 view .LVU1666
 6242 0068 F1E7     		b	.L300
 6243              		.cfi_endproc
 6244              	.LFE263:
 6246              		.section	.text.TIM_Break_And_Dead_Time_Struct_Initialize,"ax",%progbits
 6247              		.align	1
 6248              		.global	TIM_Break_And_Dead_Time_Struct_Initialize
 6249              		.syntax unified
 6250              		.thumb
 6251              		.thumb_func
 6253              	TIM_Break_And_Dead_Time_Struct_Initialize:
 6254              	.LVL563:
 6255              	.LFB264:
3739:n32g430_std_periph_driver/src/n32g430_tim.c **** 
3740:n32g430_std_periph_driver/src/n32g430_tim.c **** 
3741:n32g430_std_periph_driver/src/n32g430_tim.c **** /**
3742:n32g430_std_periph_driver/src/n32g430_tim.c **** *\*\name    TIM_Break_And_Dead_Time_Struct_Initialize.
3743:n32g430_std_periph_driver/src/n32g430_tim.c **** *\*\param   TIM_BDTRInitStruct:
3744:n32g430_std_periph_driver/src/n32g430_tim.c **** *\*\          - refer to the definition of TIM_BDTRInitType
3745:n32g430_std_periph_driver/src/n32g430_tim.c **** *\*\return  none
3746:n32g430_std_periph_driver/src/n32g430_tim.c **** **/
3747:n32g430_std_periph_driver/src/n32g430_tim.c **** void TIM_Break_And_Dead_Time_Struct_Initialize(TIM_BDTRInitType* TIM_BDTRInitStruct)
3748:n32g430_std_periph_driver/src/n32g430_tim.c **** {
 6256              		.loc 1 3748 1 is_stmt 1 view -0
 6257              		.cfi_startproc
 6258              		@ args = 0, pretend = 0, frame = 0
 6259              		@ frame_needed = 0, uses_anonymous_args = 0
 6260              		@ link register save eliminated.
3749:n32g430_std_periph_driver/src/n32g430_tim.c ****     /* Set the default configuration */
3750:n32g430_std_periph_driver/src/n32g430_tim.c ****     TIM_BDTRInitStruct->OssrState       = TIM_OSSR_STATE_DISABLE;
 6261              		.loc 1 3750 5 view .LVU1668
 6262              		.loc 1 3750 41 is_stmt 0 view .LVU1669
 6263 0000 0023     		movs	r3, #0
 6264 0002 0380     		strh	r3, [r0]	@ movhi
3751:n32g430_std_periph_driver/src/n32g430_tim.c ****     TIM_BDTRInitStruct->OssiState       = TIM_OSSI_STATE_DISABLE;
 6265              		.loc 1 3751 5 is_stmt 1 view .LVU1670
 6266              		.loc 1 3751 41 is_stmt 0 view .LVU1671
ARM GAS  C:\Users\Dawn\AppData\Local\Temp\ccf7B1Wd.s 			page 175


 6267 0004 4380     		strh	r3, [r0, #2]	@ movhi
3752:n32g430_std_periph_driver/src/n32g430_tim.c ****     TIM_BDTRInitStruct->LockLevel       = TIM_LOCK_LEVEL_OFF;
 6268              		.loc 1 3752 5 is_stmt 1 view .LVU1672
 6269              		.loc 1 3752 41 is_stmt 0 view .LVU1673
 6270 0006 8380     		strh	r3, [r0, #4]	@ movhi
3753:n32g430_std_periph_driver/src/n32g430_tim.c ****     TIM_BDTRInitStruct->DeadTime        = 0x00;
 6271              		.loc 1 3753 5 is_stmt 1 view .LVU1674
 6272              		.loc 1 3753 41 is_stmt 0 view .LVU1675
 6273 0008 C380     		strh	r3, [r0, #6]	@ movhi
3754:n32g430_std_periph_driver/src/n32g430_tim.c ****     TIM_BDTRInitStruct->Break           = TIM_BREAK_IN_DISABLE;
 6274              		.loc 1 3754 5 is_stmt 1 view .LVU1676
 6275              		.loc 1 3754 41 is_stmt 0 view .LVU1677
 6276 000a 0381     		strh	r3, [r0, #8]	@ movhi
3755:n32g430_std_periph_driver/src/n32g430_tim.c ****     TIM_BDTRInitStruct->BreakPolarity   = TIM_BREAK_POLARITY_LOW;
 6277              		.loc 1 3755 5 is_stmt 1 view .LVU1678
 6278              		.loc 1 3755 41 is_stmt 0 view .LVU1679
 6279 000c 4381     		strh	r3, [r0, #10]	@ movhi
3756:n32g430_std_periph_driver/src/n32g430_tim.c ****     TIM_BDTRInitStruct->AutomaticOutput = TIM_AUTO_OUTPUT_DISABLE;
 6280              		.loc 1 3756 5 is_stmt 1 view .LVU1680
 6281              		.loc 1 3756 41 is_stmt 0 view .LVU1681
 6282 000e 8381     		strh	r3, [r0, #12]	@ movhi
3757:n32g430_std_periph_driver/src/n32g430_tim.c ****     TIM_BDTRInitStruct->IomBreakEn      = false;
 6283              		.loc 1 3757 5 is_stmt 1 view .LVU1682
 6284              		.loc 1 3757 41 is_stmt 0 view .LVU1683
 6285 0010 8373     		strb	r3, [r0, #14]
3758:n32g430_std_periph_driver/src/n32g430_tim.c ****     TIM_BDTRInitStruct->LockUpBreakEn   = false;
 6286              		.loc 1 3758 5 is_stmt 1 view .LVU1684
 6287              		.loc 1 3758 41 is_stmt 0 view .LVU1685
 6288 0012 C373     		strb	r3, [r0, #15]
3759:n32g430_std_periph_driver/src/n32g430_tim.c ****     TIM_BDTRInitStruct->PvdBreakEn      = false;
 6289              		.loc 1 3759 5 is_stmt 1 view .LVU1686
 6290              		.loc 1 3759 41 is_stmt 0 view .LVU1687
 6291 0014 0374     		strb	r3, [r0, #16]
3760:n32g430_std_periph_driver/src/n32g430_tim.c **** }
 6292              		.loc 1 3760 1 view .LVU1688
 6293 0016 7047     		bx	lr
 6294              		.cfi_endproc
 6295              	.LFE264:
 6297              		.section	.text.TIM_Interrupt_Enable,"ax",%progbits
 6298              		.align	1
 6299              		.global	TIM_Interrupt_Enable
 6300              		.syntax unified
 6301              		.thumb
 6302              		.thumb_func
 6304              	TIM_Interrupt_Enable:
 6305              	.LVL564:
 6306              	.LFB265:
3761:n32g430_std_periph_driver/src/n32g430_tim.c **** 
3762:n32g430_std_periph_driver/src/n32g430_tim.c **** /**
3763:n32g430_std_periph_driver/src/n32g430_tim.c **** *\*\name    TIM_Interrupt_Enable.
3764:n32g430_std_periph_driver/src/n32g430_tim.c **** *\*\param   TIMx:
3765:n32g430_std_periph_driver/src/n32g430_tim.c **** *\*\          - TIM1
3766:n32g430_std_periph_driver/src/n32g430_tim.c **** *\*\          - TIM2
3767:n32g430_std_periph_driver/src/n32g430_tim.c **** *\*\          - TIM3
3768:n32g430_std_periph_driver/src/n32g430_tim.c **** *\*\          - TIM4
3769:n32g430_std_periph_driver/src/n32g430_tim.c **** *\*\          - TIM5
3770:n32g430_std_periph_driver/src/n32g430_tim.c **** *\*\          - TIM6
ARM GAS  C:\Users\Dawn\AppData\Local\Temp\ccf7B1Wd.s 			page 176


3771:n32g430_std_periph_driver/src/n32g430_tim.c **** *\*\          - TIM8
3772:n32g430_std_periph_driver/src/n32g430_tim.c **** *\*\param   TIM_IT
3773:n32g430_std_periph_driver/src/n32g430_tim.c **** *\*\          - TIM_INT_UPDATE    TIM update Interrupt source
3774:n32g430_std_periph_driver/src/n32g430_tim.c **** *\*\          - TIM_INT_CC1       TIM Capture Compare 1 Interrupt source
3775:n32g430_std_periph_driver/src/n32g430_tim.c **** *\*\          - TIM_INT_CC2       TIM Capture Compare 2 Interrupt source
3776:n32g430_std_periph_driver/src/n32g430_tim.c **** *\*\          - TIM_INT_CC3       TIM Capture Compare 3 Interrupt source
3777:n32g430_std_periph_driver/src/n32g430_tim.c **** *\*\          - TIM_INT_CC4       TIM Capture Compare 4 Interrupt source
3778:n32g430_std_periph_driver/src/n32g430_tim.c **** *\*\          - TIM_INT_COM       TIM Commutation Interrupt source
3779:n32g430_std_periph_driver/src/n32g430_tim.c **** *\*\          - TIM_INT_TRIG      TIM Trigger Interrupt source
3780:n32g430_std_periph_driver/src/n32g430_tim.c **** *\*\          - TIM_INT_BREAK     TIM Break Interrupt source
3781:n32g430_std_periph_driver/src/n32g430_tim.c **** *\*\note
3782:n32g430_std_periph_driver/src/n32g430_tim.c **** *\*\          - TIM6 can only generate an update interrupt.
3783:n32g430_std_periph_driver/src/n32g430_tim.c **** *\*\          - TIM_INT_BREAK is used only with TIM1, TIM8.
3784:n32g430_std_periph_driver/src/n32g430_tim.c **** *\*\          - TIM_INT_COM is used only with TIM1, TIM8.
3785:n32g430_std_periph_driver/src/n32g430_tim.c **** *\*\return  none
3786:n32g430_std_periph_driver/src/n32g430_tim.c **** **/
3787:n32g430_std_periph_driver/src/n32g430_tim.c **** void TIM_Interrupt_Enable(TIM_Module* TIMx, uint16_t TIM_IT)
3788:n32g430_std_periph_driver/src/n32g430_tim.c **** {
 6307              		.loc 1 3788 1 is_stmt 1 view -0
 6308              		.cfi_startproc
 6309              		@ args = 0, pretend = 0, frame = 0
 6310              		@ frame_needed = 0, uses_anonymous_args = 0
 6311              		@ link register save eliminated.
3789:n32g430_std_periph_driver/src/n32g430_tim.c ****     TIMx->DINTEN |= TIM_IT;
 6312              		.loc 1 3789 5 view .LVU1690
 6313              		.loc 1 3789 9 is_stmt 0 view .LVU1691
 6314 0000 8389     		ldrh	r3, [r0, #12]
 6315 0002 9BB2     		uxth	r3, r3
 6316              		.loc 1 3789 18 view .LVU1692
 6317 0004 0B43     		orrs	r3, r3, r1
 6318 0006 8381     		strh	r3, [r0, #12]	@ movhi
3790:n32g430_std_periph_driver/src/n32g430_tim.c **** }
 6319              		.loc 1 3790 1 view .LVU1693
 6320 0008 7047     		bx	lr
 6321              		.cfi_endproc
 6322              	.LFE265:
 6324              		.section	.text.TIM_Interrupt_Disable,"ax",%progbits
 6325              		.align	1
 6326              		.global	TIM_Interrupt_Disable
 6327              		.syntax unified
 6328              		.thumb
 6329              		.thumb_func
 6331              	TIM_Interrupt_Disable:
 6332              	.LVL565:
 6333              	.LFB266:
3791:n32g430_std_periph_driver/src/n32g430_tim.c **** 
3792:n32g430_std_periph_driver/src/n32g430_tim.c **** /**
3793:n32g430_std_periph_driver/src/n32g430_tim.c **** *\*\name    TIM_Interrupt_Disable.
3794:n32g430_std_periph_driver/src/n32g430_tim.c **** *\*\param   TIMx:
3795:n32g430_std_periph_driver/src/n32g430_tim.c **** *\*\          - TIM1
3796:n32g430_std_periph_driver/src/n32g430_tim.c **** *\*\          - TIM2
3797:n32g430_std_periph_driver/src/n32g430_tim.c **** *\*\          - TIM3
3798:n32g430_std_periph_driver/src/n32g430_tim.c **** *\*\          - TIM4
3799:n32g430_std_periph_driver/src/n32g430_tim.c **** *\*\          - TIM5
3800:n32g430_std_periph_driver/src/n32g430_tim.c **** *\*\          - TIM6
3801:n32g430_std_periph_driver/src/n32g430_tim.c **** *\*\          - TIM8
3802:n32g430_std_periph_driver/src/n32g430_tim.c **** *\*\param   TIM_IT
ARM GAS  C:\Users\Dawn\AppData\Local\Temp\ccf7B1Wd.s 			page 177


3803:n32g430_std_periph_driver/src/n32g430_tim.c **** *\*\          - TIM_INT_UPDATE    TIM update Interrupt source
3804:n32g430_std_periph_driver/src/n32g430_tim.c **** *\*\          - TIM_INT_CC1       TIM Capture Compare 1 Interrupt source
3805:n32g430_std_periph_driver/src/n32g430_tim.c **** *\*\          - TIM_INT_CC2       TIM Capture Compare 2 Interrupt source
3806:n32g430_std_periph_driver/src/n32g430_tim.c **** *\*\          - TIM_INT_CC3       TIM Capture Compare 3 Interrupt source
3807:n32g430_std_periph_driver/src/n32g430_tim.c **** *\*\          - TIM_INT_CC4       TIM Capture Compare 4 Interrupt source
3808:n32g430_std_periph_driver/src/n32g430_tim.c **** *\*\          - TIM_INT_COM       TIM Commutation Interrupt source
3809:n32g430_std_periph_driver/src/n32g430_tim.c **** *\*\          - TIM_INT_TRIG      TIM Trigger Interrupt source
3810:n32g430_std_periph_driver/src/n32g430_tim.c **** *\*\          - TIM_INT_BREAK     TIM Break Interrupt source
3811:n32g430_std_periph_driver/src/n32g430_tim.c **** *\*\note
3812:n32g430_std_periph_driver/src/n32g430_tim.c **** *\*\          - TIM6 can only generate an update interrupt.
3813:n32g430_std_periph_driver/src/n32g430_tim.c **** *\*\          - TIM_INT_BREAK is used only with TIM1, TIM8.
3814:n32g430_std_periph_driver/src/n32g430_tim.c **** *\*\          - TIM_INT_COM is used only with TIM1, TIM8.
3815:n32g430_std_periph_driver/src/n32g430_tim.c **** *\*\return  none
3816:n32g430_std_periph_driver/src/n32g430_tim.c **** **/
3817:n32g430_std_periph_driver/src/n32g430_tim.c **** void TIM_Interrupt_Disable(TIM_Module* TIMx, uint16_t TIM_IT)
3818:n32g430_std_periph_driver/src/n32g430_tim.c **** {
 6334              		.loc 1 3818 1 is_stmt 1 view -0
 6335              		.cfi_startproc
 6336              		@ args = 0, pretend = 0, frame = 0
 6337              		@ frame_needed = 0, uses_anonymous_args = 0
 6338              		@ link register save eliminated.
3819:n32g430_std_periph_driver/src/n32g430_tim.c ****     TIMx->DINTEN &= (uint16_t)(~TIM_IT);
 6339              		.loc 1 3819 5 view .LVU1695
 6340              		.loc 1 3819 9 is_stmt 0 view .LVU1696
 6341 0000 8389     		ldrh	r3, [r0, #12]
 6342              		.loc 1 3819 21 view .LVU1697
 6343 0002 C943     		mvns	r1, r1
 6344              	.LVL566:
 6345              		.loc 1 3819 21 view .LVU1698
 6346 0004 89B2     		uxth	r1, r1
 6347              	.LVL567:
 6348              		.loc 1 3819 18 view .LVU1699
 6349 0006 1940     		ands	r1, r1, r3
 6350 0008 8181     		strh	r1, [r0, #12]	@ movhi
3820:n32g430_std_periph_driver/src/n32g430_tim.c **** }
 6351              		.loc 1 3820 1 view .LVU1700
 6352 000a 7047     		bx	lr
 6353              		.cfi_endproc
 6354              	.LFE266:
 6356              		.section	.text.TIM_Interrupt_Status_Get,"ax",%progbits
 6357              		.align	1
 6358              		.global	TIM_Interrupt_Status_Get
 6359              		.syntax unified
 6360              		.thumb
 6361              		.thumb_func
 6363              	TIM_Interrupt_Status_Get:
 6364              	.LVL568:
 6365              	.LFB267:
3821:n32g430_std_periph_driver/src/n32g430_tim.c **** 
3822:n32g430_std_periph_driver/src/n32g430_tim.c **** 
3823:n32g430_std_periph_driver/src/n32g430_tim.c **** 
3824:n32g430_std_periph_driver/src/n32g430_tim.c **** /**
3825:n32g430_std_periph_driver/src/n32g430_tim.c **** *\*\name    TIM_Interrupt_Status_Get
3826:n32g430_std_periph_driver/src/n32g430_tim.c **** *\*\param   TIMx where x can be 1 to 8 to select the TIM peripheral.
3827:n32g430_std_periph_driver/src/n32g430_tim.c **** *\*\param   TIM_IT specifies the TIM interrupt source to check.
3828:n32g430_std_periph_driver/src/n32g430_tim.c **** *\*\          - TIM_INT_UPDATE    TIM update Interrupt source
3829:n32g430_std_periph_driver/src/n32g430_tim.c **** *\*\          - TIM_INT_CC1       TIM Capture Compare 1 Interrupt source
ARM GAS  C:\Users\Dawn\AppData\Local\Temp\ccf7B1Wd.s 			page 178


3830:n32g430_std_periph_driver/src/n32g430_tim.c **** *\*\          - TIM_INT_CC2       TIM Capture Compare 2 Interrupt source
3831:n32g430_std_periph_driver/src/n32g430_tim.c **** *\*\          - TIM_INT_CC3       TIM Capture Compare 3 Interrupt source
3832:n32g430_std_periph_driver/src/n32g430_tim.c **** *\*\          - TIM_INT_CC4       TIM Capture Compare 4 Interrupt source
3833:n32g430_std_periph_driver/src/n32g430_tim.c **** *\*\          - TIM_INT_COM       TIM Commutation Interrupt source
3834:n32g430_std_periph_driver/src/n32g430_tim.c **** *\*\          - TIM_INT_TRIG      TIM Trigger Interrupt source
3835:n32g430_std_periph_driver/src/n32g430_tim.c **** *\*\          - TIM_INT_BREAK     TIM Break Interrupt source
3836:n32g430_std_periph_driver/src/n32g430_tim.c **** *\*\note
3837:n32g430_std_periph_driver/src/n32g430_tim.c **** *\*\          - TIM6 and TIM7 can generate only an update interrupt.
3838:n32g430_std_periph_driver/src/n32g430_tim.c **** *\*\          - TIM_INT_BREAK is used only with TIM1, TIM8.
3839:n32g430_std_periph_driver/src/n32g430_tim.c **** *\*\          - TIM_INT_COM is used only with TIM1, TIM8.
3840:n32g430_std_periph_driver/src/n32g430_tim.c **** *\*\return
3841:n32g430_std_periph_driver/src/n32g430_tim.c **** *\*\          - SET
3842:n32g430_std_periph_driver/src/n32g430_tim.c **** *\*\          - RESET
3843:n32g430_std_periph_driver/src/n32g430_tim.c **** **/
3844:n32g430_std_periph_driver/src/n32g430_tim.c **** INTStatus TIM_Interrupt_Status_Get(TIM_Module* TIMx, uint32_t TIM_IT)
3845:n32g430_std_periph_driver/src/n32g430_tim.c **** {
 6366              		.loc 1 3845 1 is_stmt 1 view -0
 6367              		.cfi_startproc
 6368              		@ args = 0, pretend = 0, frame = 0
 6369              		@ frame_needed = 0, uses_anonymous_args = 0
 6370              		@ link register save eliminated.
3846:n32g430_std_periph_driver/src/n32g430_tim.c ****     uint32_t interrupt_status = 0x0, interrupt_enable = 0x0;
 6371              		.loc 1 3846 5 view .LVU1702
3847:n32g430_std_periph_driver/src/n32g430_tim.c **** 
3848:n32g430_std_periph_driver/src/n32g430_tim.c ****     interrupt_status = TIMx->STS & TIM_IT;
 6372              		.loc 1 3848 5 view .LVU1703
 6373              		.loc 1 3848 28 is_stmt 0 view .LVU1704
 6374 0000 0269     		ldr	r2, [r0, #16]
 6375              	.LVL569:
3849:n32g430_std_periph_driver/src/n32g430_tim.c **** 
3850:n32g430_std_periph_driver/src/n32g430_tim.c ****     interrupt_enable = TIMx->DINTEN & TIM_IT;
 6376              		.loc 1 3850 5 is_stmt 1 view .LVU1705
 6377              		.loc 1 3850 28 is_stmt 0 view .LVU1706
 6378 0002 8389     		ldrh	r3, [r0, #12]
 6379 0004 9BB2     		uxth	r3, r3
 6380              		.loc 1 3850 22 view .LVU1707
 6381 0006 0B40     		ands	r3, r3, r1
 6382              	.LVL570:
3851:n32g430_std_periph_driver/src/n32g430_tim.c ****     if ((interrupt_status != (uint32_t)RESET) && (interrupt_enable != (uint32_t)RESET))
 6383              		.loc 1 3851 5 is_stmt 1 view .LVU1708
 6384              		.loc 1 3851 8 is_stmt 0 view .LVU1709
 6385 0008 0A42     		tst	r2, r1
 6386 000a 02D0     		beq	.L313
 6387              		.loc 1 3851 47 discriminator 1 view .LVU1710
 6388 000c 1BB9     		cbnz	r3, .L314
3852:n32g430_std_periph_driver/src/n32g430_tim.c ****     {
3853:n32g430_std_periph_driver/src/n32g430_tim.c ****         return SET;
3854:n32g430_std_periph_driver/src/n32g430_tim.c ****     }
3855:n32g430_std_periph_driver/src/n32g430_tim.c ****     else
3856:n32g430_std_periph_driver/src/n32g430_tim.c ****     {
3857:n32g430_std_periph_driver/src/n32g430_tim.c ****         return RESET;
 6389              		.loc 1 3857 16 view .LVU1711
 6390 000e 0020     		movs	r0, #0
 6391              	.LVL571:
 6392              		.loc 1 3857 16 view .LVU1712
 6393 0010 7047     		bx	lr
 6394              	.LVL572:
ARM GAS  C:\Users\Dawn\AppData\Local\Temp\ccf7B1Wd.s 			page 179


 6395              	.L313:
 6396              		.loc 1 3857 16 view .LVU1713
 6397 0012 0020     		movs	r0, #0
 6398              	.LVL573:
 6399              		.loc 1 3857 16 view .LVU1714
 6400 0014 7047     		bx	lr
 6401              	.LVL574:
 6402              	.L314:
3853:n32g430_std_periph_driver/src/n32g430_tim.c ****     }
 6403              		.loc 1 3853 16 view .LVU1715
 6404 0016 0120     		movs	r0, #1
 6405              	.LVL575:
3858:n32g430_std_periph_driver/src/n32g430_tim.c ****     }
3859:n32g430_std_periph_driver/src/n32g430_tim.c **** }
 6406              		.loc 1 3859 1 view .LVU1716
 6407 0018 7047     		bx	lr
 6408              		.cfi_endproc
 6409              	.LFE267:
 6411              		.section	.text.TIM_Interrupt_Status_Clear,"ax",%progbits
 6412              		.align	1
 6413              		.global	TIM_Interrupt_Status_Clear
 6414              		.syntax unified
 6415              		.thumb
 6416              		.thumb_func
 6418              	TIM_Interrupt_Status_Clear:
 6419              	.LVL576:
 6420              	.LFB268:
3860:n32g430_std_periph_driver/src/n32g430_tim.c **** 
3861:n32g430_std_periph_driver/src/n32g430_tim.c **** /**
3862:n32g430_std_periph_driver/src/n32g430_tim.c **** *\*\name    TIM_Interrupt_Pending_Bit_Clear
3863:n32g430_std_periph_driver/src/n32g430_tim.c **** *\*\param   TIMx:
3864:n32g430_std_periph_driver/src/n32g430_tim.c **** *\*\          - TIM1
3865:n32g430_std_periph_driver/src/n32g430_tim.c **** *\*\          - TIM2
3866:n32g430_std_periph_driver/src/n32g430_tim.c **** *\*\          - TIM3
3867:n32g430_std_periph_driver/src/n32g430_tim.c **** *\*\          - TIM4
3868:n32g430_std_periph_driver/src/n32g430_tim.c **** *\*\          - TIM5
3869:n32g430_std_periph_driver/src/n32g430_tim.c **** *\*\          - TIM6
3870:n32g430_std_periph_driver/src/n32g430_tim.c **** *\*\          - TIM8
3871:n32g430_std_periph_driver/src/n32g430_tim.c **** *\*\param   TIM_IT
3872:n32g430_std_periph_driver/src/n32g430_tim.c **** *\*\          - TIM_INT_UPDATE TIM1 update Interrupt source
3873:n32g430_std_periph_driver/src/n32g430_tim.c **** *\*\          - TIM_INT_CC1 TIM Capture Compare 1 Interrupt source
3874:n32g430_std_periph_driver/src/n32g430_tim.c **** *\*\          - TIM_INT_CC2 TIM Capture Compare 2 Interrupt source
3875:n32g430_std_periph_driver/src/n32g430_tim.c **** *\*\          - TIM_INT_CC3 TIM Capture Compare 3 Interrupt source
3876:n32g430_std_periph_driver/src/n32g430_tim.c **** *\*\          - TIM_INT_CC4 TIM Capture Compare 4 Interrupt source
3877:n32g430_std_periph_driver/src/n32g430_tim.c **** *\*\          - TIM_INT_COM TIM Commutation Interrupt source
3878:n32g430_std_periph_driver/src/n32g430_tim.c **** *\*\          - TIM_INT_TRIG TIM Trigger Interrupt source
3879:n32g430_std_periph_driver/src/n32g430_tim.c **** *\*\          - TIM_INT_BREAK TIM Break Interrupt source
3880:n32g430_std_periph_driver/src/n32g430_tim.c **** *\*\note
3881:n32g430_std_periph_driver/src/n32g430_tim.c **** *\*\          - TIM6 and TIM7 can have only one update flag.
3882:n32g430_std_periph_driver/src/n32g430_tim.c **** *\*\          - TIM_FLAG_BREAK is used only with TIM1, TIM8.
3883:n32g430_std_periph_driver/src/n32g430_tim.c **** *\*\          - TIM_FLAG_COM is used only with TIM1, TIM8.
3884:n32g430_std_periph_driver/src/n32g430_tim.c **** *\*\return  none
3885:n32g430_std_periph_driver/src/n32g430_tim.c **** **/
3886:n32g430_std_periph_driver/src/n32g430_tim.c **** void TIM_Interrupt_Status_Clear(TIM_Module* TIMx, uint32_t TIM_IT)
3887:n32g430_std_periph_driver/src/n32g430_tim.c **** {
 6421              		.loc 1 3887 1 is_stmt 1 view -0
 6422              		.cfi_startproc
ARM GAS  C:\Users\Dawn\AppData\Local\Temp\ccf7B1Wd.s 			page 180


 6423              		@ args = 0, pretend = 0, frame = 0
 6424              		@ frame_needed = 0, uses_anonymous_args = 0
 6425              		@ link register save eliminated.
3888:n32g430_std_periph_driver/src/n32g430_tim.c ****     TIMx->STS = (uint32_t)~TIM_IT;
 6426              		.loc 1 3888 5 view .LVU1718
 6427              		.loc 1 3888 27 is_stmt 0 view .LVU1719
 6428 0000 C943     		mvns	r1, r1
 6429              	.LVL577:
 6430              		.loc 1 3888 15 view .LVU1720
 6431 0002 0161     		str	r1, [r0, #16]
3889:n32g430_std_periph_driver/src/n32g430_tim.c **** }
 6432              		.loc 1 3889 1 view .LVU1721
 6433 0004 7047     		bx	lr
 6434              		.cfi_endproc
 6435              	.LFE268:
 6437              		.section	.text.TIM_Flag_Status_Get,"ax",%progbits
 6438              		.align	1
 6439              		.global	TIM_Flag_Status_Get
 6440              		.syntax unified
 6441              		.thumb
 6442              		.thumb_func
 6444              	TIM_Flag_Status_Get:
 6445              	.LVL578:
 6446              	.LFB269:
3890:n32g430_std_periph_driver/src/n32g430_tim.c **** 
3891:n32g430_std_periph_driver/src/n32g430_tim.c **** 
3892:n32g430_std_periph_driver/src/n32g430_tim.c **** /**
3893:n32g430_std_periph_driver/src/n32g430_tim.c **** *\*\name    TIM_Flag_Status_Get
3894:n32g430_std_periph_driver/src/n32g430_tim.c **** *\*\param   TIMx:
3895:n32g430_std_periph_driver/src/n32g430_tim.c **** *\*\          - TIM1
3896:n32g430_std_periph_driver/src/n32g430_tim.c **** *\*\          - TIM2
3897:n32g430_std_periph_driver/src/n32g430_tim.c **** *\*\          - TIM3
3898:n32g430_std_periph_driver/src/n32g430_tim.c **** *\*\          - TIM4
3899:n32g430_std_periph_driver/src/n32g430_tim.c **** *\*\          - TIM5
3900:n32g430_std_periph_driver/src/n32g430_tim.c **** *\*\          - TIM6
3901:n32g430_std_periph_driver/src/n32g430_tim.c **** *\*\          - TIM8
3902:n32g430_std_periph_driver/src/n32g430_tim.c **** *\*\param   TIM_IT
3903:n32g430_std_periph_driver/src/n32g430_tim.c **** *\*\This parameter can be one of the following values:
3904:n32g430_std_periph_driver/src/n32g430_tim.c **** *\*\          - TIM_FLAG_UPDATE TIM update Flag
3905:n32g430_std_periph_driver/src/n32g430_tim.c **** *\*\          - TIM_FLAG_CC1 TIM Capture Compare 1 Flag
3906:n32g430_std_periph_driver/src/n32g430_tim.c **** *\*\          - TIM_FLAG_CC2 TIM Capture Compare 2 Flag
3907:n32g430_std_periph_driver/src/n32g430_tim.c **** *\*\          - TIM_FLAG_CC3 TIM Capture Compare 3 Flag
3908:n32g430_std_periph_driver/src/n32g430_tim.c **** *\*\          - TIM_FLAG_CC4 TIM Capture Compare 4 Flag
3909:n32g430_std_periph_driver/src/n32g430_tim.c **** *\*\          - TIM_FLAG_COM TIM Commutation Flag
3910:n32g430_std_periph_driver/src/n32g430_tim.c **** *\*\          - TIM_FLAG_TRIG TIM Trigger Flag
3911:n32g430_std_periph_driver/src/n32g430_tim.c **** *\*\          - TIM_FLAG_BREAK TIM Break Flag
3912:n32g430_std_periph_driver/src/n32g430_tim.c **** *\*\          - TIM_FLAG_CC1OF TIM Capture Compare 1 overcapture Flag
3913:n32g430_std_periph_driver/src/n32g430_tim.c **** *\*\          - TIM_FLAG_CC2OF TIM Capture Compare 2 overcapture Flag
3914:n32g430_std_periph_driver/src/n32g430_tim.c **** *\*\          - TIM_FLAG_CC3OF TIM Capture Compare 3 overcapture Flag
3915:n32g430_std_periph_driver/src/n32g430_tim.c **** *\*\          - TIM_FLAG_CC4OF TIM Capture Compare 4 overcapture Flag
3916:n32g430_std_periph_driver/src/n32g430_tim.c **** *\*\          - TIM_FLAG_CC5 TIM Capture Compare 5 Flag
3917:n32g430_std_periph_driver/src/n32g430_tim.c **** *\*\          - TIM_FLAG_CC6 TIM Capture Compare 6 Flag
3918:n32g430_std_periph_driver/src/n32g430_tim.c **** *\*\note
3919:n32g430_std_periph_driver/src/n32g430_tim.c **** *\*\          - TIM6 and TIM7 can have only one update flag.
3920:n32g430_std_periph_driver/src/n32g430_tim.c **** *\*\          - TIM_FLAG_BREAK is used only with TIM1, TIM8.
3921:n32g430_std_periph_driver/src/n32g430_tim.c **** *\*\          - TIM_FLAG_COM is used only with TIM1, TIM8.
3922:n32g430_std_periph_driver/src/n32g430_tim.c **** *\*\return  The new state of TIM_FLAG (SET or RESET).
ARM GAS  C:\Users\Dawn\AppData\Local\Temp\ccf7B1Wd.s 			page 181


3923:n32g430_std_periph_driver/src/n32g430_tim.c **** **/
3924:n32g430_std_periph_driver/src/n32g430_tim.c **** FlagStatus TIM_Flag_Status_Get(TIM_Module* TIMx, uint32_t TIM_FLAG)
3925:n32g430_std_periph_driver/src/n32g430_tim.c **** {
 6447              		.loc 1 3925 1 is_stmt 1 view -0
 6448              		.cfi_startproc
 6449              		@ args = 0, pretend = 0, frame = 0
 6450              		@ frame_needed = 0, uses_anonymous_args = 0
 6451              		@ link register save eliminated.
3926:n32g430_std_periph_driver/src/n32g430_tim.c ****     if ((TIMx->STS & TIM_FLAG) != (uint32_t)RESET)
 6452              		.loc 1 3926 5 view .LVU1723
 6453              		.loc 1 3926 14 is_stmt 0 view .LVU1724
 6454 0000 0369     		ldr	r3, [r0, #16]
 6455              		.loc 1 3926 8 view .LVU1725
 6456 0002 0B42     		tst	r3, r1
 6457 0004 01D0     		beq	.L318
3927:n32g430_std_periph_driver/src/n32g430_tim.c ****     {
3928:n32g430_std_periph_driver/src/n32g430_tim.c ****         return SET;
 6458              		.loc 1 3928 16 view .LVU1726
 6459 0006 0120     		movs	r0, #1
 6460              	.LVL579:
 6461              		.loc 1 3928 16 view .LVU1727
 6462 0008 7047     		bx	lr
 6463              	.LVL580:
 6464              	.L318:
3929:n32g430_std_periph_driver/src/n32g430_tim.c ****     }
3930:n32g430_std_periph_driver/src/n32g430_tim.c ****     else
3931:n32g430_std_periph_driver/src/n32g430_tim.c ****     {
3932:n32g430_std_periph_driver/src/n32g430_tim.c ****         return RESET;
 6465              		.loc 1 3932 16 view .LVU1728
 6466 000a 0020     		movs	r0, #0
 6467              	.LVL581:
3933:n32g430_std_periph_driver/src/n32g430_tim.c ****     }
3934:n32g430_std_periph_driver/src/n32g430_tim.c **** }
 6468              		.loc 1 3934 1 view .LVU1729
 6469 000c 7047     		bx	lr
 6470              		.cfi_endproc
 6471              	.LFE269:
 6473              		.section	.text.TIM_Flag_Clear,"ax",%progbits
 6474              		.align	1
 6475              		.global	TIM_Flag_Clear
 6476              		.syntax unified
 6477              		.thumb
 6478              		.thumb_func
 6480              	TIM_Flag_Clear:
 6481              	.LVL582:
 6482              	.LFB270:
3935:n32g430_std_periph_driver/src/n32g430_tim.c **** 
3936:n32g430_std_periph_driver/src/n32g430_tim.c **** /**
3937:n32g430_std_periph_driver/src/n32g430_tim.c **** *\*\name    TIM_Flag_Clear
3938:n32g430_std_periph_driver/src/n32g430_tim.c **** *\*\param   TIMx:
3939:n32g430_std_periph_driver/src/n32g430_tim.c **** *\*\          - TIM1
3940:n32g430_std_periph_driver/src/n32g430_tim.c **** *\*\          - TIM2
3941:n32g430_std_periph_driver/src/n32g430_tim.c **** *\*\          - TIM3
3942:n32g430_std_periph_driver/src/n32g430_tim.c **** *\*\          - TIM4
3943:n32g430_std_periph_driver/src/n32g430_tim.c **** *\*\          - TIM5
3944:n32g430_std_periph_driver/src/n32g430_tim.c **** *\*\          - TIM6
3945:n32g430_std_periph_driver/src/n32g430_tim.c **** *\*\          - TIM8
ARM GAS  C:\Users\Dawn\AppData\Local\Temp\ccf7B1Wd.s 			page 182


3946:n32g430_std_periph_driver/src/n32g430_tim.c **** *\*\param   TIM_IT
3947:n32g430_std_periph_driver/src/n32g430_tim.c **** *\*\          - TIM_FLAG_UPDATE TIM update Flag
3948:n32g430_std_periph_driver/src/n32g430_tim.c **** *\*\          - TIM_FLAG_CC1 TIM Capture Compare 1 Flag
3949:n32g430_std_periph_driver/src/n32g430_tim.c **** *\*\          - TIM_FLAG_CC2 TIM Capture Compare 2 Flag
3950:n32g430_std_periph_driver/src/n32g430_tim.c **** *\*\          - TIM_FLAG_CC3 TIM Capture Compare 3 Flag
3951:n32g430_std_periph_driver/src/n32g430_tim.c **** *\*\          - TIM_FLAG_CC4 TIM Capture Compare 4 Flag
3952:n32g430_std_periph_driver/src/n32g430_tim.c **** *\*\          - TIM_FLAG_COM TIM Commutation Flag
3953:n32g430_std_periph_driver/src/n32g430_tim.c **** *\*\          - TIM_FLAG_TRIG TIM Trigger Flag
3954:n32g430_std_periph_driver/src/n32g430_tim.c **** *\*\          - TIM_FLAG_BREAK TIM Break Flag
3955:n32g430_std_periph_driver/src/n32g430_tim.c **** *\*\          - TIM_FLAG_CC1OF TIM Capture Compare 1 overcapture Flag
3956:n32g430_std_periph_driver/src/n32g430_tim.c **** *\*\          - TIM_FLAG_CC2OF TIM Capture Compare 2 overcapture Flag
3957:n32g430_std_periph_driver/src/n32g430_tim.c **** *\*\          - TIM_FLAG_CC3OF TIM Capture Compare 3 overcapture Flag
3958:n32g430_std_periph_driver/src/n32g430_tim.c **** *\*\          - TIM_FLAG_CC4OF TIM Capture Compare 4 overcapture Flag
3959:n32g430_std_periph_driver/src/n32g430_tim.c **** *\*\          - TIM_FLAG_CC5 TIM Capture Compare 5 Flag
3960:n32g430_std_periph_driver/src/n32g430_tim.c **** *\*\          - TIM_FLAG_CC6 TIM Capture Compare 6 Flag
3961:n32g430_std_periph_driver/src/n32g430_tim.c **** *\*\note
3962:n32g430_std_periph_driver/src/n32g430_tim.c **** *\*\          - TIM6 and TIM7 can have only one update flag.
3963:n32g430_std_periph_driver/src/n32g430_tim.c **** *\*\          - TIM_FLAG_BREAK is used only with TIM1, TIM8.
3964:n32g430_std_periph_driver/src/n32g430_tim.c **** *\*\          - TIM_FLAG_COM is used only with TIM1, TIM8.
3965:n32g430_std_periph_driver/src/n32g430_tim.c **** *\*\return  none
3966:n32g430_std_periph_driver/src/n32g430_tim.c **** **/
3967:n32g430_std_periph_driver/src/n32g430_tim.c **** void TIM_Flag_Clear(TIM_Module* TIMx, uint32_t TIM_FLAG)
3968:n32g430_std_periph_driver/src/n32g430_tim.c **** {
 6483              		.loc 1 3968 1 is_stmt 1 view -0
 6484              		.cfi_startproc
 6485              		@ args = 0, pretend = 0, frame = 0
 6486              		@ frame_needed = 0, uses_anonymous_args = 0
 6487              		@ link register save eliminated.
3969:n32g430_std_periph_driver/src/n32g430_tim.c ****     TIMx->STS = (uint32_t)~TIM_FLAG;
 6488              		.loc 1 3969 5 view .LVU1731
 6489              		.loc 1 3969 27 is_stmt 0 view .LVU1732
 6490 0000 C943     		mvns	r1, r1
 6491              	.LVL583:
 6492              		.loc 1 3969 15 view .LVU1733
 6493 0002 0161     		str	r1, [r0, #16]
3970:n32g430_std_periph_driver/src/n32g430_tim.c **** }
 6494              		.loc 1 3970 1 view .LVU1734
 6495 0004 7047     		bx	lr
 6496              		.cfi_endproc
 6497              	.LFE270:
 6499              		.section	.text.TIM_Dma_Config,"ax",%progbits
 6500              		.align	1
 6501              		.global	TIM_Dma_Config
 6502              		.syntax unified
 6503              		.thumb
 6504              		.thumb_func
 6506              	TIM_Dma_Config:
 6507              	.LVL584:
 6508              	.LFB271:
3971:n32g430_std_periph_driver/src/n32g430_tim.c **** 
3972:n32g430_std_periph_driver/src/n32g430_tim.c **** 
3973:n32g430_std_periph_driver/src/n32g430_tim.c **** /**
3974:n32g430_std_periph_driver/src/n32g430_tim.c **** *\*\name    TIM_Dma_Config
3975:n32g430_std_periph_driver/src/n32g430_tim.c **** *\*\param   TIMx:
3976:n32g430_std_periph_driver/src/n32g430_tim.c **** *\*\          - TIM1
3977:n32g430_std_periph_driver/src/n32g430_tim.c **** *\*\          - TIM2
3978:n32g430_std_periph_driver/src/n32g430_tim.c **** *\*\          - TIM3
ARM GAS  C:\Users\Dawn\AppData\Local\Temp\ccf7B1Wd.s 			page 183


3979:n32g430_std_periph_driver/src/n32g430_tim.c **** *\*\          - TIM4
3980:n32g430_std_periph_driver/src/n32g430_tim.c **** *\*\          - TIM5
3981:n32g430_std_periph_driver/src/n32g430_tim.c **** *\*\          - TIM8
3982:n32g430_std_periph_driver/src/n32g430_tim.c **** *\*\param   TIM_DMABase:
3983:n32g430_std_periph_driver/src/n32g430_tim.c **** *\*\         - TIM_DMABASE_CTRL1
3984:n32g430_std_periph_driver/src/n32g430_tim.c **** *\*\         - TIM_DMABASE_CTRL2
3985:n32g430_std_periph_driver/src/n32g430_tim.c **** *\*\         - TIM_DMABASE_SMCTRL
3986:n32g430_std_periph_driver/src/n32g430_tim.c **** *\*\         - TIM_DMABASE_DMAINTEN
3987:n32g430_std_periph_driver/src/n32g430_tim.c **** *\*\         - TIM_DMABASE_STS
3988:n32g430_std_periph_driver/src/n32g430_tim.c **** *\*\         - TIM_DMABASE_EVTGEN
3989:n32g430_std_periph_driver/src/n32g430_tim.c **** *\*\         - TIM_DMABASE_CAPCMPMOD1
3990:n32g430_std_periph_driver/src/n32g430_tim.c **** *\*\         - TIM_DMABASE_CAPCMPMOD2
3991:n32g430_std_periph_driver/src/n32g430_tim.c **** *\*\         - TIM_DMABASE_CAPCMPEN
3992:n32g430_std_periph_driver/src/n32g430_tim.c **** *\*\         - TIM_DMABASE_CNT
3993:n32g430_std_periph_driver/src/n32g430_tim.c **** *\*\         - TIM_DMABASE_PSC
3994:n32g430_std_periph_driver/src/n32g430_tim.c **** *\*\         - TIM_DMABASE_AR
3995:n32g430_std_periph_driver/src/n32g430_tim.c **** *\*\         - TIM_DMABASE_REPCNT
3996:n32g430_std_periph_driver/src/n32g430_tim.c **** *\*\         - TIM_DMABASE_CAPCMPDAT1
3997:n32g430_std_periph_driver/src/n32g430_tim.c **** *\*\         - TIM_DMABASE_CAPCMPDAT2
3998:n32g430_std_periph_driver/src/n32g430_tim.c **** *\*\         - TIM_DMABASE_CAPCMPDAT3
3999:n32g430_std_periph_driver/src/n32g430_tim.c **** *\*\         - TIM_DMABASE_CAPCMPDAT4
4000:n32g430_std_periph_driver/src/n32g430_tim.c **** *\*\         - TIM_DMABASE_BKDT
4001:n32g430_std_periph_driver/src/n32g430_tim.c **** *\*\         - TIM_DMABASE_DMACTRL
4002:n32g430_std_periph_driver/src/n32g430_tim.c **** *\*\param   TIM_DMABurstLength:
4003:n32g430_std_periph_driver/src/n32g430_tim.c **** *\*\         - TIM_DMABURST_LENGTH_1TRANSFER
4004:n32g430_std_periph_driver/src/n32g430_tim.c **** *\*\         - TIM_DMABURST_LENGTH_2TRANSFERS
4005:n32g430_std_periph_driver/src/n32g430_tim.c **** *\*\         - TIM_DMABURST_LENGTH_3TRANSFERS
4006:n32g430_std_periph_driver/src/n32g430_tim.c **** *\*\         - TIM_DMABURST_LENGTH_4TRANSFERS
4007:n32g430_std_periph_driver/src/n32g430_tim.c **** *\*\         - TIM_DMABURST_LENGTH_5TRANSFERS
4008:n32g430_std_periph_driver/src/n32g430_tim.c **** *\*\         - TIM_DMABURST_LENGTH_6TRANSFERS
4009:n32g430_std_periph_driver/src/n32g430_tim.c **** *\*\         - TIM_DMABURST_LENGTH_7TRANSFERS
4010:n32g430_std_periph_driver/src/n32g430_tim.c **** *\*\         - TIM_DMABURST_LENGTH_8TRANSFERS
4011:n32g430_std_periph_driver/src/n32g430_tim.c **** *\*\         - TIM_DMABURST_LENGTH_9TRANSFERS
4012:n32g430_std_periph_driver/src/n32g430_tim.c **** *\*\         - TIM_DMABURST_LENGTH_10TRANSFERS
4013:n32g430_std_periph_driver/src/n32g430_tim.c **** *\*\         - TIM_DMABURST_LENGTH_11TRANSFERS
4014:n32g430_std_periph_driver/src/n32g430_tim.c **** *\*\         - TIM_DMABURST_LENGTH_12TRANSFERS
4015:n32g430_std_periph_driver/src/n32g430_tim.c **** *\*\         - TIM_DMABURST_LENGTH_13TRANSFERS
4016:n32g430_std_periph_driver/src/n32g430_tim.c **** *\*\         - TIM_DMABURST_LENGTH_14TRANSFERS
4017:n32g430_std_periph_driver/src/n32g430_tim.c **** *\*\         - TIM_DMABURST_LENGTH_15TRANSFERS
4018:n32g430_std_periph_driver/src/n32g430_tim.c **** *\*\         - TIM_DMABURST_LENGTH_16TRANSFERS
4019:n32g430_std_periph_driver/src/n32g430_tim.c **** *\*\         - TIM_DMABURST_LENGTH_17TRANSFERS
4020:n32g430_std_periph_driver/src/n32g430_tim.c **** *\*\         - TIM_DMABURST_LENGTH_18TRANSFERS
4021:n32g430_std_periph_driver/src/n32g430_tim.c **** *\*\return  none
4022:n32g430_std_periph_driver/src/n32g430_tim.c **** **/
4023:n32g430_std_periph_driver/src/n32g430_tim.c **** void TIM_Dma_Config(TIM_Module* TIMx, uint16_t TIM_DMA_base, uint16_t TIM_DMA_burst_length)
4024:n32g430_std_periph_driver/src/n32g430_tim.c **** {
 6509              		.loc 1 4024 1 is_stmt 1 view -0
 6510              		.cfi_startproc
 6511              		@ args = 0, pretend = 0, frame = 0
 6512              		@ frame_needed = 0, uses_anonymous_args = 0
 6513              		@ link register save eliminated.
4025:n32g430_std_periph_driver/src/n32g430_tim.c ****     TIMx->DCTRL = TIM_DMA_base | TIM_DMA_burst_length;
 6514              		.loc 1 4025 5 view .LVU1736
 6515              		.loc 1 4025 17 is_stmt 0 view .LVU1737
 6516 0000 1143     		orrs	r1, r1, r2
 6517              	.LVL585:
 6518              		.loc 1 4025 17 view .LVU1738
ARM GAS  C:\Users\Dawn\AppData\Local\Temp\ccf7B1Wd.s 			page 184


 6519 0002 A0F84810 		strh	r1, [r0, #72]	@ movhi
4026:n32g430_std_periph_driver/src/n32g430_tim.c **** }
 6520              		.loc 1 4026 1 view .LVU1739
 6521 0006 7047     		bx	lr
 6522              		.cfi_endproc
 6523              	.LFE271:
 6525              		.section	.text.TIM_Dma_Enable,"ax",%progbits
 6526              		.align	1
 6527              		.global	TIM_Dma_Enable
 6528              		.syntax unified
 6529              		.thumb
 6530              		.thumb_func
 6532              	TIM_Dma_Enable:
 6533              	.LVL586:
 6534              	.LFB272:
4027:n32g430_std_periph_driver/src/n32g430_tim.c **** /**
4028:n32g430_std_periph_driver/src/n32g430_tim.c **** *\*\name    TIM_Dma_Enable
4029:n32g430_std_periph_driver/src/n32g430_tim.c **** *\*\param   TIMx:
4030:n32g430_std_periph_driver/src/n32g430_tim.c **** *\*\          - TIM1
4031:n32g430_std_periph_driver/src/n32g430_tim.c **** *\*\          - TIM2
4032:n32g430_std_periph_driver/src/n32g430_tim.c **** *\*\          - TIM3
4033:n32g430_std_periph_driver/src/n32g430_tim.c **** *\*\          - TIM4
4034:n32g430_std_periph_driver/src/n32g430_tim.c **** *\*\          - TIM5
4035:n32g430_std_periph_driver/src/n32g430_tim.c **** *\*\          - TIM8
4036:n32g430_std_periph_driver/src/n32g430_tim.c **** *\*\param   TIM_DMA_source:
4037:n32g430_std_periph_driver/src/n32g430_tim.c **** *\*\          - TIM_DMA_UPDATE    TIM update Interrupt source
4038:n32g430_std_periph_driver/src/n32g430_tim.c **** *\*\          - TIM_DMA_CC1       TIM Capture Compare 1 DMA source
4039:n32g430_std_periph_driver/src/n32g430_tim.c **** *\*\          - TIM_DMA_CC2       TIM Capture Compare 2 DMA source
4040:n32g430_std_periph_driver/src/n32g430_tim.c **** *\*\          - TIM_DMA_CC3       TIM Capture Compare 3 DMA source
4041:n32g430_std_periph_driver/src/n32g430_tim.c **** *\*\          - TIM_DMA_CC4       TIM Capture Compare 4 DMA source
4042:n32g430_std_periph_driver/src/n32g430_tim.c **** *\*\          - TIM_DMA_COM       TIM Commutation DMA source
4043:n32g430_std_periph_driver/src/n32g430_tim.c **** *\*\          - TIM_DMA_TRIG      TIM Trigger DMA source
4044:n32g430_std_periph_driver/src/n32g430_tim.c **** *\*\return  none
4045:n32g430_std_periph_driver/src/n32g430_tim.c **** **/
4046:n32g430_std_periph_driver/src/n32g430_tim.c **** void TIM_Dma_Enable(TIM_Module* TIMx, uint16_t TIM_DMA_source)
4047:n32g430_std_periph_driver/src/n32g430_tim.c **** {
 6535              		.loc 1 4047 1 is_stmt 1 view -0
 6536              		.cfi_startproc
 6537              		@ args = 0, pretend = 0, frame = 0
 6538              		@ frame_needed = 0, uses_anonymous_args = 0
 6539              		@ link register save eliminated.
4048:n32g430_std_periph_driver/src/n32g430_tim.c ****     TIMx->DINTEN |= TIM_DMA_source;
 6540              		.loc 1 4048 5 view .LVU1741
 6541              		.loc 1 4048 9 is_stmt 0 view .LVU1742
 6542 0000 8389     		ldrh	r3, [r0, #12]
 6543 0002 9BB2     		uxth	r3, r3
 6544              		.loc 1 4048 18 view .LVU1743
 6545 0004 0B43     		orrs	r3, r3, r1
 6546 0006 8381     		strh	r3, [r0, #12]	@ movhi
4049:n32g430_std_periph_driver/src/n32g430_tim.c **** }
 6547              		.loc 1 4049 1 view .LVU1744
 6548 0008 7047     		bx	lr
 6549              		.cfi_endproc
 6550              	.LFE272:
 6552              		.section	.text.TIM_Dma_Disable,"ax",%progbits
 6553              		.align	1
 6554              		.global	TIM_Dma_Disable
ARM GAS  C:\Users\Dawn\AppData\Local\Temp\ccf7B1Wd.s 			page 185


 6555              		.syntax unified
 6556              		.thumb
 6557              		.thumb_func
 6559              	TIM_Dma_Disable:
 6560              	.LVL587:
 6561              	.LFB273:
4050:n32g430_std_periph_driver/src/n32g430_tim.c **** 
4051:n32g430_std_periph_driver/src/n32g430_tim.c **** /**
4052:n32g430_std_periph_driver/src/n32g430_tim.c **** *\*\name    TIM_Dma_Disable
4053:n32g430_std_periph_driver/src/n32g430_tim.c **** *\*\param   TIMx:
4054:n32g430_std_periph_driver/src/n32g430_tim.c **** *\*\          - TIM1
4055:n32g430_std_periph_driver/src/n32g430_tim.c **** *\*\          - TIM2
4056:n32g430_std_periph_driver/src/n32g430_tim.c **** *\*\          - TIM3
4057:n32g430_std_periph_driver/src/n32g430_tim.c **** *\*\          - TIM4
4058:n32g430_std_periph_driver/src/n32g430_tim.c **** *\*\          - TIM5
4059:n32g430_std_periph_driver/src/n32g430_tim.c **** *\*\          - TIM8
4060:n32g430_std_periph_driver/src/n32g430_tim.c **** *\*\param   TIM_DMA_source: 
4061:n32g430_std_periph_driver/src/n32g430_tim.c **** *\*\          - TIM_DMA_UPDATE    TIM update Interrupt source
4062:n32g430_std_periph_driver/src/n32g430_tim.c **** *\*\          - TIM_DMA_CC1       TIM Capture Compare 1 DMA source
4063:n32g430_std_periph_driver/src/n32g430_tim.c **** *\*\          - TIM_DMA_CC2       TIM Capture Compare 2 DMA source
4064:n32g430_std_periph_driver/src/n32g430_tim.c **** *\*\          - TIM_DMA_CC3       TIM Capture Compare 3 DMA source
4065:n32g430_std_periph_driver/src/n32g430_tim.c **** *\*\          - TIM_DMA_CC4       TIM Capture Compare 4 DMA source
4066:n32g430_std_periph_driver/src/n32g430_tim.c **** *\*\          - TIM_DMA_COM       TIM Commutation DMA source
4067:n32g430_std_periph_driver/src/n32g430_tim.c **** *\*\          - TIM_DMA_TRIG      TIM Trigger DMA source
4068:n32g430_std_periph_driver/src/n32g430_tim.c **** *\*\return  none
4069:n32g430_std_periph_driver/src/n32g430_tim.c **** **/
4070:n32g430_std_periph_driver/src/n32g430_tim.c **** void TIM_Dma_Disable(TIM_Module* TIMx, uint16_t TIM_DMA_source)
4071:n32g430_std_periph_driver/src/n32g430_tim.c **** {
 6562              		.loc 1 4071 1 is_stmt 1 view -0
 6563              		.cfi_startproc
 6564              		@ args = 0, pretend = 0, frame = 0
 6565              		@ frame_needed = 0, uses_anonymous_args = 0
 6566              		@ link register save eliminated.
4072:n32g430_std_periph_driver/src/n32g430_tim.c ****     TIMx->DINTEN &= (uint16_t)~TIM_DMA_source;
 6567              		.loc 1 4072 5 view .LVU1746
 6568              		.loc 1 4072 9 is_stmt 0 view .LVU1747
 6569 0000 8389     		ldrh	r3, [r0, #12]
 6570              		.loc 1 4072 21 view .LVU1748
 6571 0002 C943     		mvns	r1, r1
 6572              	.LVL588:
 6573              		.loc 1 4072 21 view .LVU1749
 6574 0004 89B2     		uxth	r1, r1
 6575              	.LVL589:
 6576              		.loc 1 4072 18 view .LVU1750
 6577 0006 1940     		ands	r1, r1, r3
 6578 0008 8181     		strh	r1, [r0, #12]	@ movhi
4073:n32g430_std_periph_driver/src/n32g430_tim.c **** }
 6579              		.loc 1 4073 1 view .LVU1751
 6580 000a 7047     		bx	lr
 6581              		.cfi_endproc
 6582              	.LFE273:
 6584              		.section	.text.TIM_Hall_Sensor_Enable,"ax",%progbits
 6585              		.align	1
 6586              		.global	TIM_Hall_Sensor_Enable
 6587              		.syntax unified
 6588              		.thumb
 6589              		.thumb_func
ARM GAS  C:\Users\Dawn\AppData\Local\Temp\ccf7B1Wd.s 			page 186


 6591              	TIM_Hall_Sensor_Enable:
 6592              	.LVL590:
 6593              	.LFB274:
4074:n32g430_std_periph_driver/src/n32g430_tim.c **** 
4075:n32g430_std_periph_driver/src/n32g430_tim.c **** /**
4076:n32g430_std_periph_driver/src/n32g430_tim.c **** *\*\name    TIM_Hall_Sensor_Enable
4077:n32g430_std_periph_driver/src/n32g430_tim.c **** *\*\param   TIMx:
4078:n32g430_std_periph_driver/src/n32g430_tim.c **** *\*\          - TIM1
4079:n32g430_std_periph_driver/src/n32g430_tim.c **** *\*\          - TIM2
4080:n32g430_std_periph_driver/src/n32g430_tim.c **** *\*\          - TIM3
4081:n32g430_std_periph_driver/src/n32g430_tim.c **** *\*\          - TIM4
4082:n32g430_std_periph_driver/src/n32g430_tim.c **** *\*\          - TIM5
4083:n32g430_std_periph_driver/src/n32g430_tim.c **** *\*\          - TIM8
4084:n32g430_std_periph_driver/src/n32g430_tim.c **** *\*\return  none
4085:n32g430_std_periph_driver/src/n32g430_tim.c **** **/
4086:n32g430_std_periph_driver/src/n32g430_tim.c **** void TIM_Hall_Sensor_Enable(TIM_Module* TIMx)
4087:n32g430_std_periph_driver/src/n32g430_tim.c **** {
 6594              		.loc 1 4087 1 is_stmt 1 view -0
 6595              		.cfi_startproc
 6596              		@ args = 0, pretend = 0, frame = 0
 6597              		@ frame_needed = 0, uses_anonymous_args = 0
 6598              		@ link register save eliminated.
4088:n32g430_std_periph_driver/src/n32g430_tim.c ****     TIMx->CTRL2 |= TIM_TI1_SEL;
 6599              		.loc 1 4088 5 view .LVU1753
 6600              		.loc 1 4088 9 is_stmt 0 view .LVU1754
 6601 0000 4368     		ldr	r3, [r0, #4]
 6602              		.loc 1 4088 17 view .LVU1755
 6603 0002 43F08003 		orr	r3, r3, #128
 6604 0006 4360     		str	r3, [r0, #4]
4089:n32g430_std_periph_driver/src/n32g430_tim.c **** }
 6605              		.loc 1 4089 1 view .LVU1756
 6606 0008 7047     		bx	lr
 6607              		.cfi_endproc
 6608              	.LFE274:
 6610              		.section	.text.TIM_Hall_Sensor_Disable,"ax",%progbits
 6611              		.align	1
 6612              		.global	TIM_Hall_Sensor_Disable
 6613              		.syntax unified
 6614              		.thumb
 6615              		.thumb_func
 6617              	TIM_Hall_Sensor_Disable:
 6618              	.LVL591:
 6619              	.LFB275:
4090:n32g430_std_periph_driver/src/n32g430_tim.c **** /**
4091:n32g430_std_periph_driver/src/n32g430_tim.c **** *\*\name    TIM_Hall_Sensor_Disable
4092:n32g430_std_periph_driver/src/n32g430_tim.c **** *\*\param   TIMx:
4093:n32g430_std_periph_driver/src/n32g430_tim.c **** *\*\          - TIM1
4094:n32g430_std_periph_driver/src/n32g430_tim.c **** *\*\          - TIM2
4095:n32g430_std_periph_driver/src/n32g430_tim.c **** *\*\          - TIM3
4096:n32g430_std_periph_driver/src/n32g430_tim.c **** *\*\          - TIM4
4097:n32g430_std_periph_driver/src/n32g430_tim.c **** *\*\          - TIM5
4098:n32g430_std_periph_driver/src/n32g430_tim.c **** *\*\          - TIM8
4099:n32g430_std_periph_driver/src/n32g430_tim.c **** *\*\return  none
4100:n32g430_std_periph_driver/src/n32g430_tim.c **** **/
4101:n32g430_std_periph_driver/src/n32g430_tim.c **** void TIM_Hall_Sensor_Disable(TIM_Module* TIMx)
4102:n32g430_std_periph_driver/src/n32g430_tim.c **** {
 6620              		.loc 1 4102 1 is_stmt 1 view -0
ARM GAS  C:\Users\Dawn\AppData\Local\Temp\ccf7B1Wd.s 			page 187


 6621              		.cfi_startproc
 6622              		@ args = 0, pretend = 0, frame = 0
 6623              		@ frame_needed = 0, uses_anonymous_args = 0
 6624              		@ link register save eliminated.
4103:n32g430_std_periph_driver/src/n32g430_tim.c ****     TIMx->CTRL2 &= (uint32_t) ~((uint32_t)TIM_TI1_SEL);
 6625              		.loc 1 4103 5 view .LVU1758
 6626              		.loc 1 4103 9 is_stmt 0 view .LVU1759
 6627 0000 4368     		ldr	r3, [r0, #4]
 6628              		.loc 1 4103 17 view .LVU1760
 6629 0002 23F08003 		bic	r3, r3, #128
 6630 0006 4360     		str	r3, [r0, #4]
4104:n32g430_std_periph_driver/src/n32g430_tim.c **** }
 6631              		.loc 1 4104 1 view .LVU1761
 6632 0008 7047     		bx	lr
 6633              		.cfi_endproc
 6634              	.LFE275:
 6636              		.section	.text.TIM_Encoder_Interface_Set,"ax",%progbits
 6637              		.align	1
 6638              		.global	TIM_Encoder_Interface_Set
 6639              		.syntax unified
 6640              		.thumb
 6641              		.thumb_func
 6643              	TIM_Encoder_Interface_Set:
 6644              	.LVL592:
 6645              	.LFB276:
4105:n32g430_std_periph_driver/src/n32g430_tim.c **** 
4106:n32g430_std_periph_driver/src/n32g430_tim.c **** 
4107:n32g430_std_periph_driver/src/n32g430_tim.c **** /**
4108:n32g430_std_periph_driver/src/n32g430_tim.c **** *\*\name    TIM_Encoder_Interface_Set
4109:n32g430_std_periph_driver/src/n32g430_tim.c **** *\*\param   TIMx:
4110:n32g430_std_periph_driver/src/n32g430_tim.c **** *\*\          - TIM1
4111:n32g430_std_periph_driver/src/n32g430_tim.c **** *\*\          - TIM2
4112:n32g430_std_periph_driver/src/n32g430_tim.c **** *\*\          - TIM3
4113:n32g430_std_periph_driver/src/n32g430_tim.c **** *\*\          - TIM4
4114:n32g430_std_periph_driver/src/n32g430_tim.c **** *\*\          - TIM5
4115:n32g430_std_periph_driver/src/n32g430_tim.c **** *\*\          - TIM8
4116:n32g430_std_periph_driver/src/n32g430_tim.c **** *\*\param   TIM_encoder_modes: 
4117:n32g430_std_periph_driver/src/n32g430_tim.c **** *\*\          - TIM_ENCODE_MODE_TI1 Counter counts on TI1FP1 edge depending on TI2FP2 level.
4118:n32g430_std_periph_driver/src/n32g430_tim.c **** *\*\          - TIM_ENCODE_MODE_TI2 Counter counts on TI2FP2 edge depending on TI1FP1 level.
4119:n32g430_std_periph_driver/src/n32g430_tim.c **** *\*\          - TIM_ENCODE_MODE_TI12 Counter counts on both TI1FP1 and TI2FP2 edges depending on th
4120:n32g430_std_periph_driver/src/n32g430_tim.c **** *\*\param   TIM_input_channel1_polarity specifies the IC1 Polarity
4121:n32g430_std_periph_driver/src/n32g430_tim.c **** *\*\          - TIM_IC_POLARITY_FALLING IC Falling edge.
4122:n32g430_std_periph_driver/src/n32g430_tim.c **** *\*\          - TIM_IC_POLARITY_RISING IC Rising edge.
4123:n32g430_std_periph_driver/src/n32g430_tim.c **** *\*\param   TIM_input_channel2_polarity specifies the IC2 Polarity
4124:n32g430_std_periph_driver/src/n32g430_tim.c **** *\*\          - TIM_IC_POLARITY_FALLING IC Falling edge.
4125:n32g430_std_periph_driver/src/n32g430_tim.c **** *\*\          - TIM_IC_POLARITY_RISING IC Rising edge.
4126:n32g430_std_periph_driver/src/n32g430_tim.c **** *\*\return  none
4127:n32g430_std_periph_driver/src/n32g430_tim.c **** **/
4128:n32g430_std_periph_driver/src/n32g430_tim.c **** void TIM_Encoder_Interface_Set(TIM_Module* TIMx,uint16_t TIM_encoder_mode,
4129:n32g430_std_periph_driver/src/n32g430_tim.c ****                                 uint16_t TIM_input_channel1_polarity, uint16_t TIM_input_channel2_p
4130:n32g430_std_periph_driver/src/n32g430_tim.c **** {
 6646              		.loc 1 4130 1 is_stmt 1 view -0
 6647              		.cfi_startproc
 6648              		@ args = 0, pretend = 0, frame = 0
 6649              		@ frame_needed = 0, uses_anonymous_args = 0
 6650              		.loc 1 4130 1 is_stmt 0 view .LVU1763
 6651 0000 10B5     		push	{r4, lr}
ARM GAS  C:\Users\Dawn\AppData\Local\Temp\ccf7B1Wd.s 			page 188


 6652              	.LCFI23:
 6653              		.cfi_def_cfa_offset 8
 6654              		.cfi_offset 4, -8
 6655              		.cfi_offset 14, -4
4131:n32g430_std_periph_driver/src/n32g430_tim.c ****     uint16_t temp_valuel  = 0;
 6656              		.loc 1 4131 5 is_stmt 1 view .LVU1764
 6657              	.LVL593:
4132:n32g430_std_periph_driver/src/n32g430_tim.c ****     uint16_t temp_value2 = 0;
 6658              		.loc 1 4132 5 view .LVU1765
4133:n32g430_std_periph_driver/src/n32g430_tim.c ****     uint32_t temp_value3  = 0;
 6659              		.loc 1 4133 5 view .LVU1766
4134:n32g430_std_periph_driver/src/n32g430_tim.c **** 
4135:n32g430_std_periph_driver/src/n32g430_tim.c ****     /* Get the TIMx SMCTRL register value */
4136:n32g430_std_periph_driver/src/n32g430_tim.c ****     temp_valuel = TIMx->SMCTRL;
 6660              		.loc 1 4136 5 view .LVU1767
 6661              		.loc 1 4136 17 is_stmt 0 view .LVU1768
 6662 0002 B0F808E0 		ldrh	lr, [r0, #8]
 6663 0006 1FFA8EFE 		uxth	lr, lr
 6664              	.LVL594:
4137:n32g430_std_periph_driver/src/n32g430_tim.c **** 
4138:n32g430_std_periph_driver/src/n32g430_tim.c ****     /* Get the TIMx CCMOD1 register value */
4139:n32g430_std_periph_driver/src/n32g430_tim.c ****     temp_value2 = TIMx->CCMOD1;
 6665              		.loc 1 4139 5 is_stmt 1 view .LVU1769
 6666              		.loc 1 4139 17 is_stmt 0 view .LVU1770
 6667 000a B0F818C0 		ldrh	ip, [r0, #24]
 6668 000e 1FFA8CFC 		uxth	ip, ip
 6669              	.LVL595:
4140:n32g430_std_periph_driver/src/n32g430_tim.c **** 
4141:n32g430_std_periph_driver/src/n32g430_tim.c ****     /* Get the TIMx CCEN register value */
4142:n32g430_std_periph_driver/src/n32g430_tim.c ****     temp_value3 = TIMx->CCEN;
 6670              		.loc 1 4142 5 is_stmt 1 view .LVU1771
 6671              		.loc 1 4142 17 is_stmt 0 view .LVU1772
 6672 0012 046A     		ldr	r4, [r0, #32]
 6673              	.LVL596:
4143:n32g430_std_periph_driver/src/n32g430_tim.c **** 
4144:n32g430_std_periph_driver/src/n32g430_tim.c ****     /* Set the encoder Mode */
4145:n32g430_std_periph_driver/src/n32g430_tim.c ****     temp_valuel &= (uint16_t)(~((uint16_t)TIM_SMCTRL_SMSEL));
 6674              		.loc 1 4145 5 is_stmt 1 view .LVU1773
 6675              		.loc 1 4145 17 is_stmt 0 view .LVU1774
 6676 0014 2EF0070E 		bic	lr, lr, #7
 6677              	.LVL597:
4146:n32g430_std_periph_driver/src/n32g430_tim.c ****     temp_valuel |= TIM_encoder_mode;
 6678              		.loc 1 4146 5 is_stmt 1 view .LVU1775
 6679              		.loc 1 4146 17 is_stmt 0 view .LVU1776
 6680 0018 4EEA010E 		orr	lr, lr, r1
 6681              	.LVL598:
4147:n32g430_std_periph_driver/src/n32g430_tim.c **** 
4148:n32g430_std_periph_driver/src/n32g430_tim.c ****     /* Select the Capture Compare 1 and the Capture Compare 2 as input */
4149:n32g430_std_periph_driver/src/n32g430_tim.c ****     temp_value2 &= (uint16_t)(((uint16_t) ~((uint16_t)TIM_CCMOD1_CC1SEL)) & (uint16_t)(~((uint16_t)
 6682              		.loc 1 4149 5 is_stmt 1 view .LVU1777
 6683              		.loc 1 4149 17 is_stmt 0 view .LVU1778
 6684 001c 2CF4407C 		bic	ip, ip, #768
 6685              	.LVL599:
 6686              		.loc 1 4149 17 view .LVU1779
 6687 0020 2CF0030C 		bic	ip, ip, #3
 6688              	.LVL600:
4150:n32g430_std_periph_driver/src/n32g430_tim.c ****     temp_value2 |= TIM_CCMOD1_CC1SEL_0 | TIM_CCMOD1_CC2SEL_0;
ARM GAS  C:\Users\Dawn\AppData\Local\Temp\ccf7B1Wd.s 			page 189


 6689              		.loc 1 4150 5 is_stmt 1 view .LVU1780
 6690              		.loc 1 4150 17 is_stmt 0 view .LVU1781
 6691 0024 4CF4807C 		orr	ip, ip, #256
 6692              	.LVL601:
 6693              		.loc 1 4150 17 view .LVU1782
 6694 0028 4CF0010C 		orr	ip, ip, #1
 6695              	.LVL602:
4151:n32g430_std_periph_driver/src/n32g430_tim.c **** 
4152:n32g430_std_periph_driver/src/n32g430_tim.c ****     /* Set the TI1 and the TI2 Polarities */
4153:n32g430_std_periph_driver/src/n32g430_tim.c ****     temp_value3 &= (uint32_t)(((uint32_t) ~((uint32_t)TIM_CCEN_CC1P)) & ((uint32_t) ~((uint32_t)TIM
 6696              		.loc 1 4153 5 is_stmt 1 view .LVU1783
 6697              		.loc 1 4153 17 is_stmt 0 view .LVU1784
 6698 002c 24F02204 		bic	r4, r4, #34
 6699              	.LVL603:
4154:n32g430_std_periph_driver/src/n32g430_tim.c ****     temp_value3 |= (uint32_t)(TIM_input_channel1_polarity | (uint16_t)(TIM_input_channel2_polarity 
 6700              		.loc 1 4154 5 is_stmt 1 view .LVU1785
 6701              		.loc 1 4154 61 is_stmt 0 view .LVU1786
 6702 0030 1B01     		lsls	r3, r3, #4
 6703              	.LVL604:
 6704              		.loc 1 4154 61 view .LVU1787
 6705 0032 9BB2     		uxth	r3, r3
 6706              		.loc 1 4154 20 view .LVU1788
 6707 0034 1343     		orrs	r3, r3, r2
 6708              		.loc 1 4154 17 view .LVU1789
 6709 0036 2343     		orrs	r3, r3, r4
 6710              	.LVL605:
4155:n32g430_std_periph_driver/src/n32g430_tim.c **** 
4156:n32g430_std_periph_driver/src/n32g430_tim.c ****     /* Write to TIMx SMCTRL */
4157:n32g430_std_periph_driver/src/n32g430_tim.c ****     TIMx->SMCTRL = temp_valuel;
 6711              		.loc 1 4157 5 is_stmt 1 view .LVU1790
 6712              		.loc 1 4157 18 is_stmt 0 view .LVU1791
 6713 0038 A0F808E0 		strh	lr, [r0, #8]	@ movhi
4158:n32g430_std_periph_driver/src/n32g430_tim.c ****     /* Write to TIMx CCMOD1 */
4159:n32g430_std_periph_driver/src/n32g430_tim.c ****     TIMx->CCMOD1 = temp_value2;
 6714              		.loc 1 4159 5 is_stmt 1 view .LVU1792
 6715              		.loc 1 4159 18 is_stmt 0 view .LVU1793
 6716 003c A0F818C0 		strh	ip, [r0, #24]	@ movhi
4160:n32g430_std_periph_driver/src/n32g430_tim.c ****     /* Write to TIMx CCEN */
4161:n32g430_std_periph_driver/src/n32g430_tim.c ****     TIMx->CCEN = temp_value3;
 6717              		.loc 1 4161 5 is_stmt 1 view .LVU1794
 6718              		.loc 1 4161 16 is_stmt 0 view .LVU1795
 6719 0040 0362     		str	r3, [r0, #32]
4162:n32g430_std_periph_driver/src/n32g430_tim.c **** }
 6720              		.loc 1 4162 1 view .LVU1796
 6721 0042 10BD     		pop	{r4, pc}
 6722              		.cfi_endproc
 6723              	.LFE276:
 6725              		.section	.text.TIM_Channel1_Filter_Config,"ax",%progbits
 6726              		.align	1
 6727              		.global	TIM_Channel1_Filter_Config
 6728              		.syntax unified
 6729              		.thumb
 6730              		.thumb_func
 6732              	TIM_Channel1_Filter_Config:
 6733              	.LVL606:
 6734              	.LFB277:
4163:n32g430_std_periph_driver/src/n32g430_tim.c **** 
ARM GAS  C:\Users\Dawn\AppData\Local\Temp\ccf7B1Wd.s 			page 190


4164:n32g430_std_periph_driver/src/n32g430_tim.c **** /**
4165:n32g430_std_periph_driver/src/n32g430_tim.c **** *\*\name    TIM_Channel1_Filter_Config
4166:n32g430_std_periph_driver/src/n32g430_tim.c **** *\*\param   TIMx:
4167:n32g430_std_periph_driver/src/n32g430_tim.c **** *\*\          - TIM2
4168:n32g430_std_periph_driver/src/n32g430_tim.c **** *\*\          - TIM3
4169:n32g430_std_periph_driver/src/n32g430_tim.c **** *\*\          - TIM4
4170:n32g430_std_periph_driver/src/n32g430_tim.c **** *\*\          - TIM5
4171:n32g430_std_periph_driver/src/n32g430_tim.c **** *\*\param   TIM_FilterInitStruct: 
4172:n32g430_std_periph_driver/src/n32g430_tim.c **** *\*\          - refer to the definition of TIM_FilterInitType
4173:n32g430_std_periph_driver/src/n32g430_tim.c **** *\*\return  none
4174:n32g430_std_periph_driver/src/n32g430_tim.c **** **/
4175:n32g430_std_periph_driver/src/n32g430_tim.c **** void TIM_Channel1_Filter_Config(TIM_Module* TIMx, TIM_FilterInitType* TIM_FilterInitStruct)
4176:n32g430_std_periph_driver/src/n32g430_tim.c **** {
 6735              		.loc 1 4176 1 is_stmt 1 view -0
 6736              		.cfi_startproc
 6737              		@ args = 0, pretend = 0, frame = 0
 6738              		@ frame_needed = 0, uses_anonymous_args = 0
 6739              		@ link register save eliminated.
4177:n32g430_std_periph_driver/src/n32g430_tim.c ****     uint32_t temp_value = 0;
 6740              		.loc 1 4177 5 view .LVU1798
4178:n32g430_std_periph_driver/src/n32g430_tim.c ****     
4179:n32g430_std_periph_driver/src/n32g430_tim.c ****     temp_value &= (uint32_t)(((uint32_t) ~((uint32_t)TIM_FILTER_THRESH_MASK)) & 
 6741              		.loc 1 4179 5 view .LVU1799
4180:n32g430_std_periph_driver/src/n32g430_tim.c ****                              ((uint32_t) ~((uint32_t)TIM_FILTER_WSIZE_MASK)) &
4181:n32g430_std_periph_driver/src/n32g430_tim.c ****                              ((uint32_t) ~((uint32_t)TIM_FILTER_PSC_MASK)));
4182:n32g430_std_periph_driver/src/n32g430_tim.c **** 
4183:n32g430_std_periph_driver/src/n32g430_tim.c ****     temp_value |= (uint32_t)(TIM_FilterInitStruct->ThreshHold << (uint32_t)(TIM_FILTER_THRESH_OFFSE
 6742              		.loc 1 4183 5 view .LVU1800
 6743              		.loc 1 4183 50 is_stmt 0 view .LVU1801
 6744 0000 0A88     		ldrh	r2, [r1]
4184:n32g430_std_periph_driver/src/n32g430_tim.c ****                              TIM_FilterInitStruct->WindowSize << (uint32_t)(TIM_FILTER_WSIZE_OFFSET
 6745              		.loc 1 4184 50 view .LVU1802
 6746 0002 4B88     		ldrh	r3, [r1, #2]
 6747              		.loc 1 4184 63 view .LVU1803
 6748 0004 5B04     		lsls	r3, r3, #17
4183:n32g430_std_periph_driver/src/n32g430_tim.c ****                              TIM_FilterInitStruct->WindowSize << (uint32_t)(TIM_FILTER_WSIZE_OFFSET
 6749              		.loc 1 4183 103 view .LVU1804
 6750 0006 43EA0263 		orr	r3, r3, r2, lsl #24
4185:n32g430_std_periph_driver/src/n32g430_tim.c ****                              TIM_FilterInitStruct->Prescaler);
 6751              		.loc 1 4185 50 view .LVU1805
 6752 000a 8A88     		ldrh	r2, [r1, #4]
4184:n32g430_std_periph_driver/src/n32g430_tim.c ****                              TIM_FilterInitStruct->WindowSize << (uint32_t)(TIM_FILTER_WSIZE_OFFSET
 6753              		.loc 1 4184 102 view .LVU1806
 6754 000c 1343     		orrs	r3, r3, r2
 6755              	.LVL607:
4186:n32g430_std_periph_driver/src/n32g430_tim.c **** 
4187:n32g430_std_periph_driver/src/n32g430_tim.c ****     if ((TIMx == TIM2) || (TIMx == TIM3) || (TIMx == TIM4) || (TIMx == TIM5))
 6756              		.loc 1 4187 5 is_stmt 1 view .LVU1807
 6757              		.loc 1 4187 8 is_stmt 0 view .LVU1808
 6758 000e B0F1804F 		cmp	r0, #1073741824
 6759 0012 0AD0     		beq	.L328
 6760              		.loc 1 4187 24 discriminator 1 view .LVU1809
 6761 0014 064A     		ldr	r2, .L330
 6762 0016 9042     		cmp	r0, r2
 6763 0018 07D0     		beq	.L328
 6764              		.loc 1 4187 42 discriminator 2 view .LVU1810
 6765 001a 02F58062 		add	r2, r2, #1024
ARM GAS  C:\Users\Dawn\AppData\Local\Temp\ccf7B1Wd.s 			page 191


 6766 001e 9042     		cmp	r0, r2
 6767 0020 03D0     		beq	.L328
 6768              		.loc 1 4187 60 discriminator 3 view .LVU1811
 6769 0022 02F58062 		add	r2, r2, #1024
 6770 0026 9042     		cmp	r0, r2
 6771 0028 00D1     		bne	.L327
 6772              	.L328:
4188:n32g430_std_periph_driver/src/n32g430_tim.c ****     {
4189:n32g430_std_periph_driver/src/n32g430_tim.c ****         TIMx->C1FILT = temp_value;
 6773              		.loc 1 4189 9 is_stmt 1 view .LVU1812
 6774              		.loc 1 4189 22 is_stmt 0 view .LVU1813
 6775 002a 0367     		str	r3, [r0, #112]
 6776              	.L327:
4190:n32g430_std_periph_driver/src/n32g430_tim.c ****     }
4191:n32g430_std_periph_driver/src/n32g430_tim.c ****     else
4192:n32g430_std_periph_driver/src/n32g430_tim.c ****     {
4193:n32g430_std_periph_driver/src/n32g430_tim.c ****         /* none */
4194:n32g430_std_periph_driver/src/n32g430_tim.c ****     }
4195:n32g430_std_periph_driver/src/n32g430_tim.c **** }
 6777              		.loc 1 4195 1 view .LVU1814
 6778 002c 7047     		bx	lr
 6779              	.L331:
 6780 002e 00BF     		.align	2
 6781              	.L330:
 6782 0030 00040040 		.word	1073742848
 6783              		.cfi_endproc
 6784              	.LFE277:
 6786              		.section	.text.TIM_Channel2_Filter_Config,"ax",%progbits
 6787              		.align	1
 6788              		.global	TIM_Channel2_Filter_Config
 6789              		.syntax unified
 6790              		.thumb
 6791              		.thumb_func
 6793              	TIM_Channel2_Filter_Config:
 6794              	.LVL608:
 6795              	.LFB278:
4196:n32g430_std_periph_driver/src/n32g430_tim.c **** 
4197:n32g430_std_periph_driver/src/n32g430_tim.c **** /**
4198:n32g430_std_periph_driver/src/n32g430_tim.c **** *\*\name    TIM_Channel2_Filter_Config
4199:n32g430_std_periph_driver/src/n32g430_tim.c **** *\*\param   TIMx:
4200:n32g430_std_periph_driver/src/n32g430_tim.c **** *\*\          - TIM2
4201:n32g430_std_periph_driver/src/n32g430_tim.c **** *\*\          - TIM3
4202:n32g430_std_periph_driver/src/n32g430_tim.c **** *\*\          - TIM4
4203:n32g430_std_periph_driver/src/n32g430_tim.c **** *\*\          - TIM5
4204:n32g430_std_periph_driver/src/n32g430_tim.c **** *\*\param   TIM_FilterInitStruct: 
4205:n32g430_std_periph_driver/src/n32g430_tim.c **** *\*\          - refer to the definition of TIM_FilterInitType
4206:n32g430_std_periph_driver/src/n32g430_tim.c **** *\*\return  none
4207:n32g430_std_periph_driver/src/n32g430_tim.c **** **/
4208:n32g430_std_periph_driver/src/n32g430_tim.c **** void TIM_Channel2_Filter_Config(TIM_Module* TIMx, TIM_FilterInitType* TIM_FilterInitStruct)
4209:n32g430_std_periph_driver/src/n32g430_tim.c **** {
 6796              		.loc 1 4209 1 is_stmt 1 view -0
 6797              		.cfi_startproc
 6798              		@ args = 0, pretend = 0, frame = 0
 6799              		@ frame_needed = 0, uses_anonymous_args = 0
 6800              		@ link register save eliminated.
4210:n32g430_std_periph_driver/src/n32g430_tim.c ****     uint32_t temp_value = 0;
 6801              		.loc 1 4210 5 view .LVU1816
ARM GAS  C:\Users\Dawn\AppData\Local\Temp\ccf7B1Wd.s 			page 192


4211:n32g430_std_periph_driver/src/n32g430_tim.c ****     
4212:n32g430_std_periph_driver/src/n32g430_tim.c ****     temp_value &= (uint32_t)(((uint32_t) ~((uint32_t)TIM_FILTER_THRESH_MASK)) & 
 6802              		.loc 1 4212 5 view .LVU1817
4213:n32g430_std_periph_driver/src/n32g430_tim.c ****                              ((uint32_t) ~((uint32_t)TIM_FILTER_WSIZE_MASK)) &
4214:n32g430_std_periph_driver/src/n32g430_tim.c ****                              ((uint32_t) ~((uint32_t)TIM_FILTER_PSC_MASK)));
4215:n32g430_std_periph_driver/src/n32g430_tim.c **** 
4216:n32g430_std_periph_driver/src/n32g430_tim.c ****     temp_value |= (uint32_t)(TIM_FilterInitStruct->ThreshHold << (uint32_t)(TIM_FILTER_THRESH_OFFSE
 6803              		.loc 1 4216 5 view .LVU1818
 6804              		.loc 1 4216 50 is_stmt 0 view .LVU1819
 6805 0000 0A88     		ldrh	r2, [r1]
4217:n32g430_std_periph_driver/src/n32g430_tim.c ****                              TIM_FilterInitStruct->WindowSize << (uint32_t)(TIM_FILTER_WSIZE_OFFSET
 6806              		.loc 1 4217 50 view .LVU1820
 6807 0002 4B88     		ldrh	r3, [r1, #2]
 6808              		.loc 1 4217 63 view .LVU1821
 6809 0004 5B04     		lsls	r3, r3, #17
4216:n32g430_std_periph_driver/src/n32g430_tim.c ****                              TIM_FilterInitStruct->WindowSize << (uint32_t)(TIM_FILTER_WSIZE_OFFSET
 6810              		.loc 1 4216 103 view .LVU1822
 6811 0006 43EA0263 		orr	r3, r3, r2, lsl #24
4218:n32g430_std_periph_driver/src/n32g430_tim.c ****                              TIM_FilterInitStruct->Prescaler);
 6812              		.loc 1 4218 50 view .LVU1823
 6813 000a 8A88     		ldrh	r2, [r1, #4]
4217:n32g430_std_periph_driver/src/n32g430_tim.c ****                              TIM_FilterInitStruct->WindowSize << (uint32_t)(TIM_FILTER_WSIZE_OFFSET
 6814              		.loc 1 4217 102 view .LVU1824
 6815 000c 1343     		orrs	r3, r3, r2
 6816              	.LVL609:
4219:n32g430_std_periph_driver/src/n32g430_tim.c **** 
4220:n32g430_std_periph_driver/src/n32g430_tim.c ****     if ((TIMx == TIM2) || (TIMx == TIM3) || (TIMx == TIM4) || (TIMx == TIM5))
 6817              		.loc 1 4220 5 is_stmt 1 view .LVU1825
 6818              		.loc 1 4220 8 is_stmt 0 view .LVU1826
 6819 000e B0F1804F 		cmp	r0, #1073741824
 6820 0012 0AD0     		beq	.L333
 6821              		.loc 1 4220 24 discriminator 1 view .LVU1827
 6822 0014 064A     		ldr	r2, .L335
 6823 0016 9042     		cmp	r0, r2
 6824 0018 07D0     		beq	.L333
 6825              		.loc 1 4220 42 discriminator 2 view .LVU1828
 6826 001a 02F58062 		add	r2, r2, #1024
 6827 001e 9042     		cmp	r0, r2
 6828 0020 03D0     		beq	.L333
 6829              		.loc 1 4220 60 discriminator 3 view .LVU1829
 6830 0022 02F58062 		add	r2, r2, #1024
 6831 0026 9042     		cmp	r0, r2
 6832 0028 00D1     		bne	.L332
 6833              	.L333:
4221:n32g430_std_periph_driver/src/n32g430_tim.c ****     {
4222:n32g430_std_periph_driver/src/n32g430_tim.c ****         TIMx->C2FILT = temp_value;
 6834              		.loc 1 4222 9 is_stmt 1 view .LVU1830
 6835              		.loc 1 4222 22 is_stmt 0 view .LVU1831
 6836 002a 4367     		str	r3, [r0, #116]
 6837              	.L332:
4223:n32g430_std_periph_driver/src/n32g430_tim.c ****     }
4224:n32g430_std_periph_driver/src/n32g430_tim.c ****     else
4225:n32g430_std_periph_driver/src/n32g430_tim.c ****     {
4226:n32g430_std_periph_driver/src/n32g430_tim.c ****         /* none */
4227:n32g430_std_periph_driver/src/n32g430_tim.c ****     }
4228:n32g430_std_periph_driver/src/n32g430_tim.c **** }
 6838              		.loc 1 4228 1 view .LVU1832
ARM GAS  C:\Users\Dawn\AppData\Local\Temp\ccf7B1Wd.s 			page 193


 6839 002c 7047     		bx	lr
 6840              	.L336:
 6841 002e 00BF     		.align	2
 6842              	.L335:
 6843 0030 00040040 		.word	1073742848
 6844              		.cfi_endproc
 6845              	.LFE278:
 6847              		.section	.text.TIM_Channel3_Filter_Config,"ax",%progbits
 6848              		.align	1
 6849              		.global	TIM_Channel3_Filter_Config
 6850              		.syntax unified
 6851              		.thumb
 6852              		.thumb_func
 6854              	TIM_Channel3_Filter_Config:
 6855              	.LVL610:
 6856              	.LFB279:
4229:n32g430_std_periph_driver/src/n32g430_tim.c **** 
4230:n32g430_std_periph_driver/src/n32g430_tim.c **** /**
4231:n32g430_std_periph_driver/src/n32g430_tim.c **** *\*\name    TIM_Channel3_Filter_Config
4232:n32g430_std_periph_driver/src/n32g430_tim.c **** *\*\param   TIMx:
4233:n32g430_std_periph_driver/src/n32g430_tim.c **** *\*\          - TIM2
4234:n32g430_std_periph_driver/src/n32g430_tim.c **** *\*\          - TIM3
4235:n32g430_std_periph_driver/src/n32g430_tim.c **** *\*\          - TIM4
4236:n32g430_std_periph_driver/src/n32g430_tim.c **** *\*\          - TIM5
4237:n32g430_std_periph_driver/src/n32g430_tim.c **** *\*\param   TIM_FilterInitStruct: 
4238:n32g430_std_periph_driver/src/n32g430_tim.c **** *\*\          - refer to the definition of TIM_FilterInitType
4239:n32g430_std_periph_driver/src/n32g430_tim.c **** *\*\return  none
4240:n32g430_std_periph_driver/src/n32g430_tim.c **** **/
4241:n32g430_std_periph_driver/src/n32g430_tim.c **** void TIM_Channel3_Filter_Config(TIM_Module* TIMx, TIM_FilterInitType* TIM_FilterInitStruct)
4242:n32g430_std_periph_driver/src/n32g430_tim.c **** {
 6857              		.loc 1 4242 1 is_stmt 1 view -0
 6858              		.cfi_startproc
 6859              		@ args = 0, pretend = 0, frame = 0
 6860              		@ frame_needed = 0, uses_anonymous_args = 0
 6861              		@ link register save eliminated.
4243:n32g430_std_periph_driver/src/n32g430_tim.c ****     uint32_t temp_value = 0;
 6862              		.loc 1 4243 5 view .LVU1834
4244:n32g430_std_periph_driver/src/n32g430_tim.c ****     
4245:n32g430_std_periph_driver/src/n32g430_tim.c ****     temp_value &= (uint32_t)(((uint32_t) ~((uint32_t)TIM_FILTER_THRESH_MASK)) & 
 6863              		.loc 1 4245 5 view .LVU1835
4246:n32g430_std_periph_driver/src/n32g430_tim.c ****                              ((uint32_t) ~((uint32_t)TIM_FILTER_WSIZE_MASK)) &
4247:n32g430_std_periph_driver/src/n32g430_tim.c ****                              ((uint32_t) ~((uint32_t)TIM_FILTER_PSC_MASK)));
4248:n32g430_std_periph_driver/src/n32g430_tim.c **** 
4249:n32g430_std_periph_driver/src/n32g430_tim.c ****     temp_value |= (uint32_t)(TIM_FilterInitStruct->ThreshHold << (uint32_t)(TIM_FILTER_THRESH_OFFSE
 6864              		.loc 1 4249 5 view .LVU1836
 6865              		.loc 1 4249 50 is_stmt 0 view .LVU1837
 6866 0000 0A88     		ldrh	r2, [r1]
4250:n32g430_std_periph_driver/src/n32g430_tim.c ****                              TIM_FilterInitStruct->WindowSize << (uint32_t)(TIM_FILTER_WSIZE_OFFSET
 6867              		.loc 1 4250 50 view .LVU1838
 6868 0002 4B88     		ldrh	r3, [r1, #2]
 6869              		.loc 1 4250 63 view .LVU1839
 6870 0004 5B04     		lsls	r3, r3, #17
4249:n32g430_std_periph_driver/src/n32g430_tim.c ****                              TIM_FilterInitStruct->WindowSize << (uint32_t)(TIM_FILTER_WSIZE_OFFSET
 6871              		.loc 1 4249 103 view .LVU1840
 6872 0006 43EA0263 		orr	r3, r3, r2, lsl #24
4251:n32g430_std_periph_driver/src/n32g430_tim.c ****                              TIM_FilterInitStruct->Prescaler);
 6873              		.loc 1 4251 50 view .LVU1841
ARM GAS  C:\Users\Dawn\AppData\Local\Temp\ccf7B1Wd.s 			page 194


 6874 000a 8A88     		ldrh	r2, [r1, #4]
4250:n32g430_std_periph_driver/src/n32g430_tim.c ****                              TIM_FilterInitStruct->WindowSize << (uint32_t)(TIM_FILTER_WSIZE_OFFSET
 6875              		.loc 1 4250 102 view .LVU1842
 6876 000c 1343     		orrs	r3, r3, r2
 6877              	.LVL611:
4252:n32g430_std_periph_driver/src/n32g430_tim.c **** 
4253:n32g430_std_periph_driver/src/n32g430_tim.c ****     if ((TIMx == TIM2) || (TIMx == TIM3) || (TIMx == TIM4) || (TIMx == TIM5))
 6878              		.loc 1 4253 5 is_stmt 1 view .LVU1843
 6879              		.loc 1 4253 8 is_stmt 0 view .LVU1844
 6880 000e B0F1804F 		cmp	r0, #1073741824
 6881 0012 0AD0     		beq	.L338
 6882              		.loc 1 4253 24 discriminator 1 view .LVU1845
 6883 0014 064A     		ldr	r2, .L340
 6884 0016 9042     		cmp	r0, r2
 6885 0018 07D0     		beq	.L338
 6886              		.loc 1 4253 42 discriminator 2 view .LVU1846
 6887 001a 02F58062 		add	r2, r2, #1024
 6888 001e 9042     		cmp	r0, r2
 6889 0020 03D0     		beq	.L338
 6890              		.loc 1 4253 60 discriminator 3 view .LVU1847
 6891 0022 02F58062 		add	r2, r2, #1024
 6892 0026 9042     		cmp	r0, r2
 6893 0028 00D1     		bne	.L337
 6894              	.L338:
4254:n32g430_std_periph_driver/src/n32g430_tim.c ****     {
4255:n32g430_std_periph_driver/src/n32g430_tim.c ****         TIMx->C3FILT = temp_value;
 6895              		.loc 1 4255 9 is_stmt 1 view .LVU1848
 6896              		.loc 1 4255 22 is_stmt 0 view .LVU1849
 6897 002a 8367     		str	r3, [r0, #120]
 6898              	.L337:
4256:n32g430_std_periph_driver/src/n32g430_tim.c ****     }
4257:n32g430_std_periph_driver/src/n32g430_tim.c ****     else
4258:n32g430_std_periph_driver/src/n32g430_tim.c ****     {
4259:n32g430_std_periph_driver/src/n32g430_tim.c ****         /* none */
4260:n32g430_std_periph_driver/src/n32g430_tim.c ****     }
4261:n32g430_std_periph_driver/src/n32g430_tim.c **** }
 6899              		.loc 1 4261 1 view .LVU1850
 6900 002c 7047     		bx	lr
 6901              	.L341:
 6902 002e 00BF     		.align	2
 6903              	.L340:
 6904 0030 00040040 		.word	1073742848
 6905              		.cfi_endproc
 6906              	.LFE279:
 6908              		.section	.text.TIM_Channel4_Filter_Config,"ax",%progbits
 6909              		.align	1
 6910              		.global	TIM_Channel4_Filter_Config
 6911              		.syntax unified
 6912              		.thumb
 6913              		.thumb_func
 6915              	TIM_Channel4_Filter_Config:
 6916              	.LVL612:
 6917              	.LFB280:
4262:n32g430_std_periph_driver/src/n32g430_tim.c **** 
4263:n32g430_std_periph_driver/src/n32g430_tim.c **** /**
4264:n32g430_std_periph_driver/src/n32g430_tim.c **** *\*\name    TIM_Channel4_Filter_Config
4265:n32g430_std_periph_driver/src/n32g430_tim.c **** *\*\param   TIMx:
ARM GAS  C:\Users\Dawn\AppData\Local\Temp\ccf7B1Wd.s 			page 195


4266:n32g430_std_periph_driver/src/n32g430_tim.c **** *\*\          - TIM2
4267:n32g430_std_periph_driver/src/n32g430_tim.c **** *\*\          - TIM3
4268:n32g430_std_periph_driver/src/n32g430_tim.c **** *\*\          - TIM4
4269:n32g430_std_periph_driver/src/n32g430_tim.c **** *\*\          - TIM5
4270:n32g430_std_periph_driver/src/n32g430_tim.c **** *\*\param   TIM_FilterInitStruct: 
4271:n32g430_std_periph_driver/src/n32g430_tim.c **** *\*\          - refer to the definition of TIM_FilterInitType
4272:n32g430_std_periph_driver/src/n32g430_tim.c **** *\*\return  none
4273:n32g430_std_periph_driver/src/n32g430_tim.c **** **/
4274:n32g430_std_periph_driver/src/n32g430_tim.c **** void TIM_Channel4_Filter_Config(TIM_Module* TIMx, TIM_FilterInitType* TIM_FilterInitStruct)
4275:n32g430_std_periph_driver/src/n32g430_tim.c **** {
 6918              		.loc 1 4275 1 is_stmt 1 view -0
 6919              		.cfi_startproc
 6920              		@ args = 0, pretend = 0, frame = 0
 6921              		@ frame_needed = 0, uses_anonymous_args = 0
 6922              		@ link register save eliminated.
4276:n32g430_std_periph_driver/src/n32g430_tim.c ****     uint32_t temp_value = 0;
 6923              		.loc 1 4276 5 view .LVU1852
4277:n32g430_std_periph_driver/src/n32g430_tim.c ****     
4278:n32g430_std_periph_driver/src/n32g430_tim.c ****     temp_value &= (uint32_t)(((uint32_t) ~((uint32_t)TIM_FILTER_THRESH_MASK)) & 
 6924              		.loc 1 4278 5 view .LVU1853
4279:n32g430_std_periph_driver/src/n32g430_tim.c ****                              ((uint32_t) ~((uint32_t)TIM_FILTER_WSIZE_MASK)) &
4280:n32g430_std_periph_driver/src/n32g430_tim.c ****                              ((uint32_t) ~((uint32_t)TIM_FILTER_PSC_MASK)));
4281:n32g430_std_periph_driver/src/n32g430_tim.c **** 
4282:n32g430_std_periph_driver/src/n32g430_tim.c ****     temp_value |= (uint32_t)(TIM_FilterInitStruct->ThreshHold << (uint32_t)(TIM_FILTER_THRESH_OFFSE
 6925              		.loc 1 4282 5 view .LVU1854
 6926              		.loc 1 4282 50 is_stmt 0 view .LVU1855
 6927 0000 0A88     		ldrh	r2, [r1]
4283:n32g430_std_periph_driver/src/n32g430_tim.c ****                              TIM_FilterInitStruct->WindowSize << (uint32_t)(TIM_FILTER_WSIZE_OFFSET
 6928              		.loc 1 4283 50 view .LVU1856
 6929 0002 4B88     		ldrh	r3, [r1, #2]
 6930              		.loc 1 4283 63 view .LVU1857
 6931 0004 5B04     		lsls	r3, r3, #17
4282:n32g430_std_periph_driver/src/n32g430_tim.c ****                              TIM_FilterInitStruct->WindowSize << (uint32_t)(TIM_FILTER_WSIZE_OFFSET
 6932              		.loc 1 4282 103 view .LVU1858
 6933 0006 43EA0263 		orr	r3, r3, r2, lsl #24
4284:n32g430_std_periph_driver/src/n32g430_tim.c ****                              TIM_FilterInitStruct->Prescaler);
 6934              		.loc 1 4284 50 view .LVU1859
 6935 000a 8A88     		ldrh	r2, [r1, #4]
4283:n32g430_std_periph_driver/src/n32g430_tim.c ****                              TIM_FilterInitStruct->WindowSize << (uint32_t)(TIM_FILTER_WSIZE_OFFSET
 6936              		.loc 1 4283 102 view .LVU1860
 6937 000c 1343     		orrs	r3, r3, r2
 6938              	.LVL613:
4285:n32g430_std_periph_driver/src/n32g430_tim.c **** 
4286:n32g430_std_periph_driver/src/n32g430_tim.c ****     if ((TIMx == TIM2) || (TIMx == TIM3) || (TIMx == TIM4) || (TIMx == TIM5))
 6939              		.loc 1 4286 5 is_stmt 1 view .LVU1861
 6940              		.loc 1 4286 8 is_stmt 0 view .LVU1862
 6941 000e B0F1804F 		cmp	r0, #1073741824
 6942 0012 0AD0     		beq	.L343
 6943              		.loc 1 4286 24 discriminator 1 view .LVU1863
 6944 0014 064A     		ldr	r2, .L345
 6945 0016 9042     		cmp	r0, r2
 6946 0018 07D0     		beq	.L343
 6947              		.loc 1 4286 42 discriminator 2 view .LVU1864
 6948 001a 02F58062 		add	r2, r2, #1024
 6949 001e 9042     		cmp	r0, r2
 6950 0020 03D0     		beq	.L343
 6951              		.loc 1 4286 60 discriminator 3 view .LVU1865
ARM GAS  C:\Users\Dawn\AppData\Local\Temp\ccf7B1Wd.s 			page 196


 6952 0022 02F58062 		add	r2, r2, #1024
 6953 0026 9042     		cmp	r0, r2
 6954 0028 00D1     		bne	.L342
 6955              	.L343:
4287:n32g430_std_periph_driver/src/n32g430_tim.c ****     {
4288:n32g430_std_periph_driver/src/n32g430_tim.c ****         TIMx->C4FILT = temp_value;
 6956              		.loc 1 4288 9 is_stmt 1 view .LVU1866
 6957              		.loc 1 4288 22 is_stmt 0 view .LVU1867
 6958 002a C367     		str	r3, [r0, #124]
 6959              	.L342:
4289:n32g430_std_periph_driver/src/n32g430_tim.c ****     }
4290:n32g430_std_periph_driver/src/n32g430_tim.c ****     else
4291:n32g430_std_periph_driver/src/n32g430_tim.c ****     {
4292:n32g430_std_periph_driver/src/n32g430_tim.c ****         /* none */
4293:n32g430_std_periph_driver/src/n32g430_tim.c ****     }
4294:n32g430_std_periph_driver/src/n32g430_tim.c **** }
 6960              		.loc 1 4294 1 view .LVU1868
 6961 002c 7047     		bx	lr
 6962              	.L346:
 6963 002e 00BF     		.align	2
 6964              	.L345:
 6965 0030 00040040 		.word	1073742848
 6966              		.cfi_endproc
 6967              	.LFE280:
 6969              		.section	.text.TIM_Break_Filter_Config,"ax",%progbits
 6970              		.align	1
 6971              		.global	TIM_Break_Filter_Config
 6972              		.syntax unified
 6973              		.thumb
 6974              		.thumb_func
 6976              	TIM_Break_Filter_Config:
 6977              	.LVL614:
 6978              	.LFB281:
4295:n32g430_std_periph_driver/src/n32g430_tim.c **** 
4296:n32g430_std_periph_driver/src/n32g430_tim.c **** /**
4297:n32g430_std_periph_driver/src/n32g430_tim.c **** *\*\name    TIM_Break_Filter_Config
4298:n32g430_std_periph_driver/src/n32g430_tim.c **** *\*\param   TIMx:
4299:n32g430_std_periph_driver/src/n32g430_tim.c **** *\*\          - TIM1
4300:n32g430_std_periph_driver/src/n32g430_tim.c **** *\*\          - TIM8
4301:n32g430_std_periph_driver/src/n32g430_tim.c **** *\*\param   TIM_FilterInitStruct: 
4302:n32g430_std_periph_driver/src/n32g430_tim.c **** *\*\          - refer to the definition of TIM_FilterInitType
4303:n32g430_std_periph_driver/src/n32g430_tim.c **** *\*\return  none
4304:n32g430_std_periph_driver/src/n32g430_tim.c **** **/
4305:n32g430_std_periph_driver/src/n32g430_tim.c **** void TIM_Break_Filter_Config(TIM_Module* TIMx, TIM_FilterInitType* TIM_FilterInitStruct)
4306:n32g430_std_periph_driver/src/n32g430_tim.c **** {
 6979              		.loc 1 4306 1 is_stmt 1 view -0
 6980              		.cfi_startproc
 6981              		@ args = 0, pretend = 0, frame = 0
 6982              		@ frame_needed = 0, uses_anonymous_args = 0
 6983              		@ link register save eliminated.
4307:n32g430_std_periph_driver/src/n32g430_tim.c ****     uint32_t temp_value = 0;
 6984              		.loc 1 4307 5 view .LVU1870
4308:n32g430_std_periph_driver/src/n32g430_tim.c ****     
4309:n32g430_std_periph_driver/src/n32g430_tim.c ****     temp_value &= (uint32_t)(((uint32_t) ~((uint32_t)TIM_FILTER_THRESH_MASK)) & 
 6985              		.loc 1 4309 5 view .LVU1871
4310:n32g430_std_periph_driver/src/n32g430_tim.c ****                              ((uint32_t) ~((uint32_t)TIM_FILTER_WSIZE_MASK)) &
4311:n32g430_std_periph_driver/src/n32g430_tim.c ****                              ((uint32_t) ~((uint32_t)TIM_FILTER_PSC_MASK)));
ARM GAS  C:\Users\Dawn\AppData\Local\Temp\ccf7B1Wd.s 			page 197


4312:n32g430_std_periph_driver/src/n32g430_tim.c **** 
4313:n32g430_std_periph_driver/src/n32g430_tim.c ****     temp_value |= (uint32_t)(TIM_FilterInitStruct->ThreshHold << (uint32_t)(TIM_FILTER_THRESH_OFFSE
 6986              		.loc 1 4313 5 view .LVU1872
 6987              		.loc 1 4313 50 is_stmt 0 view .LVU1873
 6988 0000 0A88     		ldrh	r2, [r1]
4314:n32g430_std_periph_driver/src/n32g430_tim.c ****                              TIM_FilterInitStruct->WindowSize << (uint32_t)(TIM_FILTER_WSIZE_OFFSET
 6989              		.loc 1 4314 50 view .LVU1874
 6990 0002 4B88     		ldrh	r3, [r1, #2]
 6991              		.loc 1 4314 63 view .LVU1875
 6992 0004 5B04     		lsls	r3, r3, #17
4313:n32g430_std_periph_driver/src/n32g430_tim.c ****                              TIM_FilterInitStruct->WindowSize << (uint32_t)(TIM_FILTER_WSIZE_OFFSET
 6993              		.loc 1 4313 103 view .LVU1876
 6994 0006 43EA0263 		orr	r3, r3, r2, lsl #24
4315:n32g430_std_periph_driver/src/n32g430_tim.c ****                              TIM_FilterInitStruct->Prescaler);
 6995              		.loc 1 4315 50 view .LVU1877
 6996 000a 8A88     		ldrh	r2, [r1, #4]
4314:n32g430_std_periph_driver/src/n32g430_tim.c ****                              TIM_FilterInitStruct->WindowSize << (uint32_t)(TIM_FILTER_WSIZE_OFFSET
 6997              		.loc 1 4314 102 view .LVU1878
 6998 000c 1343     		orrs	r3, r3, r2
 6999              	.LVL615:
4316:n32g430_std_periph_driver/src/n32g430_tim.c **** 
4317:n32g430_std_periph_driver/src/n32g430_tim.c ****     if ((TIMx == TIM1) || (TIMx == TIM8))
 7000              		.loc 1 4317 5 is_stmt 1 view .LVU1879
 7001              		.loc 1 4317 8 is_stmt 0 view .LVU1880
 7002 000e 044A     		ldr	r2, .L350
 7003 0010 9042     		cmp	r0, r2
 7004 0012 03D0     		beq	.L348
 7005              		.loc 1 4317 24 discriminator 1 view .LVU1881
 7006 0014 02F50062 		add	r2, r2, #2048
 7007 0018 9042     		cmp	r0, r2
 7008 001a 00D1     		bne	.L347
 7009              	.L348:
4318:n32g430_std_periph_driver/src/n32g430_tim.c ****     {
4319:n32g430_std_periph_driver/src/n32g430_tim.c ****         TIMx->BRK_FILT = temp_value;
 7010              		.loc 1 4319 9 is_stmt 1 view .LVU1882
 7011              		.loc 1 4319 24 is_stmt 0 view .LVU1883
 7012 001c C366     		str	r3, [r0, #108]
 7013              	.L347:
4320:n32g430_std_periph_driver/src/n32g430_tim.c ****     }
4321:n32g430_std_periph_driver/src/n32g430_tim.c ****     else
4322:n32g430_std_periph_driver/src/n32g430_tim.c ****     {
4323:n32g430_std_periph_driver/src/n32g430_tim.c ****         /* none */
4324:n32g430_std_periph_driver/src/n32g430_tim.c ****     }
4325:n32g430_std_periph_driver/src/n32g430_tim.c **** }
 7014              		.loc 1 4325 1 view .LVU1884
 7015 001e 7047     		bx	lr
 7016              	.L351:
 7017              		.align	2
 7018              	.L350:
 7019 0020 002C0140 		.word	1073818624
 7020              		.cfi_endproc
 7021              	.LFE281:
 7023              		.section	.text.TIM_Channel1_Filter_Enable,"ax",%progbits
 7024              		.align	1
 7025              		.global	TIM_Channel1_Filter_Enable
 7026              		.syntax unified
 7027              		.thumb
ARM GAS  C:\Users\Dawn\AppData\Local\Temp\ccf7B1Wd.s 			page 198


 7028              		.thumb_func
 7030              	TIM_Channel1_Filter_Enable:
 7031              	.LVL616:
 7032              	.LFB282:
4326:n32g430_std_periph_driver/src/n32g430_tim.c **** 
4327:n32g430_std_periph_driver/src/n32g430_tim.c **** /**
4328:n32g430_std_periph_driver/src/n32g430_tim.c **** *\*\name    TIM_Channel1_Filter_Enable
4329:n32g430_std_periph_driver/src/n32g430_tim.c **** *\*\param   TIMx:
4330:n32g430_std_periph_driver/src/n32g430_tim.c **** *\*\          - TIM2
4331:n32g430_std_periph_driver/src/n32g430_tim.c **** *\*\          - TIM3
4332:n32g430_std_periph_driver/src/n32g430_tim.c **** *\*\          - TIM4
4333:n32g430_std_periph_driver/src/n32g430_tim.c **** *\*\          - TIM5
4334:n32g430_std_periph_driver/src/n32g430_tim.c **** *\*\return  none
4335:n32g430_std_periph_driver/src/n32g430_tim.c **** **/
4336:n32g430_std_periph_driver/src/n32g430_tim.c **** void TIM_Channel1_Filter_Enable(TIM_Module* TIMx)
4337:n32g430_std_periph_driver/src/n32g430_tim.c **** {
 7033              		.loc 1 4337 1 is_stmt 1 view -0
 7034              		.cfi_startproc
 7035              		@ args = 0, pretend = 0, frame = 0
 7036              		@ frame_needed = 0, uses_anonymous_args = 0
 7037              		@ link register save eliminated.
4338:n32g430_std_periph_driver/src/n32g430_tim.c ****     TIMx->C1FILT |= (uint32_t)(TIM_FILTER_ENABLE); 
 7038              		.loc 1 4338 5 view .LVU1886
 7039              		.loc 1 4338 9 is_stmt 0 view .LVU1887
 7040 0000 036F     		ldr	r3, [r0, #112]
 7041              		.loc 1 4338 18 view .LVU1888
 7042 0002 43F48033 		orr	r3, r3, #65536
 7043 0006 0367     		str	r3, [r0, #112]
4339:n32g430_std_periph_driver/src/n32g430_tim.c **** }
 7044              		.loc 1 4339 1 view .LVU1889
 7045 0008 7047     		bx	lr
 7046              		.cfi_endproc
 7047              	.LFE282:
 7049              		.section	.text.TIM_Channel1_Filter_Disable,"ax",%progbits
 7050              		.align	1
 7051              		.global	TIM_Channel1_Filter_Disable
 7052              		.syntax unified
 7053              		.thumb
 7054              		.thumb_func
 7056              	TIM_Channel1_Filter_Disable:
 7057              	.LVL617:
 7058              	.LFB283:
4340:n32g430_std_periph_driver/src/n32g430_tim.c **** 
4341:n32g430_std_periph_driver/src/n32g430_tim.c **** /**
4342:n32g430_std_periph_driver/src/n32g430_tim.c **** *\*\name    TIM_Channel1_Filter_Disable
4343:n32g430_std_periph_driver/src/n32g430_tim.c **** *\*\param   TIMx:
4344:n32g430_std_periph_driver/src/n32g430_tim.c **** *\*\          - TIM2
4345:n32g430_std_periph_driver/src/n32g430_tim.c **** *\*\          - TIM3
4346:n32g430_std_periph_driver/src/n32g430_tim.c **** *\*\          - TIM4
4347:n32g430_std_periph_driver/src/n32g430_tim.c **** *\*\          - TIM5
4348:n32g430_std_periph_driver/src/n32g430_tim.c **** *\*\return  none
4349:n32g430_std_periph_driver/src/n32g430_tim.c **** **/
4350:n32g430_std_periph_driver/src/n32g430_tim.c **** void TIM_Channel1_Filter_Disable(TIM_Module* TIMx)
4351:n32g430_std_periph_driver/src/n32g430_tim.c **** {
 7059              		.loc 1 4351 1 is_stmt 1 view -0
 7060              		.cfi_startproc
 7061              		@ args = 0, pretend = 0, frame = 0
ARM GAS  C:\Users\Dawn\AppData\Local\Temp\ccf7B1Wd.s 			page 199


 7062              		@ frame_needed = 0, uses_anonymous_args = 0
 7063              		@ link register save eliminated.
4352:n32g430_std_periph_driver/src/n32g430_tim.c ****     TIMx->C1FILT &= (uint32_t)(~TIM_FILTER_ENABLE);
 7064              		.loc 1 4352 5 view .LVU1891
 7065              		.loc 1 4352 9 is_stmt 0 view .LVU1892
 7066 0000 036F     		ldr	r3, [r0, #112]
 7067              		.loc 1 4352 18 view .LVU1893
 7068 0002 23F48033 		bic	r3, r3, #65536
 7069 0006 0367     		str	r3, [r0, #112]
4353:n32g430_std_periph_driver/src/n32g430_tim.c **** }
 7070              		.loc 1 4353 1 view .LVU1894
 7071 0008 7047     		bx	lr
 7072              		.cfi_endproc
 7073              	.LFE283:
 7075              		.section	.text.TIM_Channel2_Filter_Enable,"ax",%progbits
 7076              		.align	1
 7077              		.global	TIM_Channel2_Filter_Enable
 7078              		.syntax unified
 7079              		.thumb
 7080              		.thumb_func
 7082              	TIM_Channel2_Filter_Enable:
 7083              	.LVL618:
 7084              	.LFB284:
4354:n32g430_std_periph_driver/src/n32g430_tim.c **** 
4355:n32g430_std_periph_driver/src/n32g430_tim.c **** /**
4356:n32g430_std_periph_driver/src/n32g430_tim.c **** *\*\name    TIM_Channel2_Filter_Enable
4357:n32g430_std_periph_driver/src/n32g430_tim.c **** *\*\param   TIMx:
4358:n32g430_std_periph_driver/src/n32g430_tim.c **** *\*\          - TIM2
4359:n32g430_std_periph_driver/src/n32g430_tim.c **** *\*\          - TIM3
4360:n32g430_std_periph_driver/src/n32g430_tim.c **** *\*\          - TIM4
4361:n32g430_std_periph_driver/src/n32g430_tim.c **** *\*\          - TIM5
4362:n32g430_std_periph_driver/src/n32g430_tim.c **** *\*\return  none
4363:n32g430_std_periph_driver/src/n32g430_tim.c **** **/
4364:n32g430_std_periph_driver/src/n32g430_tim.c **** void TIM_Channel2_Filter_Enable(TIM_Module* TIMx)
4365:n32g430_std_periph_driver/src/n32g430_tim.c **** {
 7085              		.loc 1 4365 1 is_stmt 1 view -0
 7086              		.cfi_startproc
 7087              		@ args = 0, pretend = 0, frame = 0
 7088              		@ frame_needed = 0, uses_anonymous_args = 0
 7089              		@ link register save eliminated.
4366:n32g430_std_periph_driver/src/n32g430_tim.c ****     TIMx->C2FILT |= (uint32_t)(TIM_FILTER_ENABLE); 
 7090              		.loc 1 4366 5 view .LVU1896
 7091              		.loc 1 4366 9 is_stmt 0 view .LVU1897
 7092 0000 436F     		ldr	r3, [r0, #116]
 7093              		.loc 1 4366 18 view .LVU1898
 7094 0002 43F48033 		orr	r3, r3, #65536
 7095 0006 4367     		str	r3, [r0, #116]
4367:n32g430_std_periph_driver/src/n32g430_tim.c **** }
 7096              		.loc 1 4367 1 view .LVU1899
 7097 0008 7047     		bx	lr
 7098              		.cfi_endproc
 7099              	.LFE284:
 7101              		.section	.text.TIM_Channel2_Filter_Disable,"ax",%progbits
 7102              		.align	1
 7103              		.global	TIM_Channel2_Filter_Disable
 7104              		.syntax unified
 7105              		.thumb
ARM GAS  C:\Users\Dawn\AppData\Local\Temp\ccf7B1Wd.s 			page 200


 7106              		.thumb_func
 7108              	TIM_Channel2_Filter_Disable:
 7109              	.LVL619:
 7110              	.LFB285:
4368:n32g430_std_periph_driver/src/n32g430_tim.c **** 
4369:n32g430_std_periph_driver/src/n32g430_tim.c **** /**
4370:n32g430_std_periph_driver/src/n32g430_tim.c **** *\*\name    TIM_Channel2_Filter_Disable
4371:n32g430_std_periph_driver/src/n32g430_tim.c **** *\*\param   TIMx:
4372:n32g430_std_periph_driver/src/n32g430_tim.c **** *\*\          - TIM2
4373:n32g430_std_periph_driver/src/n32g430_tim.c **** *\*\          - TIM3
4374:n32g430_std_periph_driver/src/n32g430_tim.c **** *\*\          - TIM4
4375:n32g430_std_periph_driver/src/n32g430_tim.c **** *\*\          - TIM5
4376:n32g430_std_periph_driver/src/n32g430_tim.c **** *\*\return  none
4377:n32g430_std_periph_driver/src/n32g430_tim.c **** **/
4378:n32g430_std_periph_driver/src/n32g430_tim.c **** void TIM_Channel2_Filter_Disable(TIM_Module* TIMx)
4379:n32g430_std_periph_driver/src/n32g430_tim.c **** {
 7111              		.loc 1 4379 1 is_stmt 1 view -0
 7112              		.cfi_startproc
 7113              		@ args = 0, pretend = 0, frame = 0
 7114              		@ frame_needed = 0, uses_anonymous_args = 0
 7115              		@ link register save eliminated.
4380:n32g430_std_periph_driver/src/n32g430_tim.c ****     TIMx->C2FILT &= (uint32_t)(~TIM_FILTER_ENABLE);
 7116              		.loc 1 4380 5 view .LVU1901
 7117              		.loc 1 4380 9 is_stmt 0 view .LVU1902
 7118 0000 436F     		ldr	r3, [r0, #116]
 7119              		.loc 1 4380 18 view .LVU1903
 7120 0002 23F48033 		bic	r3, r3, #65536
 7121 0006 4367     		str	r3, [r0, #116]
4381:n32g430_std_periph_driver/src/n32g430_tim.c **** }
 7122              		.loc 1 4381 1 view .LVU1904
 7123 0008 7047     		bx	lr
 7124              		.cfi_endproc
 7125              	.LFE285:
 7127              		.section	.text.TIM_Channel3_Filter_Enable,"ax",%progbits
 7128              		.align	1
 7129              		.global	TIM_Channel3_Filter_Enable
 7130              		.syntax unified
 7131              		.thumb
 7132              		.thumb_func
 7134              	TIM_Channel3_Filter_Enable:
 7135              	.LVL620:
 7136              	.LFB286:
4382:n32g430_std_periph_driver/src/n32g430_tim.c **** 
4383:n32g430_std_periph_driver/src/n32g430_tim.c **** /**
4384:n32g430_std_periph_driver/src/n32g430_tim.c **** *\*\name    TIM_Channel3_Filter_Enable
4385:n32g430_std_periph_driver/src/n32g430_tim.c **** *\*\param   TIMx:
4386:n32g430_std_periph_driver/src/n32g430_tim.c **** *\*\          - TIM2
4387:n32g430_std_periph_driver/src/n32g430_tim.c **** *\*\          - TIM3
4388:n32g430_std_periph_driver/src/n32g430_tim.c **** *\*\          - TIM4
4389:n32g430_std_periph_driver/src/n32g430_tim.c **** *\*\          - TIM5
4390:n32g430_std_periph_driver/src/n32g430_tim.c **** *\*\return  none
4391:n32g430_std_periph_driver/src/n32g430_tim.c **** **/
4392:n32g430_std_periph_driver/src/n32g430_tim.c **** void TIM_Channel3_Filter_Enable(TIM_Module* TIMx)
4393:n32g430_std_periph_driver/src/n32g430_tim.c **** {
 7137              		.loc 1 4393 1 is_stmt 1 view -0
 7138              		.cfi_startproc
 7139              		@ args = 0, pretend = 0, frame = 0
ARM GAS  C:\Users\Dawn\AppData\Local\Temp\ccf7B1Wd.s 			page 201


 7140              		@ frame_needed = 0, uses_anonymous_args = 0
 7141              		@ link register save eliminated.
4394:n32g430_std_periph_driver/src/n32g430_tim.c ****     TIMx->C3FILT |= (uint32_t)(TIM_FILTER_ENABLE); 
 7142              		.loc 1 4394 5 view .LVU1906
 7143              		.loc 1 4394 9 is_stmt 0 view .LVU1907
 7144 0000 836F     		ldr	r3, [r0, #120]
 7145              		.loc 1 4394 18 view .LVU1908
 7146 0002 43F48033 		orr	r3, r3, #65536
 7147 0006 8367     		str	r3, [r0, #120]
4395:n32g430_std_periph_driver/src/n32g430_tim.c **** }
 7148              		.loc 1 4395 1 view .LVU1909
 7149 0008 7047     		bx	lr
 7150              		.cfi_endproc
 7151              	.LFE286:
 7153              		.section	.text.TIM_Channel3_Filter_Disable,"ax",%progbits
 7154              		.align	1
 7155              		.global	TIM_Channel3_Filter_Disable
 7156              		.syntax unified
 7157              		.thumb
 7158              		.thumb_func
 7160              	TIM_Channel3_Filter_Disable:
 7161              	.LVL621:
 7162              	.LFB287:
4396:n32g430_std_periph_driver/src/n32g430_tim.c **** 
4397:n32g430_std_periph_driver/src/n32g430_tim.c **** /**
4398:n32g430_std_periph_driver/src/n32g430_tim.c **** *\*\name    TIM_Channel3_Filter_Disable
4399:n32g430_std_periph_driver/src/n32g430_tim.c **** *\*\param   TIMx:
4400:n32g430_std_periph_driver/src/n32g430_tim.c **** *\*\          - TIM2
4401:n32g430_std_periph_driver/src/n32g430_tim.c **** *\*\          - TIM3
4402:n32g430_std_periph_driver/src/n32g430_tim.c **** *\*\          - TIM4
4403:n32g430_std_periph_driver/src/n32g430_tim.c **** *\*\          - TIM5
4404:n32g430_std_periph_driver/src/n32g430_tim.c **** *\*\return  none
4405:n32g430_std_periph_driver/src/n32g430_tim.c **** **/
4406:n32g430_std_periph_driver/src/n32g430_tim.c **** void TIM_Channel3_Filter_Disable(TIM_Module* TIMx)
4407:n32g430_std_periph_driver/src/n32g430_tim.c **** {
 7163              		.loc 1 4407 1 is_stmt 1 view -0
 7164              		.cfi_startproc
 7165              		@ args = 0, pretend = 0, frame = 0
 7166              		@ frame_needed = 0, uses_anonymous_args = 0
 7167              		@ link register save eliminated.
4408:n32g430_std_periph_driver/src/n32g430_tim.c ****     TIMx->C3FILT &= (uint32_t)(~TIM_FILTER_ENABLE);
 7168              		.loc 1 4408 5 view .LVU1911
 7169              		.loc 1 4408 9 is_stmt 0 view .LVU1912
 7170 0000 836F     		ldr	r3, [r0, #120]
 7171              		.loc 1 4408 18 view .LVU1913
 7172 0002 23F48033 		bic	r3, r3, #65536
 7173 0006 8367     		str	r3, [r0, #120]
4409:n32g430_std_periph_driver/src/n32g430_tim.c **** }
 7174              		.loc 1 4409 1 view .LVU1914
 7175 0008 7047     		bx	lr
 7176              		.cfi_endproc
 7177              	.LFE287:
 7179              		.section	.text.TIM_Channel4_Filter_Enable,"ax",%progbits
 7180              		.align	1
 7181              		.global	TIM_Channel4_Filter_Enable
 7182              		.syntax unified
 7183              		.thumb
ARM GAS  C:\Users\Dawn\AppData\Local\Temp\ccf7B1Wd.s 			page 202


 7184              		.thumb_func
 7186              	TIM_Channel4_Filter_Enable:
 7187              	.LVL622:
 7188              	.LFB288:
4410:n32g430_std_periph_driver/src/n32g430_tim.c **** 
4411:n32g430_std_periph_driver/src/n32g430_tim.c **** /**
4412:n32g430_std_periph_driver/src/n32g430_tim.c **** *\*\name    TIM_Channel4_Filter_Enable
4413:n32g430_std_periph_driver/src/n32g430_tim.c **** *\*\param   TIMx:
4414:n32g430_std_periph_driver/src/n32g430_tim.c **** *\*\          - TIM2
4415:n32g430_std_periph_driver/src/n32g430_tim.c **** *\*\          - TIM3
4416:n32g430_std_periph_driver/src/n32g430_tim.c **** *\*\          - TIM4
4417:n32g430_std_periph_driver/src/n32g430_tim.c **** *\*\          - TIM5
4418:n32g430_std_periph_driver/src/n32g430_tim.c **** *\*\return  none
4419:n32g430_std_periph_driver/src/n32g430_tim.c **** **/
4420:n32g430_std_periph_driver/src/n32g430_tim.c **** void TIM_Channel4_Filter_Enable(TIM_Module* TIMx)
4421:n32g430_std_periph_driver/src/n32g430_tim.c **** {
 7189              		.loc 1 4421 1 is_stmt 1 view -0
 7190              		.cfi_startproc
 7191              		@ args = 0, pretend = 0, frame = 0
 7192              		@ frame_needed = 0, uses_anonymous_args = 0
 7193              		@ link register save eliminated.
4422:n32g430_std_periph_driver/src/n32g430_tim.c ****     TIMx->C4FILT |= (uint32_t)(TIM_FILTER_ENABLE); 
 7194              		.loc 1 4422 5 view .LVU1916
 7195              		.loc 1 4422 9 is_stmt 0 view .LVU1917
 7196 0000 C36F     		ldr	r3, [r0, #124]
 7197              		.loc 1 4422 18 view .LVU1918
 7198 0002 43F48033 		orr	r3, r3, #65536
 7199 0006 C367     		str	r3, [r0, #124]
4423:n32g430_std_periph_driver/src/n32g430_tim.c **** }
 7200              		.loc 1 4423 1 view .LVU1919
 7201 0008 7047     		bx	lr
 7202              		.cfi_endproc
 7203              	.LFE288:
 7205              		.section	.text.TIM_Channel4_Filter_Disable,"ax",%progbits
 7206              		.align	1
 7207              		.global	TIM_Channel4_Filter_Disable
 7208              		.syntax unified
 7209              		.thumb
 7210              		.thumb_func
 7212              	TIM_Channel4_Filter_Disable:
 7213              	.LVL623:
 7214              	.LFB289:
4424:n32g430_std_periph_driver/src/n32g430_tim.c **** 
4425:n32g430_std_periph_driver/src/n32g430_tim.c **** /**
4426:n32g430_std_periph_driver/src/n32g430_tim.c **** *\*\name    TIM_Channel4_Filter_Disable
4427:n32g430_std_periph_driver/src/n32g430_tim.c **** *\*\param   TIMx:
4428:n32g430_std_periph_driver/src/n32g430_tim.c **** *\*\          - TIM2
4429:n32g430_std_periph_driver/src/n32g430_tim.c **** *\*\          - TIM3
4430:n32g430_std_periph_driver/src/n32g430_tim.c **** *\*\          - TIM4
4431:n32g430_std_periph_driver/src/n32g430_tim.c **** *\*\          - TIM5
4432:n32g430_std_periph_driver/src/n32g430_tim.c **** *\*\return  none
4433:n32g430_std_periph_driver/src/n32g430_tim.c **** **/
4434:n32g430_std_periph_driver/src/n32g430_tim.c **** void TIM_Channel4_Filter_Disable(TIM_Module* TIMx)
4435:n32g430_std_periph_driver/src/n32g430_tim.c **** {
 7215              		.loc 1 4435 1 is_stmt 1 view -0
 7216              		.cfi_startproc
 7217              		@ args = 0, pretend = 0, frame = 0
ARM GAS  C:\Users\Dawn\AppData\Local\Temp\ccf7B1Wd.s 			page 203


 7218              		@ frame_needed = 0, uses_anonymous_args = 0
 7219              		@ link register save eliminated.
4436:n32g430_std_periph_driver/src/n32g430_tim.c ****     TIMx->C4FILT &= (uint32_t)(~TIM_FILTER_ENABLE);
 7220              		.loc 1 4436 5 view .LVU1921
 7221              		.loc 1 4436 9 is_stmt 0 view .LVU1922
 7222 0000 C36F     		ldr	r3, [r0, #124]
 7223              		.loc 1 4436 18 view .LVU1923
 7224 0002 23F48033 		bic	r3, r3, #65536
 7225 0006 C367     		str	r3, [r0, #124]
4437:n32g430_std_periph_driver/src/n32g430_tim.c **** }
 7226              		.loc 1 4437 1 view .LVU1924
 7227 0008 7047     		bx	lr
 7228              		.cfi_endproc
 7229              	.LFE289:
 7231              		.section	.text.TIM_Break_Filter_Enable,"ax",%progbits
 7232              		.align	1
 7233              		.global	TIM_Break_Filter_Enable
 7234              		.syntax unified
 7235              		.thumb
 7236              		.thumb_func
 7238              	TIM_Break_Filter_Enable:
 7239              	.LVL624:
 7240              	.LFB290:
4438:n32g430_std_periph_driver/src/n32g430_tim.c **** 
4439:n32g430_std_periph_driver/src/n32g430_tim.c **** /**
4440:n32g430_std_periph_driver/src/n32g430_tim.c **** *\*\name    TIM_Break_Filter_Config
4441:n32g430_std_periph_driver/src/n32g430_tim.c **** *\*\param   TIMx:
4442:n32g430_std_periph_driver/src/n32g430_tim.c **** *\*\          - TIM1
4443:n32g430_std_periph_driver/src/n32g430_tim.c **** *\*\          - TIM8
4444:n32g430_std_periph_driver/src/n32g430_tim.c **** *\*\return  none
4445:n32g430_std_periph_driver/src/n32g430_tim.c **** **/
4446:n32g430_std_periph_driver/src/n32g430_tim.c **** void TIM_Break_Filter_Enable(TIM_Module * TIMx)
4447:n32g430_std_periph_driver/src/n32g430_tim.c **** {
 7241              		.loc 1 4447 1 is_stmt 1 view -0
 7242              		.cfi_startproc
 7243              		@ args = 0, pretend = 0, frame = 0
 7244              		@ frame_needed = 0, uses_anonymous_args = 0
 7245              		@ link register save eliminated.
4448:n32g430_std_periph_driver/src/n32g430_tim.c ****     TIMx->BRK_FILT |= (uint32_t)(TIM_FILTER_ENABLE); 
 7246              		.loc 1 4448 5 view .LVU1926
 7247              		.loc 1 4448 9 is_stmt 0 view .LVU1927
 7248 0000 C36E     		ldr	r3, [r0, #108]
 7249              		.loc 1 4448 20 view .LVU1928
 7250 0002 43F48033 		orr	r3, r3, #65536
 7251 0006 C366     		str	r3, [r0, #108]
4449:n32g430_std_periph_driver/src/n32g430_tim.c **** }
 7252              		.loc 1 4449 1 view .LVU1929
 7253 0008 7047     		bx	lr
 7254              		.cfi_endproc
 7255              	.LFE290:
 7257              		.section	.text.TIM_Break_Filter_Disable,"ax",%progbits
 7258              		.align	1
 7259              		.global	TIM_Break_Filter_Disable
 7260              		.syntax unified
 7261              		.thumb
 7262              		.thumb_func
 7264              	TIM_Break_Filter_Disable:
ARM GAS  C:\Users\Dawn\AppData\Local\Temp\ccf7B1Wd.s 			page 204


 7265              	.LVL625:
 7266              	.LFB291:
4450:n32g430_std_periph_driver/src/n32g430_tim.c **** 
4451:n32g430_std_periph_driver/src/n32g430_tim.c **** /**
4452:n32g430_std_periph_driver/src/n32g430_tim.c **** *\*\name    TIM_Break_Filter_Config
4453:n32g430_std_periph_driver/src/n32g430_tim.c **** *\*\param   TIMx:
4454:n32g430_std_periph_driver/src/n32g430_tim.c **** *\*\          - TIM1
4455:n32g430_std_periph_driver/src/n32g430_tim.c **** *\*\          - TIM8
4456:n32g430_std_periph_driver/src/n32g430_tim.c **** *\*\return  none
4457:n32g430_std_periph_driver/src/n32g430_tim.c **** **/
4458:n32g430_std_periph_driver/src/n32g430_tim.c **** void TIM_Break_Filter_Disable(TIM_Module * TIMx)
4459:n32g430_std_periph_driver/src/n32g430_tim.c **** {
 7267              		.loc 1 4459 1 is_stmt 1 view -0
 7268              		.cfi_startproc
 7269              		@ args = 0, pretend = 0, frame = 0
 7270              		@ frame_needed = 0, uses_anonymous_args = 0
 7271              		@ link register save eliminated.
4460:n32g430_std_periph_driver/src/n32g430_tim.c ****     TIMx->BRK_FILT &= (uint32_t)(~TIM_FILTER_ENABLE);
 7272              		.loc 1 4460 5 view .LVU1931
 7273              		.loc 1 4460 9 is_stmt 0 view .LVU1932
 7274 0000 C36E     		ldr	r3, [r0, #108]
 7275              		.loc 1 4460 20 view .LVU1933
 7276 0002 23F48033 		bic	r3, r3, #65536
 7277 0006 C366     		str	r3, [r0, #108]
4461:n32g430_std_periph_driver/src/n32g430_tim.c **** }
 7278              		.loc 1 4461 1 view .LVU1934
 7279 0008 7047     		bx	lr
 7280              		.cfi_endproc
 7281              	.LFE291:
 7283              		.text
 7284              	.Letext0:
 7285              		.file 2 "D:/Tools/arm-gnu-toolchain/arm-none-eabi/include/machine/_default_types.h"
 7286              		.file 3 "D:/Tools/arm-gnu-toolchain/arm-none-eabi/include/sys/_stdint.h"
 7287              		.file 4 "CMSIS/device/n32g430.h"
 7288              		.file 5 "n32g430_std_periph_driver/inc/n32g430_tim.h"
 7289              		.file 6 "n32g430_std_periph_driver/inc/n32g430_rcc.h"
ARM GAS  C:\Users\Dawn\AppData\Local\Temp\ccf7B1Wd.s 			page 205


DEFINED SYMBOLS
                            *ABS*:00000000 n32g430_tim.c
C:\Users\Dawn\AppData\Local\Temp\ccf7B1Wd.s:17     .text.TIM_Reset:00000000 $t
C:\Users\Dawn\AppData\Local\Temp\ccf7B1Wd.s:23     .text.TIM_Reset:00000000 TIM_Reset
C:\Users\Dawn\AppData\Local\Temp\ccf7B1Wd.s:141    .text.TIM_Reset:0000006c $d
C:\Users\Dawn\AppData\Local\Temp\ccf7B1Wd.s:151    .text.TIM_Base_Count_Mode_Set:00000000 $t
C:\Users\Dawn\AppData\Local\Temp\ccf7B1Wd.s:157    .text.TIM_Base_Count_Mode_Set:00000000 TIM_Base_Count_Mode_Set
C:\Users\Dawn\AppData\Local\Temp\ccf7B1Wd.s:187    .text.TIM_Base_Center_Aligned_Mode_OC4_7_8_9_Trigger_Set:00000000 $t
C:\Users\Dawn\AppData\Local\Temp\ccf7B1Wd.s:193    .text.TIM_Base_Center_Aligned_Mode_OC4_7_8_9_Trigger_Set:00000000 TIM_Base_Center_Aligned_Mode_OC4_7_8_9_Trigger_Set
C:\Users\Dawn\AppData\Local\Temp\ccf7B1Wd.s:223    .text.TIM_Asymmetric_Enable:00000000 $t
C:\Users\Dawn\AppData\Local\Temp\ccf7B1Wd.s:229    .text.TIM_Asymmetric_Enable:00000000 TIM_Asymmetric_Enable
C:\Users\Dawn\AppData\Local\Temp\ccf7B1Wd.s:249    .text.TIM_Asymmetric_Disable:00000000 $t
C:\Users\Dawn\AppData\Local\Temp\ccf7B1Wd.s:255    .text.TIM_Asymmetric_Disable:00000000 TIM_Asymmetric_Disable
C:\Users\Dawn\AppData\Local\Temp\ccf7B1Wd.s:275    .text.TIM_Base_Auto_Reload_Set:00000000 $t
C:\Users\Dawn\AppData\Local\Temp\ccf7B1Wd.s:281    .text.TIM_Base_Auto_Reload_Set:00000000 TIM_Base_Auto_Reload_Set
C:\Users\Dawn\AppData\Local\Temp\ccf7B1Wd.s:298    .text.TIM_Base_Prescaler_Set:00000000 $t
C:\Users\Dawn\AppData\Local\Temp\ccf7B1Wd.s:304    .text.TIM_Base_Prescaler_Set:00000000 TIM_Base_Prescaler_Set
C:\Users\Dawn\AppData\Local\Temp\ccf7B1Wd.s:321    .text.TIM_Base_Reload_Mode_Set:00000000 $t
C:\Users\Dawn\AppData\Local\Temp\ccf7B1Wd.s:327    .text.TIM_Base_Reload_Mode_Set:00000000 TIM_Base_Reload_Mode_Set
C:\Users\Dawn\AppData\Local\Temp\ccf7B1Wd.s:344    .text.TIM_Base_Repeat_Count_Set:00000000 $t
C:\Users\Dawn\AppData\Local\Temp\ccf7B1Wd.s:350    .text.TIM_Base_Repeat_Count_Set:00000000 TIM_Base_Repeat_Count_Set
C:\Users\Dawn\AppData\Local\Temp\ccf7B1Wd.s:367    .text.TIM_Base_Channel1:00000000 $t
C:\Users\Dawn\AppData\Local\Temp\ccf7B1Wd.s:373    .text.TIM_Base_Channel1:00000000 TIM_Base_Channel1
C:\Users\Dawn\AppData\Local\Temp\ccf7B1Wd.s:404    .text.TIM_Base_Channel2:00000000 $t
C:\Users\Dawn\AppData\Local\Temp\ccf7B1Wd.s:410    .text.TIM_Base_Channel2:00000000 TIM_Base_Channel2
C:\Users\Dawn\AppData\Local\Temp\ccf7B1Wd.s:441    .text.TIM_Base_Channel3:00000000 $t
C:\Users\Dawn\AppData\Local\Temp\ccf7B1Wd.s:447    .text.TIM_Base_Channel3:00000000 TIM_Base_Channel3
C:\Users\Dawn\AppData\Local\Temp\ccf7B1Wd.s:478    .text.TIM_Base_Channel4:00000000 $t
C:\Users\Dawn\AppData\Local\Temp\ccf7B1Wd.s:484    .text.TIM_Base_Channel4:00000000 TIM_Base_Channel4
C:\Users\Dawn\AppData\Local\Temp\ccf7B1Wd.s:515    .text.TIM_Base_OCrefClear:00000000 $t
C:\Users\Dawn\AppData\Local\Temp\ccf7B1Wd.s:521    .text.TIM_Base_OCrefClear:00000000 TIM_Base_OCrefClear
C:\Users\Dawn\AppData\Local\Temp\ccf7B1Wd.s:552    .text.TIM_Base_Struct_Initialize:00000000 $t
C:\Users\Dawn\AppData\Local\Temp\ccf7B1Wd.s:558    .text.TIM_Base_Struct_Initialize:00000000 TIM_Base_Struct_Initialize
C:\Users\Dawn\AppData\Local\Temp\ccf7B1Wd.s:607    .text.TIM_Base_Count_Set:00000000 $t
C:\Users\Dawn\AppData\Local\Temp\ccf7B1Wd.s:613    .text.TIM_Base_Count_Set:00000000 TIM_Base_Count_Set
C:\Users\Dawn\AppData\Local\Temp\ccf7B1Wd.s:630    .text.TIM_Base_Count_Get:00000000 $t
C:\Users\Dawn\AppData\Local\Temp\ccf7B1Wd.s:636    .text.TIM_Base_Count_Get:00000000 TIM_Base_Count_Get
C:\Users\Dawn\AppData\Local\Temp\ccf7B1Wd.s:655    .text.TIM_Auto_Reload_Get:00000000 $t
C:\Users\Dawn\AppData\Local\Temp\ccf7B1Wd.s:661    .text.TIM_Auto_Reload_Get:00000000 TIM_Auto_Reload_Get
C:\Users\Dawn\AppData\Local\Temp\ccf7B1Wd.s:680    .text.TIM_Base_Prescaler_Get:00000000 $t
C:\Users\Dawn\AppData\Local\Temp\ccf7B1Wd.s:686    .text.TIM_Base_Prescaler_Get:00000000 TIM_Base_Prescaler_Get
C:\Users\Dawn\AppData\Local\Temp\ccf7B1Wd.s:705    .text.TIM_On:00000000 $t
C:\Users\Dawn\AppData\Local\Temp\ccf7B1Wd.s:711    .text.TIM_On:00000000 TIM_On
C:\Users\Dawn\AppData\Local\Temp\ccf7B1Wd.s:731    .text.TIM_Off:00000000 $t
C:\Users\Dawn\AppData\Local\Temp\ccf7B1Wd.s:737    .text.TIM_Off:00000000 TIM_Off
C:\Users\Dawn\AppData\Local\Temp\ccf7B1Wd.s:757    .text.TIM_Output_Channel1_Preload_Set:00000000 $t
C:\Users\Dawn\AppData\Local\Temp\ccf7B1Wd.s:763    .text.TIM_Output_Channel1_Preload_Set:00000000 TIM_Output_Channel1_Preload_Set
C:\Users\Dawn\AppData\Local\Temp\ccf7B1Wd.s:794    .text.TIM_Output_Channel2_Preload_Set:00000000 $t
C:\Users\Dawn\AppData\Local\Temp\ccf7B1Wd.s:800    .text.TIM_Output_Channel2_Preload_Set:00000000 TIM_Output_Channel2_Preload_Set
C:\Users\Dawn\AppData\Local\Temp\ccf7B1Wd.s:836    .text.TIM_Output_Channel3_Preload_Set:00000000 $t
C:\Users\Dawn\AppData\Local\Temp\ccf7B1Wd.s:842    .text.TIM_Output_Channel3_Preload_Set:00000000 TIM_Output_Channel3_Preload_Set
C:\Users\Dawn\AppData\Local\Temp\ccf7B1Wd.s:874    .text.TIM_Output_Channel4_Preload_Set:00000000 $t
C:\Users\Dawn\AppData\Local\Temp\ccf7B1Wd.s:880    .text.TIM_Output_Channel4_Preload_Set:00000000 TIM_Output_Channel4_Preload_Set
C:\Users\Dawn\AppData\Local\Temp\ccf7B1Wd.s:917    .text.TIM_Output_Channel5_Preload_Set:00000000 $t
C:\Users\Dawn\AppData\Local\Temp\ccf7B1Wd.s:923    .text.TIM_Output_Channel5_Preload_Set:00000000 TIM_Output_Channel5_Preload_Set
C:\Users\Dawn\AppData\Local\Temp\ccf7B1Wd.s:954    .text.TIM_Output_Channel6_Preload_Set:00000000 $t
C:\Users\Dawn\AppData\Local\Temp\ccf7B1Wd.s:960    .text.TIM_Output_Channel6_Preload_Set:00000000 TIM_Output_Channel6_Preload_Set
ARM GAS  C:\Users\Dawn\AppData\Local\Temp\ccf7B1Wd.s 			page 206


C:\Users\Dawn\AppData\Local\Temp\ccf7B1Wd.s:996    .text.TIM_Output_Channel7_Preload_Set:00000000 $t
C:\Users\Dawn\AppData\Local\Temp\ccf7B1Wd.s:1002   .text.TIM_Output_Channel7_Preload_Set:00000000 TIM_Output_Channel7_Preload_Set
C:\Users\Dawn\AppData\Local\Temp\ccf7B1Wd.s:1039   .text.TIM_Output_Channel8_Preload_Set:00000000 $t
C:\Users\Dawn\AppData\Local\Temp\ccf7B1Wd.s:1045   .text.TIM_Output_Channel8_Preload_Set:00000000 TIM_Output_Channel8_Preload_Set
C:\Users\Dawn\AppData\Local\Temp\ccf7B1Wd.s:1082   .text.TIM_Output_Channel9_Preload_Set:00000000 $t
C:\Users\Dawn\AppData\Local\Temp\ccf7B1Wd.s:1088   .text.TIM_Output_Channel9_Preload_Set:00000000 TIM_Output_Channel9_Preload_Set
C:\Users\Dawn\AppData\Local\Temp\ccf7B1Wd.s:1125   .text.TIM_Auto_Reload_Preload_Enable:00000000 $t
C:\Users\Dawn\AppData\Local\Temp\ccf7B1Wd.s:1131   .text.TIM_Auto_Reload_Preload_Enable:00000000 TIM_Auto_Reload_Preload_Enable
C:\Users\Dawn\AppData\Local\Temp\ccf7B1Wd.s:1151   .text.TIM_Auto_Reload_Preload_Disable:00000000 $t
C:\Users\Dawn\AppData\Local\Temp\ccf7B1Wd.s:1157   .text.TIM_Auto_Reload_Preload_Disable:00000000 TIM_Auto_Reload_Preload_Disable
C:\Users\Dawn\AppData\Local\Temp\ccf7B1Wd.s:1177   .text.TIM_Update_Event_Enable:00000000 $t
C:\Users\Dawn\AppData\Local\Temp\ccf7B1Wd.s:1183   .text.TIM_Update_Event_Enable:00000000 TIM_Update_Event_Enable
C:\Users\Dawn\AppData\Local\Temp\ccf7B1Wd.s:1203   .text.TIM_Update_Event_Disable:00000000 $t
C:\Users\Dawn\AppData\Local\Temp\ccf7B1Wd.s:1209   .text.TIM_Update_Event_Disable:00000000 TIM_Update_Event_Disable
C:\Users\Dawn\AppData\Local\Temp\ccf7B1Wd.s:1229   .text.TIM_Update_Request_Source_Set:00000000 $t
C:\Users\Dawn\AppData\Local\Temp\ccf7B1Wd.s:1235   .text.TIM_Update_Request_Source_Set:00000000 TIM_Update_Request_Source_Set
C:\Users\Dawn\AppData\Local\Temp\ccf7B1Wd.s:1266   .text.TIM_Event_Generate:00000000 $t
C:\Users\Dawn\AppData\Local\Temp\ccf7B1Wd.s:1272   .text.TIM_Event_Generate:00000000 TIM_Event_Generate
C:\Users\Dawn\AppData\Local\Temp\ccf7B1Wd.s:1289   .text.TIM_Commutation_Event_Enable:00000000 $t
C:\Users\Dawn\AppData\Local\Temp\ccf7B1Wd.s:1295   .text.TIM_Commutation_Event_Enable:00000000 TIM_Commutation_Event_Enable
C:\Users\Dawn\AppData\Local\Temp\ccf7B1Wd.s:1315   .text.TIM_Commutation_Event_Disable:00000000 $t
C:\Users\Dawn\AppData\Local\Temp\ccf7B1Wd.s:1321   .text.TIM_Commutation_Event_Disable:00000000 TIM_Commutation_Event_Disable
C:\Users\Dawn\AppData\Local\Temp\ccf7B1Wd.s:1341   .text.TIM_Capture_Compare_Control_Preload_Enable:00000000 $t
C:\Users\Dawn\AppData\Local\Temp\ccf7B1Wd.s:1347   .text.TIM_Capture_Compare_Control_Preload_Enable:00000000 TIM_Capture_Compare_Control_Preload_Enable
C:\Users\Dawn\AppData\Local\Temp\ccf7B1Wd.s:1367   .text.TIM_Capture_Compare_Control_Preload_Disable:00000000 $t
C:\Users\Dawn\AppData\Local\Temp\ccf7B1Wd.s:1373   .text.TIM_Capture_Compare_Control_Preload_Disable:00000000 TIM_Capture_Compare_Control_Preload_Disable
C:\Users\Dawn\AppData\Local\Temp\ccf7B1Wd.s:1393   .text.TIM_Compare1_Set:00000000 $t
C:\Users\Dawn\AppData\Local\Temp\ccf7B1Wd.s:1399   .text.TIM_Compare1_Set:00000000 TIM_Compare1_Set
C:\Users\Dawn\AppData\Local\Temp\ccf7B1Wd.s:1428   .text.TIM_Compare2_Set:00000000 $t
C:\Users\Dawn\AppData\Local\Temp\ccf7B1Wd.s:1434   .text.TIM_Compare2_Set:00000000 TIM_Compare2_Set
C:\Users\Dawn\AppData\Local\Temp\ccf7B1Wd.s:1463   .text.TIM_Compare3_Set:00000000 $t
C:\Users\Dawn\AppData\Local\Temp\ccf7B1Wd.s:1469   .text.TIM_Compare3_Set:00000000 TIM_Compare3_Set
C:\Users\Dawn\AppData\Local\Temp\ccf7B1Wd.s:1498   .text.TIM_Compare4_Set:00000000 $t
C:\Users\Dawn\AppData\Local\Temp\ccf7B1Wd.s:1504   .text.TIM_Compare4_Set:00000000 TIM_Compare4_Set
C:\Users\Dawn\AppData\Local\Temp\ccf7B1Wd.s:1533   .text.TIM_Compare5_Set:00000000 $t
C:\Users\Dawn\AppData\Local\Temp\ccf7B1Wd.s:1539   .text.TIM_Compare5_Set:00000000 TIM_Compare5_Set
C:\Users\Dawn\AppData\Local\Temp\ccf7B1Wd.s:1556   .text.TIM_Compare6_Set:00000000 $t
C:\Users\Dawn\AppData\Local\Temp\ccf7B1Wd.s:1562   .text.TIM_Compare6_Set:00000000 TIM_Compare6_Set
C:\Users\Dawn\AppData\Local\Temp\ccf7B1Wd.s:1579   .text.TIM_Compare7_Set:00000000 $t
C:\Users\Dawn\AppData\Local\Temp\ccf7B1Wd.s:1585   .text.TIM_Compare7_Set:00000000 TIM_Compare7_Set
C:\Users\Dawn\AppData\Local\Temp\ccf7B1Wd.s:1602   .text.TIM_Compare8_Set:00000000 $t
C:\Users\Dawn\AppData\Local\Temp\ccf7B1Wd.s:1608   .text.TIM_Compare8_Set:00000000 TIM_Compare8_Set
C:\Users\Dawn\AppData\Local\Temp\ccf7B1Wd.s:1625   .text.TIM_Compare9_Set:00000000 $t
C:\Users\Dawn\AppData\Local\Temp\ccf7B1Wd.s:1631   .text.TIM_Compare9_Set:00000000 TIM_Compare9_Set
C:\Users\Dawn\AppData\Local\Temp\ccf7B1Wd.s:1648   .text.TIM_Compare1_D_Set:00000000 $t
C:\Users\Dawn\AppData\Local\Temp\ccf7B1Wd.s:1654   .text.TIM_Compare1_D_Set:00000000 TIM_Compare1_D_Set
C:\Users\Dawn\AppData\Local\Temp\ccf7B1Wd.s:1683   .text.TIM_Compare2_D_Set:00000000 $t
C:\Users\Dawn\AppData\Local\Temp\ccf7B1Wd.s:1689   .text.TIM_Compare2_D_Set:00000000 TIM_Compare2_D_Set
C:\Users\Dawn\AppData\Local\Temp\ccf7B1Wd.s:1718   .text.TIM_Compare3_D_Set:00000000 $t
C:\Users\Dawn\AppData\Local\Temp\ccf7B1Wd.s:1724   .text.TIM_Compare3_D_Set:00000000 TIM_Compare3_D_Set
C:\Users\Dawn\AppData\Local\Temp\ccf7B1Wd.s:1753   .text.TIM_Compare4_D_Set:00000000 $t
C:\Users\Dawn\AppData\Local\Temp\ccf7B1Wd.s:1759   .text.TIM_Compare4_D_Set:00000000 TIM_Compare4_D_Set
C:\Users\Dawn\AppData\Local\Temp\ccf7B1Wd.s:1788   .text.TIM_Compare_Capture1_Get:00000000 $t
C:\Users\Dawn\AppData\Local\Temp\ccf7B1Wd.s:1794   .text.TIM_Compare_Capture1_Get:00000000 TIM_Compare_Capture1_Get
C:\Users\Dawn\AppData\Local\Temp\ccf7B1Wd.s:1813   .text.TIM_Compare_Capture2_Get:00000000 $t
C:\Users\Dawn\AppData\Local\Temp\ccf7B1Wd.s:1819   .text.TIM_Compare_Capture2_Get:00000000 TIM_Compare_Capture2_Get
C:\Users\Dawn\AppData\Local\Temp\ccf7B1Wd.s:1838   .text.TIM_Compare_Capture3_Get:00000000 $t
ARM GAS  C:\Users\Dawn\AppData\Local\Temp\ccf7B1Wd.s 			page 207


C:\Users\Dawn\AppData\Local\Temp\ccf7B1Wd.s:1844   .text.TIM_Compare_Capture3_Get:00000000 TIM_Compare_Capture3_Get
C:\Users\Dawn\AppData\Local\Temp\ccf7B1Wd.s:1863   .text.TIM_Compare_Capture4_Get:00000000 $t
C:\Users\Dawn\AppData\Local\Temp\ccf7B1Wd.s:1869   .text.TIM_Compare_Capture4_Get:00000000 TIM_Compare_Capture4_Get
C:\Users\Dawn\AppData\Local\Temp\ccf7B1Wd.s:1888   .text.TIM_Compare_Capture5_Get:00000000 $t
C:\Users\Dawn\AppData\Local\Temp\ccf7B1Wd.s:1894   .text.TIM_Compare_Capture5_Get:00000000 TIM_Compare_Capture5_Get
C:\Users\Dawn\AppData\Local\Temp\ccf7B1Wd.s:1913   .text.TIM_Compare_Capture6_Get:00000000 $t
C:\Users\Dawn\AppData\Local\Temp\ccf7B1Wd.s:1919   .text.TIM_Compare_Capture6_Get:00000000 TIM_Compare_Capture6_Get
C:\Users\Dawn\AppData\Local\Temp\ccf7B1Wd.s:1938   .text.TIM_Compare_Capture7_Get:00000000 $t
C:\Users\Dawn\AppData\Local\Temp\ccf7B1Wd.s:1944   .text.TIM_Compare_Capture7_Get:00000000 TIM_Compare_Capture7_Get
C:\Users\Dawn\AppData\Local\Temp\ccf7B1Wd.s:1963   .text.TIM_Compare_Capture8_Get:00000000 $t
C:\Users\Dawn\AppData\Local\Temp\ccf7B1Wd.s:1969   .text.TIM_Compare_Capture8_Get:00000000 TIM_Compare_Capture8_Get
C:\Users\Dawn\AppData\Local\Temp\ccf7B1Wd.s:1988   .text.TIM_Compare_Capture9_Get:00000000 $t
C:\Users\Dawn\AppData\Local\Temp\ccf7B1Wd.s:1994   .text.TIM_Compare_Capture9_Get:00000000 TIM_Compare_Capture9_Get
C:\Users\Dawn\AppData\Local\Temp\ccf7B1Wd.s:2013   .text.TIM_Compare_Capture1_D_Get:00000000 $t
C:\Users\Dawn\AppData\Local\Temp\ccf7B1Wd.s:2019   .text.TIM_Compare_Capture1_D_Get:00000000 TIM_Compare_Capture1_D_Get
C:\Users\Dawn\AppData\Local\Temp\ccf7B1Wd.s:2038   .text.TIM_Compare_Capture2_D_Get:00000000 $t
C:\Users\Dawn\AppData\Local\Temp\ccf7B1Wd.s:2044   .text.TIM_Compare_Capture2_D_Get:00000000 TIM_Compare_Capture2_D_Get
C:\Users\Dawn\AppData\Local\Temp\ccf7B1Wd.s:2063   .text.TIM_Compare_Capture3_D_Get:00000000 $t
C:\Users\Dawn\AppData\Local\Temp\ccf7B1Wd.s:2069   .text.TIM_Compare_Capture3_D_Get:00000000 TIM_Compare_Capture3_D_Get
C:\Users\Dawn\AppData\Local\Temp\ccf7B1Wd.s:2088   .text.TIM_Compare_Capture4_D_Get:00000000 $t
C:\Users\Dawn\AppData\Local\Temp\ccf7B1Wd.s:2094   .text.TIM_Compare_Capture4_D_Get:00000000 TIM_Compare_Capture4_D_Get
C:\Users\Dawn\AppData\Local\Temp\ccf7B1Wd.s:2113   .text.TIM_Trigger_Source_Select:00000000 $t
C:\Users\Dawn\AppData\Local\Temp\ccf7B1Wd.s:2119   .text.TIM_Trigger_Source_Select:00000000 TIM_Trigger_Source_Select
C:\Users\Dawn\AppData\Local\Temp\ccf7B1Wd.s:2150   .text.Input_Channel1_Config:00000000 $t
C:\Users\Dawn\AppData\Local\Temp\ccf7B1Wd.s:2156   .text.Input_Channel1_Config:00000000 Input_Channel1_Config
C:\Users\Dawn\AppData\Local\Temp\ccf7B1Wd.s:2266   .text.Input_Channel1_Config:00000070 $d
C:\Users\Dawn\AppData\Local\Temp\ccf7B1Wd.s:2271   .text.Input_Channel2_Config:00000000 $t
C:\Users\Dawn\AppData\Local\Temp\ccf7B1Wd.s:2277   .text.Input_Channel2_Config:00000000 Input_Channel2_Config
C:\Users\Dawn\AppData\Local\Temp\ccf7B1Wd.s:2397   .text.Input_Channel2_Config:00000078 $d
C:\Users\Dawn\AppData\Local\Temp\ccf7B1Wd.s:2402   .text.Input_Channel3_Config:00000000 $t
C:\Users\Dawn\AppData\Local\Temp\ccf7B1Wd.s:2408   .text.Input_Channel3_Config:00000000 Input_Channel3_Config
C:\Users\Dawn\AppData\Local\Temp\ccf7B1Wd.s:2529   .text.Input_Channel3_Config:00000070 $d
C:\Users\Dawn\AppData\Local\Temp\ccf7B1Wd.s:2534   .text.Input_Channel4_Config:00000000 $t
C:\Users\Dawn\AppData\Local\Temp\ccf7B1Wd.s:2540   .text.Input_Channel4_Config:00000000 Input_Channel4_Config
C:\Users\Dawn\AppData\Local\Temp\ccf7B1Wd.s:2658   .text.Input_Channel4_Config:00000074 $d
C:\Users\Dawn\AppData\Local\Temp\ccf7B1Wd.s:2663   .text.TIM_External_Trigger_Filter_Set:00000000 $t
C:\Users\Dawn\AppData\Local\Temp\ccf7B1Wd.s:2669   .text.TIM_External_Trigger_Filter_Set:00000000 TIM_External_Trigger_Filter_Set
C:\Users\Dawn\AppData\Local\Temp\ccf7B1Wd.s:2704   .text.TIM_External_Trigger_Prescaler_Set:00000000 $t
C:\Users\Dawn\AppData\Local\Temp\ccf7B1Wd.s:2710   .text.TIM_External_Trigger_Prescaler_Set:00000000 TIM_External_Trigger_Prescaler_Set
C:\Users\Dawn\AppData\Local\Temp\ccf7B1Wd.s:2740   .text.TIM_External_Trigger_Polarity_Set:00000000 $t
C:\Users\Dawn\AppData\Local\Temp\ccf7B1Wd.s:2746   .text.TIM_External_Trigger_Polarity_Set:00000000 TIM_External_Trigger_Polarity_Set
C:\Users\Dawn\AppData\Local\Temp\ccf7B1Wd.s:2780   .text.TIM_Clock_Division_Set:00000000 $t
C:\Users\Dawn\AppData\Local\Temp\ccf7B1Wd.s:2786   .text.TIM_Clock_Division_Set:00000000 TIM_Clock_Division_Set
C:\Users\Dawn\AppData\Local\Temp\ccf7B1Wd.s:2814   .text.TIM_Base_Initialize:00000000 $t
C:\Users\Dawn\AppData\Local\Temp\ccf7B1Wd.s:2820   .text.TIM_Base_Initialize:00000000 TIM_Base_Initialize
C:\Users\Dawn\AppData\Local\Temp\ccf7B1Wd.s:2956   .text.TIM_Base_Initialize:000000a4 $d
C:\Users\Dawn\AppData\Local\Temp\ccf7B1Wd.s:2963   .text.TIM_Internal_Clock_Set:00000000 $t
C:\Users\Dawn\AppData\Local\Temp\ccf7B1Wd.s:2969   .text.TIM_Internal_Clock_Set:00000000 TIM_Internal_Clock_Set
C:\Users\Dawn\AppData\Local\Temp\ccf7B1Wd.s:2991   .text.TIM_Input_Capture1_Prescaler_Set:00000000 $t
C:\Users\Dawn\AppData\Local\Temp\ccf7B1Wd.s:2997   .text.TIM_Input_Capture1_Prescaler_Set:00000000 TIM_Input_Capture1_Prescaler_Set
C:\Users\Dawn\AppData\Local\Temp\ccf7B1Wd.s:3026   .text.TIM_Input_Capture2_Prescaler_Set:00000000 $t
C:\Users\Dawn\AppData\Local\Temp\ccf7B1Wd.s:3032   .text.TIM_Input_Capture2_Prescaler_Set:00000000 TIM_Input_Capture2_Prescaler_Set
C:\Users\Dawn\AppData\Local\Temp\ccf7B1Wd.s:3066   .text.TIM_Input_Capture3_Prescaler_Set:00000000 $t
C:\Users\Dawn\AppData\Local\Temp\ccf7B1Wd.s:3072   .text.TIM_Input_Capture3_Prescaler_Set:00000000 TIM_Input_Capture3_Prescaler_Set
C:\Users\Dawn\AppData\Local\Temp\ccf7B1Wd.s:3102   .text.TIM_Input_Capture4_Prescaler_Set:00000000 $t
C:\Users\Dawn\AppData\Local\Temp\ccf7B1Wd.s:3108   .text.TIM_Input_Capture4_Prescaler_Set:00000000 TIM_Input_Capture4_Prescaler_Set
C:\Users\Dawn\AppData\Local\Temp\ccf7B1Wd.s:3136   .text.TIM_Internal_Trig_To_Ext_Set:00000000 $t
ARM GAS  C:\Users\Dawn\AppData\Local\Temp\ccf7B1Wd.s 			page 208


C:\Users\Dawn\AppData\Local\Temp\ccf7B1Wd.s:3142   .text.TIM_Internal_Trig_To_Ext_Set:00000000 TIM_Internal_Trig_To_Ext_Set
C:\Users\Dawn\AppData\Local\Temp\ccf7B1Wd.s:3173   .text.TIM_Trigger_As_External_Clock:00000000 $t
C:\Users\Dawn\AppData\Local\Temp\ccf7B1Wd.s:3179   .text.TIM_Trigger_As_External_Clock:00000000 TIM_Trigger_As_External_Clock
C:\Users\Dawn\AppData\Local\Temp\ccf7B1Wd.s:3237   .text.TIM_External_Clock_Mode1_Set:00000000 $t
C:\Users\Dawn\AppData\Local\Temp\ccf7B1Wd.s:3243   .text.TIM_External_Clock_Mode1_Set:00000000 TIM_External_Clock_Mode1_Set
C:\Users\Dawn\AppData\Local\Temp\ccf7B1Wd.s:3301   .text.TIM_External_Clock_Mode2_Set:00000000 $t
C:\Users\Dawn\AppData\Local\Temp\ccf7B1Wd.s:3307   .text.TIM_External_Clock_Mode2_Set:00000000 TIM_External_Clock_Mode2_Set
C:\Users\Dawn\AppData\Local\Temp\ccf7B1Wd.s:3355   .text.TIM_Slave_Mode_Select:00000000 $t
C:\Users\Dawn\AppData\Local\Temp\ccf7B1Wd.s:3361   .text.TIM_Slave_Mode_Select:00000000 TIM_Slave_Mode_Select
C:\Users\Dawn\AppData\Local\Temp\ccf7B1Wd.s:3390   .text.TIM_Master_Slave_Mode_Set:00000000 $t
C:\Users\Dawn\AppData\Local\Temp\ccf7B1Wd.s:3396   .text.TIM_Master_Slave_Mode_Set:00000000 TIM_Master_Slave_Mode_Set
C:\Users\Dawn\AppData\Local\Temp\ccf7B1Wd.s:3425   .text.TIM_Output_Trigger_Select:00000000 $t
C:\Users\Dawn\AppData\Local\Temp\ccf7B1Wd.s:3431   .text.TIM_Output_Trigger_Select:00000000 TIM_Output_Trigger_Select
C:\Users\Dawn\AppData\Local\Temp\ccf7B1Wd.s:3460   .text.TIM_OC4REF_Trigger_To_ADC_Enable:00000000 $t
C:\Users\Dawn\AppData\Local\Temp\ccf7B1Wd.s:3466   .text.TIM_OC4REF_Trigger_To_ADC_Enable:00000000 TIM_OC4REF_Trigger_To_ADC_Enable
C:\Users\Dawn\AppData\Local\Temp\ccf7B1Wd.s:3486   .text.TIM_OC4REF_Trigger_To_ADC_Disable:00000000 $t
C:\Users\Dawn\AppData\Local\Temp\ccf7B1Wd.s:3492   .text.TIM_OC4REF_Trigger_To_ADC_Disable:00000000 TIM_OC4REF_Trigger_To_ADC_Disable
C:\Users\Dawn\AppData\Local\Temp\ccf7B1Wd.s:3512   .text.TIM_OC7REF_Trigger_To_ADC_Enable:00000000 $t
C:\Users\Dawn\AppData\Local\Temp\ccf7B1Wd.s:3518   .text.TIM_OC7REF_Trigger_To_ADC_Enable:00000000 TIM_OC7REF_Trigger_To_ADC_Enable
C:\Users\Dawn\AppData\Local\Temp\ccf7B1Wd.s:3538   .text.TIM_OC7REF_Trigger_To_ADC_Disable:00000000 $t
C:\Users\Dawn\AppData\Local\Temp\ccf7B1Wd.s:3544   .text.TIM_OC7REF_Trigger_To_ADC_Disable:00000000 TIM_OC7REF_Trigger_To_ADC_Disable
C:\Users\Dawn\AppData\Local\Temp\ccf7B1Wd.s:3564   .text.TIM_OC8REF_Trigger_To_ADC_Enable:00000000 $t
C:\Users\Dawn\AppData\Local\Temp\ccf7B1Wd.s:3570   .text.TIM_OC8REF_Trigger_To_ADC_Enable:00000000 TIM_OC8REF_Trigger_To_ADC_Enable
C:\Users\Dawn\AppData\Local\Temp\ccf7B1Wd.s:3590   .text.TIM_OC8REF_Trigger_To_ADC_Disable:00000000 $t
C:\Users\Dawn\AppData\Local\Temp\ccf7B1Wd.s:3596   .text.TIM_OC8REF_Trigger_To_ADC_Disable:00000000 TIM_OC8REF_Trigger_To_ADC_Disable
C:\Users\Dawn\AppData\Local\Temp\ccf7B1Wd.s:3616   .text.TIM_OC9REF_Trigger_To_ADC_Enable:00000000 $t
C:\Users\Dawn\AppData\Local\Temp\ccf7B1Wd.s:3622   .text.TIM_OC9REF_Trigger_To_ADC_Enable:00000000 TIM_OC9REF_Trigger_To_ADC_Enable
C:\Users\Dawn\AppData\Local\Temp\ccf7B1Wd.s:3642   .text.TIM_OC9REF_Trigger_To_ADC_Disable:00000000 $t
C:\Users\Dawn\AppData\Local\Temp\ccf7B1Wd.s:3648   .text.TIM_OC9REF_Trigger_To_ADC_Disable:00000000 TIM_OC9REF_Trigger_To_ADC_Disable
C:\Users\Dawn\AppData\Local\Temp\ccf7B1Wd.s:3668   .text.TIM_One_Pulse_Mode_Select:00000000 $t
C:\Users\Dawn\AppData\Local\Temp\ccf7B1Wd.s:3674   .text.TIM_One_Pulse_Mode_Select:00000000 TIM_One_Pulse_Mode_Select
C:\Users\Dawn\AppData\Local\Temp\ccf7B1Wd.s:3702   .text.TIM_Input_Struct_Initialize:00000000 $t
C:\Users\Dawn\AppData\Local\Temp\ccf7B1Wd.s:3708   .text.TIM_Input_Struct_Initialize:00000000 TIM_Input_Struct_Initialize
C:\Users\Dawn\AppData\Local\Temp\ccf7B1Wd.s:3736   .text.TIM_Input_Channel_Initialize:00000000 $t
C:\Users\Dawn\AppData\Local\Temp\ccf7B1Wd.s:3742   .text.TIM_Input_Channel_Initialize:00000000 TIM_Input_Channel_Initialize
C:\Users\Dawn\AppData\Local\Temp\ccf7B1Wd.s:3840   .text.TIM_PWM_Input_Channel_Config:00000000 $t
C:\Users\Dawn\AppData\Local\Temp\ccf7B1Wd.s:3846   .text.TIM_PWM_Input_Channel_Config:00000000 TIM_PWM_Input_Channel_Config
C:\Users\Dawn\AppData\Local\Temp\ccf7B1Wd.s:3962   .text.TIM_Output_Channel_Polarity_Set:00000000 $t
C:\Users\Dawn\AppData\Local\Temp\ccf7B1Wd.s:3968   .text.TIM_Output_Channel_Polarity_Set:00000000 TIM_Output_Channel_Polarity_Set
C:\Users\Dawn\AppData\Local\Temp\ccf7B1Wd.s:4003   .text.TIM_Output_Channel_N_Polarity_Set:00000000 $t
C:\Users\Dawn\AppData\Local\Temp\ccf7B1Wd.s:4009   .text.TIM_Output_Channel_N_Polarity_Set:00000000 TIM_Output_Channel_N_Polarity_Set
C:\Users\Dawn\AppData\Local\Temp\ccf7B1Wd.s:4044   .text.TIM_Capture_Compare_Ch_Enable:00000000 $t
C:\Users\Dawn\AppData\Local\Temp\ccf7B1Wd.s:4050   .text.TIM_Capture_Compare_Ch_Enable:00000000 TIM_Capture_Compare_Ch_Enable
C:\Users\Dawn\AppData\Local\Temp\ccf7B1Wd.s:4073   .text.TIM_Capture_Compare_Ch_Disable:00000000 $t
C:\Users\Dawn\AppData\Local\Temp\ccf7B1Wd.s:4079   .text.TIM_Capture_Compare_Ch_Disable:00000000 TIM_Capture_Compare_Ch_Disable
C:\Users\Dawn\AppData\Local\Temp\ccf7B1Wd.s:4102   .text.TIM_Capture_Compare_Ch_N_Enable:00000000 $t
C:\Users\Dawn\AppData\Local\Temp\ccf7B1Wd.s:4108   .text.TIM_Capture_Compare_Ch_N_Enable:00000000 TIM_Capture_Compare_Ch_N_Enable
C:\Users\Dawn\AppData\Local\Temp\ccf7B1Wd.s:4131   .text.TIM_Capture_Compare_Ch_N_Disable:00000000 $t
C:\Users\Dawn\AppData\Local\Temp\ccf7B1Wd.s:4137   .text.TIM_Capture_Compare_Ch_N_Disable:00000000 TIM_Capture_Compare_Ch_N_Disable
C:\Users\Dawn\AppData\Local\Temp\ccf7B1Wd.s:4160   .text.TIM_CCEN_Status_Get:00000000 $t
C:\Users\Dawn\AppData\Local\Temp\ccf7B1Wd.s:4166   .text.TIM_CCEN_Status_Get:00000000 TIM_CCEN_Status_Get
C:\Users\Dawn\AppData\Local\Temp\ccf7B1Wd.s:4196   .text.TIM_Output_Channel_Mode_Set:00000000 $t
C:\Users\Dawn\AppData\Local\Temp\ccf7B1Wd.s:4202   .text.TIM_Output_Channel_Mode_Set:00000000 TIM_Output_Channel_Mode_Set
C:\Users\Dawn\AppData\Local\Temp\ccf7B1Wd.s:4300   .text.TIM_Forced_Output_Channel1_Set:00000000 $t
C:\Users\Dawn\AppData\Local\Temp\ccf7B1Wd.s:4306   .text.TIM_Forced_Output_Channel1_Set:00000000 TIM_Forced_Output_Channel1_Set
C:\Users\Dawn\AppData\Local\Temp\ccf7B1Wd.s:4337   .text.TIM_Forced_Output_Channel2_Set:00000000 $t
C:\Users\Dawn\AppData\Local\Temp\ccf7B1Wd.s:4343   .text.TIM_Forced_Output_Channel2_Set:00000000 TIM_Forced_Output_Channel2_Set
ARM GAS  C:\Users\Dawn\AppData\Local\Temp\ccf7B1Wd.s 			page 209


C:\Users\Dawn\AppData\Local\Temp\ccf7B1Wd.s:4379   .text.TIM_Forced_Output_Channel3_Set:00000000 $t
C:\Users\Dawn\AppData\Local\Temp\ccf7B1Wd.s:4385   .text.TIM_Forced_Output_Channel3_Set:00000000 TIM_Forced_Output_Channel3_Set
C:\Users\Dawn\AppData\Local\Temp\ccf7B1Wd.s:4417   .text.TIM_Forced_Output_Channel4_Set:00000000 $t
C:\Users\Dawn\AppData\Local\Temp\ccf7B1Wd.s:4423   .text.TIM_Forced_Output_Channel4_Set:00000000 TIM_Forced_Output_Channel4_Set
C:\Users\Dawn\AppData\Local\Temp\ccf7B1Wd.s:4460   .text.TIM_Forced_Output_Channel5_Set:00000000 $t
C:\Users\Dawn\AppData\Local\Temp\ccf7B1Wd.s:4466   .text.TIM_Forced_Output_Channel5_Set:00000000 TIM_Forced_Output_Channel5_Set
C:\Users\Dawn\AppData\Local\Temp\ccf7B1Wd.s:4497   .text.TIM_Forced_Output_Channel6_Set:00000000 $t
C:\Users\Dawn\AppData\Local\Temp\ccf7B1Wd.s:4503   .text.TIM_Forced_Output_Channel6_Set:00000000 TIM_Forced_Output_Channel6_Set
C:\Users\Dawn\AppData\Local\Temp\ccf7B1Wd.s:4539   .text.TIM_Output_Channel1_Fast_Set:00000000 $t
C:\Users\Dawn\AppData\Local\Temp\ccf7B1Wd.s:4545   .text.TIM_Output_Channel1_Fast_Set:00000000 TIM_Output_Channel1_Fast_Set
C:\Users\Dawn\AppData\Local\Temp\ccf7B1Wd.s:4576   .text.TIM_Output_Channel2_Fast_Set:00000000 $t
C:\Users\Dawn\AppData\Local\Temp\ccf7B1Wd.s:4582   .text.TIM_Output_Channel2_Fast_Set:00000000 TIM_Output_Channel2_Fast_Set
C:\Users\Dawn\AppData\Local\Temp\ccf7B1Wd.s:4618   .text.TIM_Output_Channel3_Fast_Set:00000000 $t
C:\Users\Dawn\AppData\Local\Temp\ccf7B1Wd.s:4624   .text.TIM_Output_Channel3_Fast_Set:00000000 TIM_Output_Channel3_Fast_Set
C:\Users\Dawn\AppData\Local\Temp\ccf7B1Wd.s:4656   .text.TIM_Output_Channel4_Fast_Set:00000000 $t
C:\Users\Dawn\AppData\Local\Temp\ccf7B1Wd.s:4662   .text.TIM_Output_Channel4_Fast_Set:00000000 TIM_Output_Channel4_Fast_Set
C:\Users\Dawn\AppData\Local\Temp\ccf7B1Wd.s:4699   .text.TIM_Output_Channel5_Fast_Set:00000000 $t
C:\Users\Dawn\AppData\Local\Temp\ccf7B1Wd.s:4705   .text.TIM_Output_Channel5_Fast_Set:00000000 TIM_Output_Channel5_Fast_Set
C:\Users\Dawn\AppData\Local\Temp\ccf7B1Wd.s:4736   .text.TIM_Output_Channel6_Fast_Set:00000000 $t
C:\Users\Dawn\AppData\Local\Temp\ccf7B1Wd.s:4742   .text.TIM_Output_Channel6_Fast_Set:00000000 TIM_Output_Channel6_Fast_Set
C:\Users\Dawn\AppData\Local\Temp\ccf7B1Wd.s:4778   .text.TIM_Output_Channel1_Reference_Clear:00000000 $t
C:\Users\Dawn\AppData\Local\Temp\ccf7B1Wd.s:4784   .text.TIM_Output_Channel1_Reference_Clear:00000000 TIM_Output_Channel1_Reference_Clear
C:\Users\Dawn\AppData\Local\Temp\ccf7B1Wd.s:4815   .text.TIM_Output_Channel2_Reference_Clear:00000000 $t
C:\Users\Dawn\AppData\Local\Temp\ccf7B1Wd.s:4821   .text.TIM_Output_Channel2_Reference_Clear:00000000 TIM_Output_Channel2_Reference_Clear
C:\Users\Dawn\AppData\Local\Temp\ccf7B1Wd.s:4856   .text.TIM_Output_Channel3_Reference_Clear:00000000 $t
C:\Users\Dawn\AppData\Local\Temp\ccf7B1Wd.s:4862   .text.TIM_Output_Channel3_Reference_Clear:00000000 TIM_Output_Channel3_Reference_Clear
C:\Users\Dawn\AppData\Local\Temp\ccf7B1Wd.s:4894   .text.TIM_Output_Channel4_Reference_Clear:00000000 $t
C:\Users\Dawn\AppData\Local\Temp\ccf7B1Wd.s:4900   .text.TIM_Output_Channel4_Reference_Clear:00000000 TIM_Output_Channel4_Reference_Clear
C:\Users\Dawn\AppData\Local\Temp\ccf7B1Wd.s:4935   .text.TIM_Output_Channel5_Reference_Clear:00000000 $t
C:\Users\Dawn\AppData\Local\Temp\ccf7B1Wd.s:4941   .text.TIM_Output_Channel5_Reference_Clear:00000000 TIM_Output_Channel5_Reference_Clear
C:\Users\Dawn\AppData\Local\Temp\ccf7B1Wd.s:4972   .text.TIM_Output_Channel6_Reference_Clear:00000000 $t
C:\Users\Dawn\AppData\Local\Temp\ccf7B1Wd.s:4978   .text.TIM_Output_Channel6_Reference_Clear:00000000 TIM_Output_Channel6_Reference_Clear
C:\Users\Dawn\AppData\Local\Temp\ccf7B1Wd.s:5013   .text.TIM_Output_Channel1_Initialize:00000000 $t
C:\Users\Dawn\AppData\Local\Temp\ccf7B1Wd.s:5019   .text.TIM_Output_Channel1_Initialize:00000000 TIM_Output_Channel1_Initialize
C:\Users\Dawn\AppData\Local\Temp\ccf7B1Wd.s:5162   .text.TIM_Output_Channel1_Initialize:00000080 $d
C:\Users\Dawn\AppData\Local\Temp\ccf7B1Wd.s:5167   .text.TIM_Output_Channel2_Initialize:00000000 $t
C:\Users\Dawn\AppData\Local\Temp\ccf7B1Wd.s:5173   .text.TIM_Output_Channel2_Initialize:00000000 TIM_Output_Channel2_Initialize
C:\Users\Dawn\AppData\Local\Temp\ccf7B1Wd.s:5321   .text.TIM_Output_Channel2_Initialize:00000088 $d
C:\Users\Dawn\AppData\Local\Temp\ccf7B1Wd.s:5326   .text.TIM_Output_Channel3_Initialize:00000000 $t
C:\Users\Dawn\AppData\Local\Temp\ccf7B1Wd.s:5332   .text.TIM_Output_Channel3_Initialize:00000000 TIM_Output_Channel3_Initialize
C:\Users\Dawn\AppData\Local\Temp\ccf7B1Wd.s:5478   .text.TIM_Output_Channel3_Initialize:00000084 $d
C:\Users\Dawn\AppData\Local\Temp\ccf7B1Wd.s:5483   .text.TIM_Output_Channel4_Initialize:00000000 $t
C:\Users\Dawn\AppData\Local\Temp\ccf7B1Wd.s:5489   .text.TIM_Output_Channel4_Initialize:00000000 TIM_Output_Channel4_Initialize
C:\Users\Dawn\AppData\Local\Temp\ccf7B1Wd.s:5652   .text.TIM_Output_Channel4_Initialize:00000094 $d
C:\Users\Dawn\AppData\Local\Temp\ccf7B1Wd.s:5658   .text.TIM_Output_Channel5_Initialize:00000000 $t
C:\Users\Dawn\AppData\Local\Temp\ccf7B1Wd.s:5664   .text.TIM_Output_Channel5_Initialize:00000000 TIM_Output_Channel5_Initialize
C:\Users\Dawn\AppData\Local\Temp\ccf7B1Wd.s:5773   .text.TIM_Output_Channel5_Initialize:00000064 $d
C:\Users\Dawn\AppData\Local\Temp\ccf7B1Wd.s:5778   .text.TIM_Output_Channel6_Initialize:00000000 $t
C:\Users\Dawn\AppData\Local\Temp\ccf7B1Wd.s:5784   .text.TIM_Output_Channel6_Initialize:00000000 TIM_Output_Channel6_Initialize
C:\Users\Dawn\AppData\Local\Temp\ccf7B1Wd.s:5896   .text.TIM_Output_Channel6_Initialize:00000068 $d
C:\Users\Dawn\AppData\Local\Temp\ccf7B1Wd.s:5901   .text.TIM_PWM_Output_Enable:00000000 $t
C:\Users\Dawn\AppData\Local\Temp\ccf7B1Wd.s:5907   .text.TIM_PWM_Output_Enable:00000000 TIM_PWM_Output_Enable
C:\Users\Dawn\AppData\Local\Temp\ccf7B1Wd.s:5929   .text.TIM_PWM_Output_Disable:00000000 $t
C:\Users\Dawn\AppData\Local\Temp\ccf7B1Wd.s:5935   .text.TIM_PWM_Output_Disable:00000000 TIM_PWM_Output_Disable
C:\Users\Dawn\AppData\Local\Temp\ccf7B1Wd.s:5955   .text.TIM_Output_Channel_Struct_Initialize:00000000 $t
C:\Users\Dawn\AppData\Local\Temp\ccf7B1Wd.s:5961   .text.TIM_Output_Channel_Struct_Initialize:00000000 TIM_Output_Channel_Struct_Initialize
C:\Users\Dawn\AppData\Local\Temp\ccf7B1Wd.s:6000   .text.TIM_Lock_Up_Break_Enable:00000000 $t
ARM GAS  C:\Users\Dawn\AppData\Local\Temp\ccf7B1Wd.s 			page 210


C:\Users\Dawn\AppData\Local\Temp\ccf7B1Wd.s:6006   .text.TIM_Lock_Up_Break_Enable:00000000 TIM_Lock_Up_Break_Enable
C:\Users\Dawn\AppData\Local\Temp\ccf7B1Wd.s:6026   .text.TIM_Lock_Up_Break_Disable:00000000 $t
C:\Users\Dawn\AppData\Local\Temp\ccf7B1Wd.s:6032   .text.TIM_Lock_Up_Break_Disable:00000000 TIM_Lock_Up_Break_Disable
C:\Users\Dawn\AppData\Local\Temp\ccf7B1Wd.s:6052   .text.TIM_Pvd_Break_Enable:00000000 $t
C:\Users\Dawn\AppData\Local\Temp\ccf7B1Wd.s:6058   .text.TIM_Pvd_Break_Enable:00000000 TIM_Pvd_Break_Enable
C:\Users\Dawn\AppData\Local\Temp\ccf7B1Wd.s:6078   .text.TIM_Pvd_Break_Disable:00000000 $t
C:\Users\Dawn\AppData\Local\Temp\ccf7B1Wd.s:6084   .text.TIM_Pvd_Break_Disable:00000000 TIM_Pvd_Break_Disable
C:\Users\Dawn\AppData\Local\Temp\ccf7B1Wd.s:6104   .text.TIM_IOM_Comp_Break:00000000 $t
C:\Users\Dawn\AppData\Local\Temp\ccf7B1Wd.s:6110   .text.TIM_IOM_Comp_Break:00000000 TIM_IOM_Comp_Break
C:\Users\Dawn\AppData\Local\Temp\ccf7B1Wd.s:6141   .text.TIM_Break_And_Dead_Time_Set:00000000 $t
C:\Users\Dawn\AppData\Local\Temp\ccf7B1Wd.s:6147   .text.TIM_Break_And_Dead_Time_Set:00000000 TIM_Break_And_Dead_Time_Set
C:\Users\Dawn\AppData\Local\Temp\ccf7B1Wd.s:6247   .text.TIM_Break_And_Dead_Time_Struct_Initialize:00000000 $t
C:\Users\Dawn\AppData\Local\Temp\ccf7B1Wd.s:6253   .text.TIM_Break_And_Dead_Time_Struct_Initialize:00000000 TIM_Break_And_Dead_Time_Struct_Initialize
C:\Users\Dawn\AppData\Local\Temp\ccf7B1Wd.s:6298   .text.TIM_Interrupt_Enable:00000000 $t
C:\Users\Dawn\AppData\Local\Temp\ccf7B1Wd.s:6304   .text.TIM_Interrupt_Enable:00000000 TIM_Interrupt_Enable
C:\Users\Dawn\AppData\Local\Temp\ccf7B1Wd.s:6325   .text.TIM_Interrupt_Disable:00000000 $t
C:\Users\Dawn\AppData\Local\Temp\ccf7B1Wd.s:6331   .text.TIM_Interrupt_Disable:00000000 TIM_Interrupt_Disable
C:\Users\Dawn\AppData\Local\Temp\ccf7B1Wd.s:6357   .text.TIM_Interrupt_Status_Get:00000000 $t
C:\Users\Dawn\AppData\Local\Temp\ccf7B1Wd.s:6363   .text.TIM_Interrupt_Status_Get:00000000 TIM_Interrupt_Status_Get
C:\Users\Dawn\AppData\Local\Temp\ccf7B1Wd.s:6412   .text.TIM_Interrupt_Status_Clear:00000000 $t
C:\Users\Dawn\AppData\Local\Temp\ccf7B1Wd.s:6418   .text.TIM_Interrupt_Status_Clear:00000000 TIM_Interrupt_Status_Clear
C:\Users\Dawn\AppData\Local\Temp\ccf7B1Wd.s:6438   .text.TIM_Flag_Status_Get:00000000 $t
C:\Users\Dawn\AppData\Local\Temp\ccf7B1Wd.s:6444   .text.TIM_Flag_Status_Get:00000000 TIM_Flag_Status_Get
C:\Users\Dawn\AppData\Local\Temp\ccf7B1Wd.s:6474   .text.TIM_Flag_Clear:00000000 $t
C:\Users\Dawn\AppData\Local\Temp\ccf7B1Wd.s:6480   .text.TIM_Flag_Clear:00000000 TIM_Flag_Clear
C:\Users\Dawn\AppData\Local\Temp\ccf7B1Wd.s:6500   .text.TIM_Dma_Config:00000000 $t
C:\Users\Dawn\AppData\Local\Temp\ccf7B1Wd.s:6506   .text.TIM_Dma_Config:00000000 TIM_Dma_Config
C:\Users\Dawn\AppData\Local\Temp\ccf7B1Wd.s:6526   .text.TIM_Dma_Enable:00000000 $t
C:\Users\Dawn\AppData\Local\Temp\ccf7B1Wd.s:6532   .text.TIM_Dma_Enable:00000000 TIM_Dma_Enable
C:\Users\Dawn\AppData\Local\Temp\ccf7B1Wd.s:6553   .text.TIM_Dma_Disable:00000000 $t
C:\Users\Dawn\AppData\Local\Temp\ccf7B1Wd.s:6559   .text.TIM_Dma_Disable:00000000 TIM_Dma_Disable
C:\Users\Dawn\AppData\Local\Temp\ccf7B1Wd.s:6585   .text.TIM_Hall_Sensor_Enable:00000000 $t
C:\Users\Dawn\AppData\Local\Temp\ccf7B1Wd.s:6591   .text.TIM_Hall_Sensor_Enable:00000000 TIM_Hall_Sensor_Enable
C:\Users\Dawn\AppData\Local\Temp\ccf7B1Wd.s:6611   .text.TIM_Hall_Sensor_Disable:00000000 $t
C:\Users\Dawn\AppData\Local\Temp\ccf7B1Wd.s:6617   .text.TIM_Hall_Sensor_Disable:00000000 TIM_Hall_Sensor_Disable
C:\Users\Dawn\AppData\Local\Temp\ccf7B1Wd.s:6637   .text.TIM_Encoder_Interface_Set:00000000 $t
C:\Users\Dawn\AppData\Local\Temp\ccf7B1Wd.s:6643   .text.TIM_Encoder_Interface_Set:00000000 TIM_Encoder_Interface_Set
C:\Users\Dawn\AppData\Local\Temp\ccf7B1Wd.s:6726   .text.TIM_Channel1_Filter_Config:00000000 $t
C:\Users\Dawn\AppData\Local\Temp\ccf7B1Wd.s:6732   .text.TIM_Channel1_Filter_Config:00000000 TIM_Channel1_Filter_Config
C:\Users\Dawn\AppData\Local\Temp\ccf7B1Wd.s:6782   .text.TIM_Channel1_Filter_Config:00000030 $d
C:\Users\Dawn\AppData\Local\Temp\ccf7B1Wd.s:6787   .text.TIM_Channel2_Filter_Config:00000000 $t
C:\Users\Dawn\AppData\Local\Temp\ccf7B1Wd.s:6793   .text.TIM_Channel2_Filter_Config:00000000 TIM_Channel2_Filter_Config
C:\Users\Dawn\AppData\Local\Temp\ccf7B1Wd.s:6843   .text.TIM_Channel2_Filter_Config:00000030 $d
C:\Users\Dawn\AppData\Local\Temp\ccf7B1Wd.s:6848   .text.TIM_Channel3_Filter_Config:00000000 $t
C:\Users\Dawn\AppData\Local\Temp\ccf7B1Wd.s:6854   .text.TIM_Channel3_Filter_Config:00000000 TIM_Channel3_Filter_Config
C:\Users\Dawn\AppData\Local\Temp\ccf7B1Wd.s:6904   .text.TIM_Channel3_Filter_Config:00000030 $d
C:\Users\Dawn\AppData\Local\Temp\ccf7B1Wd.s:6909   .text.TIM_Channel4_Filter_Config:00000000 $t
C:\Users\Dawn\AppData\Local\Temp\ccf7B1Wd.s:6915   .text.TIM_Channel4_Filter_Config:00000000 TIM_Channel4_Filter_Config
C:\Users\Dawn\AppData\Local\Temp\ccf7B1Wd.s:6965   .text.TIM_Channel4_Filter_Config:00000030 $d
C:\Users\Dawn\AppData\Local\Temp\ccf7B1Wd.s:6970   .text.TIM_Break_Filter_Config:00000000 $t
C:\Users\Dawn\AppData\Local\Temp\ccf7B1Wd.s:6976   .text.TIM_Break_Filter_Config:00000000 TIM_Break_Filter_Config
C:\Users\Dawn\AppData\Local\Temp\ccf7B1Wd.s:7019   .text.TIM_Break_Filter_Config:00000020 $d
C:\Users\Dawn\AppData\Local\Temp\ccf7B1Wd.s:7024   .text.TIM_Channel1_Filter_Enable:00000000 $t
C:\Users\Dawn\AppData\Local\Temp\ccf7B1Wd.s:7030   .text.TIM_Channel1_Filter_Enable:00000000 TIM_Channel1_Filter_Enable
C:\Users\Dawn\AppData\Local\Temp\ccf7B1Wd.s:7050   .text.TIM_Channel1_Filter_Disable:00000000 $t
C:\Users\Dawn\AppData\Local\Temp\ccf7B1Wd.s:7056   .text.TIM_Channel1_Filter_Disable:00000000 TIM_Channel1_Filter_Disable
C:\Users\Dawn\AppData\Local\Temp\ccf7B1Wd.s:7076   .text.TIM_Channel2_Filter_Enable:00000000 $t
ARM GAS  C:\Users\Dawn\AppData\Local\Temp\ccf7B1Wd.s 			page 211


C:\Users\Dawn\AppData\Local\Temp\ccf7B1Wd.s:7082   .text.TIM_Channel2_Filter_Enable:00000000 TIM_Channel2_Filter_Enable
C:\Users\Dawn\AppData\Local\Temp\ccf7B1Wd.s:7102   .text.TIM_Channel2_Filter_Disable:00000000 $t
C:\Users\Dawn\AppData\Local\Temp\ccf7B1Wd.s:7108   .text.TIM_Channel2_Filter_Disable:00000000 TIM_Channel2_Filter_Disable
C:\Users\Dawn\AppData\Local\Temp\ccf7B1Wd.s:7128   .text.TIM_Channel3_Filter_Enable:00000000 $t
C:\Users\Dawn\AppData\Local\Temp\ccf7B1Wd.s:7134   .text.TIM_Channel3_Filter_Enable:00000000 TIM_Channel3_Filter_Enable
C:\Users\Dawn\AppData\Local\Temp\ccf7B1Wd.s:7154   .text.TIM_Channel3_Filter_Disable:00000000 $t
C:\Users\Dawn\AppData\Local\Temp\ccf7B1Wd.s:7160   .text.TIM_Channel3_Filter_Disable:00000000 TIM_Channel3_Filter_Disable
C:\Users\Dawn\AppData\Local\Temp\ccf7B1Wd.s:7180   .text.TIM_Channel4_Filter_Enable:00000000 $t
C:\Users\Dawn\AppData\Local\Temp\ccf7B1Wd.s:7186   .text.TIM_Channel4_Filter_Enable:00000000 TIM_Channel4_Filter_Enable
C:\Users\Dawn\AppData\Local\Temp\ccf7B1Wd.s:7206   .text.TIM_Channel4_Filter_Disable:00000000 $t
C:\Users\Dawn\AppData\Local\Temp\ccf7B1Wd.s:7212   .text.TIM_Channel4_Filter_Disable:00000000 TIM_Channel4_Filter_Disable
C:\Users\Dawn\AppData\Local\Temp\ccf7B1Wd.s:7232   .text.TIM_Break_Filter_Enable:00000000 $t
C:\Users\Dawn\AppData\Local\Temp\ccf7B1Wd.s:7238   .text.TIM_Break_Filter_Enable:00000000 TIM_Break_Filter_Enable
C:\Users\Dawn\AppData\Local\Temp\ccf7B1Wd.s:7258   .text.TIM_Break_Filter_Disable:00000000 $t
C:\Users\Dawn\AppData\Local\Temp\ccf7B1Wd.s:7264   .text.TIM_Break_Filter_Disable:00000000 TIM_Break_Filter_Disable

UNDEFINED SYMBOLS
RCC_APB2_Peripheral_Reset
RCC_APB1_Peripheral_Reset
