ARM GAS  C:\Users\Dawn\AppData\Local\Temp\ccJQ0Gde.s 			page 1


   1              		.cpu cortex-m4
   2              		.arch armv7e-m
   3              		.fpu softvfp
   4              		.eabi_attribute 23, 1
   5              		.eabi_attribute 24, 1
   6              		.eabi_attribute 25, 1
   7              		.eabi_attribute 26, 1
   8              		.eabi_attribute 30, 1
   9              		.eabi_attribute 34, 1
  10              		.eabi_attribute 18, 4
  11              		.file	"n32g430_dma.c"
  12              		.text
  13              	.Ltext0:
  14              		.cfi_sections	.debug_frame
  15              		.file 1 "n32g430_std_periph_driver/src/n32g430_dma.c"
  16              		.section	.text.DMA_Reset,"ax",%progbits
  17              		.align	1
  18              		.global	DMA_Reset
  19              		.syntax unified
  20              		.thumb
  21              		.thumb_func
  23              	DMA_Reset:
  24              	.LVL0:
  25              	.LFB123:
   1:n32g430_std_periph_driver/src/n32g430_dma.c **** /**
   2:n32g430_std_periph_driver/src/n32g430_dma.c **** *     Copyright (c) 2022, Nations Technologies Inc.
   3:n32g430_std_periph_driver/src/n32g430_dma.c **** * 
   4:n32g430_std_periph_driver/src/n32g430_dma.c **** *     All rights reserved.
   5:n32g430_std_periph_driver/src/n32g430_dma.c **** *
   6:n32g430_std_periph_driver/src/n32g430_dma.c **** *     This software is the exclusive property of Nations Technologies Inc. (Hereinafter 
   7:n32g430_std_periph_driver/src/n32g430_dma.c **** * referred to as NATIONS). This software, and the product of NATIONS described herein 
   8:n32g430_std_periph_driver/src/n32g430_dma.c **** * (Hereinafter referred to as the Product) are owned by NATIONS under the laws and treaties
   9:n32g430_std_periph_driver/src/n32g430_dma.c **** * of the People's Republic of China and other applicable jurisdictions worldwide.
  10:n32g430_std_periph_driver/src/n32g430_dma.c **** *
  11:n32g430_std_periph_driver/src/n32g430_dma.c **** *     NATIONS does not grant any license under its patents, copyrights, trademarks, or other 
  12:n32g430_std_periph_driver/src/n32g430_dma.c **** * intellectual property rights. Names and brands of third party may be mentioned or referred 
  13:n32g430_std_periph_driver/src/n32g430_dma.c **** * thereto (if any) for identification purposes only.
  14:n32g430_std_periph_driver/src/n32g430_dma.c **** *
  15:n32g430_std_periph_driver/src/n32g430_dma.c **** *     NATIONS reserves the right to make changes, corrections, enhancements, modifications, and 
  16:n32g430_std_periph_driver/src/n32g430_dma.c **** * improvements to this software at any time without notice. Please contact NATIONS and obtain 
  17:n32g430_std_periph_driver/src/n32g430_dma.c **** * the latest version of this software before placing orders.
  18:n32g430_std_periph_driver/src/n32g430_dma.c **** 
  19:n32g430_std_periph_driver/src/n32g430_dma.c **** *     Although NATIONS has attempted to provide accurate and reliable information, NATIONS assumes 
  20:n32g430_std_periph_driver/src/n32g430_dma.c **** * no responsibility for the accuracy and reliability of this software.
  21:n32g430_std_periph_driver/src/n32g430_dma.c **** * 
  22:n32g430_std_periph_driver/src/n32g430_dma.c **** *     It is the responsibility of the user of this software to properly design, program, and test 
  23:n32g430_std_periph_driver/src/n32g430_dma.c **** * the functionality and safety of any application made of this information and any resulting produc
  24:n32g430_std_periph_driver/src/n32g430_dma.c **** * In no event shall NATIONS be liable for any direct, indirect, incidental, special,exemplary, or 
  25:n32g430_std_periph_driver/src/n32g430_dma.c **** * consequential damages arising in any way out of the use of this software or the Product.
  26:n32g430_std_periph_driver/src/n32g430_dma.c **** *
  27:n32g430_std_periph_driver/src/n32g430_dma.c **** *     NATIONS Products are neither intended nor warranted for usage in systems or equipment, any
  28:n32g430_std_periph_driver/src/n32g430_dma.c **** * malfunction or failure of which may cause loss of human life, bodily injury or severe property 
  29:n32g430_std_periph_driver/src/n32g430_dma.c **** * damage. Such applications are deemed, "Insecure Usage".
  30:n32g430_std_periph_driver/src/n32g430_dma.c **** *
  31:n32g430_std_periph_driver/src/n32g430_dma.c **** *     All Insecure Usage shall be made at user's risk. User shall indemnify NATIONS and hold NATION
  32:n32g430_std_periph_driver/src/n32g430_dma.c **** * harmless from and against all claims, costs, damages, and other liabilities, arising from or rela
  33:n32g430_std_periph_driver/src/n32g430_dma.c **** * to any customer's Insecure Usage.
ARM GAS  C:\Users\Dawn\AppData\Local\Temp\ccJQ0Gde.s 			page 2


  34:n32g430_std_periph_driver/src/n32g430_dma.c **** 
  35:n32g430_std_periph_driver/src/n32g430_dma.c **** *     Any express or implied warranty with regard to this software or the Product, including,but no
  36:n32g430_std_periph_driver/src/n32g430_dma.c **** * limited to, the warranties of merchantability, fitness for a particular purpose and non-infringem
  37:n32g430_std_periph_driver/src/n32g430_dma.c **** * are disclaimed to the fullest extent permitted by law.
  38:n32g430_std_periph_driver/src/n32g430_dma.c **** 
  39:n32g430_std_periph_driver/src/n32g430_dma.c **** *     Unless otherwise explicitly permitted by NATIONS, anyone may not duplicate, modify, transcrib
  40:n32g430_std_periph_driver/src/n32g430_dma.c **** * or otherwise distribute this software for any purposes, in whole or in part.
  41:n32g430_std_periph_driver/src/n32g430_dma.c **** *
  42:n32g430_std_periph_driver/src/n32g430_dma.c **** *     NATIONS products and technologies shall not be used for or incorporated into any products or 
  43:n32g430_std_periph_driver/src/n32g430_dma.c **** * whose manufacture, use, or sale is prohibited under any applicable domestic or foreign laws or re
  44:n32g430_std_periph_driver/src/n32g430_dma.c **** * User shall comply with any applicable export control laws and regulations promulgated and adminis
  45:n32g430_std_periph_driver/src/n32g430_dma.c **** * the governments of any countries asserting jurisdiction over the parties or transactions.
  46:n32g430_std_periph_driver/src/n32g430_dma.c **** **/
  47:n32g430_std_periph_driver/src/n32g430_dma.c **** 
  48:n32g430_std_periph_driver/src/n32g430_dma.c **** /**
  49:n32g430_std_periph_driver/src/n32g430_dma.c **** *\*\file n32g430_dma.c
  50:n32g430_std_periph_driver/src/n32g430_dma.c **** *\*\author Nations
  51:n32g430_std_periph_driver/src/n32g430_dma.c **** *\*\version v1.1.0
  52:n32g430_std_periph_driver/src/n32g430_dma.c **** *\*\copyright Copyright (c) 2022, Nations Technologies Inc. All rights reserved.
  53:n32g430_std_periph_driver/src/n32g430_dma.c **** **/
  54:n32g430_std_periph_driver/src/n32g430_dma.c **** 
  55:n32g430_std_periph_driver/src/n32g430_dma.c **** #include "n32g430_dma.h"
  56:n32g430_std_periph_driver/src/n32g430_dma.c **** #include "n32g430_rcc.h"
  57:n32g430_std_periph_driver/src/n32g430_dma.c **** 
  58:n32g430_std_periph_driver/src/n32g430_dma.c **** /** DMA Private Defines **/
  59:n32g430_std_periph_driver/src/n32g430_dma.c **** 
  60:n32g430_std_periph_driver/src/n32g430_dma.c **** 
  61:n32g430_std_periph_driver/src/n32g430_dma.c **** /** DMA Driving Functions Declaration **/
  62:n32g430_std_periph_driver/src/n32g430_dma.c **** 
  63:n32g430_std_periph_driver/src/n32g430_dma.c **** /**
  64:n32g430_std_periph_driver/src/n32g430_dma.c **** *\*\name    DMA_Deinitializes.
  65:n32g430_std_periph_driver/src/n32g430_dma.c **** *\*\fun     Reset DMA Channelx registers.
  66:n32g430_std_periph_driver/src/n32g430_dma.c **** *\*\param   DMAChx :
  67:n32g430_std_periph_driver/src/n32g430_dma.c **** *\*\          - DMA_CH1
  68:n32g430_std_periph_driver/src/n32g430_dma.c **** *\*\          - DMA_CH2
  69:n32g430_std_periph_driver/src/n32g430_dma.c **** *\*\          - DMA_CH3
  70:n32g430_std_periph_driver/src/n32g430_dma.c **** *\*\          - DMA_CH4
  71:n32g430_std_periph_driver/src/n32g430_dma.c **** *\*\          - DMA_CH5
  72:n32g430_std_periph_driver/src/n32g430_dma.c **** *\*\          - DMA_CH6
  73:n32g430_std_periph_driver/src/n32g430_dma.c **** *\*\          - DMA_CH7
  74:n32g430_std_periph_driver/src/n32g430_dma.c **** *\*\          - DMA_CH8
  75:n32g430_std_periph_driver/src/n32g430_dma.c **** *\*\return  none
  76:n32g430_std_periph_driver/src/n32g430_dma.c **** **/
  77:n32g430_std_periph_driver/src/n32g430_dma.c **** void DMA_Reset(DMA_ChannelType* DMAChx)
  78:n32g430_std_periph_driver/src/n32g430_dma.c **** {
  26              		.loc 1 78 1 view -0
  27              		.cfi_startproc
  28              		@ args = 0, pretend = 0, frame = 0
  29              		@ frame_needed = 0, uses_anonymous_args = 0
  30              		@ link register save eliminated.
  79:n32g430_std_periph_driver/src/n32g430_dma.c ****     /* Disable the selected DMA Channelx */
  80:n32g430_std_periph_driver/src/n32g430_dma.c ****     DMAChx->CHCFG &= ~DMA_CHANNEL_ENABLE;
  31              		.loc 1 80 5 view .LVU1
  32              		.loc 1 80 11 is_stmt 0 view .LVU2
  33 0000 0368     		ldr	r3, [r0]
  34              		.loc 1 80 19 view .LVU3
  35 0002 23F00103 		bic	r3, r3, #1
ARM GAS  C:\Users\Dawn\AppData\Local\Temp\ccJQ0Gde.s 			page 3


  36 0006 0360     		str	r3, [r0]
  81:n32g430_std_periph_driver/src/n32g430_dma.c **** 
  82:n32g430_std_periph_driver/src/n32g430_dma.c ****     /* Reset DMA Channelx control register */
  83:n32g430_std_periph_driver/src/n32g430_dma.c ****     DMAChx->CHCFG = 0;
  37              		.loc 1 83 5 is_stmt 1 view .LVU4
  38              		.loc 1 83 19 is_stmt 0 view .LVU5
  39 0008 0023     		movs	r3, #0
  40 000a 0360     		str	r3, [r0]
  84:n32g430_std_periph_driver/src/n32g430_dma.c **** 
  85:n32g430_std_periph_driver/src/n32g430_dma.c ****     /* Reset DMA Channelx remaining bytes register */
  86:n32g430_std_periph_driver/src/n32g430_dma.c ****     DMAChx->TXNUM = 0;
  41              		.loc 1 86 5 is_stmt 1 view .LVU6
  42              		.loc 1 86 19 is_stmt 0 view .LVU7
  43 000c 4360     		str	r3, [r0, #4]
  87:n32g430_std_periph_driver/src/n32g430_dma.c **** 
  88:n32g430_std_periph_driver/src/n32g430_dma.c ****     /* Reset DMA Channelx peripheral address register */
  89:n32g430_std_periph_driver/src/n32g430_dma.c ****     DMAChx->PADDR = 0;
  44              		.loc 1 89 5 is_stmt 1 view .LVU8
  45              		.loc 1 89 19 is_stmt 0 view .LVU9
  46 000e 8360     		str	r3, [r0, #8]
  90:n32g430_std_periph_driver/src/n32g430_dma.c **** 
  91:n32g430_std_periph_driver/src/n32g430_dma.c ****     /* Reset DMA Channelx memory address register */
  92:n32g430_std_periph_driver/src/n32g430_dma.c ****     DMAChx->MADDR = 0;
  47              		.loc 1 92 5 is_stmt 1 view .LVU10
  48              		.loc 1 92 19 is_stmt 0 view .LVU11
  49 0010 C360     		str	r3, [r0, #12]
  93:n32g430_std_periph_driver/src/n32g430_dma.c ****     
  94:n32g430_std_periph_driver/src/n32g430_dma.c ****     if (DMAChx == DMA_CH1)
  50              		.loc 1 94 5 is_stmt 1 view .LVU12
  51              		.loc 1 94 8 is_stmt 0 view .LVU13
  52 0012 1F4B     		ldr	r3, .L18
  53 0014 9842     		cmp	r0, r3
  54 0016 15D0     		beq	.L10
  95:n32g430_std_periph_driver/src/n32g430_dma.c ****     {
  96:n32g430_std_periph_driver/src/n32g430_dma.c ****         /* Reset interrupt pending bits for DMA Channel1 */
  97:n32g430_std_periph_driver/src/n32g430_dma.c ****         DMA->INTCLR = DMA_CH1_INT_MASK;
  98:n32g430_std_periph_driver/src/n32g430_dma.c ****     }
  99:n32g430_std_periph_driver/src/n32g430_dma.c ****     else if (DMAChx == DMA_CH2)
  55              		.loc 1 99 10 is_stmt 1 view .LVU14
  56              		.loc 1 99 13 is_stmt 0 view .LVU15
  57 0018 1E4B     		ldr	r3, .L18+4
  58 001a 9842     		cmp	r0, r3
  59 001c 16D0     		beq	.L11
 100:n32g430_std_periph_driver/src/n32g430_dma.c ****     {
 101:n32g430_std_periph_driver/src/n32g430_dma.c ****         /* Reset interrupt pending bits for DMA Channel2 */
 102:n32g430_std_periph_driver/src/n32g430_dma.c ****         DMA->INTCLR = DMA_CH2_INT_MASK;
 103:n32g430_std_periph_driver/src/n32g430_dma.c ****     }
 104:n32g430_std_periph_driver/src/n32g430_dma.c ****     else if (DMAChx == DMA_CH3)
  60              		.loc 1 104 10 is_stmt 1 view .LVU16
  61              		.loc 1 104 13 is_stmt 0 view .LVU17
  62 001e 1E4B     		ldr	r3, .L18+8
  63 0020 9842     		cmp	r0, r3
  64 0022 17D0     		beq	.L12
 105:n32g430_std_periph_driver/src/n32g430_dma.c ****     {
 106:n32g430_std_periph_driver/src/n32g430_dma.c ****         /* Reset interrupt pending bits for DMA Channel3 */
 107:n32g430_std_periph_driver/src/n32g430_dma.c ****         DMA->INTCLR = DMA_CH3_INT_MASK;
 108:n32g430_std_periph_driver/src/n32g430_dma.c ****     }
ARM GAS  C:\Users\Dawn\AppData\Local\Temp\ccJQ0Gde.s 			page 4


 109:n32g430_std_periph_driver/src/n32g430_dma.c ****     else if (DMAChx == DMA_CH4)
  65              		.loc 1 109 10 is_stmt 1 view .LVU18
  66              		.loc 1 109 13 is_stmt 0 view .LVU19
  67 0024 1D4B     		ldr	r3, .L18+12
  68 0026 9842     		cmp	r0, r3
  69 0028 19D0     		beq	.L13
 110:n32g430_std_periph_driver/src/n32g430_dma.c ****     {
 111:n32g430_std_periph_driver/src/n32g430_dma.c ****         /* Reset interrupt pending bits for DMA Channel4 */
 112:n32g430_std_periph_driver/src/n32g430_dma.c ****         DMA->INTCLR = DMA_CH4_INT_MASK;
 113:n32g430_std_periph_driver/src/n32g430_dma.c ****     }
 114:n32g430_std_periph_driver/src/n32g430_dma.c ****     else if (DMAChx == DMA_CH5)
  70              		.loc 1 114 10 is_stmt 1 view .LVU20
  71              		.loc 1 114 13 is_stmt 0 view .LVU21
  72 002a 1D4B     		ldr	r3, .L18+16
  73 002c 9842     		cmp	r0, r3
  74 002e 1BD0     		beq	.L14
 115:n32g430_std_periph_driver/src/n32g430_dma.c ****     {
 116:n32g430_std_periph_driver/src/n32g430_dma.c ****         /* Reset interrupt pending bits for DMA Channel5 */
 117:n32g430_std_periph_driver/src/n32g430_dma.c ****         DMA->INTCLR = DMA_CH5_INT_MASK;
 118:n32g430_std_periph_driver/src/n32g430_dma.c ****     }
 119:n32g430_std_periph_driver/src/n32g430_dma.c ****     else if (DMAChx == DMA_CH6)
  75              		.loc 1 119 10 is_stmt 1 view .LVU22
  76              		.loc 1 119 13 is_stmt 0 view .LVU23
  77 0030 1C4B     		ldr	r3, .L18+20
  78 0032 9842     		cmp	r0, r3
  79 0034 1DD0     		beq	.L15
 120:n32g430_std_periph_driver/src/n32g430_dma.c ****     {
 121:n32g430_std_periph_driver/src/n32g430_dma.c ****         /* Reset interrupt pending bits for DMA Channel6 */
 122:n32g430_std_periph_driver/src/n32g430_dma.c ****         DMA->INTCLR = DMA_CH6_INT_MASK;
 123:n32g430_std_periph_driver/src/n32g430_dma.c ****     }
 124:n32g430_std_periph_driver/src/n32g430_dma.c ****     else if (DMAChx == DMA_CH7)
  80              		.loc 1 124 10 is_stmt 1 view .LVU24
  81              		.loc 1 124 13 is_stmt 0 view .LVU25
  82 0036 1C4B     		ldr	r3, .L18+24
  83 0038 9842     		cmp	r0, r3
  84 003a 1FD0     		beq	.L16
 125:n32g430_std_periph_driver/src/n32g430_dma.c ****     {
 126:n32g430_std_periph_driver/src/n32g430_dma.c ****         /* Reset interrupt pending bits for DMA Channel7 */
 127:n32g430_std_periph_driver/src/n32g430_dma.c ****         DMA->INTCLR = DMA_CH7_INT_MASK;
 128:n32g430_std_periph_driver/src/n32g430_dma.c ****     }
 129:n32g430_std_periph_driver/src/n32g430_dma.c ****     else if (DMAChx == DMA_CH8)
  85              		.loc 1 129 10 is_stmt 1 view .LVU26
  86              		.loc 1 129 13 is_stmt 0 view .LVU27
  87 003c 1B4B     		ldr	r3, .L18+28
  88 003e 9842     		cmp	r0, r3
  89 0040 21D0     		beq	.L17
  90              	.L1:
 130:n32g430_std_periph_driver/src/n32g430_dma.c ****     {
 131:n32g430_std_periph_driver/src/n32g430_dma.c ****         /* Reset interrupt pending bits for DMA Channel8 */
 132:n32g430_std_periph_driver/src/n32g430_dma.c ****         DMA->INTCLR = DMA_CH8_INT_MASK;
 133:n32g430_std_periph_driver/src/n32g430_dma.c ****     }
 134:n32g430_std_periph_driver/src/n32g430_dma.c **** }
  91              		.loc 1 134 1 view .LVU28
  92 0042 7047     		bx	lr
  93              	.L10:
  97:n32g430_std_periph_driver/src/n32g430_dma.c ****     }
  94              		.loc 1 97 9 is_stmt 1 view .LVU29
ARM GAS  C:\Users\Dawn\AppData\Local\Temp\ccJQ0Gde.s 			page 5


  97:n32g430_std_periph_driver/src/n32g430_dma.c ****     }
  95              		.loc 1 97 21 is_stmt 0 view .LVU30
  96 0044 083B     		subs	r3, r3, #8
  97 0046 0F22     		movs	r2, #15
  98 0048 5A60     		str	r2, [r3, #4]
  99 004a 7047     		bx	lr
 100              	.L11:
 102:n32g430_std_periph_driver/src/n32g430_dma.c ****     }
 101              		.loc 1 102 9 is_stmt 1 view .LVU31
 102:n32g430_std_periph_driver/src/n32g430_dma.c ****     }
 102              		.loc 1 102 21 is_stmt 0 view .LVU32
 103 004c 1C3B     		subs	r3, r3, #28
 104 004e F022     		movs	r2, #240
 105 0050 5A60     		str	r2, [r3, #4]
 106 0052 7047     		bx	lr
 107              	.L12:
 107:n32g430_std_periph_driver/src/n32g430_dma.c ****     }
 108              		.loc 1 107 9 is_stmt 1 view .LVU33
 107:n32g430_std_periph_driver/src/n32g430_dma.c ****     }
 109              		.loc 1 107 21 is_stmt 0 view .LVU34
 110 0054 303B     		subs	r3, r3, #48
 111 0056 4FF47062 		mov	r2, #3840
 112 005a 5A60     		str	r2, [r3, #4]
 113 005c 7047     		bx	lr
 114              	.L13:
 112:n32g430_std_periph_driver/src/n32g430_dma.c ****     }
 115              		.loc 1 112 9 is_stmt 1 view .LVU35
 112:n32g430_std_periph_driver/src/n32g430_dma.c ****     }
 116              		.loc 1 112 21 is_stmt 0 view .LVU36
 117 005e 443B     		subs	r3, r3, #68
 118 0060 4FF47042 		mov	r2, #61440
 119 0064 5A60     		str	r2, [r3, #4]
 120 0066 7047     		bx	lr
 121              	.L14:
 117:n32g430_std_periph_driver/src/n32g430_dma.c ****     }
 122              		.loc 1 117 9 is_stmt 1 view .LVU37
 117:n32g430_std_periph_driver/src/n32g430_dma.c ****     }
 123              		.loc 1 117 21 is_stmt 0 view .LVU38
 124 0068 583B     		subs	r3, r3, #88
 125 006a 4FF47022 		mov	r2, #983040
 126 006e 5A60     		str	r2, [r3, #4]
 127 0070 7047     		bx	lr
 128              	.L15:
 122:n32g430_std_periph_driver/src/n32g430_dma.c ****     }
 129              		.loc 1 122 9 is_stmt 1 view .LVU39
 122:n32g430_std_periph_driver/src/n32g430_dma.c ****     }
 130              		.loc 1 122 21 is_stmt 0 view .LVU40
 131 0072 6C3B     		subs	r3, r3, #108
 132 0074 4FF47002 		mov	r2, #15728640
 133 0078 5A60     		str	r2, [r3, #4]
 134 007a 7047     		bx	lr
 135              	.L16:
 127:n32g430_std_periph_driver/src/n32g430_dma.c ****     }
 136              		.loc 1 127 9 is_stmt 1 view .LVU41
 127:n32g430_std_periph_driver/src/n32g430_dma.c ****     }
 137              		.loc 1 127 21 is_stmt 0 view .LVU42
 138 007c 803B     		subs	r3, r3, #128
ARM GAS  C:\Users\Dawn\AppData\Local\Temp\ccJQ0Gde.s 			page 6


 139 007e 4FF07062 		mov	r2, #251658240
 140 0082 5A60     		str	r2, [r3, #4]
 141 0084 7047     		bx	lr
 142              	.L17:
 132:n32g430_std_periph_driver/src/n32g430_dma.c ****     }
 143              		.loc 1 132 9 is_stmt 1 view .LVU43
 132:n32g430_std_periph_driver/src/n32g430_dma.c ****     }
 144              		.loc 1 132 21 is_stmt 0 view .LVU44
 145 0086 943B     		subs	r3, r3, #148
 146 0088 4FF07042 		mov	r2, #-268435456
 147 008c 5A60     		str	r2, [r3, #4]
 148              		.loc 1 134 1 view .LVU45
 149 008e D8E7     		b	.L1
 150              	.L19:
 151              		.align	2
 152              	.L18:
 153 0090 08000240 		.word	1073872904
 154 0094 1C000240 		.word	1073872924
 155 0098 30000240 		.word	1073872944
 156 009c 44000240 		.word	1073872964
 157 00a0 58000240 		.word	1073872984
 158 00a4 6C000240 		.word	1073873004
 159 00a8 80000240 		.word	1073873024
 160 00ac 94000240 		.word	1073873044
 161              		.cfi_endproc
 162              	.LFE123:
 164              		.section	.text.DMA_Peripheral_Address_Config,"ax",%progbits
 165              		.align	1
 166              		.global	DMA_Peripheral_Address_Config
 167              		.syntax unified
 168              		.thumb
 169              		.thumb_func
 171              	DMA_Peripheral_Address_Config:
 172              	.LVL1:
 173              	.LFB125:
 135:n32g430_std_periph_driver/src/n32g430_dma.c **** 
 136:n32g430_std_periph_driver/src/n32g430_dma.c **** /**
 137:n32g430_std_periph_driver/src/n32g430_dma.c **** *\*\name    DMA_Initializes.
 138:n32g430_std_periph_driver/src/n32g430_dma.c **** *\*\fun     Initializes the DMA Channelx according to DMA_InitParam.
 139:n32g430_std_periph_driver/src/n32g430_dma.c **** *\*\param   DMAChx :
 140:n32g430_std_periph_driver/src/n32g430_dma.c **** *\*\          - DMA_CH1
 141:n32g430_std_periph_driver/src/n32g430_dma.c **** *\*\          - DMA_CH2
 142:n32g430_std_periph_driver/src/n32g430_dma.c **** *\*\          - DMA_CH3
 143:n32g430_std_periph_driver/src/n32g430_dma.c **** *\*\          - DMA_CH4
 144:n32g430_std_periph_driver/src/n32g430_dma.c **** *\*\          - DMA_CH5
 145:n32g430_std_periph_driver/src/n32g430_dma.c **** *\*\          - DMA_CH6
 146:n32g430_std_periph_driver/src/n32g430_dma.c **** *\*\          - DMA_CH7
 147:n32g430_std_periph_driver/src/n32g430_dma.c **** *\*\          - DMA_CH8
 148:n32g430_std_periph_driver/src/n32g430_dma.c **** *\*\param   DMA_InitParam :
 149:n32g430_std_periph_driver/src/n32g430_dma.c **** *\*\          - PeriphAddr
 150:n32g430_std_periph_driver/src/n32g430_dma.c **** *\*\          - MemAddr
 151:n32g430_std_periph_driver/src/n32g430_dma.c **** *\*\          - Direction
 152:n32g430_std_periph_driver/src/n32g430_dma.c **** *\*\            - DMA_DIR_PERIPH_DST
 153:n32g430_std_periph_driver/src/n32g430_dma.c **** *\*\            - DMA_DIR_PERIPH_SRC
 154:n32g430_std_periph_driver/src/n32g430_dma.c **** *\*\          - BufSize
 155:n32g430_std_periph_driver/src/n32g430_dma.c **** *\*\          - PeriphInc
 156:n32g430_std_periph_driver/src/n32g430_dma.c **** *\*\            - DMA_PERIPH_INC_MODE_ENABLE
ARM GAS  C:\Users\Dawn\AppData\Local\Temp\ccJQ0Gde.s 			page 7


 157:n32g430_std_periph_driver/src/n32g430_dma.c **** *\*\            - DMA_PERIPH_INC_MODE_DISABLE
 158:n32g430_std_periph_driver/src/n32g430_dma.c **** *\*\          - MemoryInc
 159:n32g430_std_periph_driver/src/n32g430_dma.c **** *\*\            - DMA_MEM_INC_MODE_ENABLE
 160:n32g430_std_periph_driver/src/n32g430_dma.c **** *\*\            - DMA_MEM_INC_MODE_DISABLE
 161:n32g430_std_periph_driver/src/n32g430_dma.c **** *\*\          - PeriphDataSize
 162:n32g430_std_periph_driver/src/n32g430_dma.c **** *\*\            - DMA_PERIPH_DATA_WIDTH_BYTE
 163:n32g430_std_periph_driver/src/n32g430_dma.c **** *\*\            - DMA_PERIPH_DATA_WIDTH_HALFWORD
 164:n32g430_std_periph_driver/src/n32g430_dma.c **** *\*\            - DMA_PERIPH_DATA_WIDTH_WORD
 165:n32g430_std_periph_driver/src/n32g430_dma.c **** *\*\          - MemDataSize
 166:n32g430_std_periph_driver/src/n32g430_dma.c **** *\*\            - DMA_MEM_DATA_WIDTH_BYTE
 167:n32g430_std_periph_driver/src/n32g430_dma.c **** *\*\            - DMA_MEM_DATA_WIDTH_HALFWORD
 168:n32g430_std_periph_driver/src/n32g430_dma.c **** *\*\            - DMA_MEM_DATA_WIDTH_WORD
 169:n32g430_std_periph_driver/src/n32g430_dma.c **** *\*\          - CircularMode
 170:n32g430_std_periph_driver/src/n32g430_dma.c **** *\*\            - DMA_CIRCULAR_MODE_ENABLE
 171:n32g430_std_periph_driver/src/n32g430_dma.c **** *\*\            - DMA_CIRCULAR_MODE_DISABLE
 172:n32g430_std_periph_driver/src/n32g430_dma.c **** *\*\          - Priority
 173:n32g430_std_periph_driver/src/n32g430_dma.c **** *\*\            - DMA_CH_PRIORITY_HIGHEST
 174:n32g430_std_periph_driver/src/n32g430_dma.c **** *\*\            - DMA_CH_PRIORITY_HIGH
 175:n32g430_std_periph_driver/src/n32g430_dma.c **** *\*\            - DMA_CH_PRIORITY_MEDIUM
 176:n32g430_std_periph_driver/src/n32g430_dma.c **** *\*\            - DMA_CH_PRIORITY_LOW
 177:n32g430_std_periph_driver/src/n32g430_dma.c **** *\*\          - Mem2Mem
 178:n32g430_std_periph_driver/src/n32g430_dma.c **** *\*\            - DMA_MEM2MEM_ENABLE
 179:n32g430_std_periph_driver/src/n32g430_dma.c **** *\*\            - DMA_MEM2MEM_DISABLE
 180:n32g430_std_periph_driver/src/n32g430_dma.c **** *\*\return  none
 181:n32g430_std_periph_driver/src/n32g430_dma.c **** **/
 182:n32g430_std_periph_driver/src/n32g430_dma.c **** void DMA_Initializes(DMA_ChannelType* DMAChx, DMA_InitType* DMA_InitParam)
 183:n32g430_std_periph_driver/src/n32g430_dma.c **** {
 184:n32g430_std_periph_driver/src/n32g430_dma.c ****     DMA_Peripheral_Address_Config(DMAChx, DMA_InitParam->PeriphAddr);
 185:n32g430_std_periph_driver/src/n32g430_dma.c ****     DMA_Memory_Address_Config(DMAChx, DMA_InitParam->MemAddr);
 186:n32g430_std_periph_driver/src/n32g430_dma.c ****     DMA_Destination_Config(DMAChx, DMA_InitParam->Direction);
 187:n32g430_std_periph_driver/src/n32g430_dma.c ****     DMA_Buffer_Size_Config(DMAChx, DMA_InitParam->BufSize);
 188:n32g430_std_periph_driver/src/n32g430_dma.c ****     DMA_Peripheral_Addr_Increment_Config(DMAChx, DMA_InitParam->PeriphInc);
 189:n32g430_std_periph_driver/src/n32g430_dma.c ****     DMA_Memory_Addr_Increment_Config(DMAChx, DMA_InitParam->MemoryInc);
 190:n32g430_std_periph_driver/src/n32g430_dma.c ****     DMA_Peripheral_Data_Width_Config(DMAChx, DMA_InitParam->PeriphDataSize);
 191:n32g430_std_periph_driver/src/n32g430_dma.c ****     DMA_Memory_Data_Width_Config(DMAChx, DMA_InitParam->MemDataSize);
 192:n32g430_std_periph_driver/src/n32g430_dma.c ****     DMA_Circular_Mode_Config(DMAChx, DMA_InitParam->CircularMode);
 193:n32g430_std_periph_driver/src/n32g430_dma.c ****     DMA_Priority_Config(DMAChx, DMA_InitParam->Priority);
 194:n32g430_std_periph_driver/src/n32g430_dma.c ****     DMA_Memory_2_Memory_Config(DMAChx, DMA_InitParam->Mem2Mem);
 195:n32g430_std_periph_driver/src/n32g430_dma.c **** }
 196:n32g430_std_periph_driver/src/n32g430_dma.c **** 
 197:n32g430_std_periph_driver/src/n32g430_dma.c **** /**
 198:n32g430_std_periph_driver/src/n32g430_dma.c **** *\*\name    DMA_Peripheral_Address_Config.
 199:n32g430_std_periph_driver/src/n32g430_dma.c **** *\*\fun     Initializes the DMA Channelx peripheral address.
 200:n32g430_std_periph_driver/src/n32g430_dma.c **** *\*\param   DMAChx :
 201:n32g430_std_periph_driver/src/n32g430_dma.c **** *\*\          - DMA_CH1
 202:n32g430_std_periph_driver/src/n32g430_dma.c **** *\*\          - DMA_CH2
 203:n32g430_std_periph_driver/src/n32g430_dma.c **** *\*\          - DMA_CH3
 204:n32g430_std_periph_driver/src/n32g430_dma.c **** *\*\          - DMA_CH4
 205:n32g430_std_periph_driver/src/n32g430_dma.c **** *\*\          - DMA_CH5
 206:n32g430_std_periph_driver/src/n32g430_dma.c **** *\*\          - DMA_CH6
 207:n32g430_std_periph_driver/src/n32g430_dma.c **** *\*\          - DMA_CH7
 208:n32g430_std_periph_driver/src/n32g430_dma.c **** *\*\          - DMA_CH8
 209:n32g430_std_periph_driver/src/n32g430_dma.c **** *\*\param   addr :
 210:n32g430_std_periph_driver/src/n32g430_dma.c **** *\*\return  none
 211:n32g430_std_periph_driver/src/n32g430_dma.c **** **/
 212:n32g430_std_periph_driver/src/n32g430_dma.c **** void DMA_Peripheral_Address_Config(DMA_ChannelType* DMAChx, uint32_t addr)
 213:n32g430_std_periph_driver/src/n32g430_dma.c **** {
ARM GAS  C:\Users\Dawn\AppData\Local\Temp\ccJQ0Gde.s 			page 8


 174              		.loc 1 213 1 is_stmt 1 view -0
 175              		.cfi_startproc
 176              		@ args = 0, pretend = 0, frame = 0
 177              		@ frame_needed = 0, uses_anonymous_args = 0
 178              		@ link register save eliminated.
 214:n32g430_std_periph_driver/src/n32g430_dma.c ****     /* Write to DMA Channelx PADDR */
 215:n32g430_std_periph_driver/src/n32g430_dma.c ****     DMAChx->PADDR = addr;
 179              		.loc 1 215 5 view .LVU47
 180              		.loc 1 215 19 is_stmt 0 view .LVU48
 181 0000 8160     		str	r1, [r0, #8]
 216:n32g430_std_periph_driver/src/n32g430_dma.c **** }
 182              		.loc 1 216 1 view .LVU49
 183 0002 7047     		bx	lr
 184              		.cfi_endproc
 185              	.LFE125:
 187              		.section	.text.DMA_Memory_Address_Config,"ax",%progbits
 188              		.align	1
 189              		.global	DMA_Memory_Address_Config
 190              		.syntax unified
 191              		.thumb
 192              		.thumb_func
 194              	DMA_Memory_Address_Config:
 195              	.LVL2:
 196              	.LFB126:
 217:n32g430_std_periph_driver/src/n32g430_dma.c **** 
 218:n32g430_std_periph_driver/src/n32g430_dma.c **** /**
 219:n32g430_std_periph_driver/src/n32g430_dma.c **** *\*\name    DMA_Memory_Address_Config.
 220:n32g430_std_periph_driver/src/n32g430_dma.c **** *\*\fun     Initializes the DMA Channelx memory address.
 221:n32g430_std_periph_driver/src/n32g430_dma.c **** *\*\param   DMAChx :
 222:n32g430_std_periph_driver/src/n32g430_dma.c **** *\*\          - DMA_CH1
 223:n32g430_std_periph_driver/src/n32g430_dma.c **** *\*\          - DMA_CH2
 224:n32g430_std_periph_driver/src/n32g430_dma.c **** *\*\          - DMA_CH3
 225:n32g430_std_periph_driver/src/n32g430_dma.c **** *\*\          - DMA_CH4
 226:n32g430_std_periph_driver/src/n32g430_dma.c **** *\*\          - DMA_CH5
 227:n32g430_std_periph_driver/src/n32g430_dma.c **** *\*\          - DMA_CH6
 228:n32g430_std_periph_driver/src/n32g430_dma.c **** *\*\          - DMA_CH7
 229:n32g430_std_periph_driver/src/n32g430_dma.c **** *\*\          - DMA_CH8
 230:n32g430_std_periph_driver/src/n32g430_dma.c **** *\*\param   addr :
 231:n32g430_std_periph_driver/src/n32g430_dma.c **** *\*\return  none
 232:n32g430_std_periph_driver/src/n32g430_dma.c **** **/
 233:n32g430_std_periph_driver/src/n32g430_dma.c **** void DMA_Memory_Address_Config(DMA_ChannelType* DMAChx, uint32_t addr)
 234:n32g430_std_periph_driver/src/n32g430_dma.c **** {
 197              		.loc 1 234 1 is_stmt 1 view -0
 198              		.cfi_startproc
 199              		@ args = 0, pretend = 0, frame = 0
 200              		@ frame_needed = 0, uses_anonymous_args = 0
 201              		@ link register save eliminated.
 235:n32g430_std_periph_driver/src/n32g430_dma.c ****     /* Write to DMA Channelx MADDR */
 236:n32g430_std_periph_driver/src/n32g430_dma.c ****     DMAChx->MADDR = addr;
 202              		.loc 1 236 5 view .LVU51
 203              		.loc 1 236 19 is_stmt 0 view .LVU52
 204 0000 C160     		str	r1, [r0, #12]
 237:n32g430_std_periph_driver/src/n32g430_dma.c **** }
 205              		.loc 1 237 1 view .LVU53
 206 0002 7047     		bx	lr
 207              		.cfi_endproc
 208              	.LFE126:
ARM GAS  C:\Users\Dawn\AppData\Local\Temp\ccJQ0Gde.s 			page 9


 210              		.section	.text.DMA_Destination_Config,"ax",%progbits
 211              		.align	1
 212              		.global	DMA_Destination_Config
 213              		.syntax unified
 214              		.thumb
 215              		.thumb_func
 217              	DMA_Destination_Config:
 218              	.LVL3:
 219              	.LFB127:
 238:n32g430_std_periph_driver/src/n32g430_dma.c **** 
 239:n32g430_std_periph_driver/src/n32g430_dma.c **** /**
 240:n32g430_std_periph_driver/src/n32g430_dma.c **** *\*\name    DMA_Destination_Config.
 241:n32g430_std_periph_driver/src/n32g430_dma.c **** *\*\fun     Initializes the DMA Channelx Direction value.
 242:n32g430_std_periph_driver/src/n32g430_dma.c **** *\*\param   DMAChx :
 243:n32g430_std_periph_driver/src/n32g430_dma.c **** *\*\          - DMA_CH1
 244:n32g430_std_periph_driver/src/n32g430_dma.c **** *\*\          - DMA_CH2
 245:n32g430_std_periph_driver/src/n32g430_dma.c **** *\*\          - DMA_CH3
 246:n32g430_std_periph_driver/src/n32g430_dma.c **** *\*\          - DMA_CH4
 247:n32g430_std_periph_driver/src/n32g430_dma.c **** *\*\          - DMA_CH5
 248:n32g430_std_periph_driver/src/n32g430_dma.c **** *\*\          - DMA_CH6
 249:n32g430_std_periph_driver/src/n32g430_dma.c **** *\*\          - DMA_CH7
 250:n32g430_std_periph_driver/src/n32g430_dma.c **** *\*\          - DMA_CH8
 251:n32g430_std_periph_driver/src/n32g430_dma.c **** *\*\param   direction :
 252:n32g430_std_periph_driver/src/n32g430_dma.c **** *\*\          - DMA_DIR_PERIPH_DST
 253:n32g430_std_periph_driver/src/n32g430_dma.c **** *\*\          - DMA_DIR_PERIPH_SRC
 254:n32g430_std_periph_driver/src/n32g430_dma.c **** *\*\return  none
 255:n32g430_std_periph_driver/src/n32g430_dma.c **** **/
 256:n32g430_std_periph_driver/src/n32g430_dma.c **** void DMA_Destination_Config(DMA_ChannelType* DMAChx, uint32_t direction)
 257:n32g430_std_periph_driver/src/n32g430_dma.c **** {
 220              		.loc 1 257 1 is_stmt 1 view -0
 221              		.cfi_startproc
 222              		@ args = 0, pretend = 0, frame = 0
 223              		@ frame_needed = 0, uses_anonymous_args = 0
 224              		@ link register save eliminated.
 258:n32g430_std_periph_driver/src/n32g430_dma.c ****     /* Clear DMAChx_CHCFG DIR bits */
 259:n32g430_std_periph_driver/src/n32g430_dma.c ****     DMAChx->CHCFG &= DMA_DIR_PERIPH_MASK;
 225              		.loc 1 259 5 view .LVU55
 226              		.loc 1 259 11 is_stmt 0 view .LVU56
 227 0000 0368     		ldr	r3, [r0]
 228              		.loc 1 259 19 view .LVU57
 229 0002 23F01003 		bic	r3, r3, #16
 230 0006 0360     		str	r3, [r0]
 260:n32g430_std_periph_driver/src/n32g430_dma.c ****     /* Set DMAChx_CHCFG DIR bits */
 261:n32g430_std_periph_driver/src/n32g430_dma.c ****     DMAChx->CHCFG |= direction;
 231              		.loc 1 261 5 is_stmt 1 view .LVU58
 232              		.loc 1 261 11 is_stmt 0 view .LVU59
 233 0008 0368     		ldr	r3, [r0]
 234              		.loc 1 261 19 view .LVU60
 235 000a 0B43     		orrs	r3, r3, r1
 236 000c 0360     		str	r3, [r0]
 262:n32g430_std_periph_driver/src/n32g430_dma.c **** }
 237              		.loc 1 262 1 view .LVU61
 238 000e 7047     		bx	lr
 239              		.cfi_endproc
 240              	.LFE127:
 242              		.section	.text.DMA_Buffer_Size_Config,"ax",%progbits
 243              		.align	1
ARM GAS  C:\Users\Dawn\AppData\Local\Temp\ccJQ0Gde.s 			page 10


 244              		.global	DMA_Buffer_Size_Config
 245              		.syntax unified
 246              		.thumb
 247              		.thumb_func
 249              	DMA_Buffer_Size_Config:
 250              	.LVL4:
 251              	.LFB128:
 263:n32g430_std_periph_driver/src/n32g430_dma.c **** 
 264:n32g430_std_periph_driver/src/n32g430_dma.c **** /**
 265:n32g430_std_periph_driver/src/n32g430_dma.c **** *\*\name    DMA_Buffer_Size_Config.
 266:n32g430_std_periph_driver/src/n32g430_dma.c **** *\*\fun     Initializes the DMA Channelx buffer size.
 267:n32g430_std_periph_driver/src/n32g430_dma.c **** *\*\param   DMAChx :
 268:n32g430_std_periph_driver/src/n32g430_dma.c **** *\*\          - DMA_CH1
 269:n32g430_std_periph_driver/src/n32g430_dma.c **** *\*\          - DMA_CH2
 270:n32g430_std_periph_driver/src/n32g430_dma.c **** *\*\          - DMA_CH3
 271:n32g430_std_periph_driver/src/n32g430_dma.c **** *\*\          - DMA_CH4
 272:n32g430_std_periph_driver/src/n32g430_dma.c **** *\*\          - DMA_CH5
 273:n32g430_std_periph_driver/src/n32g430_dma.c **** *\*\          - DMA_CH6
 274:n32g430_std_periph_driver/src/n32g430_dma.c **** *\*\          - DMA_CH7
 275:n32g430_std_periph_driver/src/n32g430_dma.c **** *\*\          - DMA_CH8
 276:n32g430_std_periph_driver/src/n32g430_dma.c **** *\*\param   buf_size :
 277:n32g430_std_periph_driver/src/n32g430_dma.c **** *\*\return  none
 278:n32g430_std_periph_driver/src/n32g430_dma.c **** **/
 279:n32g430_std_periph_driver/src/n32g430_dma.c **** void DMA_Buffer_Size_Config(DMA_ChannelType* DMAChx, uint32_t buf_size)
 280:n32g430_std_periph_driver/src/n32g430_dma.c **** {
 252              		.loc 1 280 1 is_stmt 1 view -0
 253              		.cfi_startproc
 254              		@ args = 0, pretend = 0, frame = 0
 255              		@ frame_needed = 0, uses_anonymous_args = 0
 256              		@ link register save eliminated.
 281:n32g430_std_periph_driver/src/n32g430_dma.c ****     /* Write to DMA Channelx TXNUM */
 282:n32g430_std_periph_driver/src/n32g430_dma.c ****     DMAChx->TXNUM = buf_size;
 257              		.loc 1 282 5 view .LVU63
 258              		.loc 1 282 19 is_stmt 0 view .LVU64
 259 0000 4160     		str	r1, [r0, #4]
 283:n32g430_std_periph_driver/src/n32g430_dma.c **** }
 260              		.loc 1 283 1 view .LVU65
 261 0002 7047     		bx	lr
 262              		.cfi_endproc
 263              	.LFE128:
 265              		.section	.text.DMA_Peripheral_Addr_Increment_Config,"ax",%progbits
 266              		.align	1
 267              		.global	DMA_Peripheral_Addr_Increment_Config
 268              		.syntax unified
 269              		.thumb
 270              		.thumb_func
 272              	DMA_Peripheral_Addr_Increment_Config:
 273              	.LVL5:
 274              	.LFB129:
 284:n32g430_std_periph_driver/src/n32g430_dma.c **** 
 285:n32g430_std_periph_driver/src/n32g430_dma.c **** /**
 286:n32g430_std_periph_driver/src/n32g430_dma.c **** *\*\name    DMA_Peripheral_Addr_Increment_Config.
 287:n32g430_std_periph_driver/src/n32g430_dma.c **** *\*\fun     Initializes the DMA Channelx PeriphInc value.
 288:n32g430_std_periph_driver/src/n32g430_dma.c **** *\*\param   DMAChx :
 289:n32g430_std_periph_driver/src/n32g430_dma.c **** *\*\          - DMA_CH1
 290:n32g430_std_periph_driver/src/n32g430_dma.c **** *\*\          - DMA_CH2
 291:n32g430_std_periph_driver/src/n32g430_dma.c **** *\*\          - DMA_CH3
ARM GAS  C:\Users\Dawn\AppData\Local\Temp\ccJQ0Gde.s 			page 11


 292:n32g430_std_periph_driver/src/n32g430_dma.c **** *\*\          - DMA_CH4
 293:n32g430_std_periph_driver/src/n32g430_dma.c **** *\*\          - DMA_CH5
 294:n32g430_std_periph_driver/src/n32g430_dma.c **** *\*\          - DMA_CH6
 295:n32g430_std_periph_driver/src/n32g430_dma.c **** *\*\          - DMA_CH7
 296:n32g430_std_periph_driver/src/n32g430_dma.c **** *\*\          - DMA_CH8
 297:n32g430_std_periph_driver/src/n32g430_dma.c **** *\*\param   periph_inc :
 298:n32g430_std_periph_driver/src/n32g430_dma.c **** *\*\          - DMA_PERIPH_INC_MODE_ENABLE
 299:n32g430_std_periph_driver/src/n32g430_dma.c **** *\*\          - DMA_PERIPH_INC_MODE_DISABLE
 300:n32g430_std_periph_driver/src/n32g430_dma.c **** *\*\return  none
 301:n32g430_std_periph_driver/src/n32g430_dma.c **** **/
 302:n32g430_std_periph_driver/src/n32g430_dma.c **** void DMA_Peripheral_Addr_Increment_Config(DMA_ChannelType* DMAChx, uint32_t periph_inc)
 303:n32g430_std_periph_driver/src/n32g430_dma.c **** {
 275              		.loc 1 303 1 is_stmt 1 view -0
 276              		.cfi_startproc
 277              		@ args = 0, pretend = 0, frame = 0
 278              		@ frame_needed = 0, uses_anonymous_args = 0
 279              		@ link register save eliminated.
 304:n32g430_std_periph_driver/src/n32g430_dma.c ****     /* Clear DMAChx_CHCFG PINC bits */
 305:n32g430_std_periph_driver/src/n32g430_dma.c ****     DMAChx->CHCFG &= DMA_PERIPH_INC_MODE_MASK;
 280              		.loc 1 305 5 view .LVU67
 281              		.loc 1 305 11 is_stmt 0 view .LVU68
 282 0000 0368     		ldr	r3, [r0]
 283              		.loc 1 305 19 view .LVU69
 284 0002 23F04003 		bic	r3, r3, #64
 285 0006 0360     		str	r3, [r0]
 306:n32g430_std_periph_driver/src/n32g430_dma.c ****     /* Set DMAChx_CHCFG PINC bits */
 307:n32g430_std_periph_driver/src/n32g430_dma.c ****     DMAChx->CHCFG |= periph_inc;
 286              		.loc 1 307 5 is_stmt 1 view .LVU70
 287              		.loc 1 307 11 is_stmt 0 view .LVU71
 288 0008 0368     		ldr	r3, [r0]
 289              		.loc 1 307 19 view .LVU72
 290 000a 0B43     		orrs	r3, r3, r1
 291 000c 0360     		str	r3, [r0]
 308:n32g430_std_periph_driver/src/n32g430_dma.c **** }
 292              		.loc 1 308 1 view .LVU73
 293 000e 7047     		bx	lr
 294              		.cfi_endproc
 295              	.LFE129:
 297              		.section	.text.DMA_Memory_Addr_Increment_Config,"ax",%progbits
 298              		.align	1
 299              		.global	DMA_Memory_Addr_Increment_Config
 300              		.syntax unified
 301              		.thumb
 302              		.thumb_func
 304              	DMA_Memory_Addr_Increment_Config:
 305              	.LVL6:
 306              	.LFB130:
 309:n32g430_std_periph_driver/src/n32g430_dma.c **** 
 310:n32g430_std_periph_driver/src/n32g430_dma.c **** /**
 311:n32g430_std_periph_driver/src/n32g430_dma.c **** *\*\name    DMA_Memory_Addr_Increment_Config.
 312:n32g430_std_periph_driver/src/n32g430_dma.c **** *\*\fun     Initializes the DMA Channelx DMA_MemoryInc value.
 313:n32g430_std_periph_driver/src/n32g430_dma.c **** *\*\param   DMAChx :
 314:n32g430_std_periph_driver/src/n32g430_dma.c **** *\*\          - DMA_CH1
 315:n32g430_std_periph_driver/src/n32g430_dma.c **** *\*\          - DMA_CH2
 316:n32g430_std_periph_driver/src/n32g430_dma.c **** *\*\          - DMA_CH3
 317:n32g430_std_periph_driver/src/n32g430_dma.c **** *\*\          - DMA_CH4
 318:n32g430_std_periph_driver/src/n32g430_dma.c **** *\*\          - DMA_CH5
ARM GAS  C:\Users\Dawn\AppData\Local\Temp\ccJQ0Gde.s 			page 12


 319:n32g430_std_periph_driver/src/n32g430_dma.c **** *\*\          - DMA_CH6
 320:n32g430_std_periph_driver/src/n32g430_dma.c **** *\*\          - DMA_CH7
 321:n32g430_std_periph_driver/src/n32g430_dma.c **** *\*\          - DMA_CH8
 322:n32g430_std_periph_driver/src/n32g430_dma.c **** *\*\param   memory_inc :
 323:n32g430_std_periph_driver/src/n32g430_dma.c **** *\*\          - DMA_MEM_INC_MODE_ENABLE
 324:n32g430_std_periph_driver/src/n32g430_dma.c **** *\*\          - DMA_MEM_INC_MODE_DISABLE
 325:n32g430_std_periph_driver/src/n32g430_dma.c **** *\*\return  none
 326:n32g430_std_periph_driver/src/n32g430_dma.c **** **/
 327:n32g430_std_periph_driver/src/n32g430_dma.c **** void DMA_Memory_Addr_Increment_Config(DMA_ChannelType* DMAChx, uint32_t memory_inc)
 328:n32g430_std_periph_driver/src/n32g430_dma.c **** {
 307              		.loc 1 328 1 is_stmt 1 view -0
 308              		.cfi_startproc
 309              		@ args = 0, pretend = 0, frame = 0
 310              		@ frame_needed = 0, uses_anonymous_args = 0
 311              		@ link register save eliminated.
 329:n32g430_std_periph_driver/src/n32g430_dma.c ****     /* Clear DMAChx_CHCFG MINC bits */
 330:n32g430_std_periph_driver/src/n32g430_dma.c ****     DMAChx->CHCFG &= DMA_MEM_INC_MODE_MASK;
 312              		.loc 1 330 5 view .LVU75
 313              		.loc 1 330 11 is_stmt 0 view .LVU76
 314 0000 0368     		ldr	r3, [r0]
 315              		.loc 1 330 19 view .LVU77
 316 0002 23F08003 		bic	r3, r3, #128
 317 0006 0360     		str	r3, [r0]
 331:n32g430_std_periph_driver/src/n32g430_dma.c ****     /* Set DMAChx_CHCFG MINC bits */
 332:n32g430_std_periph_driver/src/n32g430_dma.c ****     DMAChx->CHCFG |= memory_inc;
 318              		.loc 1 332 5 is_stmt 1 view .LVU78
 319              		.loc 1 332 11 is_stmt 0 view .LVU79
 320 0008 0368     		ldr	r3, [r0]
 321              		.loc 1 332 19 view .LVU80
 322 000a 0B43     		orrs	r3, r3, r1
 323 000c 0360     		str	r3, [r0]
 333:n32g430_std_periph_driver/src/n32g430_dma.c **** }
 324              		.loc 1 333 1 view .LVU81
 325 000e 7047     		bx	lr
 326              		.cfi_endproc
 327              	.LFE130:
 329              		.section	.text.DMA_Peripheral_Data_Width_Config,"ax",%progbits
 330              		.align	1
 331              		.global	DMA_Peripheral_Data_Width_Config
 332              		.syntax unified
 333              		.thumb
 334              		.thumb_func
 336              	DMA_Peripheral_Data_Width_Config:
 337              	.LVL7:
 338              	.LFB131:
 334:n32g430_std_periph_driver/src/n32g430_dma.c **** 
 335:n32g430_std_periph_driver/src/n32g430_dma.c **** /**
 336:n32g430_std_periph_driver/src/n32g430_dma.c **** *\*\name    DMA_Peripheral_Data_Width_Config.
 337:n32g430_std_periph_driver/src/n32g430_dma.c **** *\*\fun     Initializes the DMA Channelx PeriphDataSize value.
 338:n32g430_std_periph_driver/src/n32g430_dma.c **** *\*\param   DMAChx :
 339:n32g430_std_periph_driver/src/n32g430_dma.c **** *\*\          - DMA_CH1
 340:n32g430_std_periph_driver/src/n32g430_dma.c **** *\*\          - DMA_CH2
 341:n32g430_std_periph_driver/src/n32g430_dma.c **** *\*\          - DMA_CH3
 342:n32g430_std_periph_driver/src/n32g430_dma.c **** *\*\          - DMA_CH4
 343:n32g430_std_periph_driver/src/n32g430_dma.c **** *\*\          - DMA_CH5
 344:n32g430_std_periph_driver/src/n32g430_dma.c **** *\*\          - DMA_CH6
 345:n32g430_std_periph_driver/src/n32g430_dma.c **** *\*\          - DMA_CH7
ARM GAS  C:\Users\Dawn\AppData\Local\Temp\ccJQ0Gde.s 			page 13


 346:n32g430_std_periph_driver/src/n32g430_dma.c **** *\*\          - DMA_CH8
 347:n32g430_std_periph_driver/src/n32g430_dma.c **** *\*\param   width :
 348:n32g430_std_periph_driver/src/n32g430_dma.c **** *\*\          - DMA_PERIPH_DATA_WIDTH_BYTE
 349:n32g430_std_periph_driver/src/n32g430_dma.c **** *\*\          - DMA_PERIPH_DATA_WIDTH_HALFWORD
 350:n32g430_std_periph_driver/src/n32g430_dma.c **** *\*\          - DMA_PERIPH_DATA_WIDTH_WORD
 351:n32g430_std_periph_driver/src/n32g430_dma.c **** *\*\return  none
 352:n32g430_std_periph_driver/src/n32g430_dma.c **** **/
 353:n32g430_std_periph_driver/src/n32g430_dma.c **** void DMA_Peripheral_Data_Width_Config(DMA_ChannelType* DMAChx, uint32_t width)
 354:n32g430_std_periph_driver/src/n32g430_dma.c **** {
 339              		.loc 1 354 1 is_stmt 1 view -0
 340              		.cfi_startproc
 341              		@ args = 0, pretend = 0, frame = 0
 342              		@ frame_needed = 0, uses_anonymous_args = 0
 343              		@ link register save eliminated.
 355:n32g430_std_periph_driver/src/n32g430_dma.c ****     /* Clear DMAChx_CHCFG PSIZE[1:0] bits */
 356:n32g430_std_periph_driver/src/n32g430_dma.c ****     DMAChx->CHCFG &= DMA_PERIPH_DATA_WIDTH_MASK;
 344              		.loc 1 356 5 view .LVU83
 345              		.loc 1 356 11 is_stmt 0 view .LVU84
 346 0000 0368     		ldr	r3, [r0]
 347              		.loc 1 356 19 view .LVU85
 348 0002 23F44073 		bic	r3, r3, #768
 349 0006 0360     		str	r3, [r0]
 357:n32g430_std_periph_driver/src/n32g430_dma.c ****     /* Set DMAChx_CHCFG PSIZE[1:0] bits */
 358:n32g430_std_periph_driver/src/n32g430_dma.c ****     DMAChx->CHCFG |= width;
 350              		.loc 1 358 5 is_stmt 1 view .LVU86
 351              		.loc 1 358 11 is_stmt 0 view .LVU87
 352 0008 0368     		ldr	r3, [r0]
 353              		.loc 1 358 19 view .LVU88
 354 000a 0B43     		orrs	r3, r3, r1
 355 000c 0360     		str	r3, [r0]
 359:n32g430_std_periph_driver/src/n32g430_dma.c **** }
 356              		.loc 1 359 1 view .LVU89
 357 000e 7047     		bx	lr
 358              		.cfi_endproc
 359              	.LFE131:
 361              		.section	.text.DMA_Memory_Data_Width_Config,"ax",%progbits
 362              		.align	1
 363              		.global	DMA_Memory_Data_Width_Config
 364              		.syntax unified
 365              		.thumb
 366              		.thumb_func
 368              	DMA_Memory_Data_Width_Config:
 369              	.LVL8:
 370              	.LFB132:
 360:n32g430_std_periph_driver/src/n32g430_dma.c **** 
 361:n32g430_std_periph_driver/src/n32g430_dma.c **** /**
 362:n32g430_std_periph_driver/src/n32g430_dma.c **** *\*\name    DMA_Memory_Data_Width_Config.
 363:n32g430_std_periph_driver/src/n32g430_dma.c **** *\*\fun     Initializes the DMA Channelx MemDataSize value.
 364:n32g430_std_periph_driver/src/n32g430_dma.c **** *\*\param   DMAChx :
 365:n32g430_std_periph_driver/src/n32g430_dma.c **** *\*\          - DMA_CH1
 366:n32g430_std_periph_driver/src/n32g430_dma.c **** *\*\          - DMA_CH2
 367:n32g430_std_periph_driver/src/n32g430_dma.c **** *\*\          - DMA_CH3
 368:n32g430_std_periph_driver/src/n32g430_dma.c **** *\*\          - DMA_CH4
 369:n32g430_std_periph_driver/src/n32g430_dma.c **** *\*\          - DMA_CH5
 370:n32g430_std_periph_driver/src/n32g430_dma.c **** *\*\          - DMA_CH6
 371:n32g430_std_periph_driver/src/n32g430_dma.c **** *\*\          - DMA_CH7
 372:n32g430_std_periph_driver/src/n32g430_dma.c **** *\*\          - DMA_CH8
ARM GAS  C:\Users\Dawn\AppData\Local\Temp\ccJQ0Gde.s 			page 14


 373:n32g430_std_periph_driver/src/n32g430_dma.c **** *\*\param   width :
 374:n32g430_std_periph_driver/src/n32g430_dma.c **** *\*\          - DMA_MEM_DATA_WIDTH_BYTE
 375:n32g430_std_periph_driver/src/n32g430_dma.c **** *\*\          - DMA_MEM_DATA_WIDTH_HALFWORD
 376:n32g430_std_periph_driver/src/n32g430_dma.c **** *\*\          - DMA_MEM_DATA_WIDTH_WORD
 377:n32g430_std_periph_driver/src/n32g430_dma.c **** *\*\return  none
 378:n32g430_std_periph_driver/src/n32g430_dma.c **** **/
 379:n32g430_std_periph_driver/src/n32g430_dma.c **** void DMA_Memory_Data_Width_Config(DMA_ChannelType* DMAChx, uint32_t width)
 380:n32g430_std_periph_driver/src/n32g430_dma.c **** {
 371              		.loc 1 380 1 is_stmt 1 view -0
 372              		.cfi_startproc
 373              		@ args = 0, pretend = 0, frame = 0
 374              		@ frame_needed = 0, uses_anonymous_args = 0
 375              		@ link register save eliminated.
 381:n32g430_std_periph_driver/src/n32g430_dma.c ****     /* Clear DMAChx_CHCFG MSIZE[1:0] bits */
 382:n32g430_std_periph_driver/src/n32g430_dma.c ****     DMAChx->CHCFG &= DMA_MEM_DATA_WIDTH_MASK;
 376              		.loc 1 382 5 view .LVU91
 377              		.loc 1 382 11 is_stmt 0 view .LVU92
 378 0000 0368     		ldr	r3, [r0]
 379              		.loc 1 382 19 view .LVU93
 380 0002 23F44063 		bic	r3, r3, #3072
 381 0006 0360     		str	r3, [r0]
 383:n32g430_std_periph_driver/src/n32g430_dma.c ****     /* Set DMAChx_CHCFG MSIZE[1:0] bits */
 384:n32g430_std_periph_driver/src/n32g430_dma.c ****     DMAChx->CHCFG |= width;
 382              		.loc 1 384 5 is_stmt 1 view .LVU94
 383              		.loc 1 384 11 is_stmt 0 view .LVU95
 384 0008 0368     		ldr	r3, [r0]
 385              		.loc 1 384 19 view .LVU96
 386 000a 0B43     		orrs	r3, r3, r1
 387 000c 0360     		str	r3, [r0]
 385:n32g430_std_periph_driver/src/n32g430_dma.c **** }
 388              		.loc 1 385 1 view .LVU97
 389 000e 7047     		bx	lr
 390              		.cfi_endproc
 391              	.LFE132:
 393              		.section	.text.DMA_Circular_Mode_Config,"ax",%progbits
 394              		.align	1
 395              		.global	DMA_Circular_Mode_Config
 396              		.syntax unified
 397              		.thumb
 398              		.thumb_func
 400              	DMA_Circular_Mode_Config:
 401              	.LVL9:
 402              	.LFB133:
 386:n32g430_std_periph_driver/src/n32g430_dma.c **** 
 387:n32g430_std_periph_driver/src/n32g430_dma.c **** /**
 388:n32g430_std_periph_driver/src/n32g430_dma.c **** *\*\name    DMA_Circular_Mode_Config.
 389:n32g430_std_periph_driver/src/n32g430_dma.c **** *\*\fun     Initializes the DMA Channelx CircularMode value.
 390:n32g430_std_periph_driver/src/n32g430_dma.c **** *\*\param   DMAChx :
 391:n32g430_std_periph_driver/src/n32g430_dma.c **** *\*\          - DMA_CH1
 392:n32g430_std_periph_driver/src/n32g430_dma.c **** *\*\          - DMA_CH2
 393:n32g430_std_periph_driver/src/n32g430_dma.c **** *\*\          - DMA_CH3
 394:n32g430_std_periph_driver/src/n32g430_dma.c **** *\*\          - DMA_CH4
 395:n32g430_std_periph_driver/src/n32g430_dma.c **** *\*\          - DMA_CH5
 396:n32g430_std_periph_driver/src/n32g430_dma.c **** *\*\          - DMA_CH6
 397:n32g430_std_periph_driver/src/n32g430_dma.c **** *\*\          - DMA_CH7
 398:n32g430_std_periph_driver/src/n32g430_dma.c **** *\*\          - DMA_CH8
 399:n32g430_std_periph_driver/src/n32g430_dma.c **** *\*\param   cmd :
ARM GAS  C:\Users\Dawn\AppData\Local\Temp\ccJQ0Gde.s 			page 15


 400:n32g430_std_periph_driver/src/n32g430_dma.c **** *\*\          - DMA_CIRCULAR_MODE_ENABLE
 401:n32g430_std_periph_driver/src/n32g430_dma.c **** *\*\          - DMA_CIRCULAR_MODE_DISABLE
 402:n32g430_std_periph_driver/src/n32g430_dma.c **** *\*\return  none
 403:n32g430_std_periph_driver/src/n32g430_dma.c **** **/
 404:n32g430_std_periph_driver/src/n32g430_dma.c **** void DMA_Circular_Mode_Config(DMA_ChannelType* DMAChx, uint32_t cmd)
 405:n32g430_std_periph_driver/src/n32g430_dma.c **** {
 403              		.loc 1 405 1 is_stmt 1 view -0
 404              		.cfi_startproc
 405              		@ args = 0, pretend = 0, frame = 0
 406              		@ frame_needed = 0, uses_anonymous_args = 0
 407              		@ link register save eliminated.
 406:n32g430_std_periph_driver/src/n32g430_dma.c ****    /* Clear DMAChx_CHCFG CIRC bits */
 407:n32g430_std_periph_driver/src/n32g430_dma.c ****     DMAChx->CHCFG &= DMA_CIRCULAR_MODE_MASK;
 408              		.loc 1 407 5 view .LVU99
 409              		.loc 1 407 11 is_stmt 0 view .LVU100
 410 0000 0368     		ldr	r3, [r0]
 411              		.loc 1 407 19 view .LVU101
 412 0002 23F02003 		bic	r3, r3, #32
 413 0006 0360     		str	r3, [r0]
 408:n32g430_std_periph_driver/src/n32g430_dma.c ****     /* Set DMAChx_CHCFG CIRC bits */
 409:n32g430_std_periph_driver/src/n32g430_dma.c ****     DMAChx->CHCFG |= cmd;
 414              		.loc 1 409 5 is_stmt 1 view .LVU102
 415              		.loc 1 409 11 is_stmt 0 view .LVU103
 416 0008 0368     		ldr	r3, [r0]
 417              		.loc 1 409 19 view .LVU104
 418 000a 0B43     		orrs	r3, r3, r1
 419 000c 0360     		str	r3, [r0]
 410:n32g430_std_periph_driver/src/n32g430_dma.c **** }
 420              		.loc 1 410 1 view .LVU105
 421 000e 7047     		bx	lr
 422              		.cfi_endproc
 423              	.LFE133:
 425              		.section	.text.DMA_Priority_Config,"ax",%progbits
 426              		.align	1
 427              		.global	DMA_Priority_Config
 428              		.syntax unified
 429              		.thumb
 430              		.thumb_func
 432              	DMA_Priority_Config:
 433              	.LVL10:
 434              	.LFB134:
 411:n32g430_std_periph_driver/src/n32g430_dma.c **** 
 412:n32g430_std_periph_driver/src/n32g430_dma.c **** /**
 413:n32g430_std_periph_driver/src/n32g430_dma.c **** *\*\name    DMA_Priority_Config.
 414:n32g430_std_periph_driver/src/n32g430_dma.c **** *\*\fun     Initializes the DMA Channelx Priority value.
 415:n32g430_std_periph_driver/src/n32g430_dma.c **** *\*\param   DMAChx :
 416:n32g430_std_periph_driver/src/n32g430_dma.c **** *\*\          - DMA_CH1
 417:n32g430_std_periph_driver/src/n32g430_dma.c **** *\*\          - DMA_CH2
 418:n32g430_std_periph_driver/src/n32g430_dma.c **** *\*\          - DMA_CH3
 419:n32g430_std_periph_driver/src/n32g430_dma.c **** *\*\          - DMA_CH4
 420:n32g430_std_periph_driver/src/n32g430_dma.c **** *\*\          - DMA_CH5
 421:n32g430_std_periph_driver/src/n32g430_dma.c **** *\*\          - DMA_CH6
 422:n32g430_std_periph_driver/src/n32g430_dma.c **** *\*\          - DMA_CH7
 423:n32g430_std_periph_driver/src/n32g430_dma.c **** *\*\          - DMA_CH8
 424:n32g430_std_periph_driver/src/n32g430_dma.c **** *\*\param   priority :
 425:n32g430_std_periph_driver/src/n32g430_dma.c **** *\*\          - DMA_CH_PRIORITY_HIGHEST
 426:n32g430_std_periph_driver/src/n32g430_dma.c **** *\*\          - DMA_CH_PRIORITY_HIGH
ARM GAS  C:\Users\Dawn\AppData\Local\Temp\ccJQ0Gde.s 			page 16


 427:n32g430_std_periph_driver/src/n32g430_dma.c **** *\*\          - DMA_CH_PRIORITY_MEDIUM
 428:n32g430_std_periph_driver/src/n32g430_dma.c **** *\*\          - DMA_CH_PRIORITY_LOW
 429:n32g430_std_periph_driver/src/n32g430_dma.c **** *\*\return  none
 430:n32g430_std_periph_driver/src/n32g430_dma.c **** **/
 431:n32g430_std_periph_driver/src/n32g430_dma.c **** void DMA_Priority_Config(DMA_ChannelType* DMAChx, uint32_t priority)
 432:n32g430_std_periph_driver/src/n32g430_dma.c **** {
 435              		.loc 1 432 1 is_stmt 1 view -0
 436              		.cfi_startproc
 437              		@ args = 0, pretend = 0, frame = 0
 438              		@ frame_needed = 0, uses_anonymous_args = 0
 439              		@ link register save eliminated.
 433:n32g430_std_periph_driver/src/n32g430_dma.c ****     /* Clear DMAChx_CHCFG PRIOLVL[1:0] bits */
 434:n32g430_std_periph_driver/src/n32g430_dma.c ****     DMAChx->CHCFG &= DMA_CH_PRIORITY_MASK;
 440              		.loc 1 434 5 view .LVU107
 441              		.loc 1 434 11 is_stmt 0 view .LVU108
 442 0000 0368     		ldr	r3, [r0]
 443              		.loc 1 434 19 view .LVU109
 444 0002 23F44053 		bic	r3, r3, #12288
 445 0006 0360     		str	r3, [r0]
 435:n32g430_std_periph_driver/src/n32g430_dma.c ****     /* Set DMAChx_CHCFG PRIOLVL[1:0] bits */
 436:n32g430_std_periph_driver/src/n32g430_dma.c ****     DMAChx->CHCFG |= priority;
 446              		.loc 1 436 5 is_stmt 1 view .LVU110
 447              		.loc 1 436 11 is_stmt 0 view .LVU111
 448 0008 0368     		ldr	r3, [r0]
 449              		.loc 1 436 19 view .LVU112
 450 000a 0B43     		orrs	r3, r3, r1
 451 000c 0360     		str	r3, [r0]
 437:n32g430_std_periph_driver/src/n32g430_dma.c **** }
 452              		.loc 1 437 1 view .LVU113
 453 000e 7047     		bx	lr
 454              		.cfi_endproc
 455              	.LFE134:
 457              		.section	.text.DMA_Memory_2_Memory_Config,"ax",%progbits
 458              		.align	1
 459              		.global	DMA_Memory_2_Memory_Config
 460              		.syntax unified
 461              		.thumb
 462              		.thumb_func
 464              	DMA_Memory_2_Memory_Config:
 465              	.LVL11:
 466              	.LFB135:
 438:n32g430_std_periph_driver/src/n32g430_dma.c **** 
 439:n32g430_std_periph_driver/src/n32g430_dma.c **** /**
 440:n32g430_std_periph_driver/src/n32g430_dma.c **** *\*\name    DMA_Memory_2_Memory_Config.
 441:n32g430_std_periph_driver/src/n32g430_dma.c **** *\*\fun     Initializes the DMA Channelx Mem2Mem value.
 442:n32g430_std_periph_driver/src/n32g430_dma.c **** *\*\param   DMAChx :
 443:n32g430_std_periph_driver/src/n32g430_dma.c **** *\*\          - DMA_CH1
 444:n32g430_std_periph_driver/src/n32g430_dma.c **** *\*\          - DMA_CH2
 445:n32g430_std_periph_driver/src/n32g430_dma.c **** *\*\          - DMA_CH3
 446:n32g430_std_periph_driver/src/n32g430_dma.c **** *\*\          - DMA_CH4
 447:n32g430_std_periph_driver/src/n32g430_dma.c **** *\*\          - DMA_CH5
 448:n32g430_std_periph_driver/src/n32g430_dma.c **** *\*\          - DMA_CH6
 449:n32g430_std_periph_driver/src/n32g430_dma.c **** *\*\          - DMA_CH7
 450:n32g430_std_periph_driver/src/n32g430_dma.c **** *\*\          - DMA_CH8
 451:n32g430_std_periph_driver/src/n32g430_dma.c **** *\*\param   cmd :
 452:n32g430_std_periph_driver/src/n32g430_dma.c **** *\*\          - DMA_MEM2MEM_ENABLE
 453:n32g430_std_periph_driver/src/n32g430_dma.c **** *\*\          - DMA_MEM2MEM_DISABLE
ARM GAS  C:\Users\Dawn\AppData\Local\Temp\ccJQ0Gde.s 			page 17


 454:n32g430_std_periph_driver/src/n32g430_dma.c **** *\*\return  none
 455:n32g430_std_periph_driver/src/n32g430_dma.c **** **/
 456:n32g430_std_periph_driver/src/n32g430_dma.c **** void DMA_Memory_2_Memory_Config(DMA_ChannelType* DMAChx, uint32_t cmd)
 457:n32g430_std_periph_driver/src/n32g430_dma.c **** {
 467              		.loc 1 457 1 is_stmt 1 view -0
 468              		.cfi_startproc
 469              		@ args = 0, pretend = 0, frame = 0
 470              		@ frame_needed = 0, uses_anonymous_args = 0
 471              		@ link register save eliminated.
 458:n32g430_std_periph_driver/src/n32g430_dma.c ****     /* Clear DMAChx_CHCFG MEM2MEM bits */
 459:n32g430_std_periph_driver/src/n32g430_dma.c ****     DMAChx->CHCFG &= DMA_MEM2MEM_MASK;
 472              		.loc 1 459 5 view .LVU115
 473              		.loc 1 459 11 is_stmt 0 view .LVU116
 474 0000 0368     		ldr	r3, [r0]
 475              		.loc 1 459 19 view .LVU117
 476 0002 23F48043 		bic	r3, r3, #16384
 477 0006 0360     		str	r3, [r0]
 460:n32g430_std_periph_driver/src/n32g430_dma.c ****     /* Set DMAChx_CHCFG MEM2MEM bits */
 461:n32g430_std_periph_driver/src/n32g430_dma.c ****     DMAChx->CHCFG |= cmd;
 478              		.loc 1 461 5 is_stmt 1 view .LVU118
 479              		.loc 1 461 11 is_stmt 0 view .LVU119
 480 0008 0368     		ldr	r3, [r0]
 481              		.loc 1 461 19 view .LVU120
 482 000a 0B43     		orrs	r3, r3, r1
 483 000c 0360     		str	r3, [r0]
 462:n32g430_std_periph_driver/src/n32g430_dma.c **** }
 484              		.loc 1 462 1 view .LVU121
 485 000e 7047     		bx	lr
 486              		.cfi_endproc
 487              	.LFE135:
 489              		.section	.text.DMA_Initializes,"ax",%progbits
 490              		.align	1
 491              		.global	DMA_Initializes
 492              		.syntax unified
 493              		.thumb
 494              		.thumb_func
 496              	DMA_Initializes:
 497              	.LVL12:
 498              	.LFB124:
 183:n32g430_std_periph_driver/src/n32g430_dma.c ****     DMA_Peripheral_Address_Config(DMAChx, DMA_InitParam->PeriphAddr);
 499              		.loc 1 183 1 is_stmt 1 view -0
 500              		.cfi_startproc
 501              		@ args = 0, pretend = 0, frame = 0
 502              		@ frame_needed = 0, uses_anonymous_args = 0
 183:n32g430_std_periph_driver/src/n32g430_dma.c ****     DMA_Peripheral_Address_Config(DMAChx, DMA_InitParam->PeriphAddr);
 503              		.loc 1 183 1 is_stmt 0 view .LVU123
 504 0000 38B5     		push	{r3, r4, r5, lr}
 505              	.LCFI0:
 506              		.cfi_def_cfa_offset 16
 507              		.cfi_offset 3, -16
 508              		.cfi_offset 4, -12
 509              		.cfi_offset 5, -8
 510              		.cfi_offset 14, -4
 511 0002 0546     		mov	r5, r0
 512 0004 0C46     		mov	r4, r1
 184:n32g430_std_periph_driver/src/n32g430_dma.c ****     DMA_Memory_Address_Config(DMAChx, DMA_InitParam->MemAddr);
 513              		.loc 1 184 5 is_stmt 1 view .LVU124
ARM GAS  C:\Users\Dawn\AppData\Local\Temp\ccJQ0Gde.s 			page 18


 514 0006 0968     		ldr	r1, [r1]
 515              	.LVL13:
 184:n32g430_std_periph_driver/src/n32g430_dma.c ****     DMA_Memory_Address_Config(DMAChx, DMA_InitParam->MemAddr);
 516              		.loc 1 184 5 is_stmt 0 view .LVU125
 517 0008 FFF7FEFF 		bl	DMA_Peripheral_Address_Config
 518              	.LVL14:
 185:n32g430_std_periph_driver/src/n32g430_dma.c ****     DMA_Destination_Config(DMAChx, DMA_InitParam->Direction);
 519              		.loc 1 185 5 is_stmt 1 view .LVU126
 520 000c 6168     		ldr	r1, [r4, #4]
 521 000e 2846     		mov	r0, r5
 522 0010 FFF7FEFF 		bl	DMA_Memory_Address_Config
 523              	.LVL15:
 186:n32g430_std_periph_driver/src/n32g430_dma.c ****     DMA_Buffer_Size_Config(DMAChx, DMA_InitParam->BufSize);
 524              		.loc 1 186 5 view .LVU127
 525 0014 A168     		ldr	r1, [r4, #8]
 526 0016 2846     		mov	r0, r5
 527 0018 FFF7FEFF 		bl	DMA_Destination_Config
 528              	.LVL16:
 187:n32g430_std_periph_driver/src/n32g430_dma.c ****     DMA_Peripheral_Addr_Increment_Config(DMAChx, DMA_InitParam->PeriphInc);
 529              		.loc 1 187 5 view .LVU128
 530 001c E168     		ldr	r1, [r4, #12]
 531 001e 2846     		mov	r0, r5
 532 0020 FFF7FEFF 		bl	DMA_Buffer_Size_Config
 533              	.LVL17:
 188:n32g430_std_periph_driver/src/n32g430_dma.c ****     DMA_Memory_Addr_Increment_Config(DMAChx, DMA_InitParam->MemoryInc);
 534              		.loc 1 188 5 view .LVU129
 535 0024 2169     		ldr	r1, [r4, #16]
 536 0026 2846     		mov	r0, r5
 537 0028 FFF7FEFF 		bl	DMA_Peripheral_Addr_Increment_Config
 538              	.LVL18:
 189:n32g430_std_periph_driver/src/n32g430_dma.c ****     DMA_Peripheral_Data_Width_Config(DMAChx, DMA_InitParam->PeriphDataSize);
 539              		.loc 1 189 5 view .LVU130
 540 002c 6169     		ldr	r1, [r4, #20]
 541 002e 2846     		mov	r0, r5
 542 0030 FFF7FEFF 		bl	DMA_Memory_Addr_Increment_Config
 543              	.LVL19:
 190:n32g430_std_periph_driver/src/n32g430_dma.c ****     DMA_Memory_Data_Width_Config(DMAChx, DMA_InitParam->MemDataSize);
 544              		.loc 1 190 5 view .LVU131
 545 0034 A169     		ldr	r1, [r4, #24]
 546 0036 2846     		mov	r0, r5
 547 0038 FFF7FEFF 		bl	DMA_Peripheral_Data_Width_Config
 548              	.LVL20:
 191:n32g430_std_periph_driver/src/n32g430_dma.c ****     DMA_Circular_Mode_Config(DMAChx, DMA_InitParam->CircularMode);
 549              		.loc 1 191 5 view .LVU132
 550 003c E169     		ldr	r1, [r4, #28]
 551 003e 2846     		mov	r0, r5
 552 0040 FFF7FEFF 		bl	DMA_Memory_Data_Width_Config
 553              	.LVL21:
 192:n32g430_std_periph_driver/src/n32g430_dma.c ****     DMA_Priority_Config(DMAChx, DMA_InitParam->Priority);
 554              		.loc 1 192 5 view .LVU133
 555 0044 216A     		ldr	r1, [r4, #32]
 556 0046 2846     		mov	r0, r5
 557 0048 FFF7FEFF 		bl	DMA_Circular_Mode_Config
 558              	.LVL22:
 193:n32g430_std_periph_driver/src/n32g430_dma.c ****     DMA_Memory_2_Memory_Config(DMAChx, DMA_InitParam->Mem2Mem);
 559              		.loc 1 193 5 view .LVU134
 560 004c 616A     		ldr	r1, [r4, #36]
ARM GAS  C:\Users\Dawn\AppData\Local\Temp\ccJQ0Gde.s 			page 19


 561 004e 2846     		mov	r0, r5
 562 0050 FFF7FEFF 		bl	DMA_Priority_Config
 563              	.LVL23:
 194:n32g430_std_periph_driver/src/n32g430_dma.c **** }
 564              		.loc 1 194 5 view .LVU135
 565 0054 A16A     		ldr	r1, [r4, #40]
 566 0056 2846     		mov	r0, r5
 567 0058 FFF7FEFF 		bl	DMA_Memory_2_Memory_Config
 568              	.LVL24:
 195:n32g430_std_periph_driver/src/n32g430_dma.c **** 
 569              		.loc 1 195 1 is_stmt 0 view .LVU136
 570 005c 38BD     		pop	{r3, r4, r5, pc}
 195:n32g430_std_periph_driver/src/n32g430_dma.c **** 
 571              		.loc 1 195 1 view .LVU137
 572              		.cfi_endproc
 573              	.LFE124:
 575              		.section	.text.DMA_Structure_Initializes,"ax",%progbits
 576              		.align	1
 577              		.global	DMA_Structure_Initializes
 578              		.syntax unified
 579              		.thumb
 580              		.thumb_func
 582              	DMA_Structure_Initializes:
 583              	.LVL25:
 584              	.LFB136:
 463:n32g430_std_periph_driver/src/n32g430_dma.c **** 
 464:n32g430_std_periph_driver/src/n32g430_dma.c **** /**
 465:n32g430_std_periph_driver/src/n32g430_dma.c **** *\*\name    DMA_Structure_Initializes.
 466:n32g430_std_periph_driver/src/n32g430_dma.c **** *\*\fun     Fills each DMA_InitParam member with its default value.
 467:n32g430_std_periph_driver/src/n32g430_dma.c **** *\*\param   DMA_InitParam :
 468:n32g430_std_periph_driver/src/n32g430_dma.c **** *\*\          - PeriphAddr
 469:n32g430_std_periph_driver/src/n32g430_dma.c **** *\*\          - MemAddr
 470:n32g430_std_periph_driver/src/n32g430_dma.c **** *\*\          - Direction
 471:n32g430_std_periph_driver/src/n32g430_dma.c **** *\*\          - BufSize
 472:n32g430_std_periph_driver/src/n32g430_dma.c **** *\*\          - PeriphInc
 473:n32g430_std_periph_driver/src/n32g430_dma.c **** *\*\          - DMA_MemoryInc
 474:n32g430_std_periph_driver/src/n32g430_dma.c **** *\*\          - PeriphDataSize
 475:n32g430_std_periph_driver/src/n32g430_dma.c **** *\*\          - MemDataSize
 476:n32g430_std_periph_driver/src/n32g430_dma.c **** *\*\          - CircularMode
 477:n32g430_std_periph_driver/src/n32g430_dma.c **** *\*\          - Priority
 478:n32g430_std_periph_driver/src/n32g430_dma.c **** *\*\          - Mem2Mem
 479:n32g430_std_periph_driver/src/n32g430_dma.c **** *\*\return  none
 480:n32g430_std_periph_driver/src/n32g430_dma.c **** **/
 481:n32g430_std_periph_driver/src/n32g430_dma.c **** void DMA_Structure_Initializes(DMA_InitType* DMA_InitParam)
 482:n32g430_std_periph_driver/src/n32g430_dma.c **** {
 585              		.loc 1 482 1 is_stmt 1 view -0
 586              		.cfi_startproc
 587              		@ args = 0, pretend = 0, frame = 0
 588              		@ frame_needed = 0, uses_anonymous_args = 0
 589              		@ link register save eliminated.
 483:n32g430_std_periph_driver/src/n32g430_dma.c ****     /* Reset DMA init structure parameters values */
 484:n32g430_std_periph_driver/src/n32g430_dma.c ****     /* Initialize the PeriphAddr member */
 485:n32g430_std_periph_driver/src/n32g430_dma.c ****     DMA_InitParam->PeriphAddr = 0;
 590              		.loc 1 485 5 view .LVU139
 591              		.loc 1 485 31 is_stmt 0 view .LVU140
 592 0000 0023     		movs	r3, #0
 593 0002 0360     		str	r3, [r0]
ARM GAS  C:\Users\Dawn\AppData\Local\Temp\ccJQ0Gde.s 			page 20


 486:n32g430_std_periph_driver/src/n32g430_dma.c ****     /* Initialize the MemAddr member */
 487:n32g430_std_periph_driver/src/n32g430_dma.c ****     DMA_InitParam->MemAddr = 0;
 594              		.loc 1 487 5 is_stmt 1 view .LVU141
 595              		.loc 1 487 28 is_stmt 0 view .LVU142
 596 0004 4360     		str	r3, [r0, #4]
 488:n32g430_std_periph_driver/src/n32g430_dma.c ****     /* Initialize the Direction member */
 489:n32g430_std_periph_driver/src/n32g430_dma.c ****     DMA_InitParam->Direction = DMA_DIR_PERIPH_SRC;
 597              		.loc 1 489 5 is_stmt 1 view .LVU143
 598              		.loc 1 489 30 is_stmt 0 view .LVU144
 599 0006 8360     		str	r3, [r0, #8]
 490:n32g430_std_periph_driver/src/n32g430_dma.c ****     /* Initialize the BufSize member */
 491:n32g430_std_periph_driver/src/n32g430_dma.c ****     DMA_InitParam->BufSize = 0;
 600              		.loc 1 491 5 is_stmt 1 view .LVU145
 601              		.loc 1 491 28 is_stmt 0 view .LVU146
 602 0008 C360     		str	r3, [r0, #12]
 492:n32g430_std_periph_driver/src/n32g430_dma.c ****     /* Initialize the PeriphInc member */
 493:n32g430_std_periph_driver/src/n32g430_dma.c ****     DMA_InitParam->PeriphInc = DMA_PERIPH_INC_MODE_DISABLE;
 603              		.loc 1 493 5 is_stmt 1 view .LVU147
 604              		.loc 1 493 30 is_stmt 0 view .LVU148
 605 000a 0361     		str	r3, [r0, #16]
 494:n32g430_std_periph_driver/src/n32g430_dma.c ****     /* Initialize the MemoryInc member */
 495:n32g430_std_periph_driver/src/n32g430_dma.c ****     DMA_InitParam->MemoryInc = DMA_MEM_INC_MODE_DISABLE;
 606              		.loc 1 495 5 is_stmt 1 view .LVU149
 607              		.loc 1 495 30 is_stmt 0 view .LVU150
 608 000c 4361     		str	r3, [r0, #20]
 496:n32g430_std_periph_driver/src/n32g430_dma.c ****     /* Initialize the PeriphDataSize member */
 497:n32g430_std_periph_driver/src/n32g430_dma.c ****     DMA_InitParam->PeriphDataSize = DMA_PERIPH_DATA_WIDTH_BYTE;
 609              		.loc 1 497 5 is_stmt 1 view .LVU151
 610              		.loc 1 497 35 is_stmt 0 view .LVU152
 611 000e 8361     		str	r3, [r0, #24]
 498:n32g430_std_periph_driver/src/n32g430_dma.c ****     /* Initialize the MemDataSize member */
 499:n32g430_std_periph_driver/src/n32g430_dma.c ****     DMA_InitParam->MemDataSize = DMA_MEM_DATA_WIDTH_BYTE;
 612              		.loc 1 499 5 is_stmt 1 view .LVU153
 613              		.loc 1 499 32 is_stmt 0 view .LVU154
 614 0010 C361     		str	r3, [r0, #28]
 500:n32g430_std_periph_driver/src/n32g430_dma.c ****     /* Initialize the CircularMode member */
 501:n32g430_std_periph_driver/src/n32g430_dma.c ****     DMA_InitParam->CircularMode = DMA_CIRCULAR_MODE_DISABLE;
 615              		.loc 1 501 5 is_stmt 1 view .LVU155
 616              		.loc 1 501 33 is_stmt 0 view .LVU156
 617 0012 0362     		str	r3, [r0, #32]
 502:n32g430_std_periph_driver/src/n32g430_dma.c ****     /* Initialize the Priority member */
 503:n32g430_std_periph_driver/src/n32g430_dma.c ****     DMA_InitParam->Priority = DMA_CH_PRIORITY_LOW;
 618              		.loc 1 503 5 is_stmt 1 view .LVU157
 619              		.loc 1 503 29 is_stmt 0 view .LVU158
 620 0014 4362     		str	r3, [r0, #36]
 504:n32g430_std_periph_driver/src/n32g430_dma.c ****     /* Initialize the Mem2Mem member */
 505:n32g430_std_periph_driver/src/n32g430_dma.c ****     DMA_InitParam->Mem2Mem = DMA_MEM2MEM_DISABLE;
 621              		.loc 1 505 5 is_stmt 1 view .LVU159
 622              		.loc 1 505 28 is_stmt 0 view .LVU160
 623 0016 8362     		str	r3, [r0, #40]
 506:n32g430_std_periph_driver/src/n32g430_dma.c **** }
 624              		.loc 1 506 1 view .LVU161
 625 0018 7047     		bx	lr
 626              		.cfi_endproc
 627              	.LFE136:
 629              		.section	.text.DMA_Channel_Enable,"ax",%progbits
 630              		.align	1
ARM GAS  C:\Users\Dawn\AppData\Local\Temp\ccJQ0Gde.s 			page 21


 631              		.global	DMA_Channel_Enable
 632              		.syntax unified
 633              		.thumb
 634              		.thumb_func
 636              	DMA_Channel_Enable:
 637              	.LVL26:
 638              	.LFB137:
 507:n32g430_std_periph_driver/src/n32g430_dma.c **** 
 508:n32g430_std_periph_driver/src/n32g430_dma.c **** /**
 509:n32g430_std_periph_driver/src/n32g430_dma.c **** *\*\name    DMA_Channel_Enable.
 510:n32g430_std_periph_driver/src/n32g430_dma.c **** *\*\fun     DMA Channelx Channel enable.
 511:n32g430_std_periph_driver/src/n32g430_dma.c **** *\*\param   DMAChx :
 512:n32g430_std_periph_driver/src/n32g430_dma.c **** *\*\          - DMA_CH1
 513:n32g430_std_periph_driver/src/n32g430_dma.c **** *\*\          - DMA_CH2
 514:n32g430_std_periph_driver/src/n32g430_dma.c **** *\*\          - DMA_CH3
 515:n32g430_std_periph_driver/src/n32g430_dma.c **** *\*\          - DMA_CH4
 516:n32g430_std_periph_driver/src/n32g430_dma.c **** *\*\          - DMA_CH5
 517:n32g430_std_periph_driver/src/n32g430_dma.c **** *\*\          - DMA_CH6
 518:n32g430_std_periph_driver/src/n32g430_dma.c **** *\*\          - DMA_CH7
 519:n32g430_std_periph_driver/src/n32g430_dma.c **** *\*\          - DMA_CH8
 520:n32g430_std_periph_driver/src/n32g430_dma.c **** *\*\return  none
 521:n32g430_std_periph_driver/src/n32g430_dma.c **** **/
 522:n32g430_std_periph_driver/src/n32g430_dma.c **** void DMA_Channel_Enable(DMA_ChannelType* DMAChx)
 523:n32g430_std_periph_driver/src/n32g430_dma.c **** {
 639              		.loc 1 523 1 is_stmt 1 view -0
 640              		.cfi_startproc
 641              		@ args = 0, pretend = 0, frame = 0
 642              		@ frame_needed = 0, uses_anonymous_args = 0
 643              		@ link register save eliminated.
 524:n32g430_std_periph_driver/src/n32g430_dma.c ****     /* Enable the selected DMA Channelx */
 525:n32g430_std_periph_driver/src/n32g430_dma.c ****     DMAChx->CHCFG |= DMA_CHANNEL_ENABLE;
 644              		.loc 1 525 5 view .LVU163
 645              		.loc 1 525 11 is_stmt 0 view .LVU164
 646 0000 0368     		ldr	r3, [r0]
 647              		.loc 1 525 19 view .LVU165
 648 0002 43F00103 		orr	r3, r3, #1
 649 0006 0360     		str	r3, [r0]
 526:n32g430_std_periph_driver/src/n32g430_dma.c **** }
 650              		.loc 1 526 1 view .LVU166
 651 0008 7047     		bx	lr
 652              		.cfi_endproc
 653              	.LFE137:
 655              		.section	.text.DMA_Channel_Disable,"ax",%progbits
 656              		.align	1
 657              		.global	DMA_Channel_Disable
 658              		.syntax unified
 659              		.thumb
 660              		.thumb_func
 662              	DMA_Channel_Disable:
 663              	.LVL27:
 664              	.LFB138:
 527:n32g430_std_periph_driver/src/n32g430_dma.c **** 
 528:n32g430_std_periph_driver/src/n32g430_dma.c **** /**
 529:n32g430_std_periph_driver/src/n32g430_dma.c **** *\*\name    DMA_Channel_Disable.
 530:n32g430_std_periph_driver/src/n32g430_dma.c **** *\*\fun     DMA Channelx Channel disable.
 531:n32g430_std_periph_driver/src/n32g430_dma.c **** *\*\param   DMAChx :
 532:n32g430_std_periph_driver/src/n32g430_dma.c **** *\*\          - DMA_CH1
ARM GAS  C:\Users\Dawn\AppData\Local\Temp\ccJQ0Gde.s 			page 22


 533:n32g430_std_periph_driver/src/n32g430_dma.c **** *\*\          - DMA_CH2
 534:n32g430_std_periph_driver/src/n32g430_dma.c **** *\*\          - DMA_CH3
 535:n32g430_std_periph_driver/src/n32g430_dma.c **** *\*\          - DMA_CH4
 536:n32g430_std_periph_driver/src/n32g430_dma.c **** *\*\          - DMA_CH5
 537:n32g430_std_periph_driver/src/n32g430_dma.c **** *\*\          - DMA_CH6
 538:n32g430_std_periph_driver/src/n32g430_dma.c **** *\*\          - DMA_CH7
 539:n32g430_std_periph_driver/src/n32g430_dma.c **** *\*\          - DMA_CH8
 540:n32g430_std_periph_driver/src/n32g430_dma.c **** *\*\return  none
 541:n32g430_std_periph_driver/src/n32g430_dma.c **** **/
 542:n32g430_std_periph_driver/src/n32g430_dma.c **** void DMA_Channel_Disable(DMA_ChannelType* DMAChx)
 543:n32g430_std_periph_driver/src/n32g430_dma.c **** {
 665              		.loc 1 543 1 is_stmt 1 view -0
 666              		.cfi_startproc
 667              		@ args = 0, pretend = 0, frame = 0
 668              		@ frame_needed = 0, uses_anonymous_args = 0
 669              		@ link register save eliminated.
 544:n32g430_std_periph_driver/src/n32g430_dma.c ****     /* Disable the selected DMA Channelx */
 545:n32g430_std_periph_driver/src/n32g430_dma.c ****     DMAChx->CHCFG &= DMA_CHANNEL_DISABLE;
 670              		.loc 1 545 5 view .LVU168
 671              		.loc 1 545 11 is_stmt 0 view .LVU169
 672 0000 0368     		ldr	r3, [r0]
 673              		.loc 1 545 19 view .LVU170
 674 0002 23F00103 		bic	r3, r3, #1
 675 0006 0360     		str	r3, [r0]
 546:n32g430_std_periph_driver/src/n32g430_dma.c **** }
 676              		.loc 1 546 1 view .LVU171
 677 0008 7047     		bx	lr
 678              		.cfi_endproc
 679              	.LFE138:
 681              		.section	.text.DMA_Interrupts_Enable,"ax",%progbits
 682              		.align	1
 683              		.global	DMA_Interrupts_Enable
 684              		.syntax unified
 685              		.thumb
 686              		.thumb_func
 688              	DMA_Interrupts_Enable:
 689              	.LVL28:
 690              	.LFB139:
 547:n32g430_std_periph_driver/src/n32g430_dma.c **** 
 548:n32g430_std_periph_driver/src/n32g430_dma.c **** /**
 549:n32g430_std_periph_driver/src/n32g430_dma.c **** *\*\name    DMA_Interrupts_Enable.
 550:n32g430_std_periph_driver/src/n32g430_dma.c **** *\*\fun     DMA Channelx interrupts disable.
 551:n32g430_std_periph_driver/src/n32g430_dma.c **** *\*\param   DMAChx :
 552:n32g430_std_periph_driver/src/n32g430_dma.c **** *\*\          - DMA_CH1
 553:n32g430_std_periph_driver/src/n32g430_dma.c **** *\*\          - DMA_CH2
 554:n32g430_std_periph_driver/src/n32g430_dma.c **** *\*\          - DMA_CH3
 555:n32g430_std_periph_driver/src/n32g430_dma.c **** *\*\          - DMA_CH4
 556:n32g430_std_periph_driver/src/n32g430_dma.c **** *\*\          - DMA_CH5
 557:n32g430_std_periph_driver/src/n32g430_dma.c **** *\*\          - DMA_CH6
 558:n32g430_std_periph_driver/src/n32g430_dma.c **** *\*\          - DMA_CH7
 559:n32g430_std_periph_driver/src/n32g430_dma.c **** *\*\          - DMA_CH8
 560:n32g430_std_periph_driver/src/n32g430_dma.c **** *\*\param   interrupt :
 561:n32g430_std_periph_driver/src/n32g430_dma.c **** *\*\          - DMA_INT_TXC
 562:n32g430_std_periph_driver/src/n32g430_dma.c **** *\*\          - DMA_INT_HTX
 563:n32g430_std_periph_driver/src/n32g430_dma.c **** *\*\          - DMA_INT_ERR
 564:n32g430_std_periph_driver/src/n32g430_dma.c **** *\*\return  none
 565:n32g430_std_periph_driver/src/n32g430_dma.c **** **/
ARM GAS  C:\Users\Dawn\AppData\Local\Temp\ccJQ0Gde.s 			page 23


 566:n32g430_std_periph_driver/src/n32g430_dma.c **** void DMA_Interrupts_Enable(DMA_ChannelType* DMAChx, uint32_t interrupt)
 567:n32g430_std_periph_driver/src/n32g430_dma.c **** {
 691              		.loc 1 567 1 is_stmt 1 view -0
 692              		.cfi_startproc
 693              		@ args = 0, pretend = 0, frame = 0
 694              		@ frame_needed = 0, uses_anonymous_args = 0
 695              		@ link register save eliminated.
 568:n32g430_std_periph_driver/src/n32g430_dma.c ****     /* Enable the selected DMA Channelx interrupts */
 569:n32g430_std_periph_driver/src/n32g430_dma.c ****     DMAChx->CHCFG |= interrupt;
 696              		.loc 1 569 5 view .LVU173
 697              		.loc 1 569 11 is_stmt 0 view .LVU174
 698 0000 0368     		ldr	r3, [r0]
 699              		.loc 1 569 19 view .LVU175
 700 0002 0B43     		orrs	r3, r3, r1
 701 0004 0360     		str	r3, [r0]
 570:n32g430_std_periph_driver/src/n32g430_dma.c **** }
 702              		.loc 1 570 1 view .LVU176
 703 0006 7047     		bx	lr
 704              		.cfi_endproc
 705              	.LFE139:
 707              		.section	.text.DMA_Interrupts_Disable,"ax",%progbits
 708              		.align	1
 709              		.global	DMA_Interrupts_Disable
 710              		.syntax unified
 711              		.thumb
 712              		.thumb_func
 714              	DMA_Interrupts_Disable:
 715              	.LVL29:
 716              	.LFB140:
 571:n32g430_std_periph_driver/src/n32g430_dma.c **** 
 572:n32g430_std_periph_driver/src/n32g430_dma.c **** /**
 573:n32g430_std_periph_driver/src/n32g430_dma.c **** *\*\name    DMA_Interrupts_Disable.
 574:n32g430_std_periph_driver/src/n32g430_dma.c **** *\*\fun     DMA Channelx interrupts disable.
 575:n32g430_std_periph_driver/src/n32g430_dma.c **** *\*\param   DMAChx :
 576:n32g430_std_periph_driver/src/n32g430_dma.c **** *\*\          - DMA_CH1
 577:n32g430_std_periph_driver/src/n32g430_dma.c **** *\*\          - DMA_CH2
 578:n32g430_std_periph_driver/src/n32g430_dma.c **** *\*\          - DMA_CH3
 579:n32g430_std_periph_driver/src/n32g430_dma.c **** *\*\          - DMA_CH4
 580:n32g430_std_periph_driver/src/n32g430_dma.c **** *\*\          - DMA_CH5
 581:n32g430_std_periph_driver/src/n32g430_dma.c **** *\*\          - DMA_CH6
 582:n32g430_std_periph_driver/src/n32g430_dma.c **** *\*\          - DMA_CH7
 583:n32g430_std_periph_driver/src/n32g430_dma.c **** *\*\          - DMA_CH8
 584:n32g430_std_periph_driver/src/n32g430_dma.c **** *\*\param   interrupt :
 585:n32g430_std_periph_driver/src/n32g430_dma.c **** *\*\          - DMA_INT_TXC
 586:n32g430_std_periph_driver/src/n32g430_dma.c **** *\*\          - DMA_INT_HTX
 587:n32g430_std_periph_driver/src/n32g430_dma.c **** *\*\          - DMA_INT_ERR
 588:n32g430_std_periph_driver/src/n32g430_dma.c **** *\*\return  none
 589:n32g430_std_periph_driver/src/n32g430_dma.c **** **/
 590:n32g430_std_periph_driver/src/n32g430_dma.c **** void DMA_Interrupts_Disable(DMA_ChannelType* DMAChx, uint32_t interrupt)
 591:n32g430_std_periph_driver/src/n32g430_dma.c **** {
 717              		.loc 1 591 1 is_stmt 1 view -0
 718              		.cfi_startproc
 719              		@ args = 0, pretend = 0, frame = 0
 720              		@ frame_needed = 0, uses_anonymous_args = 0
 721              		@ link register save eliminated.
 592:n32g430_std_periph_driver/src/n32g430_dma.c ****     /* Disable the selected DMA Channelx interrupts */
 593:n32g430_std_periph_driver/src/n32g430_dma.c ****     DMAChx->CHCFG &= (~interrupt);
ARM GAS  C:\Users\Dawn\AppData\Local\Temp\ccJQ0Gde.s 			page 24


 722              		.loc 1 593 5 view .LVU178
 723              		.loc 1 593 11 is_stmt 0 view .LVU179
 724 0000 0368     		ldr	r3, [r0]
 725              		.loc 1 593 19 view .LVU180
 726 0002 23EA0103 		bic	r3, r3, r1
 727 0006 0360     		str	r3, [r0]
 594:n32g430_std_periph_driver/src/n32g430_dma.c **** }
 728              		.loc 1 594 1 view .LVU181
 729 0008 7047     		bx	lr
 730              		.cfi_endproc
 731              	.LFE140:
 733              		.section	.text.DMA_Current_Data_Transfer_Number_Set,"ax",%progbits
 734              		.align	1
 735              		.global	DMA_Current_Data_Transfer_Number_Set
 736              		.syntax unified
 737              		.thumb
 738              		.thumb_func
 740              	DMA_Current_Data_Transfer_Number_Set:
 741              	.LVL30:
 742              	.LFB141:
 595:n32g430_std_periph_driver/src/n32g430_dma.c **** 
 596:n32g430_std_periph_driver/src/n32g430_dma.c **** /**
 597:n32g430_std_periph_driver/src/n32g430_dma.c **** *\*\name    DMA_Current_Data_Transfer_Number_Set.
 598:n32g430_std_periph_driver/src/n32g430_dma.c **** *\*\fun     DMA Channelx Set the current number of data transfers.
 599:n32g430_std_periph_driver/src/n32g430_dma.c **** *\*\param   DMAChx :
 600:n32g430_std_periph_driver/src/n32g430_dma.c **** *\*\          - DMA_CH1
 601:n32g430_std_periph_driver/src/n32g430_dma.c **** *\*\          - DMA_CH2
 602:n32g430_std_periph_driver/src/n32g430_dma.c **** *\*\          - DMA_CH3
 603:n32g430_std_periph_driver/src/n32g430_dma.c **** *\*\          - DMA_CH4
 604:n32g430_std_periph_driver/src/n32g430_dma.c **** *\*\          - DMA_CH5
 605:n32g430_std_periph_driver/src/n32g430_dma.c **** *\*\          - DMA_CH6
 606:n32g430_std_periph_driver/src/n32g430_dma.c **** *\*\          - DMA_CH7
 607:n32g430_std_periph_driver/src/n32g430_dma.c **** *\*\          - DMA_CH8
 608:n32g430_std_periph_driver/src/n32g430_dma.c **** *\*\param   num :
 609:n32g430_std_periph_driver/src/n32g430_dma.c **** *\*\note    This function can only be used when the DMAChx is disabled.
 610:n32g430_std_periph_driver/src/n32g430_dma.c **** *\*\return  none
 611:n32g430_std_periph_driver/src/n32g430_dma.c **** **/
 612:n32g430_std_periph_driver/src/n32g430_dma.c **** void DMA_Current_Data_Transfer_Number_Set(DMA_ChannelType* DMAChx, uint16_t num)
 613:n32g430_std_periph_driver/src/n32g430_dma.c **** {
 743              		.loc 1 613 1 is_stmt 1 view -0
 744              		.cfi_startproc
 745              		@ args = 0, pretend = 0, frame = 0
 746              		@ frame_needed = 0, uses_anonymous_args = 0
 747              		@ link register save eliminated.
 614:n32g430_std_periph_driver/src/n32g430_dma.c ****     /* Write to DMA Channelx TXNUM */
 615:n32g430_std_periph_driver/src/n32g430_dma.c ****     DMAChx->TXNUM = num;
 748              		.loc 1 615 5 view .LVU183
 749              		.loc 1 615 19 is_stmt 0 view .LVU184
 750 0000 4160     		str	r1, [r0, #4]
 616:n32g430_std_periph_driver/src/n32g430_dma.c **** }
 751              		.loc 1 616 1 view .LVU185
 752 0002 7047     		bx	lr
 753              		.cfi_endproc
 754              	.LFE141:
 756              		.section	.text.DMA_Current_Data_Transfer_Number_Get,"ax",%progbits
 757              		.align	1
 758              		.global	DMA_Current_Data_Transfer_Number_Get
ARM GAS  C:\Users\Dawn\AppData\Local\Temp\ccJQ0Gde.s 			page 25


 759              		.syntax unified
 760              		.thumb
 761              		.thumb_func
 763              	DMA_Current_Data_Transfer_Number_Get:
 764              	.LVL31:
 765              	.LFB142:
 617:n32g430_std_periph_driver/src/n32g430_dma.c **** 
 618:n32g430_std_periph_driver/src/n32g430_dma.c **** /**
 619:n32g430_std_periph_driver/src/n32g430_dma.c **** *\*\name    DMA_Current_Data_Transfer_Number_Get.
 620:n32g430_std_periph_driver/src/n32g430_dma.c **** *\*\fun     DMA Channelx Gets the current number of data transfers.
 621:n32g430_std_periph_driver/src/n32g430_dma.c **** *\*\param   DMAChx :
 622:n32g430_std_periph_driver/src/n32g430_dma.c **** *\*\          - DMA_CH1
 623:n32g430_std_periph_driver/src/n32g430_dma.c **** *\*\          - DMA_CH2
 624:n32g430_std_periph_driver/src/n32g430_dma.c **** *\*\          - DMA_CH3
 625:n32g430_std_periph_driver/src/n32g430_dma.c **** *\*\          - DMA_CH4
 626:n32g430_std_periph_driver/src/n32g430_dma.c **** *\*\          - DMA_CH5
 627:n32g430_std_periph_driver/src/n32g430_dma.c **** *\*\          - DMA_CH6
 628:n32g430_std_periph_driver/src/n32g430_dma.c **** *\*\          - DMA_CH7
 629:n32g430_std_periph_driver/src/n32g430_dma.c **** *\*\          - DMA_CH8
 630:n32g430_std_periph_driver/src/n32g430_dma.c **** *\*\return  Returns the number of bytes remaining to be transferred.
 631:n32g430_std_periph_driver/src/n32g430_dma.c **** **/
 632:n32g430_std_periph_driver/src/n32g430_dma.c **** uint16_t DMA_Current_Data_Transfer_Number_Get(DMA_ChannelType* DMAChx)
 633:n32g430_std_periph_driver/src/n32g430_dma.c **** {
 766              		.loc 1 633 1 is_stmt 1 view -0
 767              		.cfi_startproc
 768              		@ args = 0, pretend = 0, frame = 0
 769              		@ frame_needed = 0, uses_anonymous_args = 0
 770              		@ link register save eliminated.
 634:n32g430_std_periph_driver/src/n32g430_dma.c ****     /* Returns the number of bytes remaining to be transferred for DMA Channelx */
 635:n32g430_std_periph_driver/src/n32g430_dma.c ****     return ((uint16_t)(DMAChx->TXNUM));
 771              		.loc 1 635 5 view .LVU187
 772              		.loc 1 635 30 is_stmt 0 view .LVU188
 773 0000 4068     		ldr	r0, [r0, #4]
 774              	.LVL32:
 636:n32g430_std_periph_driver/src/n32g430_dma.c **** }
 775              		.loc 1 636 1 view .LVU189
 776 0002 80B2     		uxth	r0, r0
 777 0004 7047     		bx	lr
 778              		.cfi_endproc
 779              	.LFE142:
 781              		.section	.text.DMA_Flag_Status_Get,"ax",%progbits
 782              		.align	1
 783              		.global	DMA_Flag_Status_Get
 784              		.syntax unified
 785              		.thumb
 786              		.thumb_func
 788              	DMA_Flag_Status_Get:
 789              	.LVL33:
 790              	.LFB143:
 637:n32g430_std_periph_driver/src/n32g430_dma.c **** 
 638:n32g430_std_periph_driver/src/n32g430_dma.c **** /**
 639:n32g430_std_periph_driver/src/n32g430_dma.c **** *\*\name    DMA_Flag_Status_Get.
 640:n32g430_std_periph_driver/src/n32g430_dma.c **** *\*\fun     Get DMA Channelx flag status.
 641:n32g430_std_periph_driver/src/n32g430_dma.c **** *\*\param   DMAx :
 642:n32g430_std_periph_driver/src/n32g430_dma.c **** *\*\          - DMA
 643:n32g430_std_periph_driver/src/n32g430_dma.c **** *\*\param   flag :
 644:n32g430_std_periph_driver/src/n32g430_dma.c **** *\*\          - DMA_CH1_GLBF
ARM GAS  C:\Users\Dawn\AppData\Local\Temp\ccJQ0Gde.s 			page 26


 645:n32g430_std_periph_driver/src/n32g430_dma.c **** *\*\          - DMA_CH1_TXCF
 646:n32g430_std_periph_driver/src/n32g430_dma.c **** *\*\          - DMA_CH1_HTXF
 647:n32g430_std_periph_driver/src/n32g430_dma.c **** *\*\          - DMA_CH1_ERRF
 648:n32g430_std_periph_driver/src/n32g430_dma.c **** *\*\          - DMA_CH2_GLBF
 649:n32g430_std_periph_driver/src/n32g430_dma.c **** *\*\          - DMA_CH2_TXCF
 650:n32g430_std_periph_driver/src/n32g430_dma.c **** *\*\          - DMA_CH2_HTXF
 651:n32g430_std_periph_driver/src/n32g430_dma.c **** *\*\          - DMA_CH2_ERRF
 652:n32g430_std_periph_driver/src/n32g430_dma.c **** *\*\          - DMA_CH3_GLBF
 653:n32g430_std_periph_driver/src/n32g430_dma.c **** *\*\          - DMA_CH3_TXCF
 654:n32g430_std_periph_driver/src/n32g430_dma.c **** *\*\          - DMA_CH3_HTXF
 655:n32g430_std_periph_driver/src/n32g430_dma.c **** *\*\          - DMA_CH3_ERRF
 656:n32g430_std_periph_driver/src/n32g430_dma.c **** *\*\          - DMA_CH4_GLBF
 657:n32g430_std_periph_driver/src/n32g430_dma.c **** *\*\          - DMA_CH4_TXCF
 658:n32g430_std_periph_driver/src/n32g430_dma.c **** *\*\          - DMA_CH4_HTXF
 659:n32g430_std_periph_driver/src/n32g430_dma.c **** *\*\          - DMA_CH4_ERRF
 660:n32g430_std_periph_driver/src/n32g430_dma.c **** *\*\          - DMA_CH5_GLBF
 661:n32g430_std_periph_driver/src/n32g430_dma.c **** *\*\          - DMA_CH5_TXCF
 662:n32g430_std_periph_driver/src/n32g430_dma.c **** *\*\          - DMA_CH5_HTXF
 663:n32g430_std_periph_driver/src/n32g430_dma.c **** *\*\          - DMA_CH5_ERRF
 664:n32g430_std_periph_driver/src/n32g430_dma.c **** *\*\          - DMA_CH6_GLBF
 665:n32g430_std_periph_driver/src/n32g430_dma.c **** *\*\          - DMA_CH6_TXCF
 666:n32g430_std_periph_driver/src/n32g430_dma.c **** *\*\          - DMA_CH6_HTXF
 667:n32g430_std_periph_driver/src/n32g430_dma.c **** *\*\          - DMA_CH6_ERRF
 668:n32g430_std_periph_driver/src/n32g430_dma.c **** *\*\          - DMA_CH7_GLBF
 669:n32g430_std_periph_driver/src/n32g430_dma.c **** *\*\          - DMA_CH7_TXCF
 670:n32g430_std_periph_driver/src/n32g430_dma.c **** *\*\          - DMA_CH7_HTXF
 671:n32g430_std_periph_driver/src/n32g430_dma.c **** *\*\          - DMA_CH7_ERRF
 672:n32g430_std_periph_driver/src/n32g430_dma.c **** *\*\          - DMA_CH8_GLBF
 673:n32g430_std_periph_driver/src/n32g430_dma.c **** *\*\          - DMA_CH8_TXCF
 674:n32g430_std_periph_driver/src/n32g430_dma.c **** *\*\          - DMA_CH8_HTXF
 675:n32g430_std_periph_driver/src/n32g430_dma.c **** *\*\          - DMA_CH8_ERRF
 676:n32g430_std_periph_driver/src/n32g430_dma.c **** *\*\return  SET or RESET.
 677:n32g430_std_periph_driver/src/n32g430_dma.c **** **/
 678:n32g430_std_periph_driver/src/n32g430_dma.c **** FlagStatus DMA_Flag_Status_Get(DMA_Module* DMAx, uint32_t flag)
 679:n32g430_std_periph_driver/src/n32g430_dma.c **** {
 791              		.loc 1 679 1 is_stmt 1 view -0
 792              		.cfi_startproc
 793              		@ args = 0, pretend = 0, frame = 0
 794              		@ frame_needed = 0, uses_anonymous_args = 0
 795              		@ link register save eliminated.
 680:n32g430_std_periph_driver/src/n32g430_dma.c ****     /* Check the status of the DMA flag */
 681:n32g430_std_periph_driver/src/n32g430_dma.c ****     if ((DMAx->INTSTS & flag) == (uint32_t)RESET)
 796              		.loc 1 681 5 view .LVU191
 797              		.loc 1 681 14 is_stmt 0 view .LVU192
 798 0000 0368     		ldr	r3, [r0]
 799              		.loc 1 681 8 view .LVU193
 800 0002 0B42     		tst	r3, r1
 801 0004 01D1     		bne	.L42
 682:n32g430_std_periph_driver/src/n32g430_dma.c ****     {
 683:n32g430_std_periph_driver/src/n32g430_dma.c ****         /* DMA_CHx_Flag is reset */
 684:n32g430_std_periph_driver/src/n32g430_dma.c ****         return RESET;
 802              		.loc 1 684 16 view .LVU194
 803 0006 0020     		movs	r0, #0
 804              	.LVL34:
 805              		.loc 1 684 16 view .LVU195
 806 0008 7047     		bx	lr
 807              	.LVL35:
ARM GAS  C:\Users\Dawn\AppData\Local\Temp\ccJQ0Gde.s 			page 27


 808              	.L42:
 685:n32g430_std_periph_driver/src/n32g430_dma.c ****     }
 686:n32g430_std_periph_driver/src/n32g430_dma.c ****     else
 687:n32g430_std_periph_driver/src/n32g430_dma.c ****     {
 688:n32g430_std_periph_driver/src/n32g430_dma.c ****         /* DMA_CHx_Flag is set */
 689:n32g430_std_periph_driver/src/n32g430_dma.c ****         return SET;
 809              		.loc 1 689 16 view .LVU196
 810 000a 0120     		movs	r0, #1
 811              	.LVL36:
 690:n32g430_std_periph_driver/src/n32g430_dma.c ****     }
 691:n32g430_std_periph_driver/src/n32g430_dma.c **** }
 812              		.loc 1 691 1 view .LVU197
 813 000c 7047     		bx	lr
 814              		.cfi_endproc
 815              	.LFE143:
 817              		.section	.text.DMA_Flag_Status_Clear,"ax",%progbits
 818              		.align	1
 819              		.global	DMA_Flag_Status_Clear
 820              		.syntax unified
 821              		.thumb
 822              		.thumb_func
 824              	DMA_Flag_Status_Clear:
 825              	.LVL37:
 826              	.LFB144:
 692:n32g430_std_periph_driver/src/n32g430_dma.c **** 
 693:n32g430_std_periph_driver/src/n32g430_dma.c **** /**
 694:n32g430_std_periph_driver/src/n32g430_dma.c **** *\*\name    DMA_Flag_Status_Clear.
 695:n32g430_std_periph_driver/src/n32g430_dma.c **** *\*\fun     Clear DMA Channelx flag status.
 696:n32g430_std_periph_driver/src/n32g430_dma.c **** *\*\param   DMAx :
 697:n32g430_std_periph_driver/src/n32g430_dma.c **** *\*\          - DMA
 698:n32g430_std_periph_driver/src/n32g430_dma.c **** *\*\param   flag :
 699:n32g430_std_periph_driver/src/n32g430_dma.c **** *\*\          - DMA_CH1_GLBF
 700:n32g430_std_periph_driver/src/n32g430_dma.c **** *\*\          - DMA_CH1_TXCF
 701:n32g430_std_periph_driver/src/n32g430_dma.c **** *\*\          - DMA_CH1_HTXF
 702:n32g430_std_periph_driver/src/n32g430_dma.c **** *\*\          - DMA_CH1_ERRF
 703:n32g430_std_periph_driver/src/n32g430_dma.c **** *\*\          - DMA_CH2_GLBF
 704:n32g430_std_periph_driver/src/n32g430_dma.c **** *\*\          - DMA_CH2_TXCF
 705:n32g430_std_periph_driver/src/n32g430_dma.c **** *\*\          - DMA_CH2_HTXF
 706:n32g430_std_periph_driver/src/n32g430_dma.c **** *\*\          - DMA_CH2_ERRF
 707:n32g430_std_periph_driver/src/n32g430_dma.c **** *\*\          - DMA_CH3_GLBF
 708:n32g430_std_periph_driver/src/n32g430_dma.c **** *\*\          - DMA_CH3_TXCF
 709:n32g430_std_periph_driver/src/n32g430_dma.c **** *\*\          - DMA_CH3_HTXF
 710:n32g430_std_periph_driver/src/n32g430_dma.c **** *\*\          - DMA_CH3_ERRF
 711:n32g430_std_periph_driver/src/n32g430_dma.c **** *\*\          - DMA_CH4_GLBF
 712:n32g430_std_periph_driver/src/n32g430_dma.c **** *\*\          - DMA_CH4_TXCF
 713:n32g430_std_periph_driver/src/n32g430_dma.c **** *\*\          - DMA_CH4_HTXF
 714:n32g430_std_periph_driver/src/n32g430_dma.c **** *\*\          - DMA_CH4_ERRF
 715:n32g430_std_periph_driver/src/n32g430_dma.c **** *\*\          - DMA_CH5_GLBF
 716:n32g430_std_periph_driver/src/n32g430_dma.c **** *\*\          - DMA_CH5_TXCF
 717:n32g430_std_periph_driver/src/n32g430_dma.c **** *\*\          - DMA_CH5_HTXF
 718:n32g430_std_periph_driver/src/n32g430_dma.c **** *\*\          - DMA_CH5_ERRF
 719:n32g430_std_periph_driver/src/n32g430_dma.c **** *\*\          - DMA_CH6_GLBF
 720:n32g430_std_periph_driver/src/n32g430_dma.c **** *\*\          - DMA_CH6_TXCF
 721:n32g430_std_periph_driver/src/n32g430_dma.c **** *\*\          - DMA_CH6_HTXF
 722:n32g430_std_periph_driver/src/n32g430_dma.c **** *\*\          - DMA_CH6_ERRF
 723:n32g430_std_periph_driver/src/n32g430_dma.c **** *\*\          - DMA_CH7_GLBF
 724:n32g430_std_periph_driver/src/n32g430_dma.c **** *\*\          - DMA_CH7_TXCF
ARM GAS  C:\Users\Dawn\AppData\Local\Temp\ccJQ0Gde.s 			page 28


 725:n32g430_std_periph_driver/src/n32g430_dma.c **** *\*\          - DMA_CH7_HTXF
 726:n32g430_std_periph_driver/src/n32g430_dma.c **** *\*\          - DMA_CH7_ERRF
 727:n32g430_std_periph_driver/src/n32g430_dma.c **** *\*\          - DMA_CH8_GLBF
 728:n32g430_std_periph_driver/src/n32g430_dma.c **** *\*\          - DMA_CH8_TXCF
 729:n32g430_std_periph_driver/src/n32g430_dma.c **** *\*\          - DMA_CH8_HTXF
 730:n32g430_std_periph_driver/src/n32g430_dma.c **** *\*\          - DMA_CH8_ERRF
 731:n32g430_std_periph_driver/src/n32g430_dma.c **** *\*\return  none.
 732:n32g430_std_periph_driver/src/n32g430_dma.c **** **/
 733:n32g430_std_periph_driver/src/n32g430_dma.c **** void DMA_Flag_Status_Clear(DMA_Module* DMAx, uint32_t flag)
 734:n32g430_std_periph_driver/src/n32g430_dma.c **** {
 827              		.loc 1 734 1 is_stmt 1 view -0
 828              		.cfi_startproc
 829              		@ args = 0, pretend = 0, frame = 0
 830              		@ frame_needed = 0, uses_anonymous_args = 0
 831              		@ link register save eliminated.
 735:n32g430_std_periph_driver/src/n32g430_dma.c ****     /* Clear DMA flags */
 736:n32g430_std_periph_driver/src/n32g430_dma.c ****     DMAx->INTCLR = flag;
 832              		.loc 1 736 5 view .LVU199
 833              		.loc 1 736 18 is_stmt 0 view .LVU200
 834 0000 4160     		str	r1, [r0, #4]
 737:n32g430_std_periph_driver/src/n32g430_dma.c **** }
 835              		.loc 1 737 1 view .LVU201
 836 0002 7047     		bx	lr
 837              		.cfi_endproc
 838              	.LFE144:
 840              		.section	.text.DMA_Interrupt_Status_Get,"ax",%progbits
 841              		.align	1
 842              		.global	DMA_Interrupt_Status_Get
 843              		.syntax unified
 844              		.thumb
 845              		.thumb_func
 847              	DMA_Interrupt_Status_Get:
 848              	.LVL38:
 849              	.LFB145:
 738:n32g430_std_periph_driver/src/n32g430_dma.c **** 
 739:n32g430_std_periph_driver/src/n32g430_dma.c **** /**
 740:n32g430_std_periph_driver/src/n32g430_dma.c **** *\*\name    DMA_Interrupt_Status_Get.
 741:n32g430_std_periph_driver/src/n32g430_dma.c **** *\*\fun     Get DMA Channelx interrupt status.
 742:n32g430_std_periph_driver/src/n32g430_dma.c **** *\*\param   DMA :
 743:n32g430_std_periph_driver/src/n32g430_dma.c **** *\*\          - DMA
 744:n32g430_std_periph_driver/src/n32g430_dma.c **** *\*\param   interrupt :
 745:n32g430_std_periph_driver/src/n32g430_dma.c **** *\*\          - DMA_CH1_INT_GLB
 746:n32g430_std_periph_driver/src/n32g430_dma.c **** *\*\          - DMA_CH1_INT_TXC
 747:n32g430_std_periph_driver/src/n32g430_dma.c **** *\*\          - DMA_CH1_INT_HTX
 748:n32g430_std_periph_driver/src/n32g430_dma.c **** *\*\          - DMA_CH1_INT_ERR
 749:n32g430_std_periph_driver/src/n32g430_dma.c **** *\*\          - DMA_CH2_INT_GLB
 750:n32g430_std_periph_driver/src/n32g430_dma.c **** *\*\          - DMA_CH2_INT_TXC
 751:n32g430_std_periph_driver/src/n32g430_dma.c **** *\*\          - DMA_CH2_INT_HTX
 752:n32g430_std_periph_driver/src/n32g430_dma.c **** *\*\          - DMA_CH2_INT_ERR
 753:n32g430_std_periph_driver/src/n32g430_dma.c **** *\*\          - DMA_CH3_INT_GLB
 754:n32g430_std_periph_driver/src/n32g430_dma.c **** *\*\          - DMA_CH3_INT_TXC
 755:n32g430_std_periph_driver/src/n32g430_dma.c **** *\*\          - DMA_CH3_INT_HTX
 756:n32g430_std_periph_driver/src/n32g430_dma.c **** *\*\          - DMA_CH3_INT_ERR
 757:n32g430_std_periph_driver/src/n32g430_dma.c **** *\*\          - DMA_CH4_INT_GLB
 758:n32g430_std_periph_driver/src/n32g430_dma.c **** *\*\          - DMA_CH4_INT_TXC
 759:n32g430_std_periph_driver/src/n32g430_dma.c **** *\*\          - DMA_CH4_INT_HTX
 760:n32g430_std_periph_driver/src/n32g430_dma.c **** *\*\          - DMA_CH4_INT_ERR
ARM GAS  C:\Users\Dawn\AppData\Local\Temp\ccJQ0Gde.s 			page 29


 761:n32g430_std_periph_driver/src/n32g430_dma.c **** *\*\          - DMA_CH5_INT_GLB
 762:n32g430_std_periph_driver/src/n32g430_dma.c **** *\*\          - DMA_CH5_INT_TXC
 763:n32g430_std_periph_driver/src/n32g430_dma.c **** *\*\          - DMA_CH5_INT_HTX
 764:n32g430_std_periph_driver/src/n32g430_dma.c **** *\*\          - DMA_CH5_INT_ERR
 765:n32g430_std_periph_driver/src/n32g430_dma.c **** *\*\          - DMA_CH6_INT_GLB
 766:n32g430_std_periph_driver/src/n32g430_dma.c **** *\*\          - DMA_CH6_INT_TXC
 767:n32g430_std_periph_driver/src/n32g430_dma.c **** *\*\          - DMA_CH6_INT_HTX
 768:n32g430_std_periph_driver/src/n32g430_dma.c **** *\*\          - DMA_CH6_INT_ERR
 769:n32g430_std_periph_driver/src/n32g430_dma.c **** *\*\          - DMA_CH7_INT_GLB
 770:n32g430_std_periph_driver/src/n32g430_dma.c **** *\*\          - DMA_CH7_INT_TXC
 771:n32g430_std_periph_driver/src/n32g430_dma.c **** *\*\          - DMA_CH7_INT_HTX
 772:n32g430_std_periph_driver/src/n32g430_dma.c **** *\*\          - DMA_CH7_INT_ERR
 773:n32g430_std_periph_driver/src/n32g430_dma.c **** *\*\          - DMA_CH8_INT_GLB
 774:n32g430_std_periph_driver/src/n32g430_dma.c **** *\*\          - DMA_CH8_INT_TXC
 775:n32g430_std_periph_driver/src/n32g430_dma.c **** *\*\          - DMA_CH8_INT_HTX
 776:n32g430_std_periph_driver/src/n32g430_dma.c **** *\*\          - DMA_CH8_INT_ERR
 777:n32g430_std_periph_driver/src/n32g430_dma.c **** *\*\return  SET or RESET.
 778:n32g430_std_periph_driver/src/n32g430_dma.c **** **/
 779:n32g430_std_periph_driver/src/n32g430_dma.c **** INTStatus DMA_Interrupt_Status_Get(DMA_Module* DMAx, uint32_t interrupt)
 780:n32g430_std_periph_driver/src/n32g430_dma.c **** {
 850              		.loc 1 780 1 is_stmt 1 view -0
 851              		.cfi_startproc
 852              		@ args = 0, pretend = 0, frame = 0
 853              		@ frame_needed = 0, uses_anonymous_args = 0
 854              		@ link register save eliminated.
 781:n32g430_std_periph_driver/src/n32g430_dma.c ****     /* Check the status of the specified DMA interrupt */
 782:n32g430_std_periph_driver/src/n32g430_dma.c ****     if ((DMAx->INTSTS & interrupt) == (uint32_t)RESET)
 855              		.loc 1 782 5 view .LVU203
 856              		.loc 1 782 14 is_stmt 0 view .LVU204
 857 0000 0368     		ldr	r3, [r0]
 858              		.loc 1 782 8 view .LVU205
 859 0002 0B42     		tst	r3, r1
 860 0004 01D1     		bne	.L46
 783:n32g430_std_periph_driver/src/n32g430_dma.c ****     {
 784:n32g430_std_periph_driver/src/n32g430_dma.c ****         /* DMA_CHx_IT is reset */
 785:n32g430_std_periph_driver/src/n32g430_dma.c ****         return RESET;
 861              		.loc 1 785 16 view .LVU206
 862 0006 0020     		movs	r0, #0
 863              	.LVL39:
 864              		.loc 1 785 16 view .LVU207
 865 0008 7047     		bx	lr
 866              	.LVL40:
 867              	.L46:
 786:n32g430_std_periph_driver/src/n32g430_dma.c ****     }
 787:n32g430_std_periph_driver/src/n32g430_dma.c ****     else
 788:n32g430_std_periph_driver/src/n32g430_dma.c ****     {
 789:n32g430_std_periph_driver/src/n32g430_dma.c ****         /* DMA_CHx_IT is set */
 790:n32g430_std_periph_driver/src/n32g430_dma.c ****         return SET;
 868              		.loc 1 790 16 view .LVU208
 869 000a 0120     		movs	r0, #1
 870              	.LVL41:
 791:n32g430_std_periph_driver/src/n32g430_dma.c ****     }
 792:n32g430_std_periph_driver/src/n32g430_dma.c **** }
 871              		.loc 1 792 1 view .LVU209
 872 000c 7047     		bx	lr
 873              		.cfi_endproc
 874              	.LFE145:
ARM GAS  C:\Users\Dawn\AppData\Local\Temp\ccJQ0Gde.s 			page 30


 876              		.section	.text.DMA_Interrupt_Status_Clear,"ax",%progbits
 877              		.align	1
 878              		.global	DMA_Interrupt_Status_Clear
 879              		.syntax unified
 880              		.thumb
 881              		.thumb_func
 883              	DMA_Interrupt_Status_Clear:
 884              	.LVL42:
 885              	.LFB146:
 793:n32g430_std_periph_driver/src/n32g430_dma.c **** 
 794:n32g430_std_periph_driver/src/n32g430_dma.c **** /**
 795:n32g430_std_periph_driver/src/n32g430_dma.c **** *\*\name    DMA_Interrupt_Status_Clear.
 796:n32g430_std_periph_driver/src/n32g430_dma.c **** *\*\fun     Clear DMA Channelx interrupt status bits.
 797:n32g430_std_periph_driver/src/n32g430_dma.c **** *\*\param   DMAx :
 798:n32g430_std_periph_driver/src/n32g430_dma.c **** *\*\          - DMA
 799:n32g430_std_periph_driver/src/n32g430_dma.c **** *\*\param   interrupt :
 800:n32g430_std_periph_driver/src/n32g430_dma.c **** *\*\          - DMA_CH1_INT_GLB
 801:n32g430_std_periph_driver/src/n32g430_dma.c **** *\*\          - DMA_CH1_INT_TXC
 802:n32g430_std_periph_driver/src/n32g430_dma.c **** *\*\          - DMA_CH1_INT_HTX
 803:n32g430_std_periph_driver/src/n32g430_dma.c **** *\*\          - DMA_CH1_INT_ERR
 804:n32g430_std_periph_driver/src/n32g430_dma.c **** *\*\          - DMA_CH2_INT_GLB
 805:n32g430_std_periph_driver/src/n32g430_dma.c **** *\*\          - DMA_CH2_INT_TXC
 806:n32g430_std_periph_driver/src/n32g430_dma.c **** *\*\          - DMA_CH2_INT_HTX
 807:n32g430_std_periph_driver/src/n32g430_dma.c **** *\*\          - DMA_CH2_INT_ERR
 808:n32g430_std_periph_driver/src/n32g430_dma.c **** *\*\          - DMA_CH3_INT_GLB
 809:n32g430_std_periph_driver/src/n32g430_dma.c **** *\*\          - DMA_CH3_INT_TXC
 810:n32g430_std_periph_driver/src/n32g430_dma.c **** *\*\          - DMA_CH3_INT_HTX
 811:n32g430_std_periph_driver/src/n32g430_dma.c **** *\*\          - DMA_CH3_INT_ERR
 812:n32g430_std_periph_driver/src/n32g430_dma.c **** *\*\          - DMA_CH4_INT_GLB
 813:n32g430_std_periph_driver/src/n32g430_dma.c **** *\*\          - DMA_CH4_INT_TXC
 814:n32g430_std_periph_driver/src/n32g430_dma.c **** *\*\          - DMA_CH4_INT_HTX
 815:n32g430_std_periph_driver/src/n32g430_dma.c **** *\*\          - DMA_CH4_INT_ERR
 816:n32g430_std_periph_driver/src/n32g430_dma.c **** *\*\          - DMA_CH5_INT_GLB
 817:n32g430_std_periph_driver/src/n32g430_dma.c **** *\*\          - DMA_CH5_INT_TXC
 818:n32g430_std_periph_driver/src/n32g430_dma.c **** *\*\          - DMA_CH5_INT_HTX
 819:n32g430_std_periph_driver/src/n32g430_dma.c **** *\*\          - DMA_CH5_INT_ERR
 820:n32g430_std_periph_driver/src/n32g430_dma.c **** *\*\          - DMA_CH6_INT_GLB
 821:n32g430_std_periph_driver/src/n32g430_dma.c **** *\*\          - DMA_CH6_INT_TXC
 822:n32g430_std_periph_driver/src/n32g430_dma.c **** *\*\          - DMA_CH6_INT_HTX
 823:n32g430_std_periph_driver/src/n32g430_dma.c **** *\*\          - DMA_CH6_INT_ERR
 824:n32g430_std_periph_driver/src/n32g430_dma.c **** *\*\          - DMA_CH7_INT_GLB
 825:n32g430_std_periph_driver/src/n32g430_dma.c **** *\*\          - DMA_CH7_INT_TXC
 826:n32g430_std_periph_driver/src/n32g430_dma.c **** *\*\          - DMA_CH7_INT_HTX
 827:n32g430_std_periph_driver/src/n32g430_dma.c **** *\*\          - DMA_CH7_INT_ERR
 828:n32g430_std_periph_driver/src/n32g430_dma.c **** *\*\          - DMA_CH8_INT_GLB
 829:n32g430_std_periph_driver/src/n32g430_dma.c **** *\*\          - DMA_CH8_INT_TXC
 830:n32g430_std_periph_driver/src/n32g430_dma.c **** *\*\          - DMA_CH8_INT_HTX
 831:n32g430_std_periph_driver/src/n32g430_dma.c **** *\*\          - DMA_CH8_INT_ERR
 832:n32g430_std_periph_driver/src/n32g430_dma.c **** *\*\return  none.
 833:n32g430_std_periph_driver/src/n32g430_dma.c **** **/
 834:n32g430_std_periph_driver/src/n32g430_dma.c **** void DMA_Interrupt_Status_Clear(DMA_Module* DMAx, uint32_t interrupt)
 835:n32g430_std_periph_driver/src/n32g430_dma.c **** {
 886              		.loc 1 835 1 is_stmt 1 view -0
 887              		.cfi_startproc
 888              		@ args = 0, pretend = 0, frame = 0
 889              		@ frame_needed = 0, uses_anonymous_args = 0
 890              		@ link register save eliminated.
ARM GAS  C:\Users\Dawn\AppData\Local\Temp\ccJQ0Gde.s 			page 31


 836:n32g430_std_periph_driver/src/n32g430_dma.c ****     /* Clear the selected DMA interrupt status bits */
 837:n32g430_std_periph_driver/src/n32g430_dma.c ****     DMAx->INTCLR = interrupt;
 891              		.loc 1 837 5 view .LVU211
 892              		.loc 1 837 18 is_stmt 0 view .LVU212
 893 0000 4160     		str	r1, [r0, #4]
 838:n32g430_std_periph_driver/src/n32g430_dma.c **** }
 894              		.loc 1 838 1 view .LVU213
 895 0002 7047     		bx	lr
 896              		.cfi_endproc
 897              	.LFE146:
 899              		.section	.text.DMA_Channel_Request_Remap,"ax",%progbits
 900              		.align	1
 901              		.global	DMA_Channel_Request_Remap
 902              		.syntax unified
 903              		.thumb
 904              		.thumb_func
 906              	DMA_Channel_Request_Remap:
 907              	.LVL43:
 908              	.LFB147:
 839:n32g430_std_periph_driver/src/n32g430_dma.c **** 
 840:n32g430_std_periph_driver/src/n32g430_dma.c **** /**
 841:n32g430_std_periph_driver/src/n32g430_dma.c **** *\*\name    DMA_Channel_Request_Remap.
 842:n32g430_std_periph_driver/src/n32g430_dma.c **** *\*\fun     Set DMA Channelx's remap request.
 843:n32g430_std_periph_driver/src/n32g430_dma.c **** *\*\param   DMAChx :
 844:n32g430_std_periph_driver/src/n32g430_dma.c **** *\*\          - DMA_CH1
 845:n32g430_std_periph_driver/src/n32g430_dma.c **** *\*\          - DMA_CH2
 846:n32g430_std_periph_driver/src/n32g430_dma.c **** *\*\          - DMA_CH3
 847:n32g430_std_periph_driver/src/n32g430_dma.c **** *\*\          - DMA_CH4
 848:n32g430_std_periph_driver/src/n32g430_dma.c **** *\*\          - DMA_CH5
 849:n32g430_std_periph_driver/src/n32g430_dma.c **** *\*\          - DMA_CH6
 850:n32g430_std_periph_driver/src/n32g430_dma.c **** *\*\          - DMA_CH7
 851:n32g430_std_periph_driver/src/n32g430_dma.c **** *\*\          - DMA_CH8
 852:n32g430_std_periph_driver/src/n32g430_dma.c **** *\*\param   req_remap :
 853:n32g430_std_periph_driver/src/n32g430_dma.c **** *\*\          - DMA_REMAP_ADC
 854:n32g430_std_periph_driver/src/n32g430_dma.c **** *\*\          - DMA_REMAP_USART1_TX
 855:n32g430_std_periph_driver/src/n32g430_dma.c **** *\*\          - DMA_REMAP_USART1_RX
 856:n32g430_std_periph_driver/src/n32g430_dma.c **** *\*\          - DMA_REMAP_USART2_TX
 857:n32g430_std_periph_driver/src/n32g430_dma.c **** *\*\          - DMA_REMAP_USART2_RX
 858:n32g430_std_periph_driver/src/n32g430_dma.c **** *\*\          - DMA_REMAP_UART3_TX
 859:n32g430_std_periph_driver/src/n32g430_dma.c **** *\*\          - DMA_REMAP_UART3_RX
 860:n32g430_std_periph_driver/src/n32g430_dma.c **** *\*\          - DMA_REMAP_UART4_TX
 861:n32g430_std_periph_driver/src/n32g430_dma.c **** *\*\          - DMA_REMAP_UART4_RX
 862:n32g430_std_periph_driver/src/n32g430_dma.c **** *\*\          - DMA_REMAP_SPI1_TX
 863:n32g430_std_periph_driver/src/n32g430_dma.c **** *\*\          - DMA_REMAP_SPI1_RX
 864:n32g430_std_periph_driver/src/n32g430_dma.c **** *\*\          - DMA_REMAP_SPI2_TX
 865:n32g430_std_periph_driver/src/n32g430_dma.c **** *\*\          - DMA_REMAP_SPI2_RX
 866:n32g430_std_periph_driver/src/n32g430_dma.c **** *\*\          - DMA_REMAP_I2C1_TX
 867:n32g430_std_periph_driver/src/n32g430_dma.c **** *\*\          - DMA_REMAP_I2C1_RX
 868:n32g430_std_periph_driver/src/n32g430_dma.c **** *\*\          - DMA_REMAP_I2C2_TX
 869:n32g430_std_periph_driver/src/n32g430_dma.c **** *\*\          - DMA_REMAP_I2C2_RX
 870:n32g430_std_periph_driver/src/n32g430_dma.c **** *\*\          - DMA_REMAP_TIM1_CH1
 871:n32g430_std_periph_driver/src/n32g430_dma.c **** *\*\          - DMA_REMAP_TIM1_CH2
 872:n32g430_std_periph_driver/src/n32g430_dma.c **** *\*\          - DMA_REMAP_TIM1_CH3
 873:n32g430_std_periph_driver/src/n32g430_dma.c **** *\*\          - DMA_REMAP_TIM1_CH4
 874:n32g430_std_periph_driver/src/n32g430_dma.c **** *\*\          - DMA_REMAP_TIM1_COM
 875:n32g430_std_periph_driver/src/n32g430_dma.c **** *\*\          - DMA_REMAP_TIM1_UP
 876:n32g430_std_periph_driver/src/n32g430_dma.c **** *\*\          - DMA_REMAP_TIM1_TRIG
ARM GAS  C:\Users\Dawn\AppData\Local\Temp\ccJQ0Gde.s 			page 32


 877:n32g430_std_periph_driver/src/n32g430_dma.c **** *\*\          - DMA_REMAP_TIM2_CH1
 878:n32g430_std_periph_driver/src/n32g430_dma.c **** *\*\          - DMA_REMAP_TIM2_CH2
 879:n32g430_std_periph_driver/src/n32g430_dma.c **** *\*\          - DMA_REMAP_TIM2_CH3
 880:n32g430_std_periph_driver/src/n32g430_dma.c **** *\*\          - DMA_REMAP_TIM2_CH4
 881:n32g430_std_periph_driver/src/n32g430_dma.c **** *\*\          - DMA_REMAP_TIM2_UP
 882:n32g430_std_periph_driver/src/n32g430_dma.c **** *\*\          - DMA_REMAP_TIM3_CH1
 883:n32g430_std_periph_driver/src/n32g430_dma.c **** *\*\          - DMA_REMAP_TIM3_CH3
 884:n32g430_std_periph_driver/src/n32g430_dma.c **** *\*\          - DMA_REMAP_TIM3_CH4
 885:n32g430_std_periph_driver/src/n32g430_dma.c **** *\*\          - DMA_REMAP_TIM3_UP
 886:n32g430_std_periph_driver/src/n32g430_dma.c **** *\*\          - DMA_REMAP_TIM3_TRIG
 887:n32g430_std_periph_driver/src/n32g430_dma.c **** *\*\          - DMA_REMAP_TIM4_CH1
 888:n32g430_std_periph_driver/src/n32g430_dma.c **** *\*\          - DMA_REMAP_TIM4_CH2
 889:n32g430_std_periph_driver/src/n32g430_dma.c **** *\*\          - DMA_REMAP_TIM4_CH3
 890:n32g430_std_periph_driver/src/n32g430_dma.c **** *\*\          - DMA_REMAP_TIM4_UP
 891:n32g430_std_periph_driver/src/n32g430_dma.c **** *\*\          - DMA_REMAP_TIM5_CH1
 892:n32g430_std_periph_driver/src/n32g430_dma.c **** *\*\          - DMA_REMAP_TIM5_CH2
 893:n32g430_std_periph_driver/src/n32g430_dma.c **** *\*\          - DMA_REMAP_TIM5_CH3
 894:n32g430_std_periph_driver/src/n32g430_dma.c **** *\*\          - DMA_REMAP_TIM5_CH4
 895:n32g430_std_periph_driver/src/n32g430_dma.c **** *\*\          - DMA_REMAP_TIM5_UP
 896:n32g430_std_periph_driver/src/n32g430_dma.c **** *\*\          - DMA_REMAP_TIM5_TRIG
 897:n32g430_std_periph_driver/src/n32g430_dma.c **** *\*\          - DMA_REMAP_TIM6_UP
 898:n32g430_std_periph_driver/src/n32g430_dma.c **** *\*\          - DMA_REMAP_TIM8_CH1
 899:n32g430_std_periph_driver/src/n32g430_dma.c **** *\*\          - DMA_REMAP_TIM8_CH2
 900:n32g430_std_periph_driver/src/n32g430_dma.c **** *\*\          - DMA_REMAP_TIM8_CH3
 901:n32g430_std_periph_driver/src/n32g430_dma.c **** *\*\          - DMA_REMAP_TIM8_CH4
 902:n32g430_std_periph_driver/src/n32g430_dma.c **** *\*\          - DMA_REMAP_TIM8_COM
 903:n32g430_std_periph_driver/src/n32g430_dma.c **** *\*\          - DMA_REMAP_TIM8_UP
 904:n32g430_std_periph_driver/src/n32g430_dma.c **** *\*\          - DMA_REMAP_TIM8_TRIG
 905:n32g430_std_periph_driver/src/n32g430_dma.c **** *\*\return  none.
 906:n32g430_std_periph_driver/src/n32g430_dma.c **** **/
 907:n32g430_std_periph_driver/src/n32g430_dma.c **** void DMA_Channel_Request_Remap(DMA_ChannelType* DMAChx, uint32_t req_remap)
 908:n32g430_std_periph_driver/src/n32g430_dma.c **** {
 909              		.loc 1 908 1 is_stmt 1 view -0
 910              		.cfi_startproc
 911              		@ args = 0, pretend = 0, frame = 0
 912              		@ frame_needed = 0, uses_anonymous_args = 0
 913              		@ link register save eliminated.
 909:n32g430_std_periph_driver/src/n32g430_dma.c ****     /* Set the selected DMA request remap */
 910:n32g430_std_periph_driver/src/n32g430_dma.c ****     DMAChx->CHSEL = req_remap;
 914              		.loc 1 910 5 view .LVU215
 915              		.loc 1 910 19 is_stmt 0 view .LVU216
 916 0000 0161     		str	r1, [r0, #16]
 911:n32g430_std_periph_driver/src/n32g430_dma.c **** }
 917              		.loc 1 911 1 view .LVU217
 918 0002 7047     		bx	lr
 919              		.cfi_endproc
 920              	.LFE147:
 922              		.text
 923              	.Letext0:
 924              		.file 2 "D:/Tools/arm-gnu-toolchain/arm-none-eabi/include/machine/_default_types.h"
 925              		.file 3 "D:/Tools/arm-gnu-toolchain/arm-none-eabi/include/sys/_stdint.h"
 926              		.file 4 "CMSIS/device/n32g430.h"
 927              		.file 5 "n32g430_std_periph_driver/inc/n32g430_dma.h"
ARM GAS  C:\Users\Dawn\AppData\Local\Temp\ccJQ0Gde.s 			page 33

