ARM GAS  C:\Users\Dawn\AppData\Local\Temp\ccNmhKed.s 			page 1


   1              		.cpu cortex-m4
   2              		.arch armv7e-m
   3              		.fpu fpv4-sp-d16
   4              		.eabi_attribute 27, 1
   5              		.eabi_attribute 28, 1
   6              		.eabi_attribute 20, 1
   7              		.eabi_attribute 21, 1
   8              		.eabi_attribute 23, 3
   9              		.eabi_attribute 24, 1
  10              		.eabi_attribute 25, 1
  11              		.eabi_attribute 26, 1
  12              		.eabi_attribute 30, 4
  13              		.eabi_attribute 34, 1
  14              		.eabi_attribute 18, 4
  15              		.file	"bsp_usart.c"
  16              		.text
  17              	.Ltext0:
  18              		.cfi_sections	.debug_frame
  19              		.file 1 "../core/src/bsp_usart.c"
  20              		.section	.text.USART1_Init,"ax",%progbits
  21              		.align	1
  22              		.global	USART1_Init
  23              		.syntax unified
  24              		.thumb
  25              		.thumb_func
  27              	USART1_Init:
  28              	.LFB130:
   1:../core/src/bsp_usart.c **** /**
   2:../core/src/bsp_usart.c ****  * @file bsp_usart.c
   3:../core/src/bsp_usart.c ****  * @author brookdawn
   4:../core/src/bsp_usart.c ****  * @brief 串口初始化
   5:../core/src/bsp_usart.c ****  * @version 0.1
   6:../core/src/bsp_usart.c ****  * @date 2025-07-06
   7:../core/src/bsp_usart.c ****  * @copyright Copyright (c) 2025
   8:../core/src/bsp_usart.c ****  */
   9:../core/src/bsp_usart.c **** 
  10:../core/src/bsp_usart.c **** #include "n32g430.h"
  11:../core/src/bsp_usart.c **** #include "n32g430_dma.h"
  12:../core/src/bsp_usart.c **** #include "bsp_usart.h"
  13:../core/src/bsp_usart.c **** #include "bsp_delay.h"
  14:../core/src/bsp_usart.c **** 
  15:../core/src/bsp_usart.c **** #include <stddef.h>
  16:../core/src/bsp_usart.c **** #include <string.h>
  17:../core/src/bsp_usart.c **** 
  18:../core/src/bsp_usart.c **** /* 接收缓冲区 */
  19:../core/src/bsp_usart.c **** static uint8_t usart1_rx_buffer[USART1_RX_BUFFER_SIZE];
  20:../core/src/bsp_usart.c **** static uint16_t rx_head = 0;
  21:../core/src/bsp_usart.c **** static uint16_t rx_tail = 0;
  22:../core/src/bsp_usart.c **** static uint16_t rx_count = 0;
  23:../core/src/bsp_usart.c **** 
  24:../core/src/bsp_usart.c **** /* USART2 DMA缓冲区和状态 */
  25:../core/src/bsp_usart.c **** static uint8_t usart2_tx_dma_buffer[USART2_TX_DMA_BUFFER_SIZE];
  26:../core/src/bsp_usart.c **** static uint8_t usart2_rx_dma_buffer[USART2_RX_DMA_BUFFER_SIZE];
  27:../core/src/bsp_usart.c **** static volatile uint16_t usart2_rx_write_index = 0;
  28:../core/src/bsp_usart.c **** static volatile uint16_t usart2_rx_read_index = 0;
  29:../core/src/bsp_usart.c **** static volatile bool usart2_tx_busy = false;
  30:../core/src/bsp_usart.c **** static volatile uint16_t usart2_last_dma_counter = 0;
ARM GAS  C:\Users\Dawn\AppData\Local\Temp\ccNmhKed.s 			page 2


  31:../core/src/bsp_usart.c **** 
  32:../core/src/bsp_usart.c **** /**
  33:../core/src/bsp_usart.c ****  *\*\name   USART1_Init.
  34:../core/src/bsp_usart.c ****  *\*\fun    Initialize USART1.
  35:../core/src/bsp_usart.c ****  *\*\param  none.
  36:../core/src/bsp_usart.c ****  *\*\return none.
  37:../core/src/bsp_usart.c **** **/
  38:../core/src/bsp_usart.c **** void USART1_Init(void)
  39:../core/src/bsp_usart.c **** {
  29              		.loc 1 39 1 view -0
  30              		.cfi_startproc
  31              		@ args = 0, pretend = 0, frame = 48
  32              		@ frame_needed = 0, uses_anonymous_args = 0
  40:../core/src/bsp_usart.c ****     GPIO_InitType GPIO_InitStructure;
  33              		.loc 1 40 5 view .LVU1
  41:../core/src/bsp_usart.c ****     USART_InitType USART_InitStructure;
  34              		.loc 1 41 5 view .LVU2
  42:../core/src/bsp_usart.c ****     NVIC_InitType NVIC_InitStructure;
  35              		.loc 1 42 5 view .LVU3
  43:../core/src/bsp_usart.c **** 
  44:../core/src/bsp_usart.c ****     /* 使能GPIOA和USART1时钟 */
  45:../core/src/bsp_usart.c ****     RCC_AHB_Peripheral_Clock_Enable(USART1_GPIO_CLK);
  36              		.loc 1 45 5 view .LVU4
  39:../core/src/bsp_usart.c ****     GPIO_InitType GPIO_InitStructure;
  37              		.loc 1 39 1 is_stmt 0 view .LVU5
  38 0000 70B5     		push	{r4, r5, r6, lr}
  39              	.LCFI0:
  40              		.cfi_def_cfa_offset 16
  41              		.cfi_offset 4, -16
  42              		.cfi_offset 5, -12
  43              		.cfi_offset 6, -8
  44              		.cfi_offset 14, -4
  45              		.loc 1 45 5 view .LVU6
  46 0002 8020     		movs	r0, #128
  39:../core/src/bsp_usart.c ****     GPIO_InitType GPIO_InitStructure;
  47              		.loc 1 39 1 view .LVU7
  48 0004 8CB0     		sub	sp, sp, #48
  49              	.LCFI1:
  50              		.cfi_def_cfa_offset 64
  51              		.loc 1 45 5 view .LVU8
  52 0006 FFF7FEFF 		bl	RCC_AHB_Peripheral_Clock_Enable
  53              	.LVL0:
  46:../core/src/bsp_usart.c ****     RCC_APB2_Peripheral_Clock_Enable(USART1_CLK);
  54              		.loc 1 46 5 is_stmt 1 view .LVU9
  55 000a 4FF48040 		mov	r0, #16384
  56 000e FFF7FEFF 		bl	RCC_APB2_Peripheral_Clock_Enable
  57              	.LVL1:
  47:../core/src/bsp_usart.c **** 
  48:../core/src/bsp_usart.c ****     /* 配置USART1 TX引脚 (PA9) */
  49:../core/src/bsp_usart.c ****     GPIO_InitStructure.Pin              = USART1_TX_PIN;
  58              		.loc 1 49 5 view .LVU10
  50:../core/src/bsp_usart.c ****     GPIO_InitStructure.GPIO_Mode        = GPIO_MODE_AF_PP;
  51:../core/src/bsp_usart.c ****     GPIO_InitStructure.GPIO_Pull        = GPIO_NO_PULL;
  59              		.loc 1 51 41 is_stmt 0 view .LVU11
  60 0012 0024     		movs	r4, #0
  50:../core/src/bsp_usart.c ****     GPIO_InitStructure.GPIO_Mode        = GPIO_MODE_AF_PP;
  61              		.loc 1 50 41 view .LVU12
ARM GAS  C:\Users\Dawn\AppData\Local\Temp\ccNmhKed.s 			page 3


  62 0014 4FF40072 		mov	r2, #512
  63 0018 0223     		movs	r3, #2
  52:../core/src/bsp_usart.c ****     GPIO_InitStructure.GPIO_Slew_Rate   = GPIO_SLEW_RATE_FAST;
  53:../core/src/bsp_usart.c ****     GPIO_InitStructure.GPIO_Current     = GPIO_DS_8MA;
  54:../core/src/bsp_usart.c ****     GPIO_InitStructure.GPIO_Alternate   = GPIO_AF5_USART1;
  64              		.loc 1 54 41 view .LVU13
  65 001a 0126     		movs	r6, #1
  66 001c 0525     		movs	r5, #5
  55:../core/src/bsp_usart.c ****     GPIO_Peripheral_Initialize(USART1_GPIO_PORT, &GPIO_InitStructure);
  67              		.loc 1 55 5 view .LVU14
  68 001e 06A9     		add	r1, sp, #24
  69 0020 1B48     		ldr	r0, .L2
  50:../core/src/bsp_usart.c ****     GPIO_InitStructure.GPIO_Mode        = GPIO_MODE_AF_PP;
  70              		.loc 1 50 41 view .LVU15
  71 0022 CDE90623 		strd	r2, r3, [sp, #24]
  51:../core/src/bsp_usart.c ****     GPIO_InitStructure.GPIO_Slew_Rate   = GPIO_SLEW_RATE_FAST;
  72              		.loc 1 51 5 is_stmt 1 view .LVU16
  52:../core/src/bsp_usart.c ****     GPIO_InitStructure.GPIO_Slew_Rate   = GPIO_SLEW_RATE_FAST;
  73              		.loc 1 52 41 is_stmt 0 view .LVU17
  74 0026 CDE90844 		strd	r4, r4, [sp, #32]
  53:../core/src/bsp_usart.c ****     GPIO_InitStructure.GPIO_Alternate   = GPIO_AF5_USART1;
  75              		.loc 1 53 5 is_stmt 1 view .LVU18
  54:../core/src/bsp_usart.c ****     GPIO_Peripheral_Initialize(USART1_GPIO_PORT, &GPIO_InitStructure);
  76              		.loc 1 54 41 is_stmt 0 view .LVU19
  77 002a CDE90A65 		strd	r6, r5, [sp, #40]
  78              		.loc 1 55 5 is_stmt 1 view .LVU20
  79 002e FFF7FEFF 		bl	GPIO_Peripheral_Initialize
  80              	.LVL2:
  56:../core/src/bsp_usart.c **** 
  57:../core/src/bsp_usart.c ****     /* 配置USART1 RX引脚 (PA10) */
  58:../core/src/bsp_usart.c ****     GPIO_InitStructure.Pin              = USART1_RX_PIN;
  81              		.loc 1 58 5 view .LVU21
  82              		.loc 1 58 41 is_stmt 0 view .LVU22
  83 0032 4FF48063 		mov	r3, #1024
  59:../core/src/bsp_usart.c ****     GPIO_InitStructure.GPIO_Mode        = GPIO_MODE_INPUT;
  60:../core/src/bsp_usart.c ****     GPIO_InitStructure.GPIO_Pull        = GPIO_NO_PULL;
  61:../core/src/bsp_usart.c ****     GPIO_InitStructure.GPIO_Slew_Rate   = GPIO_SLEW_RATE_FAST;
  62:../core/src/bsp_usart.c ****     GPIO_InitStructure.GPIO_Current     = GPIO_DS_8MA;
  63:../core/src/bsp_usart.c ****     GPIO_InitStructure.GPIO_Alternate   = GPIO_AF5_USART1;
  64:../core/src/bsp_usart.c ****     GPIO_Peripheral_Initialize(USART1_GPIO_PORT, &GPIO_InitStructure);
  84              		.loc 1 64 5 view .LVU23
  85 0036 06A9     		add	r1, sp, #24
  86 0038 1548     		ldr	r0, .L2
  59:../core/src/bsp_usart.c ****     GPIO_InitStructure.GPIO_Mode        = GPIO_MODE_INPUT;
  87              		.loc 1 59 41 view .LVU24
  88 003a CDE90634 		strd	r3, r4, [sp, #24]
  60:../core/src/bsp_usart.c ****     GPIO_InitStructure.GPIO_Slew_Rate   = GPIO_SLEW_RATE_FAST;
  89              		.loc 1 60 5 is_stmt 1 view .LVU25
  61:../core/src/bsp_usart.c ****     GPIO_InitStructure.GPIO_Current     = GPIO_DS_8MA;
  90              		.loc 1 61 41 is_stmt 0 view .LVU26
  91 003e CDE90844 		strd	r4, r4, [sp, #32]
  62:../core/src/bsp_usart.c ****     GPIO_InitStructure.GPIO_Alternate   = GPIO_AF5_USART1;
  92              		.loc 1 62 5 is_stmt 1 view .LVU27
  63:../core/src/bsp_usart.c ****     GPIO_Peripheral_Initialize(USART1_GPIO_PORT, &GPIO_InitStructure);
  93              		.loc 1 63 41 is_stmt 0 view .LVU28
  94 0042 CDE90A65 		strd	r6, r5, [sp, #40]
  95              		.loc 1 64 5 is_stmt 1 view .LVU29
ARM GAS  C:\Users\Dawn\AppData\Local\Temp\ccNmhKed.s 			page 4


  96 0046 FFF7FEFF 		bl	GPIO_Peripheral_Initialize
  97              	.LVL3:
  65:../core/src/bsp_usart.c **** 
  66:../core/src/bsp_usart.c ****     /* USART1配置 */
  67:../core/src/bsp_usart.c ****     USART_InitStructure.BaudRate        = USART1_BAUDRATE;
  98              		.loc 1 67 5 view .LVU30
  68:../core/src/bsp_usart.c ****     USART_InitStructure.WordLength      = USART1_WORDLENGTH;
  99              		.loc 1 68 5 view .LVU31
  69:../core/src/bsp_usart.c ****     USART_InitStructure.StopBits        = USART1_STOPBITS;
 100              		.loc 1 69 5 view .LVU32
  70:../core/src/bsp_usart.c ****     USART_InitStructure.Parity          = USART1_PARITY;
 101              		.loc 1 70 5 view .LVU33
  71:../core/src/bsp_usart.c ****     USART_InitStructure.HardwareFlowControl = USART1_HARDWAREFLOWCTL;
 102              		.loc 1 71 5 view .LVU34
  72:../core/src/bsp_usart.c ****     USART_InitStructure.Mode            = USART1_MODE;
 103              		.loc 1 72 5 view .LVU35
  67:../core/src/bsp_usart.c ****     USART_InitStructure.WordLength      = USART1_WORDLENGTH;
 104              		.loc 1 67 41 is_stmt 0 view .LVU36
 105 004a 4FF4E133 		mov	r3, #115200
  68:../core/src/bsp_usart.c ****     USART_InitStructure.StopBits        = USART1_STOPBITS;
 106              		.loc 1 68 41 view .LVU37
 107 004e CDE90234 		strd	r3, r4, [sp, #8]
  73:../core/src/bsp_usart.c ****     USART_Initializes(USART1, &USART_InitStructure);
 108              		.loc 1 73 5 view .LVU38
 109 0052 02A9     		add	r1, sp, #8
  70:../core/src/bsp_usart.c ****     USART_InitStructure.HardwareFlowControl = USART1_HARDWAREFLOWCTL;
 110              		.loc 1 70 41 view .LVU39
 111 0054 4FF44023 		mov	r3, #786432
 112              		.loc 1 73 5 view .LVU40
 113 0058 0E48     		ldr	r0, .L2+4
  70:../core/src/bsp_usart.c ****     USART_InitStructure.HardwareFlowControl = USART1_HARDWAREFLOWCTL;
 114              		.loc 1 70 41 view .LVU41
 115 005a 0493     		str	r3, [sp, #16]
  71:../core/src/bsp_usart.c ****     USART_InitStructure.Mode            = USART1_MODE;
 116              		.loc 1 71 45 view .LVU42
 117 005c ADF81440 		strh	r4, [sp, #20]	@ movhi
 118              		.loc 1 73 5 is_stmt 1 view .LVU43
 119 0060 FFF7FEFF 		bl	USART_Initializes
 120              	.LVL4:
  74:../core/src/bsp_usart.c **** 
  75:../core/src/bsp_usart.c ****     /* 使能USART1接收中断 */
  76:../core/src/bsp_usart.c ****     USART_Interrput_Enable(USART1, USART_INT_RXDNE);
 121              		.loc 1 76 5 view .LVU44
 122 0064 40F22551 		movw	r1, #1317
 123 0068 0A48     		ldr	r0, .L2+4
 124 006a FFF7FEFF 		bl	USART_Interrput_Enable
 125              	.LVL5:
  77:../core/src/bsp_usart.c **** 
  78:../core/src/bsp_usart.c ****     /* 配置USART1中断优先级 */
  79:../core/src/bsp_usart.c ****     NVIC_InitStructure.NVIC_IRQChannel = USART1_IRQn;
 126              		.loc 1 79 5 view .LVU45
  80:../core/src/bsp_usart.c ****     NVIC_InitStructure.NVIC_IRQChannelPreemptionPriority = 0;
 127              		.loc 1 80 5 view .LVU46
  81:../core/src/bsp_usart.c ****     NVIC_InitStructure.NVIC_IRQChannelSubPriority = 0;
 128              		.loc 1 81 5 view .LVU47
  82:../core/src/bsp_usart.c ****     NVIC_InitStructure.NVIC_IRQChannelCmd = ENABLE;
 129              		.loc 1 82 5 view .LVU48
ARM GAS  C:\Users\Dawn\AppData\Local\Temp\ccNmhKed.s 			page 5


  79:../core/src/bsp_usart.c ****     NVIC_InitStructure.NVIC_IRQChannelPreemptionPriority = 0;
 130              		.loc 1 79 40 is_stmt 0 view .LVU49
 131 006e 0A4B     		ldr	r3, .L2+8
 132 0070 0193     		str	r3, [sp, #4]
  83:../core/src/bsp_usart.c ****     NVIC_Initializes(&NVIC_InitStructure);
 133              		.loc 1 83 5 is_stmt 1 view .LVU50
 134 0072 01A8     		add	r0, sp, #4
 135 0074 FFF7FEFF 		bl	NVIC_Initializes
 136              	.LVL6:
  84:../core/src/bsp_usart.c **** 
  85:../core/src/bsp_usart.c ****     /* 使能USART1 */
  86:../core/src/bsp_usart.c ****     USART_Enable(USART1);
 137              		.loc 1 86 5 view .LVU51
 138 0078 0648     		ldr	r0, .L2+4
 139 007a FFF7FEFF 		bl	USART_Enable
 140              	.LVL7:
  87:../core/src/bsp_usart.c **** 
  88:../core/src/bsp_usart.c ****     /* 初始化接收缓冲区 */
  89:../core/src/bsp_usart.c ****     rx_head = 0;
 141              		.loc 1 89 5 view .LVU52
 142              		.loc 1 89 13 is_stmt 0 view .LVU53
 143 007e 074B     		ldr	r3, .L2+12
 144 0080 1C80     		strh	r4, [r3]	@ movhi
  90:../core/src/bsp_usart.c ****     rx_tail = 0;
 145              		.loc 1 90 5 is_stmt 1 view .LVU54
 146              		.loc 1 90 13 is_stmt 0 view .LVU55
 147 0082 074B     		ldr	r3, .L2+16
 148 0084 1C80     		strh	r4, [r3]	@ movhi
  91:../core/src/bsp_usart.c ****     rx_count = 0;
 149              		.loc 1 91 5 is_stmt 1 view .LVU56
 150              		.loc 1 91 14 is_stmt 0 view .LVU57
 151 0086 074B     		ldr	r3, .L2+20
 152 0088 1C80     		strh	r4, [r3]	@ movhi
  92:../core/src/bsp_usart.c **** }
 153              		.loc 1 92 1 view .LVU58
 154 008a 0CB0     		add	sp, sp, #48
 155              	.LCFI2:
 156              		.cfi_def_cfa_offset 16
 157              		@ sp needed
 158 008c 70BD     		pop	{r4, r5, r6, pc}
 159              	.L3:
 160 008e 00BF     		.align	2
 161              	.L2:
 162 0090 00340240 		.word	1073886208
 163 0094 00380140 		.word	1073821696
 164 0098 24000001 		.word	16777252
 165 009c 00000000 		.word	rx_head
 166 00a0 00000000 		.word	rx_tail
 167 00a4 00000000 		.word	rx_count
 168              		.cfi_endproc
 169              	.LFE130:
 171              		.section	.text.USART1_SendByte,"ax",%progbits
 172              		.align	1
 173              		.global	USART1_SendByte
 174              		.syntax unified
 175              		.thumb
 176              		.thumb_func
ARM GAS  C:\Users\Dawn\AppData\Local\Temp\ccNmhKed.s 			page 6


 178              	USART1_SendByte:
 179              	.LVL8:
 180              	.LFB131:
  93:../core/src/bsp_usart.c **** 
  94:../core/src/bsp_usart.c **** /**
  95:../core/src/bsp_usart.c ****  *\*\name   USART1_SendByte.
  96:../core/src/bsp_usart.c ****  *\*\fun    Send one byte via USART1.
  97:../core/src/bsp_usart.c ****  *\*\param  data: byte to send.
  98:../core/src/bsp_usart.c ****  *\*\return none.
  99:../core/src/bsp_usart.c **** **/
 100:../core/src/bsp_usart.c **** void USART1_SendByte(uint8_t data)
 101:../core/src/bsp_usart.c **** {
 181              		.loc 1 101 1 is_stmt 1 view -0
 182              		.cfi_startproc
 183              		@ args = 0, pretend = 0, frame = 0
 184              		@ frame_needed = 0, uses_anonymous_args = 0
 185              		.loc 1 101 1 is_stmt 0 view .LVU60
 186 0000 10B5     		push	{r4, lr}
 187              	.LCFI3:
 188              		.cfi_def_cfa_offset 8
 189              		.cfi_offset 4, -8
 190              		.cfi_offset 14, -4
 191 0002 0446     		mov	r4, r0
 102:../core/src/bsp_usart.c ****     /* 等待发送数据寄存器为空 */
 103:../core/src/bsp_usart.c ****     while(USART_Flag_Status_Get(USART1, USART_FLAG_TXDE) == RESET);
 192              		.loc 1 103 5 is_stmt 1 view .LVU61
 193              	.LVL9:
 194              	.L5:
 195              		.loc 1 103 58 discriminator 1 view .LVU62
 196              		.loc 1 103 11 is_stmt 0 discriminator 1 view .LVU63
 197 0004 0548     		ldr	r0, .L8
 198 0006 8021     		movs	r1, #128
 199 0008 FFF7FEFF 		bl	USART_Flag_Status_Get
 200              	.LVL10:
 201              		.loc 1 103 58 discriminator 1 view .LVU64
 202 000c 0028     		cmp	r0, #0
 203 000e F9D0     		beq	.L5
 104:../core/src/bsp_usart.c **** 
 105:../core/src/bsp_usart.c ****     /* 发送数据 */
 106:../core/src/bsp_usart.c ****     USART_Data_Send(USART1, data);
 204              		.loc 1 106 5 is_stmt 1 view .LVU65
 205 0010 2146     		mov	r1, r4
 206 0012 0248     		ldr	r0, .L8
 107:../core/src/bsp_usart.c **** }
 207              		.loc 1 107 1 is_stmt 0 view .LVU66
 208 0014 BDE81040 		pop	{r4, lr}
 209              	.LCFI4:
 210              		.cfi_restore 14
 211              		.cfi_restore 4
 212              		.cfi_def_cfa_offset 0
 213              	.LVL11:
 106:../core/src/bsp_usart.c **** }
 214              		.loc 1 106 5 view .LVU67
 215 0018 FFF7FEBF 		b	USART_Data_Send
 216              	.LVL12:
 217              	.L9:
 106:../core/src/bsp_usart.c **** }
ARM GAS  C:\Users\Dawn\AppData\Local\Temp\ccNmhKed.s 			page 7


 218              		.loc 1 106 5 view .LVU68
 219              		.align	2
 220              	.L8:
 221 001c 00380140 		.word	1073821696
 222              		.cfi_endproc
 223              	.LFE131:
 225              		.section	.text.USART1_SendString,"ax",%progbits
 226              		.align	1
 227              		.global	USART1_SendString
 228              		.syntax unified
 229              		.thumb
 230              		.thumb_func
 232              	USART1_SendString:
 233              	.LVL13:
 234              	.LFB132:
 108:../core/src/bsp_usart.c **** 
 109:../core/src/bsp_usart.c **** /**
 110:../core/src/bsp_usart.c ****  *\*\name   USART1_SendString.
 111:../core/src/bsp_usart.c ****  *\*\fun    Send string via USART1.
 112:../core/src/bsp_usart.c ****  *\*\param  str: string to send.
 113:../core/src/bsp_usart.c ****  *\*\return none.
 114:../core/src/bsp_usart.c **** **/
 115:../core/src/bsp_usart.c **** void USART1_SendString(const char* str)
 116:../core/src/bsp_usart.c **** {
 235              		.loc 1 116 1 is_stmt 1 view -0
 236              		.cfi_startproc
 237              		@ args = 0, pretend = 0, frame = 0
 238              		@ frame_needed = 0, uses_anonymous_args = 0
 117:../core/src/bsp_usart.c ****     while(*str)
 239              		.loc 1 117 5 view .LVU70
 116:../core/src/bsp_usart.c ****     while(*str)
 240              		.loc 1 116 1 is_stmt 0 view .LVU71
 241 0000 10B5     		push	{r4, lr}
 242              	.LCFI5:
 243              		.cfi_def_cfa_offset 8
 244              		.cfi_offset 4, -8
 245              		.cfi_offset 14, -4
 246 0002 441E     		subs	r4, r0, #1
 247              	.LVL14:
 248              	.L11:
 249              		.loc 1 117 11 is_stmt 1 view .LVU72
 250 0004 14F8010F 		ldrb	r0, [r4, #1]!	@ zero_extendqisi2
 251              	.LVL15:
 252              		.loc 1 117 11 is_stmt 0 view .LVU73
 253 0008 00B9     		cbnz	r0, .L12
 118:../core/src/bsp_usart.c ****     {
 119:../core/src/bsp_usart.c ****         USART1_SendByte(*str++);
 120:../core/src/bsp_usart.c ****     }
 121:../core/src/bsp_usart.c **** }
 254              		.loc 1 121 1 view .LVU74
 255 000a 10BD     		pop	{r4, pc}
 256              	.LVL16:
 257              	.L12:
 119:../core/src/bsp_usart.c ****     }
 258              		.loc 1 119 9 is_stmt 1 view .LVU75
 119:../core/src/bsp_usart.c ****     }
 259              		.loc 1 119 9 is_stmt 0 view .LVU76
ARM GAS  C:\Users\Dawn\AppData\Local\Temp\ccNmhKed.s 			page 8


 260 000c FFF7FEFF 		bl	USART1_SendByte
 261              	.LVL17:
 262 0010 F8E7     		b	.L11
 263              		.cfi_endproc
 264              	.LFE132:
 266              		.section	.text.USART1_SendArray,"ax",%progbits
 267              		.align	1
 268              		.global	USART1_SendArray
 269              		.syntax unified
 270              		.thumb
 271              		.thumb_func
 273              	USART1_SendArray:
 274              	.LVL18:
 275              	.LFB133:
 122:../core/src/bsp_usart.c **** 
 123:../core/src/bsp_usart.c **** /**
 124:../core/src/bsp_usart.c ****  *\*\name   USART1_SendArray.
 125:../core/src/bsp_usart.c ****  *\*\fun    Send array via USART1.
 126:../core/src/bsp_usart.c ****  *\*\param  data: array to send.
 127:../core/src/bsp_usart.c ****  *\*\param  length: length of array.
 128:../core/src/bsp_usart.c ****  *\*\return none.
 129:../core/src/bsp_usart.c **** **/
 130:../core/src/bsp_usart.c **** void USART1_SendArray(uint8_t* data, uint16_t length)
 131:../core/src/bsp_usart.c **** {
 276              		.loc 1 131 1 is_stmt 1 view -0
 277              		.cfi_startproc
 278              		@ args = 0, pretend = 0, frame = 0
 279              		@ frame_needed = 0, uses_anonymous_args = 0
 132:../core/src/bsp_usart.c ****     uint16_t i;
 280              		.loc 1 132 5 view .LVU78
 133:../core/src/bsp_usart.c ****     for(i = 0; i < length; i++)
 281              		.loc 1 133 5 view .LVU79
 131:../core/src/bsp_usart.c ****     uint16_t i;
 282              		.loc 1 131 1 is_stmt 0 view .LVU80
 283 0000 38B5     		push	{r3, r4, r5, lr}
 284              	.LCFI6:
 285              		.cfi_def_cfa_offset 16
 286              		.cfi_offset 3, -16
 287              		.cfi_offset 4, -12
 288              		.cfi_offset 5, -8
 289              		.cfi_offset 14, -4
 290 0002 0446     		mov	r4, r0
 291 0004 4518     		adds	r5, r0, r1
 292              	.LVL19:
 293              	.L14:
 294              		.loc 1 133 18 is_stmt 1 discriminator 1 view .LVU81
 295 0006 AC42     		cmp	r4, r5
 296 0008 00D1     		bne	.L15
 134:../core/src/bsp_usart.c ****     {
 135:../core/src/bsp_usart.c ****         USART1_SendByte(data[i]);
 136:../core/src/bsp_usart.c ****     }
 137:../core/src/bsp_usart.c **** }
 297              		.loc 1 137 1 is_stmt 0 view .LVU82
 298 000a 38BD     		pop	{r3, r4, r5, pc}
 299              	.LVL20:
 300              	.L15:
 135:../core/src/bsp_usart.c ****     }
ARM GAS  C:\Users\Dawn\AppData\Local\Temp\ccNmhKed.s 			page 9


 301              		.loc 1 135 9 is_stmt 1 view .LVU83
 302 000c 14F8010B 		ldrb	r0, [r4], #1	@ zero_extendqisi2
 303              	.LVL21:
 135:../core/src/bsp_usart.c ****     }
 304              		.loc 1 135 9 is_stmt 0 view .LVU84
 305 0010 FFF7FEFF 		bl	USART1_SendByte
 306              	.LVL22:
 133:../core/src/bsp_usart.c ****     {
 307              		.loc 1 133 29 is_stmt 1 discriminator 3 view .LVU85
 308 0014 F7E7     		b	.L14
 309              		.cfi_endproc
 310              	.LFE133:
 312              		.section	.text.USART1_ReceiveByte,"ax",%progbits
 313              		.align	1
 314              		.global	USART1_ReceiveByte
 315              		.syntax unified
 316              		.thumb
 317              		.thumb_func
 319              	USART1_ReceiveByte:
 320              	.LFB134:
 138:../core/src/bsp_usart.c **** 
 139:../core/src/bsp_usart.c **** /**
 140:../core/src/bsp_usart.c ****  *\*\name   USART1_ReceiveByte.
 141:../core/src/bsp_usart.c ****  *\*\fun    Receive one byte from USART1.
 142:../core/src/bsp_usart.c ****  *\*\param  none.
 143:../core/src/bsp_usart.c ****  *\*\return received byte.
 144:../core/src/bsp_usart.c **** **/
 145:../core/src/bsp_usart.c **** uint8_t USART1_ReceiveByte(void)
 146:../core/src/bsp_usart.c **** {
 321              		.loc 1 146 1 view -0
 322              		.cfi_startproc
 323              		@ args = 0, pretend = 0, frame = 0
 324              		@ frame_needed = 0, uses_anonymous_args = 0
 325 0000 08B5     		push	{r3, lr}
 326              	.LCFI7:
 327              		.cfi_def_cfa_offset 8
 328              		.cfi_offset 3, -8
 329              		.cfi_offset 14, -4
 330              	.L17:
 147:../core/src/bsp_usart.c ****     /* 等待接收数据 */
 148:../core/src/bsp_usart.c ****     while(USART_Flag_Status_Get(USART1, USART_FLAG_RXDNE) == RESET);
 331              		.loc 1 148 59 discriminator 1 view .LVU87
 332              		.loc 1 148 11 is_stmt 0 discriminator 1 view .LVU88
 333 0002 0548     		ldr	r0, .L20
 334 0004 2021     		movs	r1, #32
 335 0006 FFF7FEFF 		bl	USART_Flag_Status_Get
 336              	.LVL23:
 337              		.loc 1 148 59 discriminator 1 view .LVU89
 338 000a 0028     		cmp	r0, #0
 339 000c F9D0     		beq	.L17
 149:../core/src/bsp_usart.c **** 
 150:../core/src/bsp_usart.c ****     /* 返回接收到的数据 */
 151:../core/src/bsp_usart.c ****     return (uint8_t)USART_Data_Receive(USART1);
 340              		.loc 1 151 5 is_stmt 1 view .LVU90
 341              		.loc 1 151 21 is_stmt 0 view .LVU91
 342 000e 0248     		ldr	r0, .L20
 343 0010 FFF7FEFF 		bl	USART_Data_Receive
ARM GAS  C:\Users\Dawn\AppData\Local\Temp\ccNmhKed.s 			page 10


 344              	.LVL24:
 152:../core/src/bsp_usart.c **** }
 345              		.loc 1 152 1 view .LVU92
 346 0014 C0B2     		uxtb	r0, r0
 347 0016 08BD     		pop	{r3, pc}
 348              	.L21:
 349              		.align	2
 350              	.L20:
 351 0018 00380140 		.word	1073821696
 352              		.cfi_endproc
 353              	.LFE134:
 355              		.section	.text.USART1_ReceiveString,"ax",%progbits
 356              		.align	1
 357              		.global	USART1_ReceiveString
 358              		.syntax unified
 359              		.thumb
 360              		.thumb_func
 362              	USART1_ReceiveString:
 363              	.LVL25:
 364              	.LFB135:
 153:../core/src/bsp_usart.c **** 
 154:../core/src/bsp_usart.c **** /**
 155:../core/src/bsp_usart.c ****  *\*\name   USART1_ReceiveString.
 156:../core/src/bsp_usart.c ****  *\*\fun    Receive string from USART1 buffer.
 157:../core/src/bsp_usart.c ****  *\*\param  buffer: buffer to store received string.
 158:../core/src/bsp_usart.c ****  *\*\param  max_length: maximum length of buffer.
 159:../core/src/bsp_usart.c ****  *\*\return actual length of received string.
 160:../core/src/bsp_usart.c **** **/
 161:../core/src/bsp_usart.c **** uint16_t USART1_ReceiveString(char* buffer, uint16_t max_length)
 162:../core/src/bsp_usart.c **** {
 365              		.loc 1 162 1 is_stmt 1 view -0
 366              		.cfi_startproc
 367              		@ args = 0, pretend = 0, frame = 0
 368              		@ frame_needed = 0, uses_anonymous_args = 0
 163:../core/src/bsp_usart.c ****     uint16_t length = 0;
 369              		.loc 1 163 5 view .LVU94
 164:../core/src/bsp_usart.c **** 
 165:../core/src/bsp_usart.c ****     /* 从缓冲区读取数据 */
 166:../core/src/bsp_usart.c ****     while(rx_count > 0 && length < max_length - 1)
 370              		.loc 1 166 5 view .LVU95
 162:../core/src/bsp_usart.c ****     uint16_t length = 0;
 371              		.loc 1 162 1 is_stmt 0 view .LVU96
 372 0000 2DE9F041 		push	{r4, r5, r6, r7, r8, lr}
 373              	.LCFI8:
 374              		.cfi_def_cfa_offset 24
 375              		.cfi_offset 4, -24
 376              		.cfi_offset 5, -20
 377              		.cfi_offset 6, -16
 378              		.cfi_offset 7, -12
 379              		.cfi_offset 8, -8
 380              		.cfi_offset 14, -4
 381 0004 DFF84CC0 		ldr	ip, .L35+4
 382 0008 DFF84CE0 		ldr	lr, .L35+8
 383 000c BCF80080 		ldrh	r8, [ip]
 384 0010 BEF80030 		ldrh	r3, [lr]
 167:../core/src/bsp_usart.c ****     {
 168:../core/src/bsp_usart.c ****         buffer[length] = usart1_rx_buffer[rx_tail];
ARM GAS  C:\Users\Dawn\AppData\Local\Temp\ccNmhKed.s 			page 11


 385              		.loc 1 168 42 view .LVU97
 386 0014 0E4D     		ldr	r5, .L35
 166:../core/src/bsp_usart.c ****     {
 387              		.loc 1 166 10 view .LVU98
 388 0016 0026     		movs	r6, #0
 389 0018 0746     		mov	r7, r0
 390 001a 3446     		mov	r4, r6
 166:../core/src/bsp_usart.c ****     {
 391              		.loc 1 166 47 discriminator 1 view .LVU99
 392 001c 0139     		subs	r1, r1, #1
 393              	.LVL26:
 394              	.L23:
 166:../core/src/bsp_usart.c ****     {
 395              		.loc 1 166 47 discriminator 1 view .LVU100
 396 001e B0B2     		uxth	r0, r6
 397 0020 A8EB0002 		sub	r2, r8, r0
 166:../core/src/bsp_usart.c ****     {
 398              		.loc 1 166 24 view .LVU101
 399 0024 B045     		cmp	r8, r6
 400 0026 92B2     		uxth	r2, r2
 401              	.LVL27:
 166:../core/src/bsp_usart.c ****     {
 402              		.loc 1 166 24 is_stmt 1 view .LVU102
 403 0028 08D1     		bne	.L24
 404              	.L34:
 405 002a 1CB1     		cbz	r4, .L26
 406 002c AEF80030 		strh	r3, [lr]	@ movhi
 407 0030 ACF80020 		strh	r2, [ip]	@ movhi
 408              	.L26:
 169:../core/src/bsp_usart.c ****         rx_tail = (rx_tail + 1) % USART1_RX_BUFFER_SIZE;
 170:../core/src/bsp_usart.c ****         rx_count--;
 171:../core/src/bsp_usart.c ****         length++;
 172:../core/src/bsp_usart.c ****     }
 173:../core/src/bsp_usart.c **** 
 174:../core/src/bsp_usart.c ****     buffer[length] = '\0';
 409              		.loc 1 174 5 view .LVU103
 410              		.loc 1 174 20 is_stmt 0 view .LVU104
 411 0034 0023     		movs	r3, #0
 412 0036 3B70     		strb	r3, [r7]
 175:../core/src/bsp_usart.c ****     return length;
 413              		.loc 1 175 5 is_stmt 1 view .LVU105
 176:../core/src/bsp_usart.c **** }
 414              		.loc 1 176 1 is_stmt 0 view .LVU106
 415 0038 BDE8F081 		pop	{r4, r5, r6, r7, r8, pc}
 416              	.L24:
 166:../core/src/bsp_usart.c ****     {
 417              		.loc 1 166 24 discriminator 1 view .LVU107
 418 003c B142     		cmp	r1, r6
 419 003e F4DD     		ble	.L34
 168:../core/src/bsp_usart.c ****         rx_tail = (rx_tail + 1) % USART1_RX_BUFFER_SIZE;
 420              		.loc 1 168 9 is_stmt 1 view .LVU108
 168:../core/src/bsp_usart.c ****         rx_tail = (rx_tail + 1) % USART1_RX_BUFFER_SIZE;
 421              		.loc 1 168 24 is_stmt 0 view .LVU109
 422 0040 EA5C     		ldrb	r2, [r5, r3]	@ zero_extendqisi2
 423 0042 07F8012B 		strb	r2, [r7], #1
 169:../core/src/bsp_usart.c ****         rx_count--;
 424              		.loc 1 169 9 is_stmt 1 view .LVU110
ARM GAS  C:\Users\Dawn\AppData\Local\Temp\ccNmhKed.s 			page 12


 169:../core/src/bsp_usart.c ****         rx_count--;
 425              		.loc 1 169 28 is_stmt 0 view .LVU111
 426 0046 0133     		adds	r3, r3, #1
 169:../core/src/bsp_usart.c ****         rx_count--;
 427              		.loc 1 169 17 view .LVU112
 428 0048 DBB2     		uxtb	r3, r3
 170:../core/src/bsp_usart.c ****         length++;
 429              		.loc 1 170 9 is_stmt 1 view .LVU113
 171:../core/src/bsp_usart.c ****     }
 430              		.loc 1 171 9 view .LVU114
 431              	.LVL28:
 171:../core/src/bsp_usart.c ****     }
 432              		.loc 1 171 9 is_stmt 0 view .LVU115
 433 004a 0136     		adds	r6, r6, #1
 434              	.LVL29:
 169:../core/src/bsp_usart.c ****         rx_count--;
 435              		.loc 1 169 17 view .LVU116
 436 004c 0124     		movs	r4, #1
 437 004e E6E7     		b	.L23
 438              	.L36:
 439              		.align	2
 440              	.L35:
 441 0050 00000000 		.word	usart1_rx_buffer
 442 0054 00000000 		.word	rx_count
 443 0058 00000000 		.word	rx_tail
 444              		.cfi_endproc
 445              	.LFE135:
 447              		.section	.text.USART1_EnableInterrupt,"ax",%progbits
 448              		.align	1
 449              		.global	USART1_EnableInterrupt
 450              		.syntax unified
 451              		.thumb
 452              		.thumb_func
 454              	USART1_EnableInterrupt:
 455              	.LFB136:
 177:../core/src/bsp_usart.c **** 
 178:../core/src/bsp_usart.c **** /**
 179:../core/src/bsp_usart.c ****  *\*\name   USART1_EnableInterrupt.
 180:../core/src/bsp_usart.c ****  *\*\fun    Enable USART1 interrupt.
 181:../core/src/bsp_usart.c ****  *\*\param  none.
 182:../core/src/bsp_usart.c ****  *\*\return none.
 183:../core/src/bsp_usart.c **** **/
 184:../core/src/bsp_usart.c **** void USART1_EnableInterrupt(void)
 185:../core/src/bsp_usart.c **** {
 456              		.loc 1 185 1 is_stmt 1 view -0
 457              		.cfi_startproc
 458              		@ args = 0, pretend = 0, frame = 0
 459              		@ frame_needed = 0, uses_anonymous_args = 0
 460              		@ link register save eliminated.
 186:../core/src/bsp_usart.c ****     USART_Interrput_Enable(USART1, USART_INT_RXDNE);
 461              		.loc 1 186 5 view .LVU118
 462 0000 0248     		ldr	r0, .L38
 463 0002 40F22551 		movw	r1, #1317
 464 0006 FFF7FEBF 		b	USART_Interrput_Enable
 465              	.LVL30:
 466              	.L39:
 467 000a 00BF     		.align	2
ARM GAS  C:\Users\Dawn\AppData\Local\Temp\ccNmhKed.s 			page 13


 468              	.L38:
 469 000c 00380140 		.word	1073821696
 470              		.cfi_endproc
 471              	.LFE136:
 473              		.section	.text.USART1_DisableInterrupt,"ax",%progbits
 474              		.align	1
 475              		.global	USART1_DisableInterrupt
 476              		.syntax unified
 477              		.thumb
 478              		.thumb_func
 480              	USART1_DisableInterrupt:
 481              	.LFB137:
 187:../core/src/bsp_usart.c **** }
 188:../core/src/bsp_usart.c **** 
 189:../core/src/bsp_usart.c **** /**
 190:../core/src/bsp_usart.c ****  *\*\name   USART1_DisableInterrupt.
 191:../core/src/bsp_usart.c ****  *\*\fun    Disable USART1 interrupt.
 192:../core/src/bsp_usart.c ****  *\*\param  none.
 193:../core/src/bsp_usart.c ****  *\*\return none.
 194:../core/src/bsp_usart.c **** **/
 195:../core/src/bsp_usart.c **** void USART1_DisableInterrupt(void)
 196:../core/src/bsp_usart.c **** {
 482              		.loc 1 196 1 view -0
 483              		.cfi_startproc
 484              		@ args = 0, pretend = 0, frame = 0
 485              		@ frame_needed = 0, uses_anonymous_args = 0
 486              		@ link register save eliminated.
 197:../core/src/bsp_usart.c ****     USART_Interrput_Disable(USART1, USART_INT_RXDNE);
 487              		.loc 1 197 5 view .LVU120
 488 0000 0248     		ldr	r0, .L41
 489 0002 40F22551 		movw	r1, #1317
 490 0006 FFF7FEBF 		b	USART_Interrput_Disable
 491              	.LVL31:
 492              	.L42:
 493 000a 00BF     		.align	2
 494              	.L41:
 495 000c 00380140 		.word	1073821696
 496              		.cfi_endproc
 497              	.LFE137:
 499              		.section	.text.USART1_IRQHandler,"ax",%progbits
 500              		.align	1
 501              		.global	USART1_IRQHandler
 502              		.syntax unified
 503              		.thumb
 504              		.thumb_func
 506              	USART1_IRQHandler:
 507              	.LFB138:
 198:../core/src/bsp_usart.c **** }
 199:../core/src/bsp_usart.c **** 
 200:../core/src/bsp_usart.c **** /**
 201:../core/src/bsp_usart.c ****  *\*\name   USART1_IRQHandler.
 202:../core/src/bsp_usart.c ****  *\*\fun    USART1 interrupt handler.
 203:../core/src/bsp_usart.c ****  *\*\param  none.
 204:../core/src/bsp_usart.c ****  *\*\return none.
 205:../core/src/bsp_usart.c **** **/
 206:../core/src/bsp_usart.c **** void USART1_IRQHandler(void)
 207:../core/src/bsp_usart.c **** {
ARM GAS  C:\Users\Dawn\AppData\Local\Temp\ccNmhKed.s 			page 14


 508              		.loc 1 207 1 view -0
 509              		.cfi_startproc
 510              		@ args = 0, pretend = 0, frame = 0
 511              		@ frame_needed = 0, uses_anonymous_args = 0
 208:../core/src/bsp_usart.c ****     if(USART_Interrupt_Status_Get(USART1, USART_INT_RXDNE) != RESET)
 512              		.loc 1 208 5 view .LVU122
 207:../core/src/bsp_usart.c ****     if(USART_Interrupt_Status_Get(USART1, USART_INT_RXDNE) != RESET)
 513              		.loc 1 207 1 is_stmt 0 view .LVU123
 514 0000 10B5     		push	{r4, lr}
 515              	.LCFI9:
 516              		.cfi_def_cfa_offset 8
 517              		.cfi_offset 4, -8
 518              		.cfi_offset 14, -4
 519              		.loc 1 208 8 view .LVU124
 520 0002 1048     		ldr	r0, .L49
 521 0004 40F22551 		movw	r1, #1317
 522 0008 FFF7FEFF 		bl	USART_Interrupt_Status_Get
 523              	.LVL32:
 524              		.loc 1 208 7 discriminator 1 view .LVU125
 525 000c A8B1     		cbz	r0, .L43
 209:../core/src/bsp_usart.c ****     {
 210:../core/src/bsp_usart.c ****         /* 清除中断标志 */
 211:../core/src/bsp_usart.c ****         USART_Interrupt_Status_Clear(USART1, USART_INT_RXDNE);
 526              		.loc 1 211 9 is_stmt 1 view .LVU126
 212:../core/src/bsp_usart.c **** 
 213:../core/src/bsp_usart.c ****         /* 检查缓冲区是否已满 */
 214:../core/src/bsp_usart.c ****         if(rx_count < USART1_RX_BUFFER_SIZE)
 527              		.loc 1 214 21 is_stmt 0 view .LVU127
 528 000e 0E4C     		ldr	r4, .L49+4
 211:../core/src/bsp_usart.c **** 
 529              		.loc 1 211 9 view .LVU128
 530 0010 0C48     		ldr	r0, .L49
 531 0012 40F22551 		movw	r1, #1317
 532 0016 FFF7FEFF 		bl	USART_Interrupt_Status_Clear
 533              	.LVL33:
 534              		.loc 1 214 9 is_stmt 1 view .LVU129
 535              		.loc 1 214 11 is_stmt 0 view .LVU130
 536 001a 2388     		ldrh	r3, [r4]
 215:../core/src/bsp_usart.c ****         {
 216:../core/src/bsp_usart.c ****             /* 读取接收到的数据并存储到缓冲区 */
 217:../core/src/bsp_usart.c ****             usart1_rx_buffer[rx_head] = (uint8_t)USART_Data_Receive(USART1);
 537              		.loc 1 217 50 view .LVU131
 538 001c 0948     		ldr	r0, .L49
 214:../core/src/bsp_usart.c ****         {
 539              		.loc 1 214 11 view .LVU132
 540 001e FF2B     		cmp	r3, #255
 541 0020 0CD8     		bhi	.L45
 542              		.loc 1 217 13 is_stmt 1 view .LVU133
 543              		.loc 1 217 50 is_stmt 0 view .LVU134
 544 0022 FFF7FEFF 		bl	USART_Data_Receive
 545              	.LVL34:
 546              		.loc 1 217 29 discriminator 1 view .LVU135
 547 0026 094A     		ldr	r2, .L49+8
 548              		.loc 1 217 39 discriminator 1 view .LVU136
 549 0028 0949     		ldr	r1, .L49+12
 550              		.loc 1 217 29 discriminator 1 view .LVU137
 551 002a 1388     		ldrh	r3, [r2]
ARM GAS  C:\Users\Dawn\AppData\Local\Temp\ccNmhKed.s 			page 15


 552              		.loc 1 217 41 discriminator 1 view .LVU138
 553 002c C854     		strb	r0, [r1, r3]
 218:../core/src/bsp_usart.c ****             rx_head = (rx_head + 1) % USART1_RX_BUFFER_SIZE;
 554              		.loc 1 218 13 is_stmt 1 view .LVU139
 555              		.loc 1 218 32 is_stmt 0 view .LVU140
 556 002e 0133     		adds	r3, r3, #1
 557              		.loc 1 218 37 view .LVU141
 558 0030 DBB2     		uxtb	r3, r3
 559              		.loc 1 218 21 view .LVU142
 560 0032 1380     		strh	r3, [r2]	@ movhi
 219:../core/src/bsp_usart.c ****             rx_count++;
 561              		.loc 1 219 13 is_stmt 1 view .LVU143
 562              		.loc 1 219 21 is_stmt 0 view .LVU144
 563 0034 2388     		ldrh	r3, [r4]
 564 0036 0133     		adds	r3, r3, #1
 565 0038 2380     		strh	r3, [r4]	@ movhi
 566              	.L43:
 220:../core/src/bsp_usart.c ****         }
 221:../core/src/bsp_usart.c ****         else
 222:../core/src/bsp_usart.c ****         {
 223:../core/src/bsp_usart.c ****             /* 缓冲区已满，丢弃数据 */
 224:../core/src/bsp_usart.c ****             USART_Data_Receive(USART1);
 225:../core/src/bsp_usart.c ****         }
 226:../core/src/bsp_usart.c ****     }
 227:../core/src/bsp_usart.c **** }
 567              		.loc 1 227 1 view .LVU145
 568 003a 10BD     		pop	{r4, pc}
 569              	.L45:
 224:../core/src/bsp_usart.c ****         }
 570              		.loc 1 224 13 is_stmt 1 view .LVU146
 571              		.loc 1 227 1 is_stmt 0 view .LVU147
 572 003c BDE81040 		pop	{r4, lr}
 573              	.LCFI10:
 574              		.cfi_restore 14
 575              		.cfi_restore 4
 576              		.cfi_def_cfa_offset 0
 224:../core/src/bsp_usart.c ****         }
 577              		.loc 1 224 13 view .LVU148
 578 0040 FFF7FEBF 		b	USART_Data_Receive
 579              	.LVL35:
 580              	.L50:
 581              		.align	2
 582              	.L49:
 583 0044 00380140 		.word	1073821696
 584 0048 00000000 		.word	rx_count
 585 004c 00000000 		.word	rx_head
 586 0050 00000000 		.word	usart1_rx_buffer
 587              		.cfi_endproc
 588              	.LFE138:
 590              		.section	.text.USART2_Init,"ax",%progbits
 591              		.align	1
 592              		.global	USART2_Init
 593              		.syntax unified
 594              		.thumb
 595              		.thumb_func
 597              	USART2_Init:
 598              	.LFB139:
ARM GAS  C:\Users\Dawn\AppData\Local\Temp\ccNmhKed.s 			page 16


 228:../core/src/bsp_usart.c **** 
 229:../core/src/bsp_usart.c **** /**
 230:../core/src/bsp_usart.c ****  *\*\name   USART2_Init.
 231:../core/src/bsp_usart.c ****  *\*\fun    Initialize USART2 with DMA for Modbus master.
 232:../core/src/bsp_usart.c ****  *\*\param  none.
 233:../core/src/bsp_usart.c ****  *\*\return none.
 234:../core/src/bsp_usart.c **** **/
 235:../core/src/bsp_usart.c **** void USART2_Init(void)
 236:../core/src/bsp_usart.c **** {
 599              		.loc 1 236 1 is_stmt 1 view -0
 600              		.cfi_startproc
 601              		@ args = 0, pretend = 0, frame = 88
 602              		@ frame_needed = 0, uses_anonymous_args = 0
 237:../core/src/bsp_usart.c ****     GPIO_InitType GPIO_InitStructure;
 603              		.loc 1 237 5 view .LVU150
 238:../core/src/bsp_usart.c ****     USART_InitType USART_InitStructure;
 604              		.loc 1 238 5 view .LVU151
 239:../core/src/bsp_usart.c ****     DMA_InitType DMA_InitStructure;
 605              		.loc 1 239 5 view .LVU152
 240:../core/src/bsp_usart.c ****     NVIC_InitType NVIC_InitStructure;
 606              		.loc 1 240 5 view .LVU153
 241:../core/src/bsp_usart.c **** 
 242:../core/src/bsp_usart.c ****     /* 使能时钟 */
 243:../core/src/bsp_usart.c ****     RCC_AHB_Peripheral_Clock_Enable(USART2_GPIO_CLK | RCC_AHB_PERIPH_DMA);
 607              		.loc 1 243 5 view .LVU154
 236:../core/src/bsp_usart.c ****     GPIO_InitType GPIO_InitStructure;
 608              		.loc 1 236 1 is_stmt 0 view .LVU155
 609 0000 2DE9F043 		push	{r4, r5, r6, r7, r8, r9, lr}
 610              	.LCFI11:
 611              		.cfi_def_cfa_offset 28
 612              		.cfi_offset 4, -28
 613              		.cfi_offset 5, -24
 614              		.cfi_offset 6, -20
 615              		.cfi_offset 7, -16
 616              		.cfi_offset 8, -12
 617              		.cfi_offset 9, -8
 618              		.cfi_offset 14, -4
 619              		.loc 1 243 5 view .LVU156
 620 0004 8120     		movs	r0, #129
 236:../core/src/bsp_usart.c ****     GPIO_InitType GPIO_InitStructure;
 621              		.loc 1 236 1 view .LVU157
 622 0006 97B0     		sub	sp, sp, #92
 623              	.LCFI12:
 624              		.cfi_def_cfa_offset 120
 625              		.loc 1 243 5 view .LVU158
 626 0008 FFF7FEFF 		bl	RCC_AHB_Peripheral_Clock_Enable
 627              	.LVL36:
 244:../core/src/bsp_usart.c ****     RCC_APB1_Peripheral_Clock_Enable(USART2_CLK);
 628              		.loc 1 244 5 is_stmt 1 view .LVU159
 629 000c 4FF40030 		mov	r0, #131072
 245:../core/src/bsp_usart.c **** 
 246:../core/src/bsp_usart.c ****     /* TX: PA2 */
 247:../core/src/bsp_usart.c ****     GPIO_InitStructure.Pin              = USART2_TX_PIN;
 248:../core/src/bsp_usart.c ****     GPIO_InitStructure.GPIO_Mode        = GPIO_MODE_AF_PP;
 249:../core/src/bsp_usart.c ****     GPIO_InitStructure.GPIO_Pull        = GPIO_NO_PULL;
 630              		.loc 1 249 41 is_stmt 0 view .LVU160
 631 0010 0024     		movs	r4, #0
ARM GAS  C:\Users\Dawn\AppData\Local\Temp\ccNmhKed.s 			page 17


 244:../core/src/bsp_usart.c ****     RCC_APB1_Peripheral_Clock_Enable(USART2_CLK);
 632              		.loc 1 244 5 view .LVU161
 633 0012 FFF7FEFF 		bl	RCC_APB1_Peripheral_Clock_Enable
 634              	.LVL37:
 247:../core/src/bsp_usart.c ****     GPIO_InitStructure.GPIO_Mode        = GPIO_MODE_AF_PP;
 635              		.loc 1 247 5 is_stmt 1 view .LVU162
 248:../core/src/bsp_usart.c ****     GPIO_InitStructure.GPIO_Pull        = GPIO_NO_PULL;
 636              		.loc 1 248 41 is_stmt 0 view .LVU163
 637 0016 0426     		movs	r6, #4
 638 0018 4FF00209 		mov	r9, #2
 250:../core/src/bsp_usart.c ****     GPIO_InitStructure.GPIO_Slew_Rate   = GPIO_SLEW_RATE_FAST;
 251:../core/src/bsp_usart.c ****     GPIO_InitStructure.GPIO_Current     = GPIO_DS_8MA;
 252:../core/src/bsp_usart.c ****     GPIO_InitStructure.GPIO_Alternate   = USART2_GPIO_AF;
 639              		.loc 1 252 41 view .LVU164
 640 001c 0127     		movs	r7, #1
 641 001e 0525     		movs	r5, #5
 253:../core/src/bsp_usart.c ****     GPIO_Peripheral_Initialize(USART2_GPIO_PORT, &GPIO_InitStructure);
 642              		.loc 1 253 5 view .LVU165
 643 0020 05A9     		add	r1, sp, #20
 644 0022 4048     		ldr	r0, .L52
 252:../core/src/bsp_usart.c ****     GPIO_Peripheral_Initialize(USART2_GPIO_PORT, &GPIO_InitStructure);
 645              		.loc 1 252 41 view .LVU166
 646 0024 CDE90975 		strd	r7, r5, [sp, #36]
 248:../core/src/bsp_usart.c ****     GPIO_InitStructure.GPIO_Pull        = GPIO_NO_PULL;
 647              		.loc 1 248 41 view .LVU167
 648 0028 CDE90569 		strd	r6, r9, [sp, #20]
 249:../core/src/bsp_usart.c ****     GPIO_InitStructure.GPIO_Slew_Rate   = GPIO_SLEW_RATE_FAST;
 649              		.loc 1 249 5 is_stmt 1 view .LVU168
 250:../core/src/bsp_usart.c ****     GPIO_InitStructure.GPIO_Current     = GPIO_DS_8MA;
 650              		.loc 1 250 41 is_stmt 0 view .LVU169
 651 002c CDE90744 		strd	r4, r4, [sp, #28]
 251:../core/src/bsp_usart.c ****     GPIO_InitStructure.GPIO_Alternate   = USART2_GPIO_AF;
 652              		.loc 1 251 5 is_stmt 1 view .LVU170
 653              		.loc 1 253 5 view .LVU171
 654 0030 FFF7FEFF 		bl	GPIO_Peripheral_Initialize
 655              	.LVL38:
 254:../core/src/bsp_usart.c **** 
 255:../core/src/bsp_usart.c ****     /* RX: PA3 */
 256:../core/src/bsp_usart.c ****     GPIO_InitStructure.Pin              = USART2_RX_PIN;
 656              		.loc 1 256 5 view .LVU172
 657              		.loc 1 256 41 is_stmt 0 view .LVU173
 658 0034 0823     		movs	r3, #8
 257:../core/src/bsp_usart.c ****     GPIO_InitStructure.GPIO_Mode        = GPIO_MODE_INPUT;
 258:../core/src/bsp_usart.c ****     GPIO_InitStructure.GPIO_Pull        = GPIO_NO_PULL;
 259:../core/src/bsp_usart.c ****     GPIO_InitStructure.GPIO_Slew_Rate   = GPIO_SLEW_RATE_FAST;
 260:../core/src/bsp_usart.c ****     GPIO_InitStructure.GPIO_Current     = GPIO_DS_8MA;
 261:../core/src/bsp_usart.c ****     GPIO_InitStructure.GPIO_Alternate   = USART2_GPIO_AF;
 262:../core/src/bsp_usart.c ****     GPIO_Peripheral_Initialize(USART2_GPIO_PORT, &GPIO_InitStructure);
 659              		.loc 1 262 5 view .LVU174
 660 0036 05A9     		add	r1, sp, #20
 661 0038 3A48     		ldr	r0, .L52
 261:../core/src/bsp_usart.c ****     GPIO_Peripheral_Initialize(USART2_GPIO_PORT, &GPIO_InitStructure);
 662              		.loc 1 261 41 view .LVU175
 663 003a CDE90975 		strd	r7, r5, [sp, #36]
 257:../core/src/bsp_usart.c ****     GPIO_InitStructure.GPIO_Mode        = GPIO_MODE_INPUT;
 664              		.loc 1 257 41 view .LVU176
 665 003e CDE90534 		strd	r3, r4, [sp, #20]
ARM GAS  C:\Users\Dawn\AppData\Local\Temp\ccNmhKed.s 			page 18


 258:../core/src/bsp_usart.c ****     GPIO_InitStructure.GPIO_Slew_Rate   = GPIO_SLEW_RATE_FAST;
 666              		.loc 1 258 5 is_stmt 1 view .LVU177
 259:../core/src/bsp_usart.c ****     GPIO_InitStructure.GPIO_Current     = GPIO_DS_8MA;
 667              		.loc 1 259 41 is_stmt 0 view .LVU178
 668 0042 CDE90744 		strd	r4, r4, [sp, #28]
 260:../core/src/bsp_usart.c ****     GPIO_InitStructure.GPIO_Alternate   = USART2_GPIO_AF;
 669              		.loc 1 260 5 is_stmt 1 view .LVU179
 670              		.loc 1 262 5 view .LVU180
 671 0046 FFF7FEFF 		bl	GPIO_Peripheral_Initialize
 672              	.LVL39:
 263:../core/src/bsp_usart.c **** 
 264:../core/src/bsp_usart.c ****     /* USART2配置 */
 265:../core/src/bsp_usart.c ****     USART_InitStructure.BaudRate        = USART2_BAUDRATE;
 673              		.loc 1 265 5 view .LVU181
 266:../core/src/bsp_usart.c ****     USART_InitStructure.WordLength      = USART2_WORDLENGTH;
 674              		.loc 1 266 5 view .LVU182
 267:../core/src/bsp_usart.c ****     USART_InitStructure.StopBits        = USART2_STOPBITS;
 675              		.loc 1 267 5 view .LVU183
 268:../core/src/bsp_usart.c ****     USART_InitStructure.Parity          = USART2_PARITY;
 676              		.loc 1 268 5 view .LVU184
 269:../core/src/bsp_usart.c ****     USART_InitStructure.HardwareFlowControl = USART2_HARDWAREFLOWCTL;
 677              		.loc 1 269 5 view .LVU185
 270:../core/src/bsp_usart.c ****     USART_InitStructure.Mode            = USART2_MODE;
 678              		.loc 1 270 5 view .LVU186
 265:../core/src/bsp_usart.c ****     USART_InitStructure.WordLength      = USART2_WORDLENGTH;
 679              		.loc 1 265 41 is_stmt 0 view .LVU187
 680 004a 4FF4E133 		mov	r3, #115200
 271:../core/src/bsp_usart.c ****     USART_Initializes(USART2, &USART_InitStructure);
 681              		.loc 1 271 5 view .LVU188
 682 004e 0DEB0601 		add	r1, sp, r6
 266:../core/src/bsp_usart.c ****     USART_InitStructure.StopBits        = USART2_STOPBITS;
 683              		.loc 1 266 41 view .LVU189
 684 0052 CDE90134 		strd	r3, r4, [sp, #4]
 685              		.loc 1 271 5 view .LVU190
 686 0056 3448     		ldr	r0, .L52+4
 269:../core/src/bsp_usart.c ****     USART_InitStructure.Mode            = USART2_MODE;
 687              		.loc 1 269 45 view .LVU191
 688 0058 ADF81040 		strh	r4, [sp, #16]	@ movhi
 689              		.loc 1 271 5 is_stmt 1 view .LVU192
 268:../core/src/bsp_usart.c ****     USART_InitStructure.HardwareFlowControl = USART2_HARDWAREFLOWCTL;
 690              		.loc 1 268 41 is_stmt 0 view .LVU193
 691 005c 4FF44023 		mov	r3, #786432
 692 0060 0393     		str	r3, [sp, #12]
 693              		.loc 1 271 5 view .LVU194
 694 0062 FFF7FEFF 		bl	USART_Initializes
 695              	.LVL40:
 272:../core/src/bsp_usart.c **** 
 273:../core/src/bsp_usart.c ****     /* 配置DMA通道1用于USART2_TX */
 274:../core/src/bsp_usart.c ****     DMA_Reset(USART2_TX_DMA_CH);
 696              		.loc 1 274 5 is_stmt 1 view .LVU195
 697 0066 3148     		ldr	r0, .L52+8
 275:../core/src/bsp_usart.c ****     DMA_InitStructure.PeriphAddr     = (uint32_t)&USART2->DAT;
 698              		.loc 1 275 38 is_stmt 0 view .LVU196
 699 0068 314D     		ldr	r5, .L52+12
 274:../core/src/bsp_usart.c ****     DMA_InitStructure.PeriphAddr     = (uint32_t)&USART2->DAT;
 700              		.loc 1 274 5 view .LVU197
 701 006a FFF7FEFF 		bl	DMA_Reset
ARM GAS  C:\Users\Dawn\AppData\Local\Temp\ccNmhKed.s 			page 19


 702              	.LVL41:
 703              		.loc 1 275 5 is_stmt 1 view .LVU198
 276:../core/src/bsp_usart.c ****     DMA_InitStructure.MemAddr        = (uint32_t)usart2_tx_dma_buffer;
 704              		.loc 1 276 38 is_stmt 0 view .LVU199
 705 006e 314B     		ldr	r3, .L52+16
 706 0070 0C93     		str	r3, [sp, #48]
 277:../core/src/bsp_usart.c ****     DMA_InitStructure.Direction      = DMA_DIR_PERIPH_DST;
 278:../core/src/bsp_usart.c ****     DMA_InitStructure.BufSize        = 0;
 279:../core/src/bsp_usart.c ****     DMA_InitStructure.PeriphInc      = DMA_PERIPH_INC_MODE_DISABLE;
 280:../core/src/bsp_usart.c ****     DMA_InitStructure.MemoryInc      = DMA_MEM_INC_MODE_ENABLE;
 707              		.loc 1 280 38 view .LVU200
 708 0072 4FF08008 		mov	r8, #128
 277:../core/src/bsp_usart.c ****     DMA_InitStructure.Direction      = DMA_DIR_PERIPH_DST;
 709              		.loc 1 277 38 view .LVU201
 710 0076 1023     		movs	r3, #16
 281:../core/src/bsp_usart.c ****     DMA_InitStructure.PeriphDataSize = DMA_PERIPH_DATA_WIDTH_BYTE;
 282:../core/src/bsp_usart.c ****     DMA_InitStructure.MemDataSize    = DMA_MEM_DATA_WIDTH_BYTE;
 283:../core/src/bsp_usart.c ****     DMA_InitStructure.CircularMode   = DMA_CIRCULAR_MODE_DISABLE;
 284:../core/src/bsp_usart.c ****     DMA_InitStructure.Priority       = DMA_CH_PRIORITY_HIGH;
 711              		.loc 1 284 38 view .LVU202
 712 0078 4FF40057 		mov	r7, #8192
 285:../core/src/bsp_usart.c ****     DMA_InitStructure.Mem2Mem        = DMA_MEM2MEM_DISABLE;
 286:../core/src/bsp_usart.c ****     DMA_Initializes(USART2_TX_DMA_CH, &DMA_InitStructure);
 713              		.loc 1 286 5 view .LVU203
 714 007c 0BA9     		add	r1, sp, #44
 715 007e 2B48     		ldr	r0, .L52+8
 275:../core/src/bsp_usart.c ****     DMA_InitStructure.MemAddr        = (uint32_t)usart2_tx_dma_buffer;
 716              		.loc 1 275 38 view .LVU204
 717 0080 0B95     		str	r5, [sp, #44]
 276:../core/src/bsp_usart.c ****     DMA_InitStructure.Direction      = DMA_DIR_PERIPH_DST;
 718              		.loc 1 276 5 is_stmt 1 view .LVU205
 277:../core/src/bsp_usart.c ****     DMA_InitStructure.BufSize        = 0;
 719              		.loc 1 277 5 view .LVU206
 278:../core/src/bsp_usart.c ****     DMA_InitStructure.PeriphInc      = DMA_PERIPH_INC_MODE_DISABLE;
 720              		.loc 1 278 38 is_stmt 0 view .LVU207
 721 0082 CDE90D34 		strd	r3, r4, [sp, #52]
 279:../core/src/bsp_usart.c ****     DMA_InitStructure.MemoryInc      = DMA_MEM_INC_MODE_ENABLE;
 722              		.loc 1 279 5 is_stmt 1 view .LVU208
 281:../core/src/bsp_usart.c ****     DMA_InitStructure.MemDataSize    = DMA_MEM_DATA_WIDTH_BYTE;
 723              		.loc 1 281 38 is_stmt 0 view .LVU209
 724 0086 CDE91084 		strd	r8, r4, [sp, #64]
 283:../core/src/bsp_usart.c ****     DMA_InitStructure.Priority       = DMA_CH_PRIORITY_HIGH;
 725              		.loc 1 283 38 view .LVU210
 726 008a CDE91244 		strd	r4, r4, [sp, #72]
 285:../core/src/bsp_usart.c ****     DMA_Initializes(USART2_TX_DMA_CH, &DMA_InitStructure);
 727              		.loc 1 285 38 view .LVU211
 728 008e CDE91474 		strd	r7, r4, [sp, #80]
 279:../core/src/bsp_usart.c ****     DMA_InitStructure.MemoryInc      = DMA_MEM_INC_MODE_ENABLE;
 729              		.loc 1 279 38 view .LVU212
 730 0092 0F94     		str	r4, [sp, #60]
 280:../core/src/bsp_usart.c ****     DMA_InitStructure.PeriphDataSize = DMA_PERIPH_DATA_WIDTH_BYTE;
 731              		.loc 1 280 5 is_stmt 1 view .LVU213
 282:../core/src/bsp_usart.c ****     DMA_InitStructure.CircularMode   = DMA_CIRCULAR_MODE_DISABLE;
 732              		.loc 1 282 5 view .LVU214
 284:../core/src/bsp_usart.c ****     DMA_InitStructure.Mem2Mem        = DMA_MEM2MEM_DISABLE;
 733              		.loc 1 284 5 view .LVU215
 734              		.loc 1 286 5 view .LVU216
ARM GAS  C:\Users\Dawn\AppData\Local\Temp\ccNmhKed.s 			page 20


 735 0094 FFF7FEFF 		bl	DMA_Initializes
 736              	.LVL42:
 287:../core/src/bsp_usart.c ****     DMA_Channel_Request_Remap(USART2_TX_DMA_CH, DMA_REMAP_USART2_TX);
 737              		.loc 1 287 5 view .LVU217
 738 0098 2448     		ldr	r0, .L52+8
 739 009a 0321     		movs	r1, #3
 740 009c FFF7FEFF 		bl	DMA_Channel_Request_Remap
 741              	.LVL43:
 288:../core/src/bsp_usart.c ****     DMA_Interrupts_Enable(USART2_TX_DMA_CH, DMA_INT_TXC);
 742              		.loc 1 288 5 view .LVU218
 743 00a0 4946     		mov	r1, r9
 744 00a2 2248     		ldr	r0, .L52+8
 745 00a4 FFF7FEFF 		bl	DMA_Interrupts_Enable
 746              	.LVL44:
 289:../core/src/bsp_usart.c **** 
 290:../core/src/bsp_usart.c ****     /* 配置DMA通道2用于USART2_RX (循环模式) */
 291:../core/src/bsp_usart.c ****     DMA_Reset(USART2_RX_DMA_CH);
 747              		.loc 1 291 5 view .LVU219
 748 00a8 2348     		ldr	r0, .L52+20
 749 00aa FFF7FEFF 		bl	DMA_Reset
 750              	.LVL45:
 292:../core/src/bsp_usart.c ****     DMA_InitStructure.PeriphAddr     = (uint32_t)&USART2->DAT;
 751              		.loc 1 292 5 view .LVU220
 293:../core/src/bsp_usart.c ****     DMA_InitStructure.MemAddr        = (uint32_t)usart2_rx_dma_buffer;
 752              		.loc 1 293 38 is_stmt 0 view .LVU221
 753 00ae 234B     		ldr	r3, .L52+24
 292:../core/src/bsp_usart.c ****     DMA_InitStructure.PeriphAddr     = (uint32_t)&USART2->DAT;
 754              		.loc 1 292 38 view .LVU222
 755 00b0 0B95     		str	r5, [sp, #44]
 756              		.loc 1 293 5 is_stmt 1 view .LVU223
 294:../core/src/bsp_usart.c ****     DMA_InitStructure.Direction      = DMA_DIR_PERIPH_SRC;
 757              		.loc 1 294 38 is_stmt 0 view .LVU224
 758 00b2 CDE90C34 		strd	r3, r4, [sp, #48]
 295:../core/src/bsp_usart.c ****     DMA_InitStructure.BufSize        = USART2_RX_DMA_BUFFER_SIZE;
 759              		.loc 1 295 5 is_stmt 1 view .LVU225
 760              		.loc 1 295 38 is_stmt 0 view .LVU226
 761 00b6 4FF48075 		mov	r5, #256
 296:../core/src/bsp_usart.c ****     DMA_InitStructure.PeriphInc      = DMA_PERIPH_INC_MODE_DISABLE;
 297:../core/src/bsp_usart.c ****     DMA_InitStructure.MemoryInc      = DMA_MEM_INC_MODE_ENABLE;
 298:../core/src/bsp_usart.c ****     DMA_InitStructure.PeriphDataSize = DMA_PERIPH_DATA_WIDTH_BYTE;
 299:../core/src/bsp_usart.c ****     DMA_InitStructure.MemDataSize    = DMA_MEM_DATA_WIDTH_BYTE;
 300:../core/src/bsp_usart.c ****     DMA_InitStructure.CircularMode   = DMA_CIRCULAR_MODE_ENABLE;
 762              		.loc 1 300 38 view .LVU227
 763 00ba 2023     		movs	r3, #32
 301:../core/src/bsp_usart.c ****     DMA_InitStructure.Priority       = DMA_CH_PRIORITY_HIGH;
 302:../core/src/bsp_usart.c ****     DMA_InitStructure.Mem2Mem        = DMA_MEM2MEM_DISABLE;
 303:../core/src/bsp_usart.c ****     DMA_Initializes(USART2_RX_DMA_CH, &DMA_InitStructure);
 764              		.loc 1 303 5 view .LVU228
 765 00bc 0BA9     		add	r1, sp, #44
 766 00be 1E48     		ldr	r0, .L52+20
 299:../core/src/bsp_usart.c ****     DMA_InitStructure.CircularMode   = DMA_CIRCULAR_MODE_ENABLE;
 767              		.loc 1 299 38 view .LVU229
 768 00c0 1294     		str	r4, [sp, #72]
 301:../core/src/bsp_usart.c ****     DMA_InitStructure.Priority       = DMA_CH_PRIORITY_HIGH;
 769              		.loc 1 301 38 view .LVU230
 770 00c2 CDE91337 		strd	r3, r7, [sp, #76]
 296:../core/src/bsp_usart.c ****     DMA_InitStructure.PeriphInc      = DMA_PERIPH_INC_MODE_DISABLE;
ARM GAS  C:\Users\Dawn\AppData\Local\Temp\ccNmhKed.s 			page 21


 771              		.loc 1 296 38 view .LVU231
 772 00c6 CDE90E54 		strd	r5, r4, [sp, #56]
 297:../core/src/bsp_usart.c ****     DMA_InitStructure.PeriphDataSize = DMA_PERIPH_DATA_WIDTH_BYTE;
 773              		.loc 1 297 5 is_stmt 1 view .LVU232
 298:../core/src/bsp_usart.c ****     DMA_InitStructure.MemDataSize    = DMA_MEM_DATA_WIDTH_BYTE;
 774              		.loc 1 298 38 is_stmt 0 view .LVU233
 775 00ca CDE91084 		strd	r8, r4, [sp, #64]
 299:../core/src/bsp_usart.c ****     DMA_InitStructure.CircularMode   = DMA_CIRCULAR_MODE_ENABLE;
 776              		.loc 1 299 5 is_stmt 1 view .LVU234
 300:../core/src/bsp_usart.c ****     DMA_InitStructure.Priority       = DMA_CH_PRIORITY_HIGH;
 777              		.loc 1 300 5 view .LVU235
 302:../core/src/bsp_usart.c ****     DMA_Initializes(USART2_RX_DMA_CH, &DMA_InitStructure);
 778              		.loc 1 302 5 view .LVU236
 302:../core/src/bsp_usart.c ****     DMA_Initializes(USART2_RX_DMA_CH, &DMA_InitStructure);
 779              		.loc 1 302 38 is_stmt 0 view .LVU237
 780 00ce 1594     		str	r4, [sp, #84]
 781              		.loc 1 303 5 is_stmt 1 view .LVU238
 782 00d0 FFF7FEFF 		bl	DMA_Initializes
 783              	.LVL46:
 304:../core/src/bsp_usart.c ****     DMA_Channel_Request_Remap(USART2_RX_DMA_CH, DMA_REMAP_USART2_RX);
 784              		.loc 1 304 5 view .LVU239
 785 00d4 3146     		mov	r1, r6
 786 00d6 1848     		ldr	r0, .L52+20
 787 00d8 FFF7FEFF 		bl	DMA_Channel_Request_Remap
 788              	.LVL47:
 305:../core/src/bsp_usart.c ****     DMA_Channel_Enable(USART2_RX_DMA_CH);
 789              		.loc 1 305 5 view .LVU240
 790 00dc 1648     		ldr	r0, .L52+20
 791 00de FFF7FEFF 		bl	DMA_Channel_Enable
 792              	.LVL48:
 306:../core/src/bsp_usart.c **** 
 307:../core/src/bsp_usart.c ****     /* 配置DMA TX中断 */
 308:../core/src/bsp_usart.c ****     NVIC_InitStructure.NVIC_IRQChannel = USART2_TX_DMA_IRQn;
 793              		.loc 1 308 5 view .LVU241
 309:../core/src/bsp_usart.c ****     NVIC_InitStructure.NVIC_IRQChannelPreemptionPriority = 1;
 794              		.loc 1 309 5 view .LVU242
 310:../core/src/bsp_usart.c ****     NVIC_InitStructure.NVIC_IRQChannelSubPriority = 0;
 795              		.loc 1 310 5 view .LVU243
 311:../core/src/bsp_usart.c ****     NVIC_InitStructure.NVIC_IRQChannelCmd = ENABLE;
 796              		.loc 1 311 5 view .LVU244
 308:../core/src/bsp_usart.c ****     NVIC_InitStructure.NVIC_IRQChannelPreemptionPriority = 1;
 797              		.loc 1 308 40 is_stmt 0 view .LVU245
 798 00e2 174B     		ldr	r3, .L52+28
 799 00e4 0093     		str	r3, [sp]
 312:../core/src/bsp_usart.c ****     NVIC_Initializes(&NVIC_InitStructure);
 800              		.loc 1 312 5 is_stmt 1 view .LVU246
 801 00e6 6846     		mov	r0, sp
 802 00e8 FFF7FEFF 		bl	NVIC_Initializes
 803              	.LVL49:
 313:../core/src/bsp_usart.c **** 
 314:../core/src/bsp_usart.c ****     /* 配置USART2空闲中断用于检测接收完成 */
 315:../core/src/bsp_usart.c ****     NVIC_InitStructure.NVIC_IRQChannel = USART2_IRQn;
 804              		.loc 1 315 5 view .LVU247
 316:../core/src/bsp_usart.c ****     NVIC_InitStructure.NVIC_IRQChannelPreemptionPriority = 1;
 805              		.loc 1 316 5 view .LVU248
 317:../core/src/bsp_usart.c ****     NVIC_InitStructure.NVIC_IRQChannelSubPriority = 1;
 806              		.loc 1 317 5 view .LVU249
ARM GAS  C:\Users\Dawn\AppData\Local\Temp\ccNmhKed.s 			page 22


 318:../core/src/bsp_usart.c ****     NVIC_InitStructure.NVIC_IRQChannelCmd = ENABLE;
 807              		.loc 1 318 5 view .LVU250
 315:../core/src/bsp_usart.c ****     NVIC_InitStructure.NVIC_IRQChannelPreemptionPriority = 1;
 808              		.loc 1 315 40 is_stmt 0 view .LVU251
 809 00ec 154B     		ldr	r3, .L52+32
 810 00ee 0093     		str	r3, [sp]
 319:../core/src/bsp_usart.c ****     NVIC_Initializes(&NVIC_InitStructure);
 811              		.loc 1 319 5 is_stmt 1 view .LVU252
 812 00f0 6846     		mov	r0, sp
 813 00f2 FFF7FEFF 		bl	NVIC_Initializes
 814              	.LVL50:
 320:../core/src/bsp_usart.c **** 
 321:../core/src/bsp_usart.c ****     /* 使能USART2空闲中断 */
 322:../core/src/bsp_usart.c ****     USART_Interrput_Enable(USART2, USART_INT_IDLEF);
 815              		.loc 1 322 5 view .LVU253
 816 00f6 0C48     		ldr	r0, .L52+4
 817 00f8 40F22441 		movw	r1, #1060
 818 00fc FFF7FEFF 		bl	USART_Interrput_Enable
 819              	.LVL51:
 323:../core/src/bsp_usart.c **** 
 324:../core/src/bsp_usart.c ****     /* 使能USART2的DMA */
 325:../core/src/bsp_usart.c ****     USART_DMA_Transfer_Enable(USART2, USART_DMAREQ_TX | USART_DMAREQ_RX);
 820              		.loc 1 325 5 view .LVU254
 821 0100 C021     		movs	r1, #192
 822 0102 0948     		ldr	r0, .L52+4
 823 0104 FFF7FEFF 		bl	USART_DMA_Transfer_Enable
 824              	.LVL52:
 326:../core/src/bsp_usart.c **** 
 327:../core/src/bsp_usart.c ****     /* 使能USART2 */
 328:../core/src/bsp_usart.c ****     USART_Enable(USART2);
 825              		.loc 1 328 5 view .LVU255
 826 0108 0748     		ldr	r0, .L52+4
 827 010a FFF7FEFF 		bl	USART_Enable
 828              	.LVL53:
 329:../core/src/bsp_usart.c **** 
 330:../core/src/bsp_usart.c ****     /* 初始化状态变量 */
 331:../core/src/bsp_usart.c ****     usart2_rx_write_index = 0;
 829              		.loc 1 331 5 view .LVU256
 830              		.loc 1 331 27 is_stmt 0 view .LVU257
 831 010e 0E4B     		ldr	r3, .L52+36
 832 0110 1C80     		strh	r4, [r3]	@ movhi
 332:../core/src/bsp_usart.c ****     usart2_rx_read_index = 0;
 833              		.loc 1 332 5 is_stmt 1 view .LVU258
 834              		.loc 1 332 26 is_stmt 0 view .LVU259
 835 0112 0E4B     		ldr	r3, .L52+40
 836 0114 1C80     		strh	r4, [r3]	@ movhi
 333:../core/src/bsp_usart.c ****     usart2_tx_busy = false;
 837              		.loc 1 333 5 is_stmt 1 view .LVU260
 838              		.loc 1 333 20 is_stmt 0 view .LVU261
 839 0116 0E4B     		ldr	r3, .L52+44
 840 0118 1C70     		strb	r4, [r3]
 334:../core/src/bsp_usart.c ****     usart2_last_dma_counter = USART2_RX_DMA_BUFFER_SIZE;
 841              		.loc 1 334 5 is_stmt 1 view .LVU262
 842              		.loc 1 334 29 is_stmt 0 view .LVU263
 843 011a 0E4B     		ldr	r3, .L52+48
 844 011c 1D80     		strh	r5, [r3]	@ movhi
 335:../core/src/bsp_usart.c **** }
ARM GAS  C:\Users\Dawn\AppData\Local\Temp\ccNmhKed.s 			page 23


 845              		.loc 1 335 1 view .LVU264
 846 011e 17B0     		add	sp, sp, #92
 847              	.LCFI13:
 848              		.cfi_def_cfa_offset 28
 849              		@ sp needed
 850 0120 BDE8F083 		pop	{r4, r5, r6, r7, r8, r9, pc}
 851              	.L53:
 852              		.align	2
 853              	.L52:
 854 0124 00340240 		.word	1073886208
 855 0128 00440040 		.word	1073759232
 856 012c 08000240 		.word	1073872904
 857 0130 04440040 		.word	1073759236
 858 0134 00000000 		.word	usart2_tx_dma_buffer
 859 0138 1C000240 		.word	1073872924
 860 013c 00000000 		.word	usart2_rx_dma_buffer
 861 0140 0B010001 		.word	16777483
 862 0144 25010101 		.word	16843045
 863 0148 00000000 		.word	usart2_rx_write_index
 864 014c 00000000 		.word	usart2_rx_read_index
 865 0150 00000000 		.word	usart2_tx_busy
 866 0154 00000000 		.word	usart2_last_dma_counter
 867              		.cfi_endproc
 868              	.LFE139:
 870              		.section	.text.USART2_SendByte,"ax",%progbits
 871              		.align	1
 872              		.global	USART2_SendByte
 873              		.syntax unified
 874              		.thumb
 875              		.thumb_func
 877              	USART2_SendByte:
 878              	.LVL54:
 879              	.LFB140:
 336:../core/src/bsp_usart.c **** 
 337:../core/src/bsp_usart.c **** void USART2_SendByte(uint8_t data)
 338:../core/src/bsp_usart.c **** {
 880              		.loc 1 338 1 is_stmt 1 view -0
 881              		.cfi_startproc
 882              		@ args = 0, pretend = 0, frame = 0
 883              		@ frame_needed = 0, uses_anonymous_args = 0
 884              		.loc 1 338 1 is_stmt 0 view .LVU266
 885 0000 10B5     		push	{r4, lr}
 886              	.LCFI14:
 887              		.cfi_def_cfa_offset 8
 888              		.cfi_offset 4, -8
 889              		.cfi_offset 14, -4
 890 0002 0446     		mov	r4, r0
 339:../core/src/bsp_usart.c ****     while(USART_Flag_Status_Get(USART2, USART_FLAG_TXDE) == RESET)
 891              		.loc 1 339 5 is_stmt 1 view .LVU267
 892              	.LVL55:
 893              	.L55:
 340:../core/src/bsp_usart.c ****     {
 341:../core/src/bsp_usart.c ****     }
 894              		.loc 1 341 5 view .LVU268
 339:../core/src/bsp_usart.c ****     while(USART_Flag_Status_Get(USART2, USART_FLAG_TXDE) == RESET)
 895              		.loc 1 339 58 discriminator 1 view .LVU269
 339:../core/src/bsp_usart.c ****     while(USART_Flag_Status_Get(USART2, USART_FLAG_TXDE) == RESET)
ARM GAS  C:\Users\Dawn\AppData\Local\Temp\ccNmhKed.s 			page 24


 896              		.loc 1 339 11 is_stmt 0 discriminator 1 view .LVU270
 897 0004 0548     		ldr	r0, .L58
 898 0006 8021     		movs	r1, #128
 899 0008 FFF7FEFF 		bl	USART_Flag_Status_Get
 900              	.LVL56:
 339:../core/src/bsp_usart.c ****     while(USART_Flag_Status_Get(USART2, USART_FLAG_TXDE) == RESET)
 901              		.loc 1 339 58 discriminator 1 view .LVU271
 902 000c 0028     		cmp	r0, #0
 903 000e F9D0     		beq	.L55
 342:../core/src/bsp_usart.c ****     USART_Data_Send(USART2, data);
 904              		.loc 1 342 5 is_stmt 1 view .LVU272
 905 0010 2146     		mov	r1, r4
 906 0012 0248     		ldr	r0, .L58
 343:../core/src/bsp_usart.c **** }
 907              		.loc 1 343 1 is_stmt 0 view .LVU273
 908 0014 BDE81040 		pop	{r4, lr}
 909              	.LCFI15:
 910              		.cfi_restore 14
 911              		.cfi_restore 4
 912              		.cfi_def_cfa_offset 0
 913              	.LVL57:
 342:../core/src/bsp_usart.c ****     USART_Data_Send(USART2, data);
 914              		.loc 1 342 5 view .LVU274
 915 0018 FFF7FEBF 		b	USART_Data_Send
 916              	.LVL58:
 917              	.L59:
 342:../core/src/bsp_usart.c ****     USART_Data_Send(USART2, data);
 918              		.loc 1 342 5 view .LVU275
 919              		.align	2
 920              	.L58:
 921 001c 00440040 		.word	1073759232
 922              		.cfi_endproc
 923              	.LFE140:
 925              		.section	.text.USART2_SendArray,"ax",%progbits
 926              		.align	1
 927              		.global	USART2_SendArray
 928              		.syntax unified
 929              		.thumb
 930              		.thumb_func
 932              	USART2_SendArray:
 933              	.LVL59:
 934              	.LFB141:
 344:../core/src/bsp_usart.c **** 
 345:../core/src/bsp_usart.c **** void USART2_SendArray(const uint8_t* data, uint16_t length)
 346:../core/src/bsp_usart.c **** {
 935              		.loc 1 346 1 is_stmt 1 view -0
 936              		.cfi_startproc
 937              		@ args = 0, pretend = 0, frame = 0
 938              		@ frame_needed = 0, uses_anonymous_args = 0
 347:../core/src/bsp_usart.c ****     for(uint16_t i = 0; i < length; i++)
 939              		.loc 1 347 5 view .LVU277
 940              	.LBB2:
 941              		.loc 1 347 9 view .LVU278
 942              		.loc 1 347 9 is_stmt 0 view .LVU279
 943              	.LBE2:
 346:../core/src/bsp_usart.c ****     for(uint16_t i = 0; i < length; i++)
 944              		.loc 1 346 1 view .LVU280
ARM GAS  C:\Users\Dawn\AppData\Local\Temp\ccNmhKed.s 			page 25


 945 0000 38B5     		push	{r3, r4, r5, lr}
 946              	.LCFI16:
 947              		.cfi_def_cfa_offset 16
 948              		.cfi_offset 3, -16
 949              		.cfi_offset 4, -12
 950              		.cfi_offset 5, -8
 951              		.cfi_offset 14, -4
 952 0002 0446     		mov	r4, r0
 953 0004 4518     		adds	r5, r0, r1
 954              	.LVL60:
 955              	.L61:
 956              	.LBB3:
 957              		.loc 1 347 27 is_stmt 1 discriminator 1 view .LVU281
 958 0006 AC42     		cmp	r4, r5
 959 0008 06D1     		bne	.L62
 960              	.L63:
 961              	.LBE3:
 348:../core/src/bsp_usart.c ****     {
 349:../core/src/bsp_usart.c ****         USART2_SendByte(data[i]);
 350:../core/src/bsp_usart.c ****     }
 351:../core/src/bsp_usart.c ****     /* 等待发送完成 */
 352:../core/src/bsp_usart.c ****     while(USART_Flag_Status_Get(USART2, USART_FLAG_TXC) == RESET)
 353:../core/src/bsp_usart.c ****     {
 354:../core/src/bsp_usart.c ****     }
 962              		.loc 1 354 5 view .LVU282
 352:../core/src/bsp_usart.c ****     {
 963              		.loc 1 352 57 discriminator 1 view .LVU283
 352:../core/src/bsp_usart.c ****     {
 964              		.loc 1 352 11 is_stmt 0 discriminator 1 view .LVU284
 965 000a 0648     		ldr	r0, .L66
 966 000c 4021     		movs	r1, #64
 967 000e FFF7FEFF 		bl	USART_Flag_Status_Get
 968              	.LVL61:
 352:../core/src/bsp_usart.c ****     {
 969              		.loc 1 352 57 discriminator 1 view .LVU285
 970 0012 0028     		cmp	r0, #0
 971 0014 F9D0     		beq	.L63
 355:../core/src/bsp_usart.c **** }
 972              		.loc 1 355 1 view .LVU286
 973 0016 38BD     		pop	{r3, r4, r5, pc}
 974              	.LVL62:
 975              	.L62:
 976              	.LBB4:
 349:../core/src/bsp_usart.c ****     }
 977              		.loc 1 349 9 is_stmt 1 view .LVU287
 978 0018 14F8010B 		ldrb	r0, [r4], #1	@ zero_extendqisi2
 979              	.LVL63:
 349:../core/src/bsp_usart.c ****     }
 980              		.loc 1 349 9 is_stmt 0 view .LVU288
 981 001c FFF7FEFF 		bl	USART2_SendByte
 982              	.LVL64:
 347:../core/src/bsp_usart.c ****     {
 983              		.loc 1 347 38 is_stmt 1 discriminator 3 view .LVU289
 984 0020 F1E7     		b	.L61
 985              	.L67:
 986 0022 00BF     		.align	2
 987              	.L66:
ARM GAS  C:\Users\Dawn\AppData\Local\Temp\ccNmhKed.s 			page 26


 988 0024 00440040 		.word	1073759232
 989              	.LBE4:
 990              		.cfi_endproc
 991              	.LFE141:
 993              		.section	.text.USART2_SendArray_DMA,"ax",%progbits
 994              		.align	1
 995              		.global	USART2_SendArray_DMA
 996              		.syntax unified
 997              		.thumb
 998              		.thumb_func
 1000              	USART2_SendArray_DMA:
 1001              	.LVL65:
 1002              	.LFB142:
 356:../core/src/bsp_usart.c **** 
 357:../core/src/bsp_usart.c **** /**
 358:../core/src/bsp_usart.c ****  *\*\name   USART2_SendArray_DMA.
 359:../core/src/bsp_usart.c ****  *\*\fun    Send array via USART2 using DMA.
 360:../core/src/bsp_usart.c ****  *\*\param  data: array to send.
 361:../core/src/bsp_usart.c ****  *\*\param  length: length of array.
 362:../core/src/bsp_usart.c ****  *\*\return none.
 363:../core/src/bsp_usart.c **** **/
 364:../core/src/bsp_usart.c **** void USART2_SendArray_DMA(const uint8_t* data, uint16_t length)
 365:../core/src/bsp_usart.c **** {
 1003              		.loc 1 365 1 view -0
 1004              		.cfi_startproc
 1005              		@ args = 0, pretend = 0, frame = 0
 1006              		@ frame_needed = 0, uses_anonymous_args = 0
 366:../core/src/bsp_usart.c ****     if(data == NULL || length == 0)
 1007              		.loc 1 366 5 view .LVU291
 365:../core/src/bsp_usart.c ****     if(data == NULL || length == 0)
 1008              		.loc 1 365 1 is_stmt 0 view .LVU292
 1009 0000 38B5     		push	{r3, r4, r5, lr}
 1010              	.LCFI17:
 1011              		.cfi_def_cfa_offset 16
 1012              		.cfi_offset 3, -16
 1013              		.cfi_offset 4, -12
 1014              		.cfi_offset 5, -8
 1015              		.cfi_offset 14, -4
 365:../core/src/bsp_usart.c ****     if(data == NULL || length == 0)
 1016              		.loc 1 365 1 view .LVU293
 1017 0002 0C46     		mov	r4, r1
 1018              		.loc 1 366 7 view .LVU294
 1019 0004 0146     		mov	r1, r0
 1020              	.LVL66:
 1021              		.loc 1 366 7 view .LVU295
 1022 0006 D8B1     		cbz	r0, .L68
 1023              		.loc 1 366 21 discriminator 1 view .LVU296
 1024 0008 D4B1     		cbz	r4, .L68
 367:../core/src/bsp_usart.c ****     {
 368:../core/src/bsp_usart.c ****         return;
 369:../core/src/bsp_usart.c ****     }
 370:../core/src/bsp_usart.c **** 
 371:../core/src/bsp_usart.c ****     /* 等待上次DMA发送完成 */
 372:../core/src/bsp_usart.c ****     while(usart2_tx_busy)
 1025              		.loc 1 372 11 discriminator 1 view .LVU297
 1026 000a 0E4D     		ldr	r5, .L78
 1027              	.L70:
ARM GAS  C:\Users\Dawn\AppData\Local\Temp\ccNmhKed.s 			page 27


 373:../core/src/bsp_usart.c ****     {
 374:../core/src/bsp_usart.c ****     }
 1028              		.loc 1 374 5 is_stmt 1 view .LVU298
 372:../core/src/bsp_usart.c ****     {
 1029              		.loc 1 372 11 discriminator 1 view .LVU299
 1030 000c 2B78     		ldrb	r3, [r5]	@ zero_extendqisi2
 1031 000e 002B     		cmp	r3, #0
 1032 0010 FCD1     		bne	.L70
 375:../core/src/bsp_usart.c **** 
 376:../core/src/bsp_usart.c ****     /* 限制长度 */
 377:../core/src/bsp_usart.c ****     if(length > USART2_TX_DMA_BUFFER_SIZE)
 1033              		.loc 1 377 5 view .LVU300
 1034              		.loc 1 377 7 is_stmt 0 view .LVU301
 1035 0012 B4F5807F 		cmp	r4, #256
 1036 0016 28BF     		it	cs
 1037 0018 4FF48074 		movcs	r4, #256
 1038              	.LVL67:
 378:../core/src/bsp_usart.c ****     {
 379:../core/src/bsp_usart.c ****         length = USART2_TX_DMA_BUFFER_SIZE;
 380:../core/src/bsp_usart.c ****     }
 381:../core/src/bsp_usart.c **** 
 382:../core/src/bsp_usart.c ****     /* 复制数据到DMA缓冲区 */
 383:../core/src/bsp_usart.c ****     memcpy(usart2_tx_dma_buffer, data, length);
 1039              		.loc 1 383 5 is_stmt 1 view .LVU302
 1040 001c 2246     		mov	r2, r4
 1041 001e 0A48     		ldr	r0, .L78+4
 1042              	.LVL68:
 1043              		.loc 1 383 5 is_stmt 0 view .LVU303
 1044 0020 FFF7FEFF 		bl	memcpy
 1045              	.LVL69:
 384:../core/src/bsp_usart.c **** 
 385:../core/src/bsp_usart.c ****     /* 标记发送忙 */
 386:../core/src/bsp_usart.c ****     usart2_tx_busy = true;
 1046              		.loc 1 386 5 is_stmt 1 view .LVU304
 1047              		.loc 1 386 20 is_stmt 0 view .LVU305
 1048 0024 0123     		movs	r3, #1
 387:../core/src/bsp_usart.c **** 
 388:../core/src/bsp_usart.c ****     /* 配置DMA传输 */
 389:../core/src/bsp_usart.c ****     DMA_Channel_Disable(USART2_TX_DMA_CH);
 1049              		.loc 1 389 5 view .LVU306
 1050 0026 0948     		ldr	r0, .L78+8
 386:../core/src/bsp_usart.c **** 
 1051              		.loc 1 386 20 view .LVU307
 1052 0028 2B70     		strb	r3, [r5]
 1053              		.loc 1 389 5 is_stmt 1 view .LVU308
 1054 002a FFF7FEFF 		bl	DMA_Channel_Disable
 1055              	.LVL70:
 390:../core/src/bsp_usart.c ****     DMA_Current_Data_Transfer_Number_Set(USART2_TX_DMA_CH, length);
 1056              		.loc 1 390 5 view .LVU309
 1057 002e 0748     		ldr	r0, .L78+8
 1058 0030 2146     		mov	r1, r4
 1059 0032 FFF7FEFF 		bl	DMA_Current_Data_Transfer_Number_Set
 1060              	.LVL71:
 391:../core/src/bsp_usart.c ****     DMA_Channel_Enable(USART2_TX_DMA_CH);
 1061              		.loc 1 391 5 view .LVU310
 392:../core/src/bsp_usart.c **** }
 1062              		.loc 1 392 1 is_stmt 0 view .LVU311
ARM GAS  C:\Users\Dawn\AppData\Local\Temp\ccNmhKed.s 			page 28


 1063 0036 BDE83840 		pop	{r3, r4, r5, lr}
 1064              	.LCFI18:
 1065              		.cfi_remember_state
 1066              		.cfi_restore 14
 1067              		.cfi_restore 5
 1068              		.cfi_restore 4
 1069              		.cfi_restore 3
 1070              		.cfi_def_cfa_offset 0
 1071              	.LVL72:
 391:../core/src/bsp_usart.c ****     DMA_Channel_Enable(USART2_TX_DMA_CH);
 1072              		.loc 1 391 5 view .LVU312
 1073 003a 0448     		ldr	r0, .L78+8
 1074 003c FFF7FEBF 		b	DMA_Channel_Enable
 1075              	.LVL73:
 1076              	.L68:
 1077              	.LCFI19:
 1078              		.cfi_restore_state
 1079              		.loc 1 392 1 view .LVU313
 1080 0040 38BD     		pop	{r3, r4, r5, pc}
 1081              	.L79:
 1082 0042 00BF     		.align	2
 1083              	.L78:
 1084 0044 00000000 		.word	usart2_tx_busy
 1085 0048 00000000 		.word	usart2_tx_dma_buffer
 1086 004c 08000240 		.word	1073872904
 1087              		.cfi_endproc
 1088              	.LFE142:
 1090              		.section	.text.USART2_IsTxBusy,"ax",%progbits
 1091              		.align	1
 1092              		.global	USART2_IsTxBusy
 1093              		.syntax unified
 1094              		.thumb
 1095              		.thumb_func
 1097              	USART2_IsTxBusy:
 1098              	.LFB143:
 393:../core/src/bsp_usart.c **** 
 394:../core/src/bsp_usart.c **** /**
 395:../core/src/bsp_usart.c ****  *\*\name   USART2_IsTxBusy.
 396:../core/src/bsp_usart.c ****  *\*\fun    Check if USART2 TX DMA is busy.
 397:../core/src/bsp_usart.c ****  *\*\param  none.
 398:../core/src/bsp_usart.c ****  *\*\return true if busy, false otherwise.
 399:../core/src/bsp_usart.c **** **/
 400:../core/src/bsp_usart.c **** bool USART2_IsTxBusy(void)
 401:../core/src/bsp_usart.c **** {
 1099              		.loc 1 401 1 is_stmt 1 view -0
 1100              		.cfi_startproc
 1101              		@ args = 0, pretend = 0, frame = 0
 1102              		@ frame_needed = 0, uses_anonymous_args = 0
 1103              		@ link register save eliminated.
 402:../core/src/bsp_usart.c ****     return usart2_tx_busy;
 1104              		.loc 1 402 5 view .LVU315
 1105              		.loc 1 402 12 is_stmt 0 view .LVU316
 1106 0000 014B     		ldr	r3, .L81
 1107 0002 1878     		ldrb	r0, [r3]	@ zero_extendqisi2
 403:../core/src/bsp_usart.c **** }
 1108              		.loc 1 403 1 view .LVU317
 1109 0004 7047     		bx	lr
ARM GAS  C:\Users\Dawn\AppData\Local\Temp\ccNmhKed.s 			page 29


 1110              	.L82:
 1111 0006 00BF     		.align	2
 1112              	.L81:
 1113 0008 00000000 		.word	usart2_tx_busy
 1114              		.cfi_endproc
 1115              	.LFE143:
 1117              		.section	.text.USART2_GetRxCount,"ax",%progbits
 1118              		.align	1
 1119              		.global	USART2_GetRxCount
 1120              		.syntax unified
 1121              		.thumb
 1122              		.thumb_func
 1124              	USART2_GetRxCount:
 1125              	.LFB144:
 404:../core/src/bsp_usart.c **** 
 405:../core/src/bsp_usart.c **** /**
 406:../core/src/bsp_usart.c ****  *\*\name   USART2_GetRxCount.
 407:../core/src/bsp_usart.c ****  *\*\fun    Get number of received bytes in buffer.
 408:../core/src/bsp_usart.c ****  *\*\param  none.
 409:../core/src/bsp_usart.c ****  *\*\return number of bytes available.
 410:../core/src/bsp_usart.c **** **/
 411:../core/src/bsp_usart.c **** uint16_t USART2_GetRxCount(void)
 412:../core/src/bsp_usart.c **** {
 1126              		.loc 1 412 1 is_stmt 1 view -0
 1127              		.cfi_startproc
 1128              		@ args = 0, pretend = 0, frame = 0
 1129              		@ frame_needed = 0, uses_anonymous_args = 0
 413:../core/src/bsp_usart.c ****     uint16_t current_counter = DMA_Current_Data_Transfer_Number_Get(USART2_RX_DMA_CH);
 1130              		.loc 1 413 5 view .LVU319
 412:../core/src/bsp_usart.c ****     uint16_t current_counter = DMA_Current_Data_Transfer_Number_Get(USART2_RX_DMA_CH);
 1131              		.loc 1 412 1 is_stmt 0 view .LVU320
 1132 0000 08B5     		push	{r3, lr}
 1133              	.LCFI20:
 1134              		.cfi_def_cfa_offset 8
 1135              		.cfi_offset 3, -8
 1136              		.cfi_offset 14, -4
 1137              		.loc 1 413 32 view .LVU321
 1138 0002 0948     		ldr	r0, .L87
 1139 0004 FFF7FEFF 		bl	DMA_Current_Data_Transfer_Number_Get
 1140              	.LVL74:
 414:../core/src/bsp_usart.c ****     uint16_t write_index = USART2_RX_DMA_BUFFER_SIZE - current_counter;
 1141              		.loc 1 414 5 is_stmt 1 view .LVU322
 415:../core/src/bsp_usart.c **** 
 416:../core/src/bsp_usart.c ****     if(write_index >= usart2_rx_read_index)
 1142              		.loc 1 416 20 is_stmt 0 view .LVU323
 1143 0008 084B     		ldr	r3, .L87+4
 1144 000a 1A88     		ldrh	r2, [r3]
 417:../core/src/bsp_usart.c ****     {
 418:../core/src/bsp_usart.c ****         return write_index - usart2_rx_read_index;
 1145              		.loc 1 418 28 view .LVU324
 1146 000c 1B88     		ldrh	r3, [r3]
 414:../core/src/bsp_usart.c **** 
 1147              		.loc 1 414 14 view .LVU325
 1148 000e C0F58070 		rsb	r0, r0, #256
 1149              	.LVL75:
 414:../core/src/bsp_usart.c **** 
 1150              		.loc 1 414 14 view .LVU326
ARM GAS  C:\Users\Dawn\AppData\Local\Temp\ccNmhKed.s 			page 30


 1151 0012 80B2     		uxth	r0, r0
 1152              	.LVL76:
 416:../core/src/bsp_usart.c ****     {
 1153              		.loc 1 416 5 is_stmt 1 view .LVU327
 416:../core/src/bsp_usart.c ****     {
 1154              		.loc 1 416 20 is_stmt 0 view .LVU328
 1155 0014 92B2     		uxth	r2, r2
 416:../core/src/bsp_usart.c ****     {
 1156              		.loc 1 416 7 view .LVU329
 1157 0016 8242     		cmp	r2, r0
 1158              		.loc 1 418 9 is_stmt 1 view .LVU330
 419:../core/src/bsp_usart.c ****     }
 420:../core/src/bsp_usart.c ****     else
 421:../core/src/bsp_usart.c ****     {
 422:../core/src/bsp_usart.c ****         return USART2_RX_DMA_BUFFER_SIZE - usart2_rx_read_index + write_index;
 1159              		.loc 1 422 65 is_stmt 0 view .LVU331
 1160 0018 85BF     		ittet	hi
 1161 001a 9BB2     		uxthhi	r3, r3
 1162 001c C3F58073 		rsbhi	r3, r3, #256
 418:../core/src/bsp_usart.c ****     }
 1163              		.loc 1 418 28 view .LVU332
 1164 0020 C01A     		subls	r0, r0, r3
 1165              	.LVL77:
 1166              		.loc 1 422 9 is_stmt 1 view .LVU333
 1167              		.loc 1 422 65 is_stmt 0 view .LVU334
 1168 0022 C018     		addhi	r0, r0, r3
 1169 0024 80B2     		uxth	r0, r0
 423:../core/src/bsp_usart.c ****     }
 424:../core/src/bsp_usart.c **** }
 1170              		.loc 1 424 1 view .LVU335
 1171 0026 08BD     		pop	{r3, pc}
 1172              	.L88:
 1173              		.align	2
 1174              	.L87:
 1175 0028 1C000240 		.word	1073872924
 1176 002c 00000000 		.word	usart2_rx_read_index
 1177              		.cfi_endproc
 1178              	.LFE144:
 1180              		.section	.text.USART2_GetRxData,"ax",%progbits
 1181              		.align	1
 1182              		.global	USART2_GetRxData
 1183              		.syntax unified
 1184              		.thumb
 1185              		.thumb_func
 1187              	USART2_GetRxData:
 1188              	.LVL78:
 1189              	.LFB145:
 425:../core/src/bsp_usart.c **** 
 426:../core/src/bsp_usart.c **** /**
 427:../core/src/bsp_usart.c ****  *\*\name   USART2_GetRxData.
 428:../core/src/bsp_usart.c ****  *\*\fun    Get received data from buffer.
 429:../core/src/bsp_usart.c ****  *\*\param  buffer: buffer to store received data.
 430:../core/src/bsp_usart.c ****  *\*\param  max_length: maximum length of buffer.
 431:../core/src/bsp_usart.c ****  *\*\return actual length of received data.
 432:../core/src/bsp_usart.c **** **/
 433:../core/src/bsp_usart.c **** uint16_t USART2_GetRxData(uint8_t* buffer, uint16_t max_length)
 434:../core/src/bsp_usart.c **** {
ARM GAS  C:\Users\Dawn\AppData\Local\Temp\ccNmhKed.s 			page 31


 1190              		.loc 1 434 1 is_stmt 1 view -0
 1191              		.cfi_startproc
 1192              		@ args = 0, pretend = 0, frame = 0
 1193              		@ frame_needed = 0, uses_anonymous_args = 0
 435:../core/src/bsp_usart.c ****     if(buffer == NULL || max_length == 0)
 1194              		.loc 1 435 5 view .LVU337
 434:../core/src/bsp_usart.c ****     if(buffer == NULL || max_length == 0)
 1195              		.loc 1 434 1 is_stmt 0 view .LVU338
 1196 0000 F8B5     		push	{r3, r4, r5, r6, r7, lr}
 1197              	.LCFI21:
 1198              		.cfi_def_cfa_offset 24
 1199              		.cfi_offset 3, -24
 1200              		.cfi_offset 4, -20
 1201              		.cfi_offset 5, -16
 1202              		.cfi_offset 6, -12
 1203              		.cfi_offset 7, -8
 1204              		.cfi_offset 14, -4
 434:../core/src/bsp_usart.c ****     if(buffer == NULL || max_length == 0)
 1205              		.loc 1 434 1 view .LVU339
 1206 0002 0C46     		mov	r4, r1
 1207              		.loc 1 435 7 view .LVU340
 1208 0004 0546     		mov	r5, r0
 1209 0006 80B1     		cbz	r0, .L90
 1210              		.loc 1 435 23 discriminator 1 view .LVU341
 1211 0008 D1B1     		cbz	r1, .L94
 436:../core/src/bsp_usart.c ****     {
 437:../core/src/bsp_usart.c ****         return 0;
 438:../core/src/bsp_usart.c ****     }
 439:../core/src/bsp_usart.c **** 
 440:../core/src/bsp_usart.c ****     uint16_t current_counter = DMA_Current_Data_Transfer_Number_Get(USART2_RX_DMA_CH);
 1212              		.loc 1 440 5 is_stmt 1 view .LVU342
 1213              		.loc 1 440 32 is_stmt 0 view .LVU343
 1214 000a 0E48     		ldr	r0, .L95
 1215              	.LVL79:
 441:../core/src/bsp_usart.c ****     uint16_t write_index = USART2_RX_DMA_BUFFER_SIZE - current_counter;
 442:../core/src/bsp_usart.c ****     uint16_t count = 0;
 443:../core/src/bsp_usart.c **** 
 444:../core/src/bsp_usart.c ****     while(usart2_rx_read_index != write_index && count < max_length)
 1216              		.loc 1 444 32 view .LVU344
 1217 000c 0E4E     		ldr	r6, .L95+4
 445:../core/src/bsp_usart.c ****     {
 446:../core/src/bsp_usart.c ****         buffer[count++] = usart2_rx_dma_buffer[usart2_rx_read_index];
 1218              		.loc 1 446 47 view .LVU345
 1219 000e 0F4F     		ldr	r7, .L95+8
 440:../core/src/bsp_usart.c ****     uint16_t write_index = USART2_RX_DMA_BUFFER_SIZE - current_counter;
 1220              		.loc 1 440 32 view .LVU346
 1221 0010 FFF7FEFF 		bl	DMA_Current_Data_Transfer_Number_Get
 1222              	.LVL80:
 441:../core/src/bsp_usart.c ****     uint16_t write_index = USART2_RX_DMA_BUFFER_SIZE - current_counter;
 1223              		.loc 1 441 5 is_stmt 1 view .LVU347
 441:../core/src/bsp_usart.c ****     uint16_t write_index = USART2_RX_DMA_BUFFER_SIZE - current_counter;
 1224              		.loc 1 441 14 is_stmt 0 view .LVU348
 1225 0014 C0F58073 		rsb	r3, r0, #256
 1226 0018 9BB2     		uxth	r3, r3
 1227              	.LVL81:
 442:../core/src/bsp_usart.c **** 
 1228              		.loc 1 442 5 is_stmt 1 view .LVU349
ARM GAS  C:\Users\Dawn\AppData\Local\Temp\ccNmhKed.s 			page 32


 444:../core/src/bsp_usart.c ****     {
 1229              		.loc 1 444 5 view .LVU350
 444:../core/src/bsp_usart.c ****     {
 1230              		.loc 1 444 10 is_stmt 0 view .LVU351
 1231 001a 0021     		movs	r1, #0
 1232              	.LVL82:
 1233              	.L91:
 444:../core/src/bsp_usart.c ****     {
 1234              		.loc 1 444 32 view .LVU352
 1235 001c 3288     		ldrh	r2, [r6]
 1236 001e 92B2     		uxth	r2, r2
 444:../core/src/bsp_usart.c ****     {
 1237              		.loc 1 444 47 view .LVU353
 1238 0020 9A42     		cmp	r2, r3
 1239 0022 88B2     		uxth	r0, r1
 1240              	.LVL83:
 444:../core/src/bsp_usart.c ****     {
 1241              		.loc 1 444 47 is_stmt 1 view .LVU354
 1242 0024 01D0     		beq	.L90
 444:../core/src/bsp_usart.c ****     {
 1243              		.loc 1 444 47 is_stmt 0 discriminator 1 view .LVU355
 1244 0026 8442     		cmp	r4, r0
 1245 0028 00D8     		bhi	.L92
 1246              	.LVL84:
 1247              	.L90:
 447:../core/src/bsp_usart.c ****         usart2_rx_read_index = (usart2_rx_read_index + 1) % USART2_RX_DMA_BUFFER_SIZE;
 448:../core/src/bsp_usart.c ****     }
 449:../core/src/bsp_usart.c **** 
 450:../core/src/bsp_usart.c ****     return count;
 451:../core/src/bsp_usart.c **** }
 1248              		.loc 1 451 1 view .LVU356
 1249 002a F8BD     		pop	{r3, r4, r5, r6, r7, pc}
 1250              	.LVL85:
 1251              	.L92:
 446:../core/src/bsp_usart.c ****         usart2_rx_read_index = (usart2_rx_read_index + 1) % USART2_RX_DMA_BUFFER_SIZE;
 1252              		.loc 1 446 9 is_stmt 1 view .LVU357
 446:../core/src/bsp_usart.c ****         usart2_rx_read_index = (usart2_rx_read_index + 1) % USART2_RX_DMA_BUFFER_SIZE;
 1253              		.loc 1 446 47 is_stmt 0 view .LVU358
 1254 002c 3288     		ldrh	r2, [r6]
 1255 002e 92B2     		uxth	r2, r2
 1256              	.LVL86:
 446:../core/src/bsp_usart.c ****         usart2_rx_read_index = (usart2_rx_read_index + 1) % USART2_RX_DMA_BUFFER_SIZE;
 1257              		.loc 1 446 47 view .LVU359
 1258 0030 BA5C     		ldrb	r2, [r7, r2]	@ zero_extendqisi2
 446:../core/src/bsp_usart.c ****         usart2_rx_read_index = (usart2_rx_read_index + 1) % USART2_RX_DMA_BUFFER_SIZE;
 1259              		.loc 1 446 25 view .LVU360
 1260 0032 6A54     		strb	r2, [r5, r1]
 447:../core/src/bsp_usart.c ****         usart2_rx_read_index = (usart2_rx_read_index + 1) % USART2_RX_DMA_BUFFER_SIZE;
 1261              		.loc 1 447 9 is_stmt 1 view .LVU361
 447:../core/src/bsp_usart.c ****         usart2_rx_read_index = (usart2_rx_read_index + 1) % USART2_RX_DMA_BUFFER_SIZE;
 1262              		.loc 1 447 54 is_stmt 0 view .LVU362
 1263 0034 3288     		ldrh	r2, [r6]
 1264 0036 0132     		adds	r2, r2, #1
 447:../core/src/bsp_usart.c ****         usart2_rx_read_index = (usart2_rx_read_index + 1) % USART2_RX_DMA_BUFFER_SIZE;
 1265              		.loc 1 447 30 view .LVU363
 1266 0038 D2B2     		uxtb	r2, r2
 1267 003a 3280     		strh	r2, [r6]	@ movhi
ARM GAS  C:\Users\Dawn\AppData\Local\Temp\ccNmhKed.s 			page 33


 1268 003c 0131     		adds	r1, r1, #1
 1269              	.LVL87:
 447:../core/src/bsp_usart.c ****         usart2_rx_read_index = (usart2_rx_read_index + 1) % USART2_RX_DMA_BUFFER_SIZE;
 1270              		.loc 1 447 30 view .LVU364
 1271 003e EDE7     		b	.L91
 1272              	.LVL88:
 1273              	.L94:
 437:../core/src/bsp_usart.c ****     }
 1274              		.loc 1 437 16 view .LVU365
 1275 0040 0846     		mov	r0, r1
 1276              	.LVL89:
 437:../core/src/bsp_usart.c ****     }
 1277              		.loc 1 437 16 view .LVU366
 1278 0042 F2E7     		b	.L90
 1279              	.L96:
 1280              		.align	2
 1281              	.L95:
 1282 0044 1C000240 		.word	1073872924
 1283 0048 00000000 		.word	usart2_rx_read_index
 1284 004c 00000000 		.word	usart2_rx_dma_buffer
 1285              		.cfi_endproc
 1286              	.LFE145:
 1288              		.section	.text.USART2_FlushRxBuffer,"ax",%progbits
 1289              		.align	1
 1290              		.global	USART2_FlushRxBuffer
 1291              		.syntax unified
 1292              		.thumb
 1293              		.thumb_func
 1295              	USART2_FlushRxBuffer:
 1296              	.LFB146:
 452:../core/src/bsp_usart.c **** 
 453:../core/src/bsp_usart.c **** void USART2_FlushRxBuffer(void)
 454:../core/src/bsp_usart.c **** {
 1297              		.loc 1 454 1 is_stmt 1 view -0
 1298              		.cfi_startproc
 1299              		@ args = 0, pretend = 0, frame = 0
 1300              		@ frame_needed = 0, uses_anonymous_args = 0
 455:../core/src/bsp_usart.c ****     uint16_t current_counter = DMA_Current_Data_Transfer_Number_Get(USART2_RX_DMA_CH);
 1301              		.loc 1 455 5 view .LVU368
 454:../core/src/bsp_usart.c ****     uint16_t current_counter = DMA_Current_Data_Transfer_Number_Get(USART2_RX_DMA_CH);
 1302              		.loc 1 454 1 is_stmt 0 view .LVU369
 1303 0000 08B5     		push	{r3, lr}
 1304              	.LCFI22:
 1305              		.cfi_def_cfa_offset 8
 1306              		.cfi_offset 3, -8
 1307              		.cfi_offset 14, -4
 1308              		.loc 1 455 32 view .LVU370
 1309 0002 0448     		ldr	r0, .L98
 1310 0004 FFF7FEFF 		bl	DMA_Current_Data_Transfer_Number_Get
 1311              	.LVL90:
 456:../core/src/bsp_usart.c ****     usart2_rx_read_index = USART2_RX_DMA_BUFFER_SIZE - current_counter;
 1312              		.loc 1 456 5 is_stmt 1 view .LVU371
 1313              		.loc 1 456 26 is_stmt 0 view .LVU372
 1314 0008 034B     		ldr	r3, .L98+4
 1315              		.loc 1 456 54 view .LVU373
 1316 000a C0F58070 		rsb	r0, r0, #256
 1317              	.LVL91:
ARM GAS  C:\Users\Dawn\AppData\Local\Temp\ccNmhKed.s 			page 34


 1318              		.loc 1 456 54 view .LVU374
 1319 000e 80B2     		uxth	r0, r0
 1320              		.loc 1 456 26 view .LVU375
 1321 0010 1880     		strh	r0, [r3]	@ movhi
 457:../core/src/bsp_usart.c **** }
 1322              		.loc 1 457 1 view .LVU376
 1323 0012 08BD     		pop	{r3, pc}
 1324              	.L99:
 1325              		.align	2
 1326              	.L98:
 1327 0014 1C000240 		.word	1073872924
 1328 0018 00000000 		.word	usart2_rx_read_index
 1329              		.cfi_endproc
 1330              	.LFE146:
 1332              		.section	.text.USART2_IRQHandler,"ax",%progbits
 1333              		.align	1
 1334              		.global	USART2_IRQHandler
 1335              		.syntax unified
 1336              		.thumb
 1337              		.thumb_func
 1339              	USART2_IRQHandler:
 1340              	.LFB147:
 458:../core/src/bsp_usart.c **** 
 459:../core/src/bsp_usart.c **** /**
 460:../core/src/bsp_usart.c ****  *\*\name   USART2_IRQHandler.
 461:../core/src/bsp_usart.c ****  *\*\fun    USART2 interrupt handler for IDLE detection.
 462:../core/src/bsp_usart.c ****  *\*\param  none.
 463:../core/src/bsp_usart.c ****  *\*\return none.
 464:../core/src/bsp_usart.c **** **/
 465:../core/src/bsp_usart.c **** void USART2_IRQHandler(void)
 466:../core/src/bsp_usart.c **** {
 1341              		.loc 1 466 1 is_stmt 1 view -0
 1342              		.cfi_startproc
 1343              		@ args = 0, pretend = 0, frame = 0
 1344              		@ frame_needed = 0, uses_anonymous_args = 0
 467:../core/src/bsp_usart.c ****     if(USART_Interrupt_Status_Get(USART2, USART_INT_IDLEF) != RESET)
 1345              		.loc 1 467 5 view .LVU378
 466:../core/src/bsp_usart.c ****     if(USART_Interrupt_Status_Get(USART2, USART_INT_IDLEF) != RESET)
 1346              		.loc 1 466 1 is_stmt 0 view .LVU379
 1347 0000 10B5     		push	{r4, lr}
 1348              	.LCFI23:
 1349              		.cfi_def_cfa_offset 8
 1350              		.cfi_offset 4, -8
 1351              		.cfi_offset 14, -4
 1352              		.loc 1 467 8 view .LVU380
 1353 0002 094C     		ldr	r4, .L105
 1354 0004 40F22441 		movw	r1, #1060
 1355 0008 2046     		mov	r0, r4
 1356 000a FFF7FEFF 		bl	USART_Interrupt_Status_Get
 1357              	.LVL92:
 1358              		.loc 1 467 7 discriminator 1 view .LVU381
 1359 000e 48B1     		cbz	r0, .L100
 1360              	.LBB5:
 468:../core/src/bsp_usart.c ****     {
 469:../core/src/bsp_usart.c ****         /* 清除空闲中断标志：先读STS再读DAT */
 470:../core/src/bsp_usart.c ****         (void)USART2->STS;
 1361              		.loc 1 470 9 is_stmt 1 view .LVU382
ARM GAS  C:\Users\Dawn\AppData\Local\Temp\ccNmhKed.s 			page 35


 471:../core/src/bsp_usart.c ****         (void)USART2->DAT;
 472:../core/src/bsp_usart.c **** 
 473:../core/src/bsp_usart.c ****         /* 更新写索引 */
 474:../core/src/bsp_usart.c ****         uint16_t current_counter = DMA_Current_Data_Transfer_Number_Get(USART2_RX_DMA_CH);
 1362              		.loc 1 474 36 is_stmt 0 view .LVU383
 1363 0010 0648     		ldr	r0, .L105+4
 470:../core/src/bsp_usart.c ****         (void)USART2->DAT;
 1364              		.loc 1 470 9 view .LVU384
 1365 0012 2388     		ldrh	r3, [r4]
 471:../core/src/bsp_usart.c ****         (void)USART2->DAT;
 1366              		.loc 1 471 9 is_stmt 1 view .LVU385
 1367 0014 A388     		ldrh	r3, [r4, #4]
 1368              		.loc 1 474 9 view .LVU386
 1369              		.loc 1 474 36 is_stmt 0 view .LVU387
 1370 0016 FFF7FEFF 		bl	DMA_Current_Data_Transfer_Number_Get
 1371              	.LVL93:
 475:../core/src/bsp_usart.c ****         usart2_rx_write_index = USART2_RX_DMA_BUFFER_SIZE - current_counter;
 1372              		.loc 1 475 9 is_stmt 1 view .LVU388
 1373              		.loc 1 475 31 is_stmt 0 view .LVU389
 1374 001a 054B     		ldr	r3, .L105+8
 1375              		.loc 1 475 59 view .LVU390
 1376 001c C0F58070 		rsb	r0, r0, #256
 1377              	.LVL94:
 1378              		.loc 1 475 59 view .LVU391
 1379 0020 80B2     		uxth	r0, r0
 1380              		.loc 1 475 31 view .LVU392
 1381 0022 1880     		strh	r0, [r3]	@ movhi
 1382              	.LVL95:
 1383              	.L100:
 1384              		.loc 1 475 31 view .LVU393
 1385              	.LBE5:
 476:../core/src/bsp_usart.c ****     }
 477:../core/src/bsp_usart.c **** }
 1386              		.loc 1 477 1 view .LVU394
 1387 0024 10BD     		pop	{r4, pc}
 1388              	.L106:
 1389 0026 00BF     		.align	2
 1390              	.L105:
 1391 0028 00440040 		.word	1073759232
 1392 002c 1C000240 		.word	1073872924
 1393 0030 00000000 		.word	usart2_rx_write_index
 1394              		.cfi_endproc
 1395              	.LFE147:
 1397              		.section	.text.DMA_Channel1_IRQHandler,"ax",%progbits
 1398              		.align	1
 1399              		.global	DMA_Channel1_IRQHandler
 1400              		.syntax unified
 1401              		.thumb
 1402              		.thumb_func
 1404              	DMA_Channel1_IRQHandler:
 1405              	.LFB148:
 478:../core/src/bsp_usart.c **** 
 479:../core/src/bsp_usart.c **** /**
 480:../core/src/bsp_usart.c ****  *\*\name   DMA_Channel1_IRQHandler.
 481:../core/src/bsp_usart.c ****  *\*\fun    DMA Channel1 interrupt handler for USART2 TX complete.
 482:../core/src/bsp_usart.c ****  *\*\param  none.
 483:../core/src/bsp_usart.c ****  *\*\return none.
ARM GAS  C:\Users\Dawn\AppData\Local\Temp\ccNmhKed.s 			page 36


 484:../core/src/bsp_usart.c **** **/
 485:../core/src/bsp_usart.c **** void DMA_Channel1_IRQHandler(void)
 486:../core/src/bsp_usart.c **** {
 1406              		.loc 1 486 1 is_stmt 1 view -0
 1407              		.cfi_startproc
 1408              		@ args = 0, pretend = 0, frame = 0
 1409              		@ frame_needed = 0, uses_anonymous_args = 0
 487:../core/src/bsp_usart.c ****     if(DMA_Interrupt_Status_Get(DMA, DMA_CH1_INT_TXC) != RESET)
 1410              		.loc 1 487 5 view .LVU396
 486:../core/src/bsp_usart.c ****     if(DMA_Interrupt_Status_Get(DMA, DMA_CH1_INT_TXC) != RESET)
 1411              		.loc 1 486 1 is_stmt 0 view .LVU397
 1412 0000 08B5     		push	{r3, lr}
 1413              	.LCFI24:
 1414              		.cfi_def_cfa_offset 8
 1415              		.cfi_offset 3, -8
 1416              		.cfi_offset 14, -4
 1417              		.loc 1 487 8 view .LVU398
 1418 0002 0848     		ldr	r0, .L112
 1419 0004 0221     		movs	r1, #2
 1420 0006 FFF7FEFF 		bl	DMA_Interrupt_Status_Get
 1421              	.LVL96:
 1422              		.loc 1 487 7 discriminator 1 view .LVU399
 1423 000a 48B1     		cbz	r0, .L107
 488:../core/src/bsp_usart.c ****     {
 489:../core/src/bsp_usart.c ****         DMA_Interrupt_Status_Clear(DMA, DMA_CH1_INT_TXC);
 1424              		.loc 1 489 9 is_stmt 1 view .LVU400
 1425 000c 0548     		ldr	r0, .L112
 1426 000e 0221     		movs	r1, #2
 1427 0010 FFF7FEFF 		bl	DMA_Interrupt_Status_Clear
 1428              	.LVL97:
 490:../core/src/bsp_usart.c ****         DMA_Channel_Disable(USART2_TX_DMA_CH);
 1429              		.loc 1 490 9 view .LVU401
 1430 0014 0448     		ldr	r0, .L112+4
 1431 0016 FFF7FEFF 		bl	DMA_Channel_Disable
 1432              	.LVL98:
 491:../core/src/bsp_usart.c ****         usart2_tx_busy = false;
 1433              		.loc 1 491 9 view .LVU402
 1434              		.loc 1 491 24 is_stmt 0 view .LVU403
 1435 001a 044B     		ldr	r3, .L112+8
 1436 001c 0022     		movs	r2, #0
 1437 001e 1A70     		strb	r2, [r3]
 1438              	.L107:
 492:../core/src/bsp_usart.c ****     }
 493:../core/src/bsp_usart.c **** }
 1439              		.loc 1 493 1 view .LVU404
 1440 0020 08BD     		pop	{r3, pc}
 1441              	.L113:
 1442 0022 00BF     		.align	2
 1443              	.L112:
 1444 0024 00000240 		.word	1073872896
 1445 0028 08000240 		.word	1073872904
 1446 002c 00000000 		.word	usart2_tx_busy
 1447              		.cfi_endproc
 1448              	.LFE148:
 1450              		.section	.bss.usart2_last_dma_counter,"aw",%nobits
 1451              		.align	1
 1454              	usart2_last_dma_counter:
ARM GAS  C:\Users\Dawn\AppData\Local\Temp\ccNmhKed.s 			page 37


 1455 0000 0000     		.space	2
 1456              		.section	.bss.usart2_tx_busy,"aw",%nobits
 1459              	usart2_tx_busy:
 1460 0000 00       		.space	1
 1461              		.section	.bss.usart2_rx_read_index,"aw",%nobits
 1462              		.align	1
 1465              	usart2_rx_read_index:
 1466 0000 0000     		.space	2
 1467              		.section	.bss.usart2_rx_write_index,"aw",%nobits
 1468              		.align	1
 1471              	usart2_rx_write_index:
 1472 0000 0000     		.space	2
 1473              		.section	.bss.usart2_rx_dma_buffer,"aw",%nobits
 1476              	usart2_rx_dma_buffer:
 1477 0000 00000000 		.space	256
 1477      00000000 
 1477      00000000 
 1477      00000000 
 1477      00000000 
 1478              		.section	.bss.usart2_tx_dma_buffer,"aw",%nobits
 1481              	usart2_tx_dma_buffer:
 1482 0000 00000000 		.space	256
 1482      00000000 
 1482      00000000 
 1482      00000000 
 1482      00000000 
 1483              		.section	.bss.rx_count,"aw",%nobits
 1484              		.align	1
 1487              	rx_count:
 1488 0000 0000     		.space	2
 1489              		.section	.bss.rx_tail,"aw",%nobits
 1490              		.align	1
 1493              	rx_tail:
 1494 0000 0000     		.space	2
 1495              		.section	.bss.rx_head,"aw",%nobits
 1496              		.align	1
 1499              	rx_head:
 1500 0000 0000     		.space	2
 1501              		.section	.bss.usart1_rx_buffer,"aw",%nobits
 1504              	usart1_rx_buffer:
 1505 0000 00000000 		.space	256
 1505      00000000 
 1505      00000000 
 1505      00000000 
 1505      00000000 
 1506              		.text
 1507              	.Letext0:
 1508              		.file 2 "D:/Tool/arm-gnu-toolchain/arm-none-eabi/include/machine/_default_types.h"
 1509              		.file 3 "D:/Tool/arm-gnu-toolchain/arm-none-eabi/include/sys/_stdint.h"
 1510              		.file 4 "../firmware/CMSIS/device/n32g430.h"
 1511              		.file 5 "../firmware/n32g430_std_periph_driver/inc/n32g430_dma.h"
 1512              		.file 6 "../firmware/n32g430_std_periph_driver/inc/n32g430_gpio.h"
 1513              		.file 7 "../firmware/n32g430_std_periph_driver/inc/n32g430_usart.h"
 1514              		.file 8 "../firmware/n32g430_std_periph_driver/inc/misc.h"
 1515              		.file 9 "D:/Tool/arm-gnu-toolchain/arm-none-eabi/include/string.h"
 1516              		.file 10 "../firmware/n32g430_std_periph_driver/inc/n32g430_rcc.h"
 1517              		.file 11 "<built-in>"
ARM GAS  C:\Users\Dawn\AppData\Local\Temp\ccNmhKed.s 			page 38


ARM GAS  C:\Users\Dawn\AppData\Local\Temp\ccNmhKed.s 			page 39

