ARM GAS  C:\Users\Dawn\AppData\Local\Temp\ccEb9err.s 			page 1


   1              		.cpu cortex-m4
   2              		.arch armv7e-m
   3              		.fpu fpv4-sp-d16
   4              		.eabi_attribute 27, 1
   5              		.eabi_attribute 28, 1
   6              		.eabi_attribute 20, 1
   7              		.eabi_attribute 21, 1
   8              		.eabi_attribute 23, 3
   9              		.eabi_attribute 24, 1
  10              		.eabi_attribute 25, 1
  11              		.eabi_attribute 26, 1
  12              		.eabi_attribute 30, 4
  13              		.eabi_attribute 34, 1
  14              		.eabi_attribute 18, 4
  15              		.file	"main.c"
  16              		.text
  17              	.Ltext0:
  18              		.cfi_sections	.debug_frame
  19              		.file 1 "../core/src/main.c"
  20              		.section	.rodata.main.str1.1,"aMS",%progbits,1
  21              	.LC0:
  22 0000 4E333247 		.ascii	"N32G430 USART1 Test Started!\015\012\000"
  22      34333020 
  22      55534152 
  22      54312054 
  22      65737420 
  23              	.LC1:
  24 001f 42617564 		.ascii	"Baudrate: 115200\015\012\000"
  24      72617465 
  24      3A203131 
  24      35323030 
  24      0D0A00
  25              	.LC2:
  26 0032 53656E64 		.ascii	"Send any character to echo back...\015\012\000"
  26      20616E79 
  26      20636861 
  26      72616374 
  26      65722074 
  27              	.LC3:
  28 0057 53797374 		.ascii	"System running... LED blinking...\015\012\000"
  28      656D2072 
  28      756E6E69 
  28      6E672E2E 
  28      2E204C45 
  29              		.section	.text.startup.main,"ax",%progbits
  30              		.align	1
  31              		.global	main
  32              		.syntax unified
  33              		.thumb
  34              		.thumb_func
  36              	main:
  37              	.LFB130:
   1:../core/src/main.c **** /*****************************************************************************
   2:../core/src/main.c ****  * Copyright (c) 2019, Nations Technologies Inc.
   3:../core/src/main.c ****  *
   4:../core/src/main.c ****  * All rights reserved.
   5:../core/src/main.c ****  * ****************************************************************************
ARM GAS  C:\Users\Dawn\AppData\Local\Temp\ccEb9err.s 			page 2


   6:../core/src/main.c ****  *
   7:../core/src/main.c ****  * Redistribution and use in source and binary forms, with or without
   8:../core/src/main.c ****  * modification, are permitted provided that the following conditions are met:
   9:../core/src/main.c ****  *
  10:../core/src/main.c ****  * - Redistributions of source code must retain the above copyright notice,
  11:../core/src/main.c ****  * this list of conditions and the disclaimer below.
  12:../core/src/main.c ****  *
  13:../core/src/main.c ****  * Nations' name may not be used to endorse or promote products derived from
  14:../core/src/main.c ****  * this software without specific prior written permission.
  15:../core/src/main.c ****  *
  16:../core/src/main.c ****  * DISCLAIMER: THIS SOFTWARE IS PROVIDED BY NATIONS "AS IS" AND ANY EXPRESS OR
  17:../core/src/main.c ****  * IMPLIED WARRANTIES, INCLUDING, BUT NOT LIMITED TO, THE IMPLIED WARRANTIES OF
  18:../core/src/main.c ****  * MERCHANTABILITY, FITNESS FOR A PARTICULAR PURPOSE AND NON-INFRINGEMENT ARE
  19:../core/src/main.c ****  * DISCLAIMED. IN NO EVENT SHALL NATIONS BE LIABLE FOR ANY DIRECT, INDIRECT,
  20:../core/src/main.c ****  * INCIDENTAL, SPECIAL, EXEMPLARY, OR CONSEQUENTIAL DAMAGES (INCLUDING, BUT NOT
  21:../core/src/main.c ****  * LIMITED TO, PROCUREMENT OF SUBSTITUTE GOODS OR SERVICES; LOSS OF USE, DATA,
  22:../core/src/main.c ****  * OR PROFITS; OR BUSINESS INTERRUPTION) HOWEVER CAUSED AND ON ANY THEORY OF
  23:../core/src/main.c ****  * LIABILITY, WHETHER IN CONTRACT, STRICT LIABILITY, OR TORT (INCLUDING
  24:../core/src/main.c ****  * NEGLIGENCE OR OTHERWISE) ARISING IN ANY WAY OUT OF THE USE OF THIS SOFTWARE,
  25:../core/src/main.c ****  * EVEN IF ADVISED OF THE POSSIBILITY OF SUCH DAMAGE.
  26:../core/src/main.c ****  * ****************************************************************************/
  27:../core/src/main.c **** 
  28:../core/src/main.c **** /**
  29:../core/src/main.c **** *\*\file main.c
  30:../core/src/main.c **** *\*\author Nations
  31:../core/src/main.c **** *\*\version v1.0.0
  32:../core/src/main.c **** *\*\copyright Copyright (c) 2019, Nations Technologies Inc. All rights reserved.
  33:../core/src/main.c **** **/
  34:../core/src/main.c **** 
  35:../core/src/main.c **** /*BSP include*/
  36:../core/src/main.c **** #include "main.h"
  37:../core/src/main.c **** #include "bsp_led.h"
  38:../core/src/main.c **** #include "bsp_delay.h"
  39:../core/src/main.c **** #include "bsp_usart.h"
  40:../core/src/main.c **** 
  41:../core/src/main.c **** /*APP include*/
  42:../core/src/main.c **** #include "Buffer.h"
  43:../core/src/main.c **** 
  44:../core/src/main.c **** /*RTT include*/
  45:../core/src/main.c **** #include "SEGGER_RTT.h"
  46:../core/src/main.c **** 
  47:../core/src/main.c **** /**
  48:../core/src/main.c ****  *\*\name   main.
  49:../core/src/main.c ****  *\*\fun    main function.
  50:../core/src/main.c ****  *\*\param  none.
  51:../core/src/main.c ****  *\*\return none.
  52:../core/src/main.c **** **/
  53:../core/src/main.c **** int main(void)
  54:../core/src/main.c **** {
  38              		.loc 1 54 1 view -0
  39              		.cfi_startproc
  40              		@ args = 0, pretend = 0, frame = 0
  41              		@ frame_needed = 0, uses_anonymous_args = 0
  55:../core/src/main.c **** 	uint32_t led_counter = 0;
  42              		.loc 1 55 2 view .LVU1
  43              	.LVL0:
  56:../core/src/main.c **** 
ARM GAS  C:\Users\Dawn\AppData\Local\Temp\ccEb9err.s 			page 3


  57:../core/src/main.c **** 	/*RTT初始化*/
  58:../core/src/main.c **** 	SEGGER_RTT_Init();
  44              		.loc 1 58 2 view .LVU2
  54:../core/src/main.c **** 	uint32_t led_counter = 0;
  45              		.loc 1 54 1 is_stmt 0 view .LVU3
  46 0000 08B5     		push	{r3, lr}
  47              	.LCFI0:
  48              		.cfi_def_cfa_offset 8
  49              		.cfi_offset 3, -8
  50              		.cfi_offset 14, -4
  51              		.loc 1 58 2 view .LVU4
  52 0002 FFF7FEFF 		bl	SEGGER_RTT_Init
  53              	.LVL1:
  59:../core/src/main.c **** 	SEGGER_RTT_printf(0, "N32G430 USART1 Test Started!\r\n");
  54              		.loc 1 59 2 is_stmt 1 view .LVU5
  55 0006 0949     		ldr	r1, .L3
  56 0008 0020     		movs	r0, #0
  57 000a FFF7FEFF 		bl	SEGGER_RTT_printf
  58              	.LVL2:
  60:../core/src/main.c **** 	SEGGER_RTT_printf(0, "Baudrate: 115200\r\n");
  59              		.loc 1 60 2 view .LVU6
  60 000e 0849     		ldr	r1, .L3+4
  61 0010 0020     		movs	r0, #0
  62 0012 FFF7FEFF 		bl	SEGGER_RTT_printf
  63              	.LVL3:
  61:../core/src/main.c **** 	SEGGER_RTT_printf(0, "Send any character to echo back...\r\n");
  64              		.loc 1 61 2 view .LVU7
  65 0016 0749     		ldr	r1, .L3+8
  66 0018 0020     		movs	r0, #0
  67 001a FFF7FEFF 		bl	SEGGER_RTT_printf
  68              	.LVL4:
  62:../core/src/main.c **** 
  63:../core/src/main.c **** 	/* 初始化USART1 */
  64:../core/src/main.c **** 	USART1_Init();
  69              		.loc 1 64 2 view .LVU8
  70 001e FFF7FEFF 		bl	USART1_Init
  71              	.LVL5:
  72              	.L2:
  65:../core/src/main.c **** 
  66:../core/src/main.c **** 
  67:../core/src/main.c **** 	while(1)
  73              		.loc 1 67 2 view .LVU9
  68:../core/src/main.c **** 	{
  69:../core/src/main.c **** 
  70:../core/src/main.c **** 		/* 每2秒发送一次状态信息 */
  71:../core/src/main.c **** 		led_counter++;
  74              		.loc 1 71 3 view .LVU10
  72:../core/src/main.c **** 		if(led_counter >= 2)
  75              		.loc 1 72 3 view .LVU11
  67:../core/src/main.c **** 	{
  76              		.loc 1 67 2 view .LVU12
  71:../core/src/main.c **** 		if(led_counter >= 2)
  77              		.loc 1 71 3 view .LVU13
  78              		.loc 1 72 3 view .LVU14
  73:../core/src/main.c **** 		{
  74:../core/src/main.c **** 			SEGGER_RTT_printf(0,"System running... LED blinking...\r\n");
  79              		.loc 1 74 4 view .LVU15
ARM GAS  C:\Users\Dawn\AppData\Local\Temp\ccEb9err.s 			page 4


  80 0022 0549     		ldr	r1, .L3+12
  81 0024 0020     		movs	r0, #0
  82 0026 FFF7FEFF 		bl	SEGGER_RTT_printf
  83              	.LVL6:
  75:../core/src/main.c **** 			led_counter = 0;
  84              		.loc 1 75 4 view .LVU16
  85              		.loc 1 75 4 is_stmt 0 view .LVU17
  86 002a FAE7     		b	.L2
  87              	.L4:
  88              		.align	2
  89              	.L3:
  90 002c 00000000 		.word	.LC0
  91 0030 1F000000 		.word	.LC1
  92 0034 32000000 		.word	.LC2
  93 0038 57000000 		.word	.LC3
  94              		.cfi_endproc
  95              	.LFE130:
  97              		.text
  98              	.Letext0:
  99              		.file 2 "D:/Tool/arm-gnu-toolchain/arm-none-eabi/include/machine/_default_types.h"
 100              		.file 3 "D:/Tool/arm-gnu-toolchain/arm-none-eabi/include/sys/_stdint.h"
 101              		.file 4 "../core/inc/bsp_usart.h"
 102              		.file 5 "../RTT/Ins/SEGGER_RTT.h"
ARM GAS  C:\Users\Dawn\AppData\Local\Temp\ccEb9err.s 			page 5


DEFINED SYMBOLS
                            *ABS*:00000000 main.c
C:\Users\Dawn\AppData\Local\Temp\ccEb9err.s:30     .text.startup.main:00000000 $t
C:\Users\Dawn\AppData\Local\Temp\ccEb9err.s:36     .text.startup.main:00000000 main
C:\Users\Dawn\AppData\Local\Temp\ccEb9err.s:90     .text.startup.main:0000002c $d

UNDEFINED SYMBOLS
SEGGER_RTT_Init
SEGGER_RTT_printf
USART1_Init
