ARM GAS  C:\Users\Dawn\AppData\Local\Temp\cckS3Qfb.s 			page 1


   1              		.cpu cortex-m4
   2              		.arch armv7e-m
   3              		.fpu fpv4-sp-d16
   4              		.eabi_attribute 27, 1
   5              		.eabi_attribute 28, 1
   6              		.eabi_attribute 20, 1
   7              		.eabi_attribute 21, 1
   8              		.eabi_attribute 23, 3
   9              		.eabi_attribute 24, 1
  10              		.eabi_attribute 25, 1
  11              		.eabi_attribute 26, 1
  12              		.eabi_attribute 30, 4
  13              		.eabi_attribute 34, 1
  14              		.eabi_attribute 18, 4
  15              		.file	"main.c"
  16              		.text
  17              	.Ltext0:
  18              		.cfi_sections	.debug_frame
  19              		.file 1 "../core/src/main.c"
  20              		.section	.rodata.main.str1.1,"aMS",%progbits,1
  21              	.LC0:
  22 0000 4E333247 		.ascii	"N32G430 Modbus Slave Started\015\012\000"
  22      34333020 
  22      4D6F6462 
  22      75732053 
  22      6C617665 
  23              	.LC1:
  24 001f 55534152 		.ascii	"USART1 RTU slave, Address: 0x01\015\012\000"
  24      54312052 
  24      54552073 
  24      6C617665 
  24      2C204164 
  25              		.section	.text.startup.main,"ax",%progbits
  26              		.align	1
  27              		.global	main
  28              		.syntax unified
  29              		.thumb
  30              		.thumb_func
  32              	main:
  33              	.LFB130:
   1:../core/src/main.c **** /*****************************************************************************
   2:../core/src/main.c ****  * Copyright (c) 2019, Nations Technologies Inc.
   3:../core/src/main.c ****  *
   4:../core/src/main.c ****  * All rights reserved.
   5:../core/src/main.c ****  * ****************************************************************************
   6:../core/src/main.c ****  *
   7:../core/src/main.c ****  * Redistribution and use in source and binary forms, with or without
   8:../core/src/main.c ****  * modification, are permitted provided that the following conditions are met:
   9:../core/src/main.c ****  *
  10:../core/src/main.c ****  * - Redistributions of source code must retain the above copyright notice,
  11:../core/src/main.c ****  * this list of conditions and the disclaimer below.
  12:../core/src/main.c ****  *
  13:../core/src/main.c ****  * Nations' name may not be used to endorse or promote products derived from
  14:../core/src/main.c ****  * this software without specific prior written permission.
  15:../core/src/main.c ****  *
  16:../core/src/main.c ****  * DISCLAIMER: THIS SOFTWARE IS PROVIDED BY NATIONS "AS IS" AND ANY EXPRESS OR
  17:../core/src/main.c ****  * IMPLIED WARRANTIES, INCLUDING, BUT NOT LIMITED TO, THE IMPLIED WARRANTIES OF
ARM GAS  C:\Users\Dawn\AppData\Local\Temp\cckS3Qfb.s 			page 2


  18:../core/src/main.c ****  * MERCHANTABILITY, FITNESS FOR A PARTICULAR PURPOSE AND NON-INFRINGEMENT ARE
  19:../core/src/main.c ****  * DISCLAIMED. IN NO EVENT SHALL NATIONS BE LIABLE FOR ANY DIRECT, INDIRECT,
  20:../core/src/main.c ****  * INCIDENTAL, SPECIAL, EXEMPLARY, OR CONSEQUENTIAL DAMAGES (INCLUDING, BUT NOT
  21:../core/src/main.c ****  * LIMITED TO, PROCUREMENT OF SUBSTITUTE GOODS OR SERVICES; LOSS OF USE, DATA,
  22:../core/src/main.c ****  * OR PROFITS; OR BUSINESS INTERRUPTION) HOWEVER CAUSED AND ON ANY THEORY OF
  23:../core/src/main.c ****  * LIABILITY, WHETHER IN CONTRACT, STRICT LIABILITY, OR TORT (INCLUDING
  24:../core/src/main.c ****  * NEGLIGENCE OR OTHERWISE) ARISING IN ANY WAY OUT OF THE USE OF THIS SOFTWARE,
  25:../core/src/main.c ****  * EVEN IF ADVISED OF THE POSSIBILITY OF SUCH DAMAGE.
  26:../core/src/main.c ****  * ****************************************************************************/
  27:../core/src/main.c **** 
  28:../core/src/main.c **** /**
  29:../core/src/main.c **** *\*\file main.c
  30:../core/src/main.c **** *\*\author Nations
  31:../core/src/main.c **** *\*\version v1.0.0
  32:../core/src/main.c **** *\*\copyright Copyright (c) 2019, Nations Technologies Inc. All rights reserved.
  33:../core/src/main.c **** **/
  34:../core/src/main.c **** 
  35:../core/src/main.c **** /*BSP include*/
  36:../core/src/main.c **** #include "main.h"
  37:../core/src/main.c **** #include "modbus_slave.h"
  38:../core/src/main.c **** 
  39:../core/src/main.c **** /*RTT include*/
  40:../core/src/main.c **** #include "SEGGER_RTT.h"
  41:../core/src/main.c **** 
  42:../core/src/main.c **** /**
  43:../core/src/main.c ****  *\*\name   main.
  44:../core/src/main.c ****  *\*\fun    main function.
  45:../core/src/main.c ****  *\*\param  none.
  46:../core/src/main.c ****  *\*\return none.
  47:../core/src/main.c **** **/
  48:../core/src/main.c **** int main(void)
  49:../core/src/main.c **** {
  34              		.loc 1 49 1 view -0
  35              		.cfi_startproc
  36              		@ Volatile: function does not return.
  37              		@ args = 0, pretend = 0, frame = 0
  38              		@ frame_needed = 0, uses_anonymous_args = 0
  50:../core/src/main.c ****     /* RTT初始化和banner */
  51:../core/src/main.c ****     SEGGER_RTT_Init();
  39              		.loc 1 51 5 view .LVU1
  49:../core/src/main.c ****     /* RTT初始化和banner */
  40              		.loc 1 49 1 is_stmt 0 view .LVU2
  41 0000 08B5     		push	{r3, lr}
  42              	.LCFI0:
  43              		.cfi_def_cfa_offset 8
  44              		.cfi_offset 3, -8
  45              		.cfi_offset 14, -4
  46              		.loc 1 51 5 view .LVU3
  47 0002 FFF7FEFF 		bl	SEGGER_RTT_Init
  48              	.LVL0:
  52:../core/src/main.c ****     SEGGER_RTT_printf(0, "N32G430 Modbus Slave Started\r\n");
  49              		.loc 1 52 5 is_stmt 1 view .LVU4
  50 0006 1949     		ldr	r1, .L3
  51 0008 0020     		movs	r0, #0
  52 000a FFF7FEFF 		bl	SEGGER_RTT_printf
  53              	.LVL1:
  53:../core/src/main.c ****     SEGGER_RTT_printf(0, "USART1 RTU slave, Address: 0x01\r\n");
ARM GAS  C:\Users\Dawn\AppData\Local\Temp\cckS3Qfb.s 			page 3


  54              		.loc 1 53 5 view .LVU5
  55 000e 1849     		ldr	r1, .L3+4
  56 0010 0020     		movs	r0, #0
  57 0012 FFF7FEFF 		bl	SEGGER_RTT_printf
  58              	.LVL2:
  54:../core/src/main.c **** 
  55:../core/src/main.c ****     /* 初始化Modbus从机（内部会配置USART1 DMA） */
  56:../core/src/main.c ****     ModbusSlave_Init(MODBUS_SLAVE_ADDRESS_DEFAULT);
  59              		.loc 1 56 5 view .LVU6
  60 0016 0120     		movs	r0, #1
  61 0018 FFF7FEFF 		bl	ModbusSlave_Init
  62              	.LVL3:
  57:../core/src/main.c **** 
  58:../core/src/main.c ****     /* 预设一些寄存器值用于测试 */
  59:../core/src/main.c ****     ModbusSlave_SetHoldingRegister(0x0000, 0x1234);
  63              		.loc 1 59 5 view .LVU7
  64 001c 41F23421 		movw	r1, #4660
  65 0020 0020     		movs	r0, #0
  66 0022 FFF7FEFF 		bl	ModbusSlave_SetHoldingRegister
  67              	.LVL4:
  60:../core/src/main.c ****     ModbusSlave_SetHoldingRegister(0x0001, 0x5678);
  68              		.loc 1 60 5 view .LVU8
  69 0026 45F27861 		movw	r1, #22136
  70 002a 0120     		movs	r0, #1
  71 002c FFF7FEFF 		bl	ModbusSlave_SetHoldingRegister
  72              	.LVL5:
  61:../core/src/main.c ****     ModbusSlave_SetHoldingRegister(0x0002, 0xABCD);
  73              		.loc 1 61 5 view .LVU9
  74 0030 4AF6CD31 		movw	r1, #43981
  75 0034 0220     		movs	r0, #2
  76 0036 FFF7FEFF 		bl	ModbusSlave_SetHoldingRegister
  77              	.LVL6:
  62:../core/src/main.c ****     ModbusSlave_SetInputRegister(0x0000, 0x1111);
  78              		.loc 1 62 5 view .LVU10
  79 003a 41F21111 		movw	r1, #4369
  80 003e 0020     		movs	r0, #0
  81 0040 FFF7FEFF 		bl	ModbusSlave_SetInputRegister
  82              	.LVL7:
  63:../core/src/main.c ****     ModbusSlave_SetInputRegister(0x0001, 0x2222);
  83              		.loc 1 63 5 view .LVU11
  84 0044 42F22221 		movw	r1, #8738
  85 0048 0120     		movs	r0, #1
  86 004a FFF7FEFF 		bl	ModbusSlave_SetInputRegister
  87              	.LVL8:
  64:../core/src/main.c ****     ModbusSlave_SetCoil(0x0000, true);
  88              		.loc 1 64 5 view .LVU12
  89 004e 0121     		movs	r1, #1
  90 0050 0020     		movs	r0, #0
  91 0052 FFF7FEFF 		bl	ModbusSlave_SetCoil
  92              	.LVL9:
  65:../core/src/main.c ****     ModbusSlave_SetCoil(0x0001, false);
  93              		.loc 1 65 5 view .LVU13
  94 0056 0021     		movs	r1, #0
  95 0058 0120     		movs	r0, #1
  96 005a FFF7FEFF 		bl	ModbusSlave_SetCoil
  97              	.LVL10:
  66:../core/src/main.c ****     ModbusSlave_SetCoil(0x0002, true);
ARM GAS  C:\Users\Dawn\AppData\Local\Temp\cckS3Qfb.s 			page 4


  98              		.loc 1 66 5 view .LVU14
  99 005e 0121     		movs	r1, #1
 100 0060 0220     		movs	r0, #2
 101 0062 FFF7FEFF 		bl	ModbusSlave_SetCoil
 102              	.LVL11:
 103              	.L2:
  67:../core/src/main.c **** 
  68:../core/src/main.c ****     while(1)
 104              		.loc 1 68 5 view .LVU15
  69:../core/src/main.c ****     {
  70:../core/src/main.c ****         ModbusSlave_Task();
 105              		.loc 1 70 9 discriminator 1 view .LVU16
 106 0066 FFF7FEFF 		bl	ModbusSlave_Task
 107              	.LVL12:
  68:../core/src/main.c ****     {
 108              		.loc 1 68 10 view .LVU17
 109 006a FCE7     		b	.L2
 110              	.L4:
 111              		.align	2
 112              	.L3:
 113 006c 00000000 		.word	.LC0
 114 0070 1F000000 		.word	.LC1
 115              		.cfi_endproc
 116              	.LFE130:
 118              		.text
 119              	.Letext0:
 120              		.file 2 "D:/Tool/arm-gnu-toolchain/arm-none-eabi/include/machine/_default_types.h"
 121              		.file 3 "D:/Tool/arm-gnu-toolchain/arm-none-eabi/include/sys/_stdint.h"
 122              		.file 4 "../APP/Ins/modbus_slave.h"
 123              		.file 5 "../RTT/Ins/SEGGER_RTT.h"
ARM GAS  C:\Users\Dawn\AppData\Local\Temp\cckS3Qfb.s 			page 5


DEFINED SYMBOLS
                            *ABS*:00000000 main.c
C:\Users\Dawn\AppData\Local\Temp\cckS3Qfb.s:26     .text.startup.main:00000000 $t
C:\Users\Dawn\AppData\Local\Temp\cckS3Qfb.s:32     .text.startup.main:00000000 main
C:\Users\Dawn\AppData\Local\Temp\cckS3Qfb.s:113    .text.startup.main:0000006c $d

UNDEFINED SYMBOLS
SEGGER_RTT_Init
SEGGER_RTT_printf
ModbusSlave_Init
ModbusSlave_SetHoldingRegister
ModbusSlave_SetInputRegister
ModbusSlave_SetCoil
ModbusSlave_Task
