ARM GAS  C:\Users\Dawn\AppData\Local\Temp\cccrm2KO.s 			page 1


   1              		.cpu cortex-m4
   2              		.arch armv7e-m
   3              		.fpu fpv4-sp-d16
   4              		.eabi_attribute 27, 1
   5              		.eabi_attribute 28, 1
   6              		.eabi_attribute 20, 1
   7              		.eabi_attribute 21, 1
   8              		.eabi_attribute 23, 3
   9              		.eabi_attribute 24, 1
  10              		.eabi_attribute 25, 1
  11              		.eabi_attribute 26, 1
  12              		.eabi_attribute 30, 4
  13              		.eabi_attribute 34, 1
  14              		.eabi_attribute 18, 4
  15              		.file	"n32g430_gpio.c"
  16              		.text
  17              	.Ltext0:
  18              		.cfi_sections	.debug_frame
  19              		.file 1 "../firmware/n32g430_std_periph_driver/src/n32g430_gpio.c"
  20              		.section	.text.GPIO_Reset,"ax",%progbits
  21              		.align	1
  22              		.global	GPIO_Reset
  23              		.syntax unified
  24              		.thumb
  25              		.thumb_func
  27              	GPIO_Reset:
  28              	.LVL0:
  29              	.LFB130:
   1:../firmware/n32g430_std_periph_driver/src/n32g430_gpio.c **** /*****************************************************************************
   2:../firmware/n32g430_std_periph_driver/src/n32g430_gpio.c ****  * Copyright (c) 2019, Nations Technologies Inc.
   3:../firmware/n32g430_std_periph_driver/src/n32g430_gpio.c ****  *
   4:../firmware/n32g430_std_periph_driver/src/n32g430_gpio.c ****  * All rights reserved.
   5:../firmware/n32g430_std_periph_driver/src/n32g430_gpio.c ****  * ****************************************************************************
   6:../firmware/n32g430_std_periph_driver/src/n32g430_gpio.c ****  *
   7:../firmware/n32g430_std_periph_driver/src/n32g430_gpio.c ****  * Redistribution and use in source and binary forms, with or without
   8:../firmware/n32g430_std_periph_driver/src/n32g430_gpio.c ****  * modification, are permitted provided that the following conditions are met:
   9:../firmware/n32g430_std_periph_driver/src/n32g430_gpio.c ****  *
  10:../firmware/n32g430_std_periph_driver/src/n32g430_gpio.c ****  * - Redistributions of source code must retain the above copyright notice,
  11:../firmware/n32g430_std_periph_driver/src/n32g430_gpio.c ****  * this list of conditions and the disclaimer below.
  12:../firmware/n32g430_std_periph_driver/src/n32g430_gpio.c ****  *
  13:../firmware/n32g430_std_periph_driver/src/n32g430_gpio.c ****  * Nations' name may not be used to endorse or promote products derived from
  14:../firmware/n32g430_std_periph_driver/src/n32g430_gpio.c ****  * this software without specific prior written permission.
  15:../firmware/n32g430_std_periph_driver/src/n32g430_gpio.c ****  *
  16:../firmware/n32g430_std_periph_driver/src/n32g430_gpio.c ****  * DISCLAIMER: THIS SOFTWARE IS PROVIDED BY NATIONS "AS IS" AND ANY EXPRESS OR
  17:../firmware/n32g430_std_periph_driver/src/n32g430_gpio.c ****  * IMPLIED WARRANTIES, INCLUDING, BUT NOT LIMITED TO, THE IMPLIED WARRANTIES OF
  18:../firmware/n32g430_std_periph_driver/src/n32g430_gpio.c ****  * MERCHANTABILITY, FITNESS FOR A PARTICULAR PURPOSE AND NON-INFRINGEMENT ARE
  19:../firmware/n32g430_std_periph_driver/src/n32g430_gpio.c ****  * DISCLAIMED. IN NO EVENT SHALL NATIONS BE LIABLE FOR ANY DIRECT, INDIRECT,
  20:../firmware/n32g430_std_periph_driver/src/n32g430_gpio.c ****  * INCIDENTAL, SPECIAL, EXEMPLARY, OR CONSEQUENTIAL DAMAGES (INCLUDING, BUT NOT
  21:../firmware/n32g430_std_periph_driver/src/n32g430_gpio.c ****  * LIMITED TO, PROCUREMENT OF SUBSTITUTE GOODS OR SERVICES; LOSS OF USE, DATA,
  22:../firmware/n32g430_std_periph_driver/src/n32g430_gpio.c ****  * OR PROFITS; OR BUSINESS INTERRUPTION) HOWEVER CAUSED AND ON ANY THEORY OF
  23:../firmware/n32g430_std_periph_driver/src/n32g430_gpio.c ****  * LIABILITY, WHETHER IN CONTRACT, STRICT LIABILITY, OR TORT (INCLUDING
  24:../firmware/n32g430_std_periph_driver/src/n32g430_gpio.c ****  * NEGLIGENCE OR OTHERWISE) ARISING IN ANY WAY OUT OF THE USE OF THIS SOFTWARE,
  25:../firmware/n32g430_std_periph_driver/src/n32g430_gpio.c ****  * EVEN IF ADVISED OF THE POSSIBILITY OF SUCH DAMAGE.
  26:../firmware/n32g430_std_periph_driver/src/n32g430_gpio.c ****  * ****************************************************************************/
  27:../firmware/n32g430_std_periph_driver/src/n32g430_gpio.c ****  
  28:../firmware/n32g430_std_periph_driver/src/n32g430_gpio.c **** /**
  29:../firmware/n32g430_std_periph_driver/src/n32g430_gpio.c **** *\*\file n32g430_gpio.c
ARM GAS  C:\Users\Dawn\AppData\Local\Temp\cccrm2KO.s 			page 2


  30:../firmware/n32g430_std_periph_driver/src/n32g430_gpio.c **** *\*\author Nations
  31:../firmware/n32g430_std_periph_driver/src/n32g430_gpio.c **** *\*\version v1.0.0
  32:../firmware/n32g430_std_periph_driver/src/n32g430_gpio.c **** *\*\copyright Copyright (c) 2019, Nations Technologies Inc. All rights reserved.
  33:../firmware/n32g430_std_periph_driver/src/n32g430_gpio.c **** **/
  34:../firmware/n32g430_std_periph_driver/src/n32g430_gpio.c **** 
  35:../firmware/n32g430_std_periph_driver/src/n32g430_gpio.c **** #include "n32g430_gpio.h"
  36:../firmware/n32g430_std_periph_driver/src/n32g430_gpio.c **** 
  37:../firmware/n32g430_std_periph_driver/src/n32g430_gpio.c **** 
  38:../firmware/n32g430_std_periph_driver/src/n32g430_gpio.c **** /**
  39:../firmware/n32g430_std_periph_driver/src/n32g430_gpio.c ****  *\*\name   GPIO_Reset.
  40:../firmware/n32g430_std_periph_driver/src/n32g430_gpio.c ****  *\*\fun    Reset the GPIOx peripheral registers to their default reset values.
  41:../firmware/n32g430_std_periph_driver/src/n32g430_gpio.c ****  *\*\param  GPIOx :
  42:../firmware/n32g430_std_periph_driver/src/n32g430_gpio.c ****  *\*\          - GPIOA
  43:../firmware/n32g430_std_periph_driver/src/n32g430_gpio.c ****  *\*\          - GPIOB
  44:../firmware/n32g430_std_periph_driver/src/n32g430_gpio.c ****  *\*\          - GPIOC
  45:../firmware/n32g430_std_periph_driver/src/n32g430_gpio.c ****  *\*\          - GPIOD
  46:../firmware/n32g430_std_periph_driver/src/n32g430_gpio.c ****  *\*\return none
  47:../firmware/n32g430_std_periph_driver/src/n32g430_gpio.c ****  */
  48:../firmware/n32g430_std_periph_driver/src/n32g430_gpio.c **** void GPIO_Reset(GPIO_Module* GPIOx)
  49:../firmware/n32g430_std_periph_driver/src/n32g430_gpio.c **** {
  30              		.loc 1 49 1 view -0
  31              		.cfi_startproc
  32              		@ args = 0, pretend = 0, frame = 0
  33              		@ frame_needed = 0, uses_anonymous_args = 0
  34              		@ link register save eliminated.
  50:../firmware/n32g430_std_periph_driver/src/n32g430_gpio.c ****     if (GPIOx == GPIOA)
  35              		.loc 1 50 5 view .LVU1
  36              		.loc 1 50 8 is_stmt 0 view .LVU2
  37 0000 0C4B     		ldr	r3, .L7
  38 0002 9842     		cmp	r0, r3
  39 0004 02D1     		bne	.L2
  51:../firmware/n32g430_std_periph_driver/src/n32g430_gpio.c ****     {
  52:../firmware/n32g430_std_periph_driver/src/n32g430_gpio.c ****         RCC_AHB_Peripheral_Reset(RCC_AHB_PERIPH_GPIOA);
  40              		.loc 1 52 9 is_stmt 1 view .LVU3
  41 0006 8020     		movs	r0, #128
  42              	.LVL1:
  43              	.L6:
  53:../firmware/n32g430_std_periph_driver/src/n32g430_gpio.c ****     }
  54:../firmware/n32g430_std_periph_driver/src/n32g430_gpio.c ****     else if (GPIOx == GPIOB)
  55:../firmware/n32g430_std_periph_driver/src/n32g430_gpio.c ****     {
  56:../firmware/n32g430_std_periph_driver/src/n32g430_gpio.c ****         RCC_AHB_Peripheral_Reset(RCC_AHB_PERIPH_GPIOB);
  57:../firmware/n32g430_std_periph_driver/src/n32g430_gpio.c ****     }
  58:../firmware/n32g430_std_periph_driver/src/n32g430_gpio.c ****     else if (GPIOx == GPIOC)
  59:../firmware/n32g430_std_periph_driver/src/n32g430_gpio.c ****     {
  60:../firmware/n32g430_std_periph_driver/src/n32g430_gpio.c ****         RCC_AHB_Peripheral_Reset(RCC_AHB_PERIPH_GPIOC);
  61:../firmware/n32g430_std_periph_driver/src/n32g430_gpio.c ****     }
  62:../firmware/n32g430_std_periph_driver/src/n32g430_gpio.c ****     else if (GPIOx == GPIOD)
  63:../firmware/n32g430_std_periph_driver/src/n32g430_gpio.c ****     {
  64:../firmware/n32g430_std_periph_driver/src/n32g430_gpio.c ****         RCC_AHB_Peripheral_Reset(RCC_AHB_PERIPH_GPIOD);
  44              		.loc 1 64 9 is_stmt 0 view .LVU4
  45 0008 FFF7FEBF 		b	RCC_AHB_Peripheral_Reset
  46              	.LVL2:
  47              	.L2:
  54:../firmware/n32g430_std_periph_driver/src/n32g430_gpio.c ****     {
  48              		.loc 1 54 10 is_stmt 1 view .LVU5
  54:../firmware/n32g430_std_periph_driver/src/n32g430_gpio.c ****     {
  49              		.loc 1 54 13 is_stmt 0 view .LVU6
ARM GAS  C:\Users\Dawn\AppData\Local\Temp\cccrm2KO.s 			page 3


  50 000c 0A4B     		ldr	r3, .L7+4
  51 000e 9842     		cmp	r0, r3
  52 0010 02D1     		bne	.L3
  56:../firmware/n32g430_std_periph_driver/src/n32g430_gpio.c ****     }
  53              		.loc 1 56 9 is_stmt 1 view .LVU7
  54 0012 4FF48070 		mov	r0, #256
  55              	.LVL3:
  56:../firmware/n32g430_std_periph_driver/src/n32g430_gpio.c ****     }
  56              		.loc 1 56 9 is_stmt 0 view .LVU8
  57 0016 F7E7     		b	.L6
  58              	.LVL4:
  59              	.L3:
  58:../firmware/n32g430_std_periph_driver/src/n32g430_gpio.c ****     {
  60              		.loc 1 58 10 is_stmt 1 view .LVU9
  58:../firmware/n32g430_std_periph_driver/src/n32g430_gpio.c ****     {
  61              		.loc 1 58 13 is_stmt 0 view .LVU10
  62 0018 084B     		ldr	r3, .L7+8
  63 001a 9842     		cmp	r0, r3
  64 001c 02D1     		bne	.L4
  60:../firmware/n32g430_std_periph_driver/src/n32g430_gpio.c ****     }
  65              		.loc 1 60 9 is_stmt 1 view .LVU11
  66 001e 4FF40070 		mov	r0, #512
  67              	.LVL5:
  60:../firmware/n32g430_std_periph_driver/src/n32g430_gpio.c ****     }
  68              		.loc 1 60 9 is_stmt 0 view .LVU12
  69 0022 F1E7     		b	.L6
  70              	.LVL6:
  71              	.L4:
  62:../firmware/n32g430_std_periph_driver/src/n32g430_gpio.c ****     {
  72              		.loc 1 62 10 is_stmt 1 view .LVU13
  62:../firmware/n32g430_std_periph_driver/src/n32g430_gpio.c ****     {
  73              		.loc 1 62 13 is_stmt 0 view .LVU14
  74 0024 064B     		ldr	r3, .L7+12
  75 0026 9842     		cmp	r0, r3
  76 0028 02D1     		bne	.L1
  77              		.loc 1 64 9 is_stmt 1 view .LVU15
  78 002a 4FF48060 		mov	r0, #1024
  79              	.LVL7:
  80              		.loc 1 64 9 is_stmt 0 view .LVU16
  81 002e EBE7     		b	.L6
  82              	.LVL8:
  83              	.L1:
  65:../firmware/n32g430_std_periph_driver/src/n32g430_gpio.c ****     }
  66:../firmware/n32g430_std_periph_driver/src/n32g430_gpio.c ****     else
  67:../firmware/n32g430_std_periph_driver/src/n32g430_gpio.c ****     {
  68:../firmware/n32g430_std_periph_driver/src/n32g430_gpio.c ****         return;
  69:../firmware/n32g430_std_periph_driver/src/n32g430_gpio.c ****     }
  70:../firmware/n32g430_std_periph_driver/src/n32g430_gpio.c **** }
  84              		.loc 1 70 1 view .LVU17
  85 0030 7047     		bx	lr
  86              	.L8:
  87 0032 00BF     		.align	2
  88              	.L7:
  89 0034 00340240 		.word	1073886208
  90 0038 00380240 		.word	1073887232
  91 003c 003C0240 		.word	1073888256
  92 0040 00400240 		.word	1073889280
ARM GAS  C:\Users\Dawn\AppData\Local\Temp\cccrm2KO.s 			page 4


  93              		.cfi_endproc
  94              	.LFE130:
  96              		.section	.text.GPIOA_Pin_Reset,"ax",%progbits
  97              		.align	1
  98              		.global	GPIOA_Pin_Reset
  99              		.syntax unified
 100              		.thumb
 101              		.thumb_func
 103              	GPIOA_Pin_Reset:
 104              	.LVL9:
 105              	.LFB131:
  71:../firmware/n32g430_std_periph_driver/src/n32g430_gpio.c **** 
  72:../firmware/n32g430_std_periph_driver/src/n32g430_gpio.c **** 
  73:../firmware/n32g430_std_periph_driver/src/n32g430_gpio.c **** /**
  74:../firmware/n32g430_std_periph_driver/src/n32g430_gpio.c ****  *\*\name   GPIOA_Pin_Reset.
  75:../firmware/n32g430_std_periph_driver/src/n32g430_gpio.c ****  *\*\fun    Reset the GPIOA peripheral registers to it's default reset values.
  76:../firmware/n32g430_std_periph_driver/src/n32g430_gpio.c ****  *\*\param  pin :
  77:../firmware/n32g430_std_periph_driver/src/n32g430_gpio.c ****  *\*\          - GPIO_PIN_0
  78:../firmware/n32g430_std_periph_driver/src/n32g430_gpio.c ****  *\*\          - GPIO_PIN_1
  79:../firmware/n32g430_std_periph_driver/src/n32g430_gpio.c ****  *\*\          - GPIO_PIN_2
  80:../firmware/n32g430_std_periph_driver/src/n32g430_gpio.c ****  *\*\          - GPIO_PIN_3
  81:../firmware/n32g430_std_periph_driver/src/n32g430_gpio.c ****  *\*\          - GPIO_PIN_4
  82:../firmware/n32g430_std_periph_driver/src/n32g430_gpio.c ****  *\*\          - GPIO_PIN_5
  83:../firmware/n32g430_std_periph_driver/src/n32g430_gpio.c ****  *\*\          - GPIO_PIN_6
  84:../firmware/n32g430_std_periph_driver/src/n32g430_gpio.c ****  *\*\          - GPIO_PIN_7
  85:../firmware/n32g430_std_periph_driver/src/n32g430_gpio.c ****  *\*\          - GPIO_PIN_8
  86:../firmware/n32g430_std_periph_driver/src/n32g430_gpio.c ****  *\*\          - GPIO_PIN_9
  87:../firmware/n32g430_std_periph_driver/src/n32g430_gpio.c ****  *\*\          - GPIO_PIN_10
  88:../firmware/n32g430_std_periph_driver/src/n32g430_gpio.c ****  *\*\          - GPIO_PIN_11
  89:../firmware/n32g430_std_periph_driver/src/n32g430_gpio.c ****  *\*\          - GPIO_PIN_12
  90:../firmware/n32g430_std_periph_driver/src/n32g430_gpio.c ****  *\*\          - GPIO_PIN_13
  91:../firmware/n32g430_std_periph_driver/src/n32g430_gpio.c ****  *\*\          - GPIO_PIN_14
  92:../firmware/n32g430_std_periph_driver/src/n32g430_gpio.c ****  *\*\          - GPIO_PIN_15
  93:../firmware/n32g430_std_periph_driver/src/n32g430_gpio.c ****  *\*\          - GPIO_PIN_ALL
  94:../firmware/n32g430_std_periph_driver/src/n32g430_gpio.c ****  *\*\return none
  95:../firmware/n32g430_std_periph_driver/src/n32g430_gpio.c ****  */
  96:../firmware/n32g430_std_periph_driver/src/n32g430_gpio.c **** void GPIOA_Pin_Reset(uint16_t pin)
  97:../firmware/n32g430_std_periph_driver/src/n32g430_gpio.c **** {
 106              		.loc 1 97 1 is_stmt 1 view -0
 107              		.cfi_startproc
 108              		@ args = 0, pretend = 0, frame = 0
 109              		@ frame_needed = 0, uses_anonymous_args = 0
  98:../firmware/n32g430_std_periph_driver/src/n32g430_gpio.c ****     uint32_t position = 0x00U;
 110              		.loc 1 98 5 view .LVU19
  99:../firmware/n32g430_std_periph_driver/src/n32g430_gpio.c ****     uint32_t current_pin = 0x00U;
 111              		.loc 1 99 5 view .LVU20
 100:../firmware/n32g430_std_periph_driver/src/n32g430_gpio.c **** 
 101:../firmware/n32g430_std_periph_driver/src/n32g430_gpio.c ****     while((pin >> position) != 0)
 112              		.loc 1 101 5 view .LVU21
 113 0000 314B     		ldr	r3, .L25
  97:../firmware/n32g430_std_periph_driver/src/n32g430_gpio.c ****     uint32_t position = 0x00U;
 114              		.loc 1 97 1 is_stmt 0 view .LVU22
 115 0002 2DE9F043 		push	{r4, r5, r6, r7, r8, r9, lr}
 116              	.LCFI0:
 117              		.cfi_def_cfa_offset 28
 118              		.cfi_offset 4, -28
 119              		.cfi_offset 5, -24
ARM GAS  C:\Users\Dawn\AppData\Local\Temp\cccrm2KO.s 			page 5


 120              		.cfi_offset 6, -20
 121              		.cfi_offset 7, -16
 122              		.cfi_offset 8, -12
 123              		.cfi_offset 9, -8
 124              		.cfi_offset 14, -4
  98:../firmware/n32g430_std_periph_driver/src/n32g430_gpio.c ****     uint32_t current_pin = 0x00U;
 125              		.loc 1 98 14 view .LVU23
 126 0006 0022     		movs	r2, #0
 102:../firmware/n32g430_std_periph_driver/src/n32g430_gpio.c ****     {
 103:../firmware/n32g430_std_periph_driver/src/n32g430_gpio.c ****         /* Get the IO position */
 104:../firmware/n32g430_std_periph_driver/src/n32g430_gpio.c ****         current_pin = (pin) & (IO_POSITION_MASK << position);
 127              		.loc 1 104 49 view .LVU24
 128 0008 0125     		movs	r5, #1
 105:../firmware/n32g430_std_periph_driver/src/n32g430_gpio.c **** 
 106:../firmware/n32g430_std_periph_driver/src/n32g430_gpio.c ****         if(current_pin)
 107:../firmware/n32g430_std_periph_driver/src/n32g430_gpio.c ****         {
 108:../firmware/n32g430_std_periph_driver/src/n32g430_gpio.c ****             if(position > GPIOA_MODE_POSITION)
 109:../firmware/n32g430_std_periph_driver/src/n32g430_gpio.c ****             {
 110:../firmware/n32g430_std_periph_driver/src/n32g430_gpio.c ****                 /* Configure IO Direction in alternate Mode */
 111:../firmware/n32g430_std_periph_driver/src/n32g430_gpio.c ****                 GPIOA->PMODE |= (GPIO_AF_MODE << (position * MULTIPLIER_FACTOR_2));
 112:../firmware/n32g430_std_periph_driver/src/n32g430_gpio.c ****             }
 113:../firmware/n32g430_std_periph_driver/src/n32g430_gpio.c ****             else
 114:../firmware/n32g430_std_periph_driver/src/n32g430_gpio.c ****             {
 115:../firmware/n32g430_std_periph_driver/src/n32g430_gpio.c ****                 /* Configure IO Direction in analog Mode */
 116:../firmware/n32g430_std_periph_driver/src/n32g430_gpio.c ****                 GPIOA->PMODE |= (GPIO_ANALOG_MODE << (position * MULTIPLIER_FACTOR_2));
 117:../firmware/n32g430_std_periph_driver/src/n32g430_gpio.c ****             }
 118:../firmware/n32g430_std_periph_driver/src/n32g430_gpio.c **** 
 119:../firmware/n32g430_std_periph_driver/src/n32g430_gpio.c ****             /* Configure the default Alternate Function in current IO */
 120:../firmware/n32g430_std_periph_driver/src/n32g430_gpio.c ****             if(position & AF_SELECTION_MASK)
 121:../firmware/n32g430_std_periph_driver/src/n32g430_gpio.c ****             {
 122:../firmware/n32g430_std_periph_driver/src/n32g430_gpio.c ****                 GPIOA->AFH &= ~(GPIO_AF_MASK << ((position & (uint32_t)AF_WRITE_POSITION_MASK) * MU
 129              		.loc 1 122 46 view .LVU25
 130 000a 0F27     		movs	r7, #15
 123:../firmware/n32g430_std_periph_driver/src/n32g430_gpio.c ****             }
 124:../firmware/n32g430_std_periph_driver/src/n32g430_gpio.c ****             else
 125:../firmware/n32g430_std_periph_driver/src/n32g430_gpio.c ****             {
 126:../firmware/n32g430_std_periph_driver/src/n32g430_gpio.c ****                 GPIOA->AFL &= ~(GPIO_AF_MASK << ((position & (uint32_t)AF_WRITE_POSITION_MASK) * MU
 127:../firmware/n32g430_std_periph_driver/src/n32g430_gpio.c ****             }
 128:../firmware/n32g430_std_periph_driver/src/n32g430_gpio.c **** 
 129:../firmware/n32g430_std_periph_driver/src/n32g430_gpio.c ****             /* Reset GPIO output type to push-pull output */
 130:../firmware/n32g430_std_periph_driver/src/n32g430_gpio.c ****             GPIOA->POTYPE &= ~(GPIO_POTYPE_MASK << position);
 131:../firmware/n32g430_std_periph_driver/src/n32g430_gpio.c **** 
 132:../firmware/n32g430_std_periph_driver/src/n32g430_gpio.c ****             
 133:../firmware/n32g430_std_periph_driver/src/n32g430_gpio.c ****             if(position == GPIOA_PUPD_POSITION1 || position == GPIOA_PUPD_POSITION2)
 134:../firmware/n32g430_std_periph_driver/src/n32g430_gpio.c ****             {
 135:../firmware/n32g430_std_periph_driver/src/n32g430_gpio.c ****                 /* Reset the GPIO pull mode to pull-up */
 136:../firmware/n32g430_std_periph_driver/src/n32g430_gpio.c ****                 GPIOA->PUPD |= (GPIO_PU_MODE << (position * MULTIPLIER_FACTOR_2));  
 137:../firmware/n32g430_std_periph_driver/src/n32g430_gpio.c ****             }
 138:../firmware/n32g430_std_periph_driver/src/n32g430_gpio.c ****             else if(position == GPIOA_PUPD_POSITION3)
 139:../firmware/n32g430_std_periph_driver/src/n32g430_gpio.c ****             {
 140:../firmware/n32g430_std_periph_driver/src/n32g430_gpio.c ****                 /* Reset the GPIO pull mode to pull-down */
 141:../firmware/n32g430_std_periph_driver/src/n32g430_gpio.c ****                 GPIOA->PUPD |= (GPIO_PD_MODE << (position * MULTIPLIER_FACTOR_2));  
 142:../firmware/n32g430_std_periph_driver/src/n32g430_gpio.c ****             }
 143:../firmware/n32g430_std_periph_driver/src/n32g430_gpio.c ****             else
 144:../firmware/n32g430_std_periph_driver/src/n32g430_gpio.c ****             {
 145:../firmware/n32g430_std_periph_driver/src/n32g430_gpio.c ****                 /* Reset the GPIO pull mode to no-pull */
 146:../firmware/n32g430_std_periph_driver/src/n32g430_gpio.c ****                 GPIOA->PUPD &= ~(GPIO_PUPD_MASK << (position * MULTIPLIER_FACTOR_2));  
ARM GAS  C:\Users\Dawn\AppData\Local\Temp\cccrm2KO.s 			page 6


 147:../firmware/n32g430_std_periph_driver/src/n32g430_gpio.c ****             }
 148:../firmware/n32g430_std_periph_driver/src/n32g430_gpio.c **** 
 149:../firmware/n32g430_std_periph_driver/src/n32g430_gpio.c ****             /* Reset the GPIO slew rate to slow */
 150:../firmware/n32g430_std_periph_driver/src/n32g430_gpio.c ****             GPIOA->SR |= (GPIO_SR_SLOW << position);  
 151:../firmware/n32g430_std_periph_driver/src/n32g430_gpio.c **** 
 152:../firmware/n32g430_std_periph_driver/src/n32g430_gpio.c ****             /* Reset the GPIO driver strength to 8 mA */
 153:../firmware/n32g430_std_periph_driver/src/n32g430_gpio.c ****             GPIOA->DS |= (GPIO_DRIVER_8MA << (position * MULTIPLIER_FACTOR_2));  
 131              		.loc 1 153 43 view .LVU26
 132 000c 4FF0040C 		mov	ip, #4
 146:../firmware/n32g430_std_periph_driver/src/n32g430_gpio.c ****             }
 133              		.loc 1 146 49 view .LVU27
 134 0010 0326     		movs	r6, #3
 111:../firmware/n32g430_std_periph_driver/src/n32g430_gpio.c ****             }
 135              		.loc 1 111 47 view .LVU28
 136 0012 4FF0020E 		mov	lr, #2
 137              	.LVL10:
 138              	.L10:
 101:../firmware/n32g430_std_periph_driver/src/n32g430_gpio.c ****     {
 139              		.loc 1 101 29 is_stmt 1 view .LVU29
 140 0016 50FA02F1 		asrs	r1, r0, r2
 141 001a 01D1     		bne	.L19
 154:../firmware/n32g430_std_periph_driver/src/n32g430_gpio.c ****         }
 155:../firmware/n32g430_std_periph_driver/src/n32g430_gpio.c ****         position++;
 156:../firmware/n32g430_std_periph_driver/src/n32g430_gpio.c ****     }
 157:../firmware/n32g430_std_periph_driver/src/n32g430_gpio.c **** }
 142              		.loc 1 157 1 is_stmt 0 view .LVU30
 143 001c BDE8F083 		pop	{r4, r5, r6, r7, r8, r9, pc}
 144              	.L19:
 104:../firmware/n32g430_std_periph_driver/src/n32g430_gpio.c **** 
 145              		.loc 1 104 9 is_stmt 1 view .LVU31
 146              	.LVL11:
 106:../firmware/n32g430_std_periph_driver/src/n32g430_gpio.c ****         {
 147              		.loc 1 106 9 view .LVU32
 104:../firmware/n32g430_std_periph_driver/src/n32g430_gpio.c **** 
 148              		.loc 1 104 49 is_stmt 0 view .LVU33
 149 0020 05FA02F1 		lsl	r1, r5, r2
 106:../firmware/n32g430_std_periph_driver/src/n32g430_gpio.c ****         {
 150              		.loc 1 106 11 view .LVU34
 151 0024 0142     		tst	r1, r0
 152 0026 41D0     		beq	.L11
 108:../firmware/n32g430_std_periph_driver/src/n32g430_gpio.c ****             {
 153              		.loc 1 108 13 is_stmt 1 view .LVU35
 111:../firmware/n32g430_std_periph_driver/src/n32g430_gpio.c ****             }
 154              		.loc 1 111 22 is_stmt 0 view .LVU36
 155 0028 D3F80080 		ldr	r8, [r3]
 108:../firmware/n32g430_std_periph_driver/src/n32g430_gpio.c ****             {
 156              		.loc 1 108 15 view .LVU37
 157 002c 0C2A     		cmp	r2, #12
 111:../firmware/n32g430_std_periph_driver/src/n32g430_gpio.c ****             }
 158              		.loc 1 111 17 is_stmt 1 view .LVU38
 159 002e 4FEA4201 		lsl	r1, r2, #1
 111:../firmware/n32g430_std_periph_driver/src/n32g430_gpio.c ****             }
 160              		.loc 1 111 47 is_stmt 0 view .LVU39
 161 0032 8CBF     		ite	hi
 162 0034 0EFA01F4 		lslhi	r4, lr, r1
 116:../firmware/n32g430_std_periph_driver/src/n32g430_gpio.c ****             }
 163              		.loc 1 116 17 is_stmt 1 view .LVU40
ARM GAS  C:\Users\Dawn\AppData\Local\Temp\cccrm2KO.s 			page 7


 116:../firmware/n32g430_std_periph_driver/src/n32g430_gpio.c ****             }
 164              		.loc 1 116 51 is_stmt 0 view .LVU41
 165 0038 06FA01F4 		lslls	r4, r6, r1
 116:../firmware/n32g430_std_periph_driver/src/n32g430_gpio.c ****             }
 166              		.loc 1 116 30 view .LVU42
 167 003c 44EA0804 		orr	r4, r4, r8
 168 0040 1C60     		str	r4, [r3]
 120:../firmware/n32g430_std_periph_driver/src/n32g430_gpio.c ****             {
 169              		.loc 1 120 13 is_stmt 1 view .LVU43
 122:../firmware/n32g430_std_periph_driver/src/n32g430_gpio.c ****             }
 170              		.loc 1 122 60 is_stmt 0 view .LVU44
 171 0042 02F00704 		and	r4, r2, #7
 120:../firmware/n32g430_std_periph_driver/src/n32g430_gpio.c ****             {
 172              		.loc 1 120 15 view .LVU45
 173 0046 12F0080F 		tst	r2, #8
 122:../firmware/n32g430_std_periph_driver/src/n32g430_gpio.c ****             }
 174              		.loc 1 122 17 is_stmt 1 view .LVU46
 122:../firmware/n32g430_std_periph_driver/src/n32g430_gpio.c ****             }
 175              		.loc 1 122 96 is_stmt 0 view .LVU47
 176 004a 4FEA8404 		lsl	r4, r4, #2
 122:../firmware/n32g430_std_periph_driver/src/n32g430_gpio.c ****             }
 177              		.loc 1 122 22 view .LVU48
 178 004e 14BF     		ite	ne
 179 0050 D3F82480 		ldrne	r8, [r3, #36]
 126:../firmware/n32g430_std_periph_driver/src/n32g430_gpio.c ****             }
 180              		.loc 1 126 22 view .LVU49
 181 0054 D3F82080 		ldreq	r8, [r3, #32]
 122:../firmware/n32g430_std_periph_driver/src/n32g430_gpio.c ****             }
 182              		.loc 1 122 46 view .LVU50
 183 0058 07FA04F4 		lsl	r4, r7, r4
 122:../firmware/n32g430_std_periph_driver/src/n32g430_gpio.c ****             }
 184              		.loc 1 122 31 view .LVU51
 185 005c 6FEA0404 		mvn	r4, r4
 122:../firmware/n32g430_std_periph_driver/src/n32g430_gpio.c ****             }
 186              		.loc 1 122 28 view .LVU52
 187 0060 15BF     		itete	ne
 188 0062 08EA0404 		andne	r4, r8, r4
 126:../firmware/n32g430_std_periph_driver/src/n32g430_gpio.c ****             }
 189              		.loc 1 126 28 view .LVU53
 190 0066 08EA0404 		andeq	r4, r8, r4
 122:../firmware/n32g430_std_periph_driver/src/n32g430_gpio.c ****             }
 191              		.loc 1 122 28 view .LVU54
 192 006a 5C62     		strne	r4, [r3, #36]
 126:../firmware/n32g430_std_periph_driver/src/n32g430_gpio.c ****             }
 193              		.loc 1 126 17 is_stmt 1 view .LVU55
 126:../firmware/n32g430_std_periph_driver/src/n32g430_gpio.c ****             }
 194              		.loc 1 126 28 is_stmt 0 view .LVU56
 195 006c 1C62     		streq	r4, [r3, #32]
 130:../firmware/n32g430_std_periph_driver/src/n32g430_gpio.c **** 
 196              		.loc 1 130 13 is_stmt 1 view .LVU57
 130:../firmware/n32g430_std_periph_driver/src/n32g430_gpio.c **** 
 197              		.loc 1 130 18 is_stmt 0 view .LVU58
 198 006e D3F80480 		ldr	r8, [r3, #4]
 130:../firmware/n32g430_std_periph_driver/src/n32g430_gpio.c **** 
 199              		.loc 1 130 49 view .LVU59
 200 0072 05FA02F4 		lsl	r4, r5, r2
 130:../firmware/n32g430_std_periph_driver/src/n32g430_gpio.c **** 
ARM GAS  C:\Users\Dawn\AppData\Local\Temp\cccrm2KO.s 			page 8


 201              		.loc 1 130 27 view .LVU60
 202 0076 28EA0408 		bic	r8, r8, r4
 203 007a C3F80480 		str	r8, [r3, #4]
 133:../firmware/n32g430_std_periph_driver/src/n32g430_gpio.c ****             {
 204              		.loc 1 133 13 is_stmt 1 view .LVU61
 133:../firmware/n32g430_std_periph_driver/src/n32g430_gpio.c ****             {
 205              		.loc 1 133 15 is_stmt 0 view .LVU62
 206 007e 22F00208 		bic	r8, r2, #2
 207 0082 B8F10D0F 		cmp	r8, #13
 208 0086 13D1     		bne	.L16
 136:../firmware/n32g430_std_periph_driver/src/n32g430_gpio.c ****             }
 209              		.loc 1 136 17 is_stmt 1 view .LVU63
 136:../firmware/n32g430_std_periph_driver/src/n32g430_gpio.c ****             }
 210              		.loc 1 136 22 is_stmt 0 view .LVU64
 211 0088 D3F80C90 		ldr	r9, [r3, #12]
 136:../firmware/n32g430_std_periph_driver/src/n32g430_gpio.c ****             }
 212              		.loc 1 136 46 view .LVU65
 213 008c 05FA01F8 		lsl	r8, r5, r1
 136:../firmware/n32g430_std_periph_driver/src/n32g430_gpio.c ****             }
 214              		.loc 1 136 29 view .LVU66
 215 0090 48EA0908 		orr	r8, r8, r9
 216              	.L24:
 146:../firmware/n32g430_std_periph_driver/src/n32g430_gpio.c ****             }
 217              		.loc 1 146 29 view .LVU67
 218 0094 C3F80C80 		str	r8, [r3, #12]
 150:../firmware/n32g430_std_periph_driver/src/n32g430_gpio.c **** 
 219              		.loc 1 150 13 is_stmt 1 view .LVU68
 150:../firmware/n32g430_std_periph_driver/src/n32g430_gpio.c **** 
 220              		.loc 1 150 18 is_stmt 0 view .LVU69
 221 0098 D3F80880 		ldr	r8, [r3, #8]
 150:../firmware/n32g430_std_periph_driver/src/n32g430_gpio.c **** 
 222              		.loc 1 150 23 view .LVU70
 223 009c 44EA0804 		orr	r4, r4, r8
 224 00a0 9C60     		str	r4, [r3, #8]
 153:../firmware/n32g430_std_periph_driver/src/n32g430_gpio.c ****         }
 225              		.loc 1 153 13 is_stmt 1 view .LVU71
 153:../firmware/n32g430_std_periph_driver/src/n32g430_gpio.c ****         }
 226              		.loc 1 153 18 is_stmt 0 view .LVU72
 227 00a2 DC6A     		ldr	r4, [r3, #44]
 153:../firmware/n32g430_std_periph_driver/src/n32g430_gpio.c ****         }
 228              		.loc 1 153 43 view .LVU73
 229 00a4 0CFA01F1 		lsl	r1, ip, r1
 153:../firmware/n32g430_std_periph_driver/src/n32g430_gpio.c ****         }
 230              		.loc 1 153 23 view .LVU74
 231 00a8 2143     		orrs	r1, r1, r4
 232 00aa D962     		str	r1, [r3, #44]
 233              	.L11:
 155:../firmware/n32g430_std_periph_driver/src/n32g430_gpio.c ****     }
 234              		.loc 1 155 9 is_stmt 1 view .LVU75
 155:../firmware/n32g430_std_periph_driver/src/n32g430_gpio.c ****     }
 235              		.loc 1 155 17 is_stmt 0 view .LVU76
 236 00ac 0132     		adds	r2, r2, #1
 237              	.LVL12:
 155:../firmware/n32g430_std_periph_driver/src/n32g430_gpio.c ****     }
 238              		.loc 1 155 17 view .LVU77
 239 00ae B2E7     		b	.L10
 240              	.LVL13:
ARM GAS  C:\Users\Dawn\AppData\Local\Temp\cccrm2KO.s 			page 9


 241              	.L16:
 138:../firmware/n32g430_std_periph_driver/src/n32g430_gpio.c ****             {
 242              		.loc 1 138 18 is_stmt 1 view .LVU78
 138:../firmware/n32g430_std_periph_driver/src/n32g430_gpio.c ****             {
 243              		.loc 1 138 20 is_stmt 0 view .LVU79
 244 00b0 0E2A     		cmp	r2, #14
 141:../firmware/n32g430_std_periph_driver/src/n32g430_gpio.c ****             }
 245              		.loc 1 141 17 is_stmt 1 view .LVU80
 141:../firmware/n32g430_std_periph_driver/src/n32g430_gpio.c ****             }
 246              		.loc 1 141 22 is_stmt 0 view .LVU81
 247 00b2 D3F80C80 		ldr	r8, [r3, #12]
 146:../firmware/n32g430_std_periph_driver/src/n32g430_gpio.c ****             }
 248              		.loc 1 146 49 view .LVU82
 249 00b6 16BF     		itet	ne
 250 00b8 06FA01F9 		lslne	r9, r6, r1
 141:../firmware/n32g430_std_periph_driver/src/n32g430_gpio.c ****             }
 251              		.loc 1 141 29 view .LVU83
 252 00bc 48F00058 		orreq	r8, r8, #536870912
 146:../firmware/n32g430_std_periph_driver/src/n32g430_gpio.c ****             }
 253              		.loc 1 146 17 is_stmt 1 view .LVU84
 146:../firmware/n32g430_std_periph_driver/src/n32g430_gpio.c ****             }
 254              		.loc 1 146 29 is_stmt 0 view .LVU85
 255 00c0 28EA0908 		bicne	r8, r8, r9
 256 00c4 E6E7     		b	.L24
 257              	.L26:
 258 00c6 00BF     		.align	2
 259              	.L25:
 260 00c8 00340240 		.word	1073886208
 261              		.cfi_endproc
 262              	.LFE131:
 264              		.section	.text.GPIOB_Pin_Reset,"ax",%progbits
 265              		.align	1
 266              		.global	GPIOB_Pin_Reset
 267              		.syntax unified
 268              		.thumb
 269              		.thumb_func
 271              	GPIOB_Pin_Reset:
 272              	.LVL14:
 273              	.LFB132:
 158:../firmware/n32g430_std_periph_driver/src/n32g430_gpio.c **** 
 159:../firmware/n32g430_std_periph_driver/src/n32g430_gpio.c **** /**
 160:../firmware/n32g430_std_periph_driver/src/n32g430_gpio.c ****  *\*\name   GPIOB_Pin_Reset.
 161:../firmware/n32g430_std_periph_driver/src/n32g430_gpio.c ****  *\*\fun    Reset the GPIOB peripheral registers to it's default reset values.
 162:../firmware/n32g430_std_periph_driver/src/n32g430_gpio.c ****  *\*\param  pin :
 163:../firmware/n32g430_std_periph_driver/src/n32g430_gpio.c ****  *\*\          - GPIO_PIN_0
 164:../firmware/n32g430_std_periph_driver/src/n32g430_gpio.c ****  *\*\          - GPIO_PIN_1
 165:../firmware/n32g430_std_periph_driver/src/n32g430_gpio.c ****  *\*\          - GPIO_PIN_2
 166:../firmware/n32g430_std_periph_driver/src/n32g430_gpio.c ****  *\*\          - GPIO_PIN_3
 167:../firmware/n32g430_std_periph_driver/src/n32g430_gpio.c ****  *\*\          - GPIO_PIN_4
 168:../firmware/n32g430_std_periph_driver/src/n32g430_gpio.c ****  *\*\          - GPIO_PIN_5
 169:../firmware/n32g430_std_periph_driver/src/n32g430_gpio.c ****  *\*\          - GPIO_PIN_6
 170:../firmware/n32g430_std_periph_driver/src/n32g430_gpio.c ****  *\*\          - GPIO_PIN_7
 171:../firmware/n32g430_std_periph_driver/src/n32g430_gpio.c ****  *\*\          - GPIO_PIN_8
 172:../firmware/n32g430_std_periph_driver/src/n32g430_gpio.c ****  *\*\          - GPIO_PIN_9
 173:../firmware/n32g430_std_periph_driver/src/n32g430_gpio.c ****  *\*\          - GPIO_PIN_10
 174:../firmware/n32g430_std_periph_driver/src/n32g430_gpio.c ****  *\*\          - GPIO_PIN_11
 175:../firmware/n32g430_std_periph_driver/src/n32g430_gpio.c ****  *\*\          - GPIO_PIN_12
ARM GAS  C:\Users\Dawn\AppData\Local\Temp\cccrm2KO.s 			page 10


 176:../firmware/n32g430_std_periph_driver/src/n32g430_gpio.c ****  *\*\          - GPIO_PIN_13
 177:../firmware/n32g430_std_periph_driver/src/n32g430_gpio.c ****  *\*\          - GPIO_PIN_14
 178:../firmware/n32g430_std_periph_driver/src/n32g430_gpio.c ****  *\*\          - GPIO_PIN_15
 179:../firmware/n32g430_std_periph_driver/src/n32g430_gpio.c ****  *\*\          - GPIO_PIN_ALL
 180:../firmware/n32g430_std_periph_driver/src/n32g430_gpio.c ****  *\*\return none
 181:../firmware/n32g430_std_periph_driver/src/n32g430_gpio.c ****  */
 182:../firmware/n32g430_std_periph_driver/src/n32g430_gpio.c **** void GPIOB_Pin_Reset(uint16_t pin)
 183:../firmware/n32g430_std_periph_driver/src/n32g430_gpio.c **** {
 274              		.loc 1 183 1 is_stmt 1 view -0
 275              		.cfi_startproc
 276              		@ args = 0, pretend = 0, frame = 0
 277              		@ frame_needed = 0, uses_anonymous_args = 0
 184:../firmware/n32g430_std_periph_driver/src/n32g430_gpio.c ****     uint32_t position = 0x00U;
 278              		.loc 1 184 5 view .LVU87
 185:../firmware/n32g430_std_periph_driver/src/n32g430_gpio.c ****     uint32_t current_pin = 0x00U;
 279              		.loc 1 185 5 view .LVU88
 186:../firmware/n32g430_std_periph_driver/src/n32g430_gpio.c **** 
 187:../firmware/n32g430_std_periph_driver/src/n32g430_gpio.c ****     while((pin >> position) != 0)
 280              		.loc 1 187 5 view .LVU89
 281 0000 2E4B     		ldr	r3, .L43
 183:../firmware/n32g430_std_periph_driver/src/n32g430_gpio.c ****     uint32_t position = 0x00U;
 282              		.loc 1 183 1 is_stmt 0 view .LVU90
 283 0002 2DE9F043 		push	{r4, r5, r6, r7, r8, r9, lr}
 284              	.LCFI1:
 285              		.cfi_def_cfa_offset 28
 286              		.cfi_offset 4, -28
 287              		.cfi_offset 5, -24
 288              		.cfi_offset 6, -20
 289              		.cfi_offset 7, -16
 290              		.cfi_offset 8, -12
 291              		.cfi_offset 9, -8
 292              		.cfi_offset 14, -4
 184:../firmware/n32g430_std_periph_driver/src/n32g430_gpio.c ****     uint32_t current_pin = 0x00U;
 293              		.loc 1 184 14 view .LVU91
 294 0006 0022     		movs	r2, #0
 188:../firmware/n32g430_std_periph_driver/src/n32g430_gpio.c ****     {
 189:../firmware/n32g430_std_periph_driver/src/n32g430_gpio.c ****         /* Get the IO position */
 190:../firmware/n32g430_std_periph_driver/src/n32g430_gpio.c ****         current_pin = (pin) & (IO_POSITION_MASK << position);
 295              		.loc 1 190 49 view .LVU92
 296 0008 0125     		movs	r5, #1
 191:../firmware/n32g430_std_periph_driver/src/n32g430_gpio.c **** 
 192:../firmware/n32g430_std_periph_driver/src/n32g430_gpio.c ****         if(current_pin)
 193:../firmware/n32g430_std_periph_driver/src/n32g430_gpio.c ****         {
 194:../firmware/n32g430_std_periph_driver/src/n32g430_gpio.c ****             /** Reset GPIO pin mode **/
 195:../firmware/n32g430_std_periph_driver/src/n32g430_gpio.c ****             if((position == GPIOB_MODE_POSITION1) || (position == GPIOB_MODE_POSITION2))
 196:../firmware/n32g430_std_periph_driver/src/n32g430_gpio.c ****             {
 197:../firmware/n32g430_std_periph_driver/src/n32g430_gpio.c ****                 /* Configure IO Direction in alternate Mode */
 198:../firmware/n32g430_std_periph_driver/src/n32g430_gpio.c ****                 GPIOB->PMODE |= (GPIO_AF_MODE << (position * MULTIPLIER_FACTOR_2));
 199:../firmware/n32g430_std_periph_driver/src/n32g430_gpio.c ****             }
 200:../firmware/n32g430_std_periph_driver/src/n32g430_gpio.c ****             else
 201:../firmware/n32g430_std_periph_driver/src/n32g430_gpio.c ****             {
 202:../firmware/n32g430_std_periph_driver/src/n32g430_gpio.c ****                 /* Configure IO Direction in analog Mode */
 203:../firmware/n32g430_std_periph_driver/src/n32g430_gpio.c ****                 GPIOB->PMODE |= (GPIO_ANALOG_MODE << (position * MULTIPLIER_FACTOR_2));
 204:../firmware/n32g430_std_periph_driver/src/n32g430_gpio.c ****             }
 205:../firmware/n32g430_std_periph_driver/src/n32g430_gpio.c **** 
 206:../firmware/n32g430_std_periph_driver/src/n32g430_gpio.c ****             /** Configure the default Alternate Function in current IO **/
 207:../firmware/n32g430_std_periph_driver/src/n32g430_gpio.c ****             if(position & AF_SELECTION_MASK)
ARM GAS  C:\Users\Dawn\AppData\Local\Temp\cccrm2KO.s 			page 11


 208:../firmware/n32g430_std_periph_driver/src/n32g430_gpio.c ****             {
 209:../firmware/n32g430_std_periph_driver/src/n32g430_gpio.c ****                 GPIOB->AFH &= ~(GPIO_AF_MASK << ((position & (uint32_t)AF_WRITE_POSITION_MASK) * MU
 297              		.loc 1 209 46 view .LVU93
 298 000a 0F27     		movs	r7, #15
 210:../firmware/n32g430_std_periph_driver/src/n32g430_gpio.c ****             }
 211:../firmware/n32g430_std_periph_driver/src/n32g430_gpio.c ****             else
 212:../firmware/n32g430_std_periph_driver/src/n32g430_gpio.c ****             {
 213:../firmware/n32g430_std_periph_driver/src/n32g430_gpio.c ****                 GPIOB->AFL &= ~(GPIO_AF_MASK << ((position & (uint32_t)AF_WRITE_POSITION_MASK) * MU
 214:../firmware/n32g430_std_periph_driver/src/n32g430_gpio.c ****             }
 215:../firmware/n32g430_std_periph_driver/src/n32g430_gpio.c ****             
 216:../firmware/n32g430_std_periph_driver/src/n32g430_gpio.c ****             /* Reset GPIO output type to push-pull output */
 217:../firmware/n32g430_std_periph_driver/src/n32g430_gpio.c ****             GPIOB->POTYPE &= ~(GPIO_POTYPE_MASK << position);
 218:../firmware/n32g430_std_periph_driver/src/n32g430_gpio.c **** 
 219:../firmware/n32g430_std_periph_driver/src/n32g430_gpio.c ****             if(position == GPIOB_PUPD_POSITION1)
 220:../firmware/n32g430_std_periph_driver/src/n32g430_gpio.c ****             {
 221:../firmware/n32g430_std_periph_driver/src/n32g430_gpio.c ****                 /* Reset the GPIO pull mode to pull-up */
 222:../firmware/n32g430_std_periph_driver/src/n32g430_gpio.c ****                 GPIOB->PUPD |= (GPIO_PU_MODE << (position * MULTIPLIER_FACTOR_2));  
 223:../firmware/n32g430_std_periph_driver/src/n32g430_gpio.c ****             }
 224:../firmware/n32g430_std_periph_driver/src/n32g430_gpio.c ****             else
 225:../firmware/n32g430_std_periph_driver/src/n32g430_gpio.c ****             {
 226:../firmware/n32g430_std_periph_driver/src/n32g430_gpio.c ****                 /* Reset the GPIO pull mode to no-pull */
 227:../firmware/n32g430_std_periph_driver/src/n32g430_gpio.c ****                 GPIOB->PUPD &= ~(GPIO_PUPD_MASK << (position * MULTIPLIER_FACTOR_2));  
 228:../firmware/n32g430_std_periph_driver/src/n32g430_gpio.c ****             }
 229:../firmware/n32g430_std_periph_driver/src/n32g430_gpio.c **** 
 230:../firmware/n32g430_std_periph_driver/src/n32g430_gpio.c ****             /* Reset the GPIO slew rate to slow */
 231:../firmware/n32g430_std_periph_driver/src/n32g430_gpio.c ****             GPIOB->SR |= (GPIO_SR_SLOW << position);  
 232:../firmware/n32g430_std_periph_driver/src/n32g430_gpio.c **** 
 233:../firmware/n32g430_std_periph_driver/src/n32g430_gpio.c ****             /* Reset the GPIO driver strength to 8 mA */
 234:../firmware/n32g430_std_periph_driver/src/n32g430_gpio.c ****             GPIOB->DS |= (GPIO_DRIVER_8MA << (position * MULTIPLIER_FACTOR_2));  
 299              		.loc 1 234 43 view .LVU94
 300 000c 4FF0040C 		mov	ip, #4
 227:../firmware/n32g430_std_periph_driver/src/n32g430_gpio.c ****             }
 301              		.loc 1 227 49 view .LVU95
 302 0010 0326     		movs	r6, #3
 198:../firmware/n32g430_std_periph_driver/src/n32g430_gpio.c ****             }
 303              		.loc 1 198 47 view .LVU96
 304 0012 4FF0020E 		mov	lr, #2
 305              	.LVL15:
 306              	.L28:
 187:../firmware/n32g430_std_periph_driver/src/n32g430_gpio.c ****     {
 307              		.loc 1 187 29 is_stmt 1 view .LVU97
 308 0016 50FA02F1 		asrs	r1, r0, r2
 309 001a 01D1     		bne	.L35
 235:../firmware/n32g430_std_periph_driver/src/n32g430_gpio.c ****         }
 236:../firmware/n32g430_std_periph_driver/src/n32g430_gpio.c ****         position++;
 237:../firmware/n32g430_std_periph_driver/src/n32g430_gpio.c ****     }
 238:../firmware/n32g430_std_periph_driver/src/n32g430_gpio.c **** }
 310              		.loc 1 238 1 is_stmt 0 view .LVU98
 311 001c BDE8F083 		pop	{r4, r5, r6, r7, r8, r9, pc}
 312              	.L35:
 190:../firmware/n32g430_std_periph_driver/src/n32g430_gpio.c **** 
 313              		.loc 1 190 9 is_stmt 1 view .LVU99
 314              	.LVL16:
 192:../firmware/n32g430_std_periph_driver/src/n32g430_gpio.c ****         {
 315              		.loc 1 192 9 view .LVU100
 190:../firmware/n32g430_std_periph_driver/src/n32g430_gpio.c **** 
 316              		.loc 1 190 49 is_stmt 0 view .LVU101
ARM GAS  C:\Users\Dawn\AppData\Local\Temp\cccrm2KO.s 			page 12


 317 0020 05FA02F1 		lsl	r1, r5, r2
 192:../firmware/n32g430_std_periph_driver/src/n32g430_gpio.c ****         {
 318              		.loc 1 192 11 view .LVU102
 319 0024 0142     		tst	r1, r0
 320 0026 47D0     		beq	.L29
 195:../firmware/n32g430_std_periph_driver/src/n32g430_gpio.c ****             {
 321              		.loc 1 195 13 is_stmt 1 view .LVU103
 209:../firmware/n32g430_std_periph_driver/src/n32g430_gpio.c ****             }
 322              		.loc 1 209 60 is_stmt 0 view .LVU104
 323 0028 02F00704 		and	r4, r2, #7
 209:../firmware/n32g430_std_periph_driver/src/n32g430_gpio.c ****             }
 324              		.loc 1 209 96 view .LVU105
 325 002c A400     		lsls	r4, r4, #2
 195:../firmware/n32g430_std_periph_driver/src/n32g430_gpio.c ****             {
 326              		.loc 1 195 15 view .LVU106
 327 002e A2F10308 		sub	r8, r2, #3
 209:../firmware/n32g430_std_periph_driver/src/n32g430_gpio.c ****             }
 328              		.loc 1 209 46 view .LVU107
 329 0032 07FA04F4 		lsl	r4, r7, r4
 195:../firmware/n32g430_std_periph_driver/src/n32g430_gpio.c ****             {
 330              		.loc 1 195 15 view .LVU108
 331 0036 B8F1010F 		cmp	r8, #1
 198:../firmware/n32g430_std_periph_driver/src/n32g430_gpio.c ****             }
 332              		.loc 1 198 22 view .LVU109
 333 003a D3F80090 		ldr	r9, [r3]
 334 003e 4FEA4201 		lsl	r1, r2, #1
 209:../firmware/n32g430_std_periph_driver/src/n32g430_gpio.c ****             }
 335              		.loc 1 209 31 view .LVU110
 336 0042 6FEA0404 		mvn	r4, r4
 195:../firmware/n32g430_std_periph_driver/src/n32g430_gpio.c ****             {
 337              		.loc 1 195 15 view .LVU111
 338 0046 0BD8     		bhi	.L30
 198:../firmware/n32g430_std_periph_driver/src/n32g430_gpio.c ****             }
 339              		.loc 1 198 17 is_stmt 1 view .LVU112
 198:../firmware/n32g430_std_periph_driver/src/n32g430_gpio.c ****             }
 340              		.loc 1 198 47 is_stmt 0 view .LVU113
 341 0048 0EFA01F8 		lsl	r8, lr, r1
 198:../firmware/n32g430_std_periph_driver/src/n32g430_gpio.c ****             }
 342              		.loc 1 198 30 view .LVU114
 343 004c 48EA0908 		orr	r8, r8, r9
 344 0050 C3F80080 		str	r8, [r3]
 207:../firmware/n32g430_std_periph_driver/src/n32g430_gpio.c ****             {
 345              		.loc 1 207 13 is_stmt 1 view .LVU115
 346              	.L31:
 213:../firmware/n32g430_std_periph_driver/src/n32g430_gpio.c ****             }
 347              		.loc 1 213 17 view .LVU116
 213:../firmware/n32g430_std_periph_driver/src/n32g430_gpio.c ****             }
 348              		.loc 1 213 22 is_stmt 0 view .LVU117
 349 0054 D3F82080 		ldr	r8, [r3, #32]
 213:../firmware/n32g430_std_periph_driver/src/n32g430_gpio.c ****             }
 350              		.loc 1 213 28 view .LVU118
 351 0058 08EA0404 		and	r4, r8, r4
 352 005c 1C62     		str	r4, [r3, #32]
 353 005e 0DE0     		b	.L32
 354              	.L30:
 203:../firmware/n32g430_std_periph_driver/src/n32g430_gpio.c ****             }
 355              		.loc 1 203 17 is_stmt 1 view .LVU119
ARM GAS  C:\Users\Dawn\AppData\Local\Temp\cccrm2KO.s 			page 13


 203:../firmware/n32g430_std_periph_driver/src/n32g430_gpio.c ****             }
 356              		.loc 1 203 51 is_stmt 0 view .LVU120
 357 0060 06FA01F8 		lsl	r8, r6, r1
 203:../firmware/n32g430_std_periph_driver/src/n32g430_gpio.c ****             }
 358              		.loc 1 203 30 view .LVU121
 359 0064 48EA0908 		orr	r8, r8, r9
 207:../firmware/n32g430_std_periph_driver/src/n32g430_gpio.c ****             {
 360              		.loc 1 207 15 view .LVU122
 361 0068 12F0080F 		tst	r2, #8
 203:../firmware/n32g430_std_periph_driver/src/n32g430_gpio.c ****             }
 362              		.loc 1 203 30 view .LVU123
 363 006c C3F80080 		str	r8, [r3]
 207:../firmware/n32g430_std_periph_driver/src/n32g430_gpio.c ****             {
 364              		.loc 1 207 13 is_stmt 1 view .LVU124
 207:../firmware/n32g430_std_periph_driver/src/n32g430_gpio.c ****             {
 365              		.loc 1 207 15 is_stmt 0 view .LVU125
 366 0070 F0D0     		beq	.L31
 209:../firmware/n32g430_std_periph_driver/src/n32g430_gpio.c ****             }
 367              		.loc 1 209 17 is_stmt 1 view .LVU126
 209:../firmware/n32g430_std_periph_driver/src/n32g430_gpio.c ****             }
 368              		.loc 1 209 22 is_stmt 0 view .LVU127
 369 0072 D3F82480 		ldr	r8, [r3, #36]
 209:../firmware/n32g430_std_periph_driver/src/n32g430_gpio.c ****             }
 370              		.loc 1 209 28 view .LVU128
 371 0076 08EA0404 		and	r4, r8, r4
 372 007a 5C62     		str	r4, [r3, #36]
 373              	.L32:
 217:../firmware/n32g430_std_periph_driver/src/n32g430_gpio.c **** 
 374              		.loc 1 217 13 is_stmt 1 view .LVU129
 217:../firmware/n32g430_std_periph_driver/src/n32g430_gpio.c **** 
 375              		.loc 1 217 18 is_stmt 0 view .LVU130
 376 007c D3F80480 		ldr	r8, [r3, #4]
 217:../firmware/n32g430_std_periph_driver/src/n32g430_gpio.c **** 
 377              		.loc 1 217 49 view .LVU131
 378 0080 05FA02F4 		lsl	r4, r5, r2
 217:../firmware/n32g430_std_periph_driver/src/n32g430_gpio.c **** 
 379              		.loc 1 217 27 view .LVU132
 380 0084 28EA0408 		bic	r8, r8, r4
 381 0088 C3F80480 		str	r8, [r3, #4]
 219:../firmware/n32g430_std_periph_driver/src/n32g430_gpio.c ****             {
 382              		.loc 1 219 13 is_stmt 1 view .LVU133
 222:../firmware/n32g430_std_periph_driver/src/n32g430_gpio.c ****             }
 383              		.loc 1 222 22 is_stmt 0 view .LVU134
 384 008c D3F80C80 		ldr	r8, [r3, #12]
 219:../firmware/n32g430_std_periph_driver/src/n32g430_gpio.c ****             {
 385              		.loc 1 219 15 view .LVU135
 386 0090 042A     		cmp	r2, #4
 222:../firmware/n32g430_std_periph_driver/src/n32g430_gpio.c ****             }
 387              		.loc 1 222 17 is_stmt 1 view .LVU136
 227:../firmware/n32g430_std_periph_driver/src/n32g430_gpio.c ****             }
 388              		.loc 1 227 49 is_stmt 0 view .LVU137
 389 0092 16BF     		itet	ne
 390 0094 06FA01F9 		lslne	r9, r6, r1
 222:../firmware/n32g430_std_periph_driver/src/n32g430_gpio.c ****             }
 391              		.loc 1 222 29 view .LVU138
 392 0098 48F48078 		orreq	r8, r8, #256
 227:../firmware/n32g430_std_periph_driver/src/n32g430_gpio.c ****             }
ARM GAS  C:\Users\Dawn\AppData\Local\Temp\cccrm2KO.s 			page 14


 393              		.loc 1 227 17 is_stmt 1 view .LVU139
 227:../firmware/n32g430_std_periph_driver/src/n32g430_gpio.c ****             }
 394              		.loc 1 227 29 is_stmt 0 view .LVU140
 395 009c 28EA0908 		bicne	r8, r8, r9
 396 00a0 C3F80C80 		str	r8, [r3, #12]
 231:../firmware/n32g430_std_periph_driver/src/n32g430_gpio.c **** 
 397              		.loc 1 231 13 is_stmt 1 view .LVU141
 231:../firmware/n32g430_std_periph_driver/src/n32g430_gpio.c **** 
 398              		.loc 1 231 18 is_stmt 0 view .LVU142
 399 00a4 D3F80880 		ldr	r8, [r3, #8]
 231:../firmware/n32g430_std_periph_driver/src/n32g430_gpio.c **** 
 400              		.loc 1 231 23 view .LVU143
 401 00a8 44EA0804 		orr	r4, r4, r8
 402 00ac 9C60     		str	r4, [r3, #8]
 234:../firmware/n32g430_std_periph_driver/src/n32g430_gpio.c ****         }
 403              		.loc 1 234 13 is_stmt 1 view .LVU144
 234:../firmware/n32g430_std_periph_driver/src/n32g430_gpio.c ****         }
 404              		.loc 1 234 18 is_stmt 0 view .LVU145
 405 00ae DC6A     		ldr	r4, [r3, #44]
 234:../firmware/n32g430_std_periph_driver/src/n32g430_gpio.c ****         }
 406              		.loc 1 234 43 view .LVU146
 407 00b0 0CFA01F1 		lsl	r1, ip, r1
 234:../firmware/n32g430_std_periph_driver/src/n32g430_gpio.c ****         }
 408              		.loc 1 234 23 view .LVU147
 409 00b4 2143     		orrs	r1, r1, r4
 410 00b6 D962     		str	r1, [r3, #44]
 411              	.L29:
 236:../firmware/n32g430_std_periph_driver/src/n32g430_gpio.c ****     }
 412              		.loc 1 236 9 is_stmt 1 view .LVU148
 236:../firmware/n32g430_std_periph_driver/src/n32g430_gpio.c ****     }
 413              		.loc 1 236 17 is_stmt 0 view .LVU149
 414 00b8 0132     		adds	r2, r2, #1
 415              	.LVL17:
 236:../firmware/n32g430_std_periph_driver/src/n32g430_gpio.c ****     }
 416              		.loc 1 236 17 view .LVU150
 417 00ba ACE7     		b	.L28
 418              	.L44:
 419              		.align	2
 420              	.L43:
 421 00bc 00380240 		.word	1073887232
 422              		.cfi_endproc
 423              	.LFE132:
 425              		.section	.text.GPIOC_Pin_Reset,"ax",%progbits
 426              		.align	1
 427              		.global	GPIOC_Pin_Reset
 428              		.syntax unified
 429              		.thumb
 430              		.thumb_func
 432              	GPIOC_Pin_Reset:
 433              	.LVL18:
 434              	.LFB133:
 239:../firmware/n32g430_std_periph_driver/src/n32g430_gpio.c **** 
 240:../firmware/n32g430_std_periph_driver/src/n32g430_gpio.c **** /**
 241:../firmware/n32g430_std_periph_driver/src/n32g430_gpio.c ****  *\*\name   GPIOC_Pin_Reset.
 242:../firmware/n32g430_std_periph_driver/src/n32g430_gpio.c ****  *\*\fun    Reset the GPIOC peripheral registers to it's default reset values.
 243:../firmware/n32g430_std_periph_driver/src/n32g430_gpio.c ****  *\*\param  pin :
 244:../firmware/n32g430_std_periph_driver/src/n32g430_gpio.c ****  *\*\          - GPIO_PIN_13
ARM GAS  C:\Users\Dawn\AppData\Local\Temp\cccrm2KO.s 			page 15


 245:../firmware/n32g430_std_periph_driver/src/n32g430_gpio.c ****  *\*\          - GPIO_PIN_14
 246:../firmware/n32g430_std_periph_driver/src/n32g430_gpio.c ****  *\*\          - GPIO_PIN_15
 247:../firmware/n32g430_std_periph_driver/src/n32g430_gpio.c ****  *\*\          - GPIO_PIN_ALL
 248:../firmware/n32g430_std_periph_driver/src/n32g430_gpio.c ****  *\*\return none
 249:../firmware/n32g430_std_periph_driver/src/n32g430_gpio.c ****  */
 250:../firmware/n32g430_std_periph_driver/src/n32g430_gpio.c **** void GPIOC_Pin_Reset(uint16_t pin)
 251:../firmware/n32g430_std_periph_driver/src/n32g430_gpio.c **** {
 435              		.loc 1 251 1 is_stmt 1 view -0
 436              		.cfi_startproc
 437              		@ args = 0, pretend = 0, frame = 0
 438              		@ frame_needed = 0, uses_anonymous_args = 0
 252:../firmware/n32g430_std_periph_driver/src/n32g430_gpio.c ****     uint32_t position = 0x00U;
 439              		.loc 1 252 5 view .LVU152
 253:../firmware/n32g430_std_periph_driver/src/n32g430_gpio.c ****     uint32_t current_pin = 0x00U;
 440              		.loc 1 253 5 view .LVU153
 254:../firmware/n32g430_std_periph_driver/src/n32g430_gpio.c **** 
 255:../firmware/n32g430_std_periph_driver/src/n32g430_gpio.c ****     while((pin >> position) != 0)
 441              		.loc 1 255 5 view .LVU154
 256:../firmware/n32g430_std_periph_driver/src/n32g430_gpio.c ****     {
 257:../firmware/n32g430_std_periph_driver/src/n32g430_gpio.c ****         /* Get the IO position */
 258:../firmware/n32g430_std_periph_driver/src/n32g430_gpio.c ****         current_pin = (pin) & (IO_POSITION_MASK << position);
 259:../firmware/n32g430_std_periph_driver/src/n32g430_gpio.c **** 
 260:../firmware/n32g430_std_periph_driver/src/n32g430_gpio.c ****         if(current_pin)
 261:../firmware/n32g430_std_periph_driver/src/n32g430_gpio.c ****         {
 262:../firmware/n32g430_std_periph_driver/src/n32g430_gpio.c ****             /* Configure IO Direction in analog Mode */
 263:../firmware/n32g430_std_periph_driver/src/n32g430_gpio.c ****             GPIOC->PMODE |= (GPIO_ANALOG_MODE << (position * MULTIPLIER_FACTOR_2));
 442              		.loc 1 263 18 is_stmt 0 view .LVU155
 443 0000 1A4B     		ldr	r3, .L52
 251:../firmware/n32g430_std_periph_driver/src/n32g430_gpio.c ****     uint32_t position = 0x00U;
 444              		.loc 1 251 1 view .LVU156
 445 0002 2DE9F043 		push	{r4, r5, r6, r7, r8, r9, lr}
 446              	.LCFI2:
 447              		.cfi_def_cfa_offset 28
 448              		.cfi_offset 4, -28
 449              		.cfi_offset 5, -24
 450              		.cfi_offset 6, -20
 451              		.cfi_offset 7, -16
 452              		.cfi_offset 8, -12
 453              		.cfi_offset 9, -8
 454              		.cfi_offset 14, -4
 252:../firmware/n32g430_std_periph_driver/src/n32g430_gpio.c ****     uint32_t current_pin = 0x00U;
 455              		.loc 1 252 14 view .LVU157
 456 0006 0022     		movs	r2, #0
 258:../firmware/n32g430_std_periph_driver/src/n32g430_gpio.c **** 
 457              		.loc 1 258 49 view .LVU158
 458 0008 0126     		movs	r6, #1
 459              		.loc 1 263 47 view .LVU159
 460 000a 0327     		movs	r7, #3
 264:../firmware/n32g430_std_periph_driver/src/n32g430_gpio.c **** 
 265:../firmware/n32g430_std_periph_driver/src/n32g430_gpio.c ****             /* Configure the default Alternate Function in current IO */
 266:../firmware/n32g430_std_periph_driver/src/n32g430_gpio.c ****             GPIOC->AFH &= ~(GPIO_AF_MASK << ((position & (uint32_t)AF_WRITE_POSITION_MASK) * MULTIP
 461              		.loc 1 266 42 view .LVU160
 462 000c 4FF00F0C 		mov	ip, #15
 267:../firmware/n32g430_std_periph_driver/src/n32g430_gpio.c **** 
 268:../firmware/n32g430_std_periph_driver/src/n32g430_gpio.c ****             /* Reset GPIO output type to push-pull output */
 269:../firmware/n32g430_std_periph_driver/src/n32g430_gpio.c ****             GPIOC->POTYPE &= ~(GPIO_POTYPE_MASK << position);
 270:../firmware/n32g430_std_periph_driver/src/n32g430_gpio.c **** 
ARM GAS  C:\Users\Dawn\AppData\Local\Temp\cccrm2KO.s 			page 16


 271:../firmware/n32g430_std_periph_driver/src/n32g430_gpio.c ****             /* Reset the GPIO pull mode to no-pull */
 272:../firmware/n32g430_std_periph_driver/src/n32g430_gpio.c ****             GPIOC->PUPD &= ~(GPIO_PUPD_MASK << (position * MULTIPLIER_FACTOR_2));  
 273:../firmware/n32g430_std_periph_driver/src/n32g430_gpio.c **** 
 274:../firmware/n32g430_std_periph_driver/src/n32g430_gpio.c ****             /* Reset the GPIO slew rate to slow */
 275:../firmware/n32g430_std_periph_driver/src/n32g430_gpio.c ****             GPIOC->SR |= (GPIO_SR_SLOW << position);  
 276:../firmware/n32g430_std_periph_driver/src/n32g430_gpio.c **** 
 277:../firmware/n32g430_std_periph_driver/src/n32g430_gpio.c ****             /* Reset the GPIO driver strength to 8 mA */
 278:../firmware/n32g430_std_periph_driver/src/n32g430_gpio.c ****             GPIOC->DS |= (GPIO_DRIVER_8MA << (position * MULTIPLIER_FACTOR_2));  
 463              		.loc 1 278 43 view .LVU161
 464 0010 4FF0040E 		mov	lr, #4
 465              	.LVL19:
 466              	.L46:
 255:../firmware/n32g430_std_periph_driver/src/n32g430_gpio.c ****     {
 467              		.loc 1 255 29 is_stmt 1 view .LVU162
 468 0014 50FA02F1 		asrs	r1, r0, r2
 469 0018 01D1     		bne	.L48
 279:../firmware/n32g430_std_periph_driver/src/n32g430_gpio.c ****         }
 280:../firmware/n32g430_std_periph_driver/src/n32g430_gpio.c ****         position++;
 281:../firmware/n32g430_std_periph_driver/src/n32g430_gpio.c ****     }
 282:../firmware/n32g430_std_periph_driver/src/n32g430_gpio.c **** }
 470              		.loc 1 282 1 is_stmt 0 view .LVU163
 471 001a BDE8F083 		pop	{r4, r5, r6, r7, r8, r9, pc}
 472              	.L48:
 258:../firmware/n32g430_std_periph_driver/src/n32g430_gpio.c **** 
 473              		.loc 1 258 9 is_stmt 1 view .LVU164
 474              	.LVL20:
 260:../firmware/n32g430_std_periph_driver/src/n32g430_gpio.c ****         {
 475              		.loc 1 260 9 view .LVU165
 258:../firmware/n32g430_std_periph_driver/src/n32g430_gpio.c **** 
 476              		.loc 1 258 49 is_stmt 0 view .LVU166
 477 001e 06FA02F4 		lsl	r4, r6, r2
 260:../firmware/n32g430_std_periph_driver/src/n32g430_gpio.c ****         {
 478              		.loc 1 260 11 view .LVU167
 479 0022 0442     		tst	r4, r0
 480 0024 20D0     		beq	.L47
 263:../firmware/n32g430_std_periph_driver/src/n32g430_gpio.c **** 
 481              		.loc 1 263 13 is_stmt 1 view .LVU168
 263:../firmware/n32g430_std_periph_driver/src/n32g430_gpio.c **** 
 482              		.loc 1 263 18 is_stmt 0 view .LVU169
 483 0026 1D68     		ldr	r5, [r3]
 484 0028 5100     		lsls	r1, r2, #1
 263:../firmware/n32g430_std_periph_driver/src/n32g430_gpio.c **** 
 485              		.loc 1 263 47 view .LVU170
 486 002a 07FA01F8 		lsl	r8, r7, r1
 263:../firmware/n32g430_std_periph_driver/src/n32g430_gpio.c **** 
 487              		.loc 1 263 26 view .LVU171
 488 002e 45EA0805 		orr	r5, r5, r8
 489 0032 1D60     		str	r5, [r3]
 266:../firmware/n32g430_std_periph_driver/src/n32g430_gpio.c **** 
 490              		.loc 1 266 13 is_stmt 1 view .LVU172
 266:../firmware/n32g430_std_periph_driver/src/n32g430_gpio.c **** 
 491              		.loc 1 266 56 is_stmt 0 view .LVU173
 492 0034 02F00705 		and	r5, r2, #7
 266:../firmware/n32g430_std_periph_driver/src/n32g430_gpio.c **** 
 493              		.loc 1 266 18 view .LVU174
 494 0038 D3F82490 		ldr	r9, [r3, #36]
 266:../firmware/n32g430_std_periph_driver/src/n32g430_gpio.c **** 
ARM GAS  C:\Users\Dawn\AppData\Local\Temp\cccrm2KO.s 			page 17


 495              		.loc 1 266 92 view .LVU175
 496 003c AD00     		lsls	r5, r5, #2
 266:../firmware/n32g430_std_periph_driver/src/n32g430_gpio.c **** 
 497              		.loc 1 266 42 view .LVU176
 498 003e 0CFA05F5 		lsl	r5, ip, r5
 266:../firmware/n32g430_std_periph_driver/src/n32g430_gpio.c **** 
 499              		.loc 1 266 24 view .LVU177
 500 0042 29EA0505 		bic	r5, r9, r5
 501 0046 5D62     		str	r5, [r3, #36]
 269:../firmware/n32g430_std_periph_driver/src/n32g430_gpio.c **** 
 502              		.loc 1 269 13 is_stmt 1 view .LVU178
 269:../firmware/n32g430_std_periph_driver/src/n32g430_gpio.c **** 
 503              		.loc 1 269 18 is_stmt 0 view .LVU179
 504 0048 5D68     		ldr	r5, [r3, #4]
 269:../firmware/n32g430_std_periph_driver/src/n32g430_gpio.c **** 
 505              		.loc 1 269 27 view .LVU180
 506 004a 25EA0405 		bic	r5, r5, r4
 507 004e 5D60     		str	r5, [r3, #4]
 272:../firmware/n32g430_std_periph_driver/src/n32g430_gpio.c **** 
 508              		.loc 1 272 13 is_stmt 1 view .LVU181
 272:../firmware/n32g430_std_periph_driver/src/n32g430_gpio.c **** 
 509              		.loc 1 272 18 is_stmt 0 view .LVU182
 510 0050 DD68     		ldr	r5, [r3, #12]
 272:../firmware/n32g430_std_periph_driver/src/n32g430_gpio.c **** 
 511              		.loc 1 272 25 view .LVU183
 512 0052 25EA0805 		bic	r5, r5, r8
 513 0056 DD60     		str	r5, [r3, #12]
 275:../firmware/n32g430_std_periph_driver/src/n32g430_gpio.c **** 
 514              		.loc 1 275 13 is_stmt 1 view .LVU184
 275:../firmware/n32g430_std_periph_driver/src/n32g430_gpio.c **** 
 515              		.loc 1 275 18 is_stmt 0 view .LVU185
 516 0058 9D68     		ldr	r5, [r3, #8]
 275:../firmware/n32g430_std_periph_driver/src/n32g430_gpio.c **** 
 517              		.loc 1 275 23 view .LVU186
 518 005a 2C43     		orrs	r4, r4, r5
 519 005c 9C60     		str	r4, [r3, #8]
 278:../firmware/n32g430_std_periph_driver/src/n32g430_gpio.c ****         }
 520              		.loc 1 278 13 is_stmt 1 view .LVU187
 278:../firmware/n32g430_std_periph_driver/src/n32g430_gpio.c ****         }
 521              		.loc 1 278 18 is_stmt 0 view .LVU188
 522 005e DC6A     		ldr	r4, [r3, #44]
 278:../firmware/n32g430_std_periph_driver/src/n32g430_gpio.c ****         }
 523              		.loc 1 278 43 view .LVU189
 524 0060 0EFA01F1 		lsl	r1, lr, r1
 278:../firmware/n32g430_std_periph_driver/src/n32g430_gpio.c ****         }
 525              		.loc 1 278 23 view .LVU190
 526 0064 2143     		orrs	r1, r1, r4
 527 0066 D962     		str	r1, [r3, #44]
 528              	.L47:
 280:../firmware/n32g430_std_periph_driver/src/n32g430_gpio.c ****     }
 529              		.loc 1 280 9 is_stmt 1 view .LVU191
 280:../firmware/n32g430_std_periph_driver/src/n32g430_gpio.c ****     }
 530              		.loc 1 280 17 is_stmt 0 view .LVU192
 531 0068 0132     		adds	r2, r2, #1
 532              	.LVL21:
 280:../firmware/n32g430_std_periph_driver/src/n32g430_gpio.c ****     }
 533              		.loc 1 280 17 view .LVU193
ARM GAS  C:\Users\Dawn\AppData\Local\Temp\cccrm2KO.s 			page 18


 534 006a D3E7     		b	.L46
 535              	.L53:
 536              		.align	2
 537              	.L52:
 538 006c 003C0240 		.word	1073888256
 539              		.cfi_endproc
 540              	.LFE133:
 542              		.section	.text.GPIOD_Pin_Reset,"ax",%progbits
 543              		.align	1
 544              		.global	GPIOD_Pin_Reset
 545              		.syntax unified
 546              		.thumb
 547              		.thumb_func
 549              	GPIOD_Pin_Reset:
 550              	.LVL22:
 551              	.LFB134:
 283:../firmware/n32g430_std_periph_driver/src/n32g430_gpio.c **** 
 284:../firmware/n32g430_std_periph_driver/src/n32g430_gpio.c **** 
 285:../firmware/n32g430_std_periph_driver/src/n32g430_gpio.c **** /**
 286:../firmware/n32g430_std_periph_driver/src/n32g430_gpio.c ****  *\*\name   GPIOD_Pin_Reset.
 287:../firmware/n32g430_std_periph_driver/src/n32g430_gpio.c ****  *\*\fun    Reset the GPIOD peripheral registers to it's default reset values.
 288:../firmware/n32g430_std_periph_driver/src/n32g430_gpio.c ****  *\*\param  pin :
 289:../firmware/n32g430_std_periph_driver/src/n32g430_gpio.c ****  *\*\          - GPIO_PIN_0
 290:../firmware/n32g430_std_periph_driver/src/n32g430_gpio.c ****  *\*\          - GPIO_PIN_12
 291:../firmware/n32g430_std_periph_driver/src/n32g430_gpio.c ****  *\*\          - GPIO_PIN_13
 292:../firmware/n32g430_std_periph_driver/src/n32g430_gpio.c ****  *\*\          - GPIO_PIN_14
 293:../firmware/n32g430_std_periph_driver/src/n32g430_gpio.c ****  *\*\          - GPIO_PIN_15
 294:../firmware/n32g430_std_periph_driver/src/n32g430_gpio.c ****  *\*\          - GPIO_PIN_ALL
 295:../firmware/n32g430_std_periph_driver/src/n32g430_gpio.c ****  *\*\return none
 296:../firmware/n32g430_std_periph_driver/src/n32g430_gpio.c ****  */
 297:../firmware/n32g430_std_periph_driver/src/n32g430_gpio.c **** void GPIOD_Pin_Reset(uint16_t pin)
 298:../firmware/n32g430_std_periph_driver/src/n32g430_gpio.c **** {
 552              		.loc 1 298 1 is_stmt 1 view -0
 553              		.cfi_startproc
 554              		@ args = 0, pretend = 0, frame = 0
 555              		@ frame_needed = 0, uses_anonymous_args = 0
 299:../firmware/n32g430_std_periph_driver/src/n32g430_gpio.c ****     uint32_t position = 0x00U;
 556              		.loc 1 299 5 view .LVU195
 300:../firmware/n32g430_std_periph_driver/src/n32g430_gpio.c ****     uint32_t current_pin = 0x00U;
 557              		.loc 1 300 5 view .LVU196
 301:../firmware/n32g430_std_periph_driver/src/n32g430_gpio.c **** 
 302:../firmware/n32g430_std_periph_driver/src/n32g430_gpio.c ****     while((pin >> position) != 0)
 558              		.loc 1 302 5 view .LVU197
 559 0000 244B     		ldr	r3, .L70
 298:../firmware/n32g430_std_periph_driver/src/n32g430_gpio.c ****     uint32_t position = 0x00U;
 560              		.loc 1 298 1 is_stmt 0 view .LVU198
 561 0002 2DE9F041 		push	{r4, r5, r6, r7, r8, lr}
 562              	.LCFI3:
 563              		.cfi_def_cfa_offset 24
 564              		.cfi_offset 4, -24
 565              		.cfi_offset 5, -20
 566              		.cfi_offset 6, -16
 567              		.cfi_offset 7, -12
 568              		.cfi_offset 8, -8
 569              		.cfi_offset 14, -4
 299:../firmware/n32g430_std_periph_driver/src/n32g430_gpio.c ****     uint32_t current_pin = 0x00U;
 570              		.loc 1 299 14 view .LVU199
ARM GAS  C:\Users\Dawn\AppData\Local\Temp\cccrm2KO.s 			page 19


 571 0006 0022     		movs	r2, #0
 303:../firmware/n32g430_std_periph_driver/src/n32g430_gpio.c ****     {
 304:../firmware/n32g430_std_periph_driver/src/n32g430_gpio.c ****         /* Get the IO position */
 305:../firmware/n32g430_std_periph_driver/src/n32g430_gpio.c ****         current_pin = (pin) & (IO_POSITION_MASK << position);
 572              		.loc 1 305 49 view .LVU200
 573 0008 0126     		movs	r6, #1
 306:../firmware/n32g430_std_periph_driver/src/n32g430_gpio.c **** 
 307:../firmware/n32g430_std_periph_driver/src/n32g430_gpio.c ****         if(current_pin)
 308:../firmware/n32g430_std_periph_driver/src/n32g430_gpio.c ****         {
 309:../firmware/n32g430_std_periph_driver/src/n32g430_gpio.c ****             if(position == GPIOD_MODE_POSITION)
 310:../firmware/n32g430_std_periph_driver/src/n32g430_gpio.c ****             {
 311:../firmware/n32g430_std_periph_driver/src/n32g430_gpio.c ****                 /* Configure IO Direction in analog Mode */
 312:../firmware/n32g430_std_periph_driver/src/n32g430_gpio.c ****                 GPIOD->PMODE |= (GPIO_INPUT_MODE << (position * MULTIPLIER_FACTOR_2));
 313:../firmware/n32g430_std_periph_driver/src/n32g430_gpio.c ****             }
 314:../firmware/n32g430_std_periph_driver/src/n32g430_gpio.c ****             else
 315:../firmware/n32g430_std_periph_driver/src/n32g430_gpio.c ****             {
 316:../firmware/n32g430_std_periph_driver/src/n32g430_gpio.c ****                 /* Configure IO Direction in analog Mode */
 317:../firmware/n32g430_std_periph_driver/src/n32g430_gpio.c ****                 GPIOD->PMODE |= (GPIO_ANALOG_MODE << (position * MULTIPLIER_FACTOR_2));
 318:../firmware/n32g430_std_periph_driver/src/n32g430_gpio.c ****             }
 319:../firmware/n32g430_std_periph_driver/src/n32g430_gpio.c **** 
 320:../firmware/n32g430_std_periph_driver/src/n32g430_gpio.c ****             /* Configure the default Alternate Function in current IO */
 321:../firmware/n32g430_std_periph_driver/src/n32g430_gpio.c ****             if(position & AF_SELECTION_MASK)
 322:../firmware/n32g430_std_periph_driver/src/n32g430_gpio.c ****             {
 323:../firmware/n32g430_std_periph_driver/src/n32g430_gpio.c ****                 GPIOD->AFH &= ~(GPIO_AF_MASK << ((position & (uint32_t)AF_WRITE_POSITION_MASK) * MU
 574              		.loc 1 323 46 view .LVU201
 575 000a 4FF00F0C 		mov	ip, #15
 324:../firmware/n32g430_std_periph_driver/src/n32g430_gpio.c ****             }
 325:../firmware/n32g430_std_periph_driver/src/n32g430_gpio.c ****             else
 326:../firmware/n32g430_std_periph_driver/src/n32g430_gpio.c ****             {
 327:../firmware/n32g430_std_periph_driver/src/n32g430_gpio.c ****                 GPIOD->AFL &= ~(GPIO_AF_MASK << ((position & (uint32_t)AF_WRITE_POSITION_MASK) * MU
 328:../firmware/n32g430_std_periph_driver/src/n32g430_gpio.c ****             }
 329:../firmware/n32g430_std_periph_driver/src/n32g430_gpio.c **** 
 330:../firmware/n32g430_std_periph_driver/src/n32g430_gpio.c ****             /* Reset GPIO output type to push-pull output */
 331:../firmware/n32g430_std_periph_driver/src/n32g430_gpio.c ****             GPIOD->POTYPE &= ~(GPIO_POTYPE_MASK << position);
 332:../firmware/n32g430_std_periph_driver/src/n32g430_gpio.c **** 
 333:../firmware/n32g430_std_periph_driver/src/n32g430_gpio.c ****             if(position == GPIOD_PUPD_POSITION1)
 334:../firmware/n32g430_std_periph_driver/src/n32g430_gpio.c ****             {
 335:../firmware/n32g430_std_periph_driver/src/n32g430_gpio.c ****                 /* Reset the GPIO pull mode to pull-down */
 336:../firmware/n32g430_std_periph_driver/src/n32g430_gpio.c ****                 GPIOD->PUPD |= (GPIO_PD_MODE << (position * MULTIPLIER_FACTOR_2));  
 337:../firmware/n32g430_std_periph_driver/src/n32g430_gpio.c ****             }
 338:../firmware/n32g430_std_periph_driver/src/n32g430_gpio.c ****             else if(position >= GPIOD_PUPD_POSITION2)
 339:../firmware/n32g430_std_periph_driver/src/n32g430_gpio.c ****             {
 340:../firmware/n32g430_std_periph_driver/src/n32g430_gpio.c ****                 /* Reset the GPIO pull mode to no-pull */
 341:../firmware/n32g430_std_periph_driver/src/n32g430_gpio.c ****                 GPIOD->PUPD &= ~(GPIO_PUPD_MASK << (position * MULTIPLIER_FACTOR_2));  
 342:../firmware/n32g430_std_periph_driver/src/n32g430_gpio.c ****             }
 343:../firmware/n32g430_std_periph_driver/src/n32g430_gpio.c ****             
 344:../firmware/n32g430_std_periph_driver/src/n32g430_gpio.c ****             /* Reset the GPIO slew rate to slow */
 345:../firmware/n32g430_std_periph_driver/src/n32g430_gpio.c ****             GPIOD->SR |= (GPIO_SR_SLOW << position);  
 346:../firmware/n32g430_std_periph_driver/src/n32g430_gpio.c **** 
 347:../firmware/n32g430_std_periph_driver/src/n32g430_gpio.c ****             /* Reset the GPIO driver strength to 8 mA */
 348:../firmware/n32g430_std_periph_driver/src/n32g430_gpio.c ****             GPIOD->DS |= (GPIO_DRIVER_8MA << (position * MULTIPLIER_FACTOR_2)); 
 576              		.loc 1 348 43 view .LVU202
 577 000e 4FF0040E 		mov	lr, #4
 341:../firmware/n32g430_std_periph_driver/src/n32g430_gpio.c ****             }
 578              		.loc 1 341 49 view .LVU203
 579 0012 0327     		movs	r7, #3
 580              	.LVL23:
ARM GAS  C:\Users\Dawn\AppData\Local\Temp\cccrm2KO.s 			page 20


 581              	.L55:
 302:../firmware/n32g430_std_periph_driver/src/n32g430_gpio.c ****     {
 582              		.loc 1 302 29 is_stmt 1 view .LVU204
 583 0014 50FA02F1 		asrs	r1, r0, r2
 584 0018 01D1     		bne	.L62
 349:../firmware/n32g430_std_periph_driver/src/n32g430_gpio.c ****         }
 350:../firmware/n32g430_std_periph_driver/src/n32g430_gpio.c ****         position++;
 351:../firmware/n32g430_std_periph_driver/src/n32g430_gpio.c ****     } 
 352:../firmware/n32g430_std_periph_driver/src/n32g430_gpio.c **** }
 585              		.loc 1 352 1 is_stmt 0 view .LVU205
 586 001a BDE8F081 		pop	{r4, r5, r6, r7, r8, pc}
 587              	.L62:
 305:../firmware/n32g430_std_periph_driver/src/n32g430_gpio.c **** 
 588              		.loc 1 305 9 is_stmt 1 view .LVU206
 589              	.LVL24:
 307:../firmware/n32g430_std_periph_driver/src/n32g430_gpio.c ****         {
 590              		.loc 1 307 9 view .LVU207
 305:../firmware/n32g430_std_periph_driver/src/n32g430_gpio.c **** 
 591              		.loc 1 305 49 is_stmt 0 view .LVU208
 592 001e 06FA02F1 		lsl	r1, r6, r2
 307:../firmware/n32g430_std_periph_driver/src/n32g430_gpio.c ****         {
 593              		.loc 1 307 11 view .LVU209
 594 0022 0142     		tst	r1, r0
 595 0024 2CD0     		beq	.L56
 309:../firmware/n32g430_std_periph_driver/src/n32g430_gpio.c ****             {
 596              		.loc 1 309 13 is_stmt 1 view .LVU210
 323:../firmware/n32g430_std_periph_driver/src/n32g430_gpio.c ****             }
 597              		.loc 1 323 60 is_stmt 0 view .LVU211
 598 0026 02F00704 		and	r4, r2, #7
 323:../firmware/n32g430_std_periph_driver/src/n32g430_gpio.c ****             }
 599              		.loc 1 323 96 view .LVU212
 600 002a A400     		lsls	r4, r4, #2
 323:../firmware/n32g430_std_periph_driver/src/n32g430_gpio.c ****             }
 601              		.loc 1 323 46 view .LVU213
 602 002c 0CFA04F4 		lsl	r4, ip, r4
 603 0030 5500     		lsls	r5, r2, #1
 323:../firmware/n32g430_std_periph_driver/src/n32g430_gpio.c ****             }
 604              		.loc 1 323 31 view .LVU214
 605 0032 E143     		mvns	r1, r4
 309:../firmware/n32g430_std_periph_driver/src/n32g430_gpio.c ****             {
 606              		.loc 1 309 15 view .LVU215
 607 0034 2AB9     		cbnz	r2, .L57
 312:../firmware/n32g430_std_periph_driver/src/n32g430_gpio.c ****             }
 608              		.loc 1 312 17 is_stmt 1 view .LVU216
 312:../firmware/n32g430_std_periph_driver/src/n32g430_gpio.c ****             }
 609              		.loc 1 312 22 is_stmt 0 view .LVU217
 610 0036 1C68     		ldr	r4, [r3]
 312:../firmware/n32g430_std_periph_driver/src/n32g430_gpio.c ****             }
 611              		.loc 1 312 30 view .LVU218
 612 0038 1C60     		str	r4, [r3]
 321:../firmware/n32g430_std_periph_driver/src/n32g430_gpio.c ****             {
 613              		.loc 1 321 13 is_stmt 1 view .LVU219
 614              	.L58:
 327:../firmware/n32g430_std_periph_driver/src/n32g430_gpio.c ****             }
 615              		.loc 1 327 17 view .LVU220
 327:../firmware/n32g430_std_periph_driver/src/n32g430_gpio.c ****             }
 616              		.loc 1 327 22 is_stmt 0 view .LVU221
ARM GAS  C:\Users\Dawn\AppData\Local\Temp\cccrm2KO.s 			page 21


 617 003a 1C6A     		ldr	r4, [r3, #32]
 327:../firmware/n32g430_std_periph_driver/src/n32g430_gpio.c ****             }
 618              		.loc 1 327 28 view .LVU222
 619 003c 2140     		ands	r1, r1, r4
 620 003e 1962     		str	r1, [r3, #32]
 621 0040 0BE0     		b	.L59
 622              	.L57:
 317:../firmware/n32g430_std_periph_driver/src/n32g430_gpio.c ****             }
 623              		.loc 1 317 17 is_stmt 1 view .LVU223
 317:../firmware/n32g430_std_periph_driver/src/n32g430_gpio.c ****             }
 624              		.loc 1 317 22 is_stmt 0 view .LVU224
 625 0042 D3F80080 		ldr	r8, [r3]
 317:../firmware/n32g430_std_periph_driver/src/n32g430_gpio.c ****             }
 626              		.loc 1 317 51 view .LVU225
 627 0046 07FA05F4 		lsl	r4, r7, r5
 317:../firmware/n32g430_std_periph_driver/src/n32g430_gpio.c ****             }
 628              		.loc 1 317 30 view .LVU226
 629 004a 44EA0804 		orr	r4, r4, r8
 630 004e 1C60     		str	r4, [r3]
 321:../firmware/n32g430_std_periph_driver/src/n32g430_gpio.c ****             {
 631              		.loc 1 321 13 is_stmt 1 view .LVU227
 321:../firmware/n32g430_std_periph_driver/src/n32g430_gpio.c ****             {
 632              		.loc 1 321 15 is_stmt 0 view .LVU228
 633 0050 1407     		lsls	r4, r2, #28
 634 0052 F2D5     		bpl	.L58
 323:../firmware/n32g430_std_periph_driver/src/n32g430_gpio.c ****             }
 635              		.loc 1 323 17 is_stmt 1 view .LVU229
 323:../firmware/n32g430_std_periph_driver/src/n32g430_gpio.c ****             }
 636              		.loc 1 323 22 is_stmt 0 view .LVU230
 637 0054 5C6A     		ldr	r4, [r3, #36]
 323:../firmware/n32g430_std_periph_driver/src/n32g430_gpio.c ****             }
 638              		.loc 1 323 28 view .LVU231
 639 0056 2140     		ands	r1, r1, r4
 640 0058 5962     		str	r1, [r3, #36]
 641              	.L59:
 331:../firmware/n32g430_std_periph_driver/src/n32g430_gpio.c **** 
 642              		.loc 1 331 13 is_stmt 1 view .LVU232
 331:../firmware/n32g430_std_periph_driver/src/n32g430_gpio.c **** 
 643              		.loc 1 331 18 is_stmt 0 view .LVU233
 644 005a 5C68     		ldr	r4, [r3, #4]
 331:../firmware/n32g430_std_periph_driver/src/n32g430_gpio.c **** 
 645              		.loc 1 331 49 view .LVU234
 646 005c 06FA02F1 		lsl	r1, r6, r2
 331:../firmware/n32g430_std_periph_driver/src/n32g430_gpio.c **** 
 647              		.loc 1 331 27 view .LVU235
 648 0060 24EA0104 		bic	r4, r4, r1
 649 0064 5C60     		str	r4, [r3, #4]
 333:../firmware/n32g430_std_periph_driver/src/n32g430_gpio.c ****             {
 650              		.loc 1 333 13 is_stmt 1 view .LVU236
 333:../firmware/n32g430_std_periph_driver/src/n32g430_gpio.c ****             {
 651              		.loc 1 333 15 is_stmt 0 view .LVU237
 652 0066 6AB9     		cbnz	r2, .L60
 336:../firmware/n32g430_std_periph_driver/src/n32g430_gpio.c ****             }
 653              		.loc 1 336 17 is_stmt 1 view .LVU238
 336:../firmware/n32g430_std_periph_driver/src/n32g430_gpio.c ****             }
 654              		.loc 1 336 22 is_stmt 0 view .LVU239
 655 0068 DC68     		ldr	r4, [r3, #12]
ARM GAS  C:\Users\Dawn\AppData\Local\Temp\cccrm2KO.s 			page 22


 336:../firmware/n32g430_std_periph_driver/src/n32g430_gpio.c ****             }
 656              		.loc 1 336 29 view .LVU240
 657 006a 44F00204 		orr	r4, r4, #2
 658              	.L69:
 341:../firmware/n32g430_std_periph_driver/src/n32g430_gpio.c ****             }
 659              		.loc 1 341 29 view .LVU241
 660 006e DC60     		str	r4, [r3, #12]
 661              	.L61:
 345:../firmware/n32g430_std_periph_driver/src/n32g430_gpio.c **** 
 662              		.loc 1 345 13 is_stmt 1 view .LVU242
 345:../firmware/n32g430_std_periph_driver/src/n32g430_gpio.c **** 
 663              		.loc 1 345 18 is_stmt 0 view .LVU243
 664 0070 9C68     		ldr	r4, [r3, #8]
 345:../firmware/n32g430_std_periph_driver/src/n32g430_gpio.c **** 
 665              		.loc 1 345 23 view .LVU244
 666 0072 2143     		orrs	r1, r1, r4
 667 0074 9960     		str	r1, [r3, #8]
 348:../firmware/n32g430_std_periph_driver/src/n32g430_gpio.c ****         }
 668              		.loc 1 348 13 is_stmt 1 view .LVU245
 348:../firmware/n32g430_std_periph_driver/src/n32g430_gpio.c ****         }
 669              		.loc 1 348 18 is_stmt 0 view .LVU246
 670 0076 DC6A     		ldr	r4, [r3, #44]
 348:../firmware/n32g430_std_periph_driver/src/n32g430_gpio.c ****         }
 671              		.loc 1 348 43 view .LVU247
 672 0078 0EFA05F1 		lsl	r1, lr, r5
 348:../firmware/n32g430_std_periph_driver/src/n32g430_gpio.c ****         }
 673              		.loc 1 348 23 view .LVU248
 674 007c 2143     		orrs	r1, r1, r4
 675 007e D962     		str	r1, [r3, #44]
 676              	.L56:
 350:../firmware/n32g430_std_periph_driver/src/n32g430_gpio.c ****     } 
 677              		.loc 1 350 9 is_stmt 1 view .LVU249
 350:../firmware/n32g430_std_periph_driver/src/n32g430_gpio.c ****     } 
 678              		.loc 1 350 17 is_stmt 0 view .LVU250
 679 0080 0132     		adds	r2, r2, #1
 680              	.LVL25:
 350:../firmware/n32g430_std_periph_driver/src/n32g430_gpio.c ****     } 
 681              		.loc 1 350 17 view .LVU251
 682 0082 C7E7     		b	.L55
 683              	.LVL26:
 684              	.L60:
 338:../firmware/n32g430_std_periph_driver/src/n32g430_gpio.c ****             {
 685              		.loc 1 338 18 is_stmt 1 view .LVU252
 338:../firmware/n32g430_std_periph_driver/src/n32g430_gpio.c ****             {
 686              		.loc 1 338 20 is_stmt 0 view .LVU253
 687 0084 0B2A     		cmp	r2, #11
 688 0086 F3D9     		bls	.L61
 341:../firmware/n32g430_std_periph_driver/src/n32g430_gpio.c ****             }
 689              		.loc 1 341 17 is_stmt 1 view .LVU254
 341:../firmware/n32g430_std_periph_driver/src/n32g430_gpio.c ****             }
 690              		.loc 1 341 22 is_stmt 0 view .LVU255
 691 0088 DC68     		ldr	r4, [r3, #12]
 341:../firmware/n32g430_std_periph_driver/src/n32g430_gpio.c ****             }
 692              		.loc 1 341 49 view .LVU256
 693 008a 07FA05F8 		lsl	r8, r7, r5
 341:../firmware/n32g430_std_periph_driver/src/n32g430_gpio.c ****             }
 694              		.loc 1 341 29 view .LVU257
ARM GAS  C:\Users\Dawn\AppData\Local\Temp\cccrm2KO.s 			page 23


 695 008e 24EA0804 		bic	r4, r4, r8
 696 0092 ECE7     		b	.L69
 697              	.L71:
 698              		.align	2
 699              	.L70:
 700 0094 00400240 		.word	1073889280
 701              		.cfi_endproc
 702              	.LFE134:
 704              		.section	.text.AFIO_EXTI_Reset,"ax",%progbits
 705              		.align	1
 706              		.global	AFIO_EXTI_Reset
 707              		.syntax unified
 708              		.thumb
 709              		.thumb_func
 711              	AFIO_EXTI_Reset:
 712              	.LVL27:
 713              	.LFB135:
 353:../firmware/n32g430_std_periph_driver/src/n32g430_gpio.c **** 
 354:../firmware/n32g430_std_periph_driver/src/n32g430_gpio.c **** /**
 355:../firmware/n32g430_std_periph_driver/src/n32g430_gpio.c ****  *\*\name   AFIO_Mode_Reset.
 356:../firmware/n32g430_std_periph_driver/src/n32g430_gpio.c ****  *\*\fun    Reset the AFIO mode.
 357:../firmware/n32g430_std_periph_driver/src/n32g430_gpio.c ****  *\*\param  EXTI_line :
 358:../firmware/n32g430_std_periph_driver/src/n32g430_gpio.c ****  *\*\          - EXTI_LINE_0   
 359:../firmware/n32g430_std_periph_driver/src/n32g430_gpio.c ****  *\*\          - EXTI_LINE_1   
 360:../firmware/n32g430_std_periph_driver/src/n32g430_gpio.c ****  *\*\          - EXTI_LINE_2   
 361:../firmware/n32g430_std_periph_driver/src/n32g430_gpio.c ****  *\*\          - EXTI_LINE_3   
 362:../firmware/n32g430_std_periph_driver/src/n32g430_gpio.c ****  *\*\          - EXTI_LINE_4   
 363:../firmware/n32g430_std_periph_driver/src/n32g430_gpio.c ****  *\*\          - EXTI_LINE_5   
 364:../firmware/n32g430_std_periph_driver/src/n32g430_gpio.c ****  *\*\          - EXTI_LINE_6   
 365:../firmware/n32g430_std_periph_driver/src/n32g430_gpio.c ****  *\*\          - EXTI_LINE_7   
 366:../firmware/n32g430_std_periph_driver/src/n32g430_gpio.c ****  *\*\          - EXTI_LINE_8   
 367:../firmware/n32g430_std_periph_driver/src/n32g430_gpio.c ****  *\*\          - EXTI_LINE_9   
 368:../firmware/n32g430_std_periph_driver/src/n32g430_gpio.c ****  *\*\          - EXTI_LINE_10  
 369:../firmware/n32g430_std_periph_driver/src/n32g430_gpio.c ****  *\*\          - EXTI_LINE_11  
 370:../firmware/n32g430_std_periph_driver/src/n32g430_gpio.c ****  *\*\          - EXTI_LINE_12  
 371:../firmware/n32g430_std_periph_driver/src/n32g430_gpio.c ****  *\*\          - EXTI_LINE_13  
 372:../firmware/n32g430_std_periph_driver/src/n32g430_gpio.c ****  *\*\          - EXTI_LINE_14  
 373:../firmware/n32g430_std_periph_driver/src/n32g430_gpio.c ****  *\*\          - EXTI_LINE_15  
 374:../firmware/n32g430_std_periph_driver/src/n32g430_gpio.c ****  *\*\          - EXTI_LINE_ALL 
 375:../firmware/n32g430_std_periph_driver/src/n32g430_gpio.c ****  *\*\return none
 376:../firmware/n32g430_std_periph_driver/src/n32g430_gpio.c ****  */
 377:../firmware/n32g430_std_periph_driver/src/n32g430_gpio.c **** void AFIO_EXTI_Reset(uint16_t EXTI_line)
 378:../firmware/n32g430_std_periph_driver/src/n32g430_gpio.c **** {
 714              		.loc 1 378 1 is_stmt 1 view -0
 715              		.cfi_startproc
 716              		@ args = 0, pretend = 0, frame = 0
 717              		@ frame_needed = 0, uses_anonymous_args = 0
 379:../firmware/n32g430_std_periph_driver/src/n32g430_gpio.c ****     uint32_t temp_value = 0x00U;
 718              		.loc 1 379 5 view .LVU259
 380:../firmware/n32g430_std_periph_driver/src/n32g430_gpio.c ****     uint32_t position = 0x00U;
 719              		.loc 1 380 5 view .LVU260
 381:../firmware/n32g430_std_periph_driver/src/n32g430_gpio.c ****     uint32_t current_line = 0x00U;
 720              		.loc 1 381 5 view .LVU261
 382:../firmware/n32g430_std_periph_driver/src/n32g430_gpio.c **** 
 383:../firmware/n32g430_std_periph_driver/src/n32g430_gpio.c ****     while((EXTI_line >> position) != 0)
 721              		.loc 1 383 5 view .LVU262
 378:../firmware/n32g430_std_periph_driver/src/n32g430_gpio.c ****     uint32_t temp_value = 0x00U;
ARM GAS  C:\Users\Dawn\AppData\Local\Temp\cccrm2KO.s 			page 24


 722              		.loc 1 378 1 is_stmt 0 view .LVU263
 723 0000 70B5     		push	{r4, r5, r6, lr}
 724              	.LCFI4:
 725              		.cfi_def_cfa_offset 16
 726              		.cfi_offset 4, -16
 727              		.cfi_offset 5, -12
 728              		.cfi_offset 6, -8
 729              		.cfi_offset 14, -4
 380:../firmware/n32g430_std_periph_driver/src/n32g430_gpio.c ****     uint32_t current_line = 0x00U;
 730              		.loc 1 380 14 view .LVU264
 731 0002 0023     		movs	r3, #0
 384:../firmware/n32g430_std_periph_driver/src/n32g430_gpio.c ****     {
 385:../firmware/n32g430_std_periph_driver/src/n32g430_gpio.c ****         /* Get the IO position */
 386:../firmware/n32g430_std_periph_driver/src/n32g430_gpio.c ****         current_line = (EXTI_line) & (IO_POSITION_MASK << position);
 732              		.loc 1 386 56 view .LVU265
 733 0004 0125     		movs	r5, #1
 387:../firmware/n32g430_std_periph_driver/src/n32g430_gpio.c **** 
 388:../firmware/n32g430_std_periph_driver/src/n32g430_gpio.c ****         if(current_line)
 389:../firmware/n32g430_std_periph_driver/src/n32g430_gpio.c ****         {
 390:../firmware/n32g430_std_periph_driver/src/n32g430_gpio.c ****             temp_value = (AFIO_EXTICFG_MASK << ((position & (uint32_t)AFIO_EXTI_POSITION_MASK) * MU
 734              		.loc 1 390 24 view .LVU266
 735 0006 FF26     		movs	r6, #255
 736              	.LVL28:
 737              	.L73:
 383:../firmware/n32g430_std_periph_driver/src/n32g430_gpio.c ****     {
 738              		.loc 1 383 35 is_stmt 1 view .LVU267
 739 0008 50FA03F2 		asrs	r2, r0, r3
 740 000c 00D1     		bne	.L75
 391:../firmware/n32g430_std_periph_driver/src/n32g430_gpio.c ****             AFIO->EXTI_CFG[position >> SHIFT_EXTI] &= ~temp_value;
 392:../firmware/n32g430_std_periph_driver/src/n32g430_gpio.c ****         }
 393:../firmware/n32g430_std_periph_driver/src/n32g430_gpio.c ****         position++;
 394:../firmware/n32g430_std_periph_driver/src/n32g430_gpio.c ****     }
 395:../firmware/n32g430_std_periph_driver/src/n32g430_gpio.c **** }
 741              		.loc 1 395 1 is_stmt 0 view .LVU268
 742 000e 70BD     		pop	{r4, r5, r6, pc}
 743              	.L75:
 386:../firmware/n32g430_std_periph_driver/src/n32g430_gpio.c **** 
 744              		.loc 1 386 9 is_stmt 1 view .LVU269
 745              	.LVL29:
 388:../firmware/n32g430_std_periph_driver/src/n32g430_gpio.c ****         {
 746              		.loc 1 388 9 view .LVU270
 386:../firmware/n32g430_std_periph_driver/src/n32g430_gpio.c **** 
 747              		.loc 1 386 56 is_stmt 0 view .LVU271
 748 0010 05FA03F2 		lsl	r2, r5, r3
 388:../firmware/n32g430_std_periph_driver/src/n32g430_gpio.c ****         {
 749              		.loc 1 388 11 view .LVU272
 750 0014 0242     		tst	r2, r0
 751 0016 0ED0     		beq	.L74
 390:../firmware/n32g430_std_periph_driver/src/n32g430_gpio.c ****             AFIO->EXTI_CFG[position >> SHIFT_EXTI] &= ~temp_value;
 752              		.loc 1 390 13 is_stmt 1 view .LVU273
 753              	.LVL30:
 391:../firmware/n32g430_std_periph_driver/src/n32g430_gpio.c ****         }
 754              		.loc 1 391 13 view .LVU274
 755 0018 23F00302 		bic	r2, r3, #3
 756 001c 02F18042 		add	r2, r2, #1073741824
 757 0020 02F58032 		add	r2, r2, #65536
 390:../firmware/n32g430_std_periph_driver/src/n32g430_gpio.c ****             AFIO->EXTI_CFG[position >> SHIFT_EXTI] &= ~temp_value;
ARM GAS  C:\Users\Dawn\AppData\Local\Temp\cccrm2KO.s 			page 25


 758              		.loc 1 390 59 is_stmt 0 view .LVU275
 759 0024 03F00301 		and	r1, r3, #3
 391:../firmware/n32g430_std_periph_driver/src/n32g430_gpio.c ****         }
 760              		.loc 1 391 27 view .LVU276
 761 0028 5468     		ldr	r4, [r2, #4]
 390:../firmware/n32g430_std_periph_driver/src/n32g430_gpio.c ****             AFIO->EXTI_CFG[position >> SHIFT_EXTI] &= ~temp_value;
 762              		.loc 1 390 96 view .LVU277
 763 002a C900     		lsls	r1, r1, #3
 390:../firmware/n32g430_std_periph_driver/src/n32g430_gpio.c ****             AFIO->EXTI_CFG[position >> SHIFT_EXTI] &= ~temp_value;
 764              		.loc 1 390 24 view .LVU278
 765 002c 06FA01F1 		lsl	r1, r6, r1
 391:../firmware/n32g430_std_periph_driver/src/n32g430_gpio.c ****         }
 766              		.loc 1 391 52 view .LVU279
 767 0030 24EA0101 		bic	r1, r4, r1
 768 0034 5160     		str	r1, [r2, #4]
 769              	.LVL31:
 770              	.L74:
 393:../firmware/n32g430_std_periph_driver/src/n32g430_gpio.c ****     }
 771              		.loc 1 393 9 is_stmt 1 view .LVU280
 393:../firmware/n32g430_std_periph_driver/src/n32g430_gpio.c ****     }
 772              		.loc 1 393 17 is_stmt 0 view .LVU281
 773 0036 0133     		adds	r3, r3, #1
 774              	.LVL32:
 393:../firmware/n32g430_std_periph_driver/src/n32g430_gpio.c ****     }
 775              		.loc 1 393 17 view .LVU282
 776 0038 E6E7     		b	.L73
 777              		.cfi_endproc
 778              	.LFE135:
 780              		.section	.text.GPIO_ALLPin_Reset,"ax",%progbits
 781              		.align	1
 782              		.global	GPIO_ALLPin_Reset
 783              		.syntax unified
 784              		.thumb
 785              		.thumb_func
 787              	GPIO_ALLPin_Reset:
 788              	.LFB136:
 396:../firmware/n32g430_std_periph_driver/src/n32g430_gpio.c **** 
 397:../firmware/n32g430_std_periph_driver/src/n32g430_gpio.c **** 
 398:../firmware/n32g430_std_periph_driver/src/n32g430_gpio.c **** 
 399:../firmware/n32g430_std_periph_driver/src/n32g430_gpio.c **** /**
 400:../firmware/n32g430_std_periph_driver/src/n32g430_gpio.c ****  *\*\name   GPIO_ALLPin_Reset.
 401:../firmware/n32g430_std_periph_driver/src/n32g430_gpio.c ****  *\*\fun    Reset the GPIOx peripheral registers to their default reset values.
 402:../firmware/n32g430_std_periph_driver/src/n32g430_gpio.c ****  *\*\param  none
 403:../firmware/n32g430_std_periph_driver/src/n32g430_gpio.c ****  *\*\return none
 404:../firmware/n32g430_std_periph_driver/src/n32g430_gpio.c ****  */
 405:../firmware/n32g430_std_periph_driver/src/n32g430_gpio.c **** void GPIO_ALLPin_Reset(void) 
 406:../firmware/n32g430_std_periph_driver/src/n32g430_gpio.c **** {
 789              		.loc 1 406 1 is_stmt 1 view -0
 790              		.cfi_startproc
 791              		@ args = 0, pretend = 0, frame = 0
 792              		@ frame_needed = 0, uses_anonymous_args = 0
 407:../firmware/n32g430_std_periph_driver/src/n32g430_gpio.c ****     /* Reset all pins on the GPIOA peripheral */
 408:../firmware/n32g430_std_periph_driver/src/n32g430_gpio.c ****     GPIOA_Pin_Reset(GPIO_PIN_ALL);
 793              		.loc 1 408 5 view .LVU284
 406:../firmware/n32g430_std_periph_driver/src/n32g430_gpio.c ****     /* Reset all pins on the GPIOA peripheral */
 794              		.loc 1 406 1 is_stmt 0 view .LVU285
 795 0000 08B5     		push	{r3, lr}
ARM GAS  C:\Users\Dawn\AppData\Local\Temp\cccrm2KO.s 			page 26


 796              	.LCFI5:
 797              		.cfi_def_cfa_offset 8
 798              		.cfi_offset 3, -8
 799              		.cfi_offset 14, -4
 800              		.loc 1 408 5 view .LVU286
 801 0002 4FF6FF70 		movw	r0, #65535
 802 0006 FFF7FEFF 		bl	GPIOA_Pin_Reset
 803              	.LVL33:
 409:../firmware/n32g430_std_periph_driver/src/n32g430_gpio.c **** 
 410:../firmware/n32g430_std_periph_driver/src/n32g430_gpio.c ****     /* Reset all pins on the GPIOB peripheral */
 411:../firmware/n32g430_std_periph_driver/src/n32g430_gpio.c ****     GPIOB_Pin_Reset(GPIO_PIN_ALL);
 804              		.loc 1 411 5 is_stmt 1 view .LVU287
 805 000a FFF7FEFF 		bl	GPIOB_Pin_Reset
 806              	.LVL34:
 412:../firmware/n32g430_std_periph_driver/src/n32g430_gpio.c **** 
 413:../firmware/n32g430_std_periph_driver/src/n32g430_gpio.c ****     /* Reset all pins on the GPIOC peripheral */
 414:../firmware/n32g430_std_periph_driver/src/n32g430_gpio.c ****     GPIOC_Pin_Reset(GPIO_PIN_ALL);
 807              		.loc 1 414 5 view .LVU288
 808 000e FFF7FEFF 		bl	GPIOC_Pin_Reset
 809              	.LVL35:
 415:../firmware/n32g430_std_periph_driver/src/n32g430_gpio.c **** 
 416:../firmware/n32g430_std_periph_driver/src/n32g430_gpio.c ****     /* Reset all pins on the GPIOD peripheral */
 417:../firmware/n32g430_std_periph_driver/src/n32g430_gpio.c ****     GPIOD_Pin_Reset(GPIO_PIN_ALL);
 810              		.loc 1 417 5 view .LVU289
 418:../firmware/n32g430_std_periph_driver/src/n32g430_gpio.c **** }
 811              		.loc 1 418 1 is_stmt 0 view .LVU290
 812 0012 BDE80840 		pop	{r3, lr}
 813              	.LCFI6:
 814              		.cfi_restore 14
 815              		.cfi_restore 3
 816              		.cfi_def_cfa_offset 0
 417:../firmware/n32g430_std_periph_driver/src/n32g430_gpio.c **** }
 817              		.loc 1 417 5 view .LVU291
 818 0016 FFF7FEBF 		b	GPIOD_Pin_Reset
 819              	.LVL36:
 820              		.cfi_endproc
 821              	.LFE136:
 823              		.section	.text.GPIO_Alternate_Set,"ax",%progbits
 824              		.align	1
 825              		.global	GPIO_Alternate_Set
 826              		.syntax unified
 827              		.thumb
 828              		.thumb_func
 830              	GPIO_Alternate_Set:
 831              	.LVL37:
 832              	.LFB137:
 419:../firmware/n32g430_std_periph_driver/src/n32g430_gpio.c **** 
 420:../firmware/n32g430_std_periph_driver/src/n32g430_gpio.c **** 
 421:../firmware/n32g430_std_periph_driver/src/n32g430_gpio.c **** /**
 422:../firmware/n32g430_std_periph_driver/src/n32g430_gpio.c ****  *\*\name   GPIO_Alternate_Set.
 423:../firmware/n32g430_std_periph_driver/src/n32g430_gpio.c ****  *\*\fun    Configure GPIO alternate function.
 424:../firmware/n32g430_std_periph_driver/src/n32g430_gpio.c ****  *\*\param  GPIOx :
 425:../firmware/n32g430_std_periph_driver/src/n32g430_gpio.c ****  *\*\          - GPIOA
 426:../firmware/n32g430_std_periph_driver/src/n32g430_gpio.c ****  *\*\          - GPIOB
 427:../firmware/n32g430_std_periph_driver/src/n32g430_gpio.c ****  *\*\          - GPIOC
 428:../firmware/n32g430_std_periph_driver/src/n32g430_gpio.c ****  *\*\          - GPIOD
 429:../firmware/n32g430_std_periph_driver/src/n32g430_gpio.c ****  *\*\param  alternate
ARM GAS  C:\Users\Dawn\AppData\Local\Temp\cccrm2KO.s 			page 27


 430:../firmware/n32g430_std_periph_driver/src/n32g430_gpio.c ****  *\*\          - Refer to the "alternate_function" parameter 
 431:../firmware/n32g430_std_periph_driver/src/n32g430_gpio.c ****  *\*\            list of the GPIO_Pin_Remap_Set() function
 432:../firmware/n32g430_std_periph_driver/src/n32g430_gpio.c ****  *\*\param  position
 433:../firmware/n32g430_std_periph_driver/src/n32g430_gpio.c ****  *\*\          - 0x00 ~ 0x0F    0x00 represents GPIO_PIN_0, 
 434:../firmware/n32g430_std_periph_driver/src/n32g430_gpio.c ****  *\*\                           0x01 represents GPIO_PIN_1
 435:../firmware/n32g430_std_periph_driver/src/n32g430_gpio.c ****  *\*\                           ...
 436:../firmware/n32g430_std_periph_driver/src/n32g430_gpio.c ****  *\*\                           0x0F represents GPIO_PIN_15
 437:../firmware/n32g430_std_periph_driver/src/n32g430_gpio.c ****  *\*\return none
 438:../firmware/n32g430_std_periph_driver/src/n32g430_gpio.c ****  */
 439:../firmware/n32g430_std_periph_driver/src/n32g430_gpio.c **** void GPIO_Alternate_Set(GPIO_Module* GPIOx, uint32_t alternate, uint32_t position)
 440:../firmware/n32g430_std_periph_driver/src/n32g430_gpio.c **** {
 833              		.loc 1 440 1 is_stmt 1 view -0
 834              		.cfi_startproc
 835              		@ args = 0, pretend = 0, frame = 0
 836              		@ frame_needed = 0, uses_anonymous_args = 0
 441:../firmware/n32g430_std_periph_driver/src/n32g430_gpio.c ****     uint32_t temp_value = 0x00U;
 837              		.loc 1 441 5 view .LVU293
 442:../firmware/n32g430_std_periph_driver/src/n32g430_gpio.c ****     
 443:../firmware/n32g430_std_periph_driver/src/n32g430_gpio.c ****     /* Configure Alternate function mapped with the current IO */ 
 444:../firmware/n32g430_std_periph_driver/src/n32g430_gpio.c ****     if(position & AF_SELECTION_MASK)
 838              		.loc 1 444 5 view .LVU294
 440:../firmware/n32g430_std_periph_driver/src/n32g430_gpio.c ****     uint32_t temp_value = 0x00U;
 839              		.loc 1 440 1 is_stmt 0 view .LVU295
 840 0000 10B5     		push	{r4, lr}
 841              	.LCFI7:
 842              		.cfi_def_cfa_offset 8
 843              		.cfi_offset 4, -8
 844              		.cfi_offset 14, -4
 845              	.LBB4:
 846              	.LBB5:
 445:../firmware/n32g430_std_periph_driver/src/n32g430_gpio.c ****     {
 446:../firmware/n32g430_std_periph_driver/src/n32g430_gpio.c ****         temp_value = GPIOx->AFH;
 447:../firmware/n32g430_std_periph_driver/src/n32g430_gpio.c ****         temp_value &= ~(GPIO_AF_MASK << ((uint32_t)(position & (uint32_t)AF_WRITE_POSITION_MASK) * 
 847              		.loc 1 447 42 view .LVU296
 848 0002 02F00704 		and	r4, r2, #7
 849              		.loc 1 447 98 view .LVU297
 850 0006 A400     		lsls	r4, r4, #2
 851              	.LBE5:
 852              	.LBE4:
 444:../firmware/n32g430_std_periph_driver/src/n32g430_gpio.c ****     {
 853              		.loc 1 444 7 view .LVU298
 854 0008 1207     		lsls	r2, r2, #28
 855              	.LVL38:
 856              	.LBB10:
 857              	.LBI4:
 439:../firmware/n32g430_std_periph_driver/src/n32g430_gpio.c **** {
 858              		.loc 1 439 6 is_stmt 1 view .LVU299
 859              	.LBB6:
 446:../firmware/n32g430_std_periph_driver/src/n32g430_gpio.c ****         temp_value &= ~(GPIO_AF_MASK << ((uint32_t)(position & (uint32_t)AF_WRITE_POSITION_MASK) * 
 860              		.loc 1 446 9 view .LVU300
 861              		.loc 1 447 38 is_stmt 0 view .LVU301
 862 000a 4FF00F03 		mov	r3, #15
 446:../firmware/n32g430_std_periph_driver/src/n32g430_gpio.c ****         temp_value &= ~(GPIO_AF_MASK << ((uint32_t)(position & (uint32_t)AF_WRITE_POSITION_MASK) * 
 863              		.loc 1 446 20 view .LVU302
 864 000e 4CBF     		ite	mi
 865 0010 426A     		ldrmi	r2, [r0, #36]
 866              	.LVL39:
ARM GAS  C:\Users\Dawn\AppData\Local\Temp\cccrm2KO.s 			page 28


 867              		.loc 1 447 9 is_stmt 1 view .LVU303
 868              	.LBE6:
 869              	.LBE10:
 448:../firmware/n32g430_std_periph_driver/src/n32g430_gpio.c ****         temp_value |= ((uint32_t)alternate << ((uint32_t)(position & (uint32_t)AF_WRITE_POSITION_MA
 449:../firmware/n32g430_std_periph_driver/src/n32g430_gpio.c ****         GPIOx->AFH = temp_value;
 450:../firmware/n32g430_std_periph_driver/src/n32g430_gpio.c ****     }
 451:../firmware/n32g430_std_periph_driver/src/n32g430_gpio.c ****     else
 452:../firmware/n32g430_std_periph_driver/src/n32g430_gpio.c ****     {
 453:../firmware/n32g430_std_periph_driver/src/n32g430_gpio.c ****         temp_value = GPIOx->AFL;
 870              		.loc 1 453 20 is_stmt 0 view .LVU304
 871 0012 026A     		ldrpl	r2, [r0, #32]
 872              	.LVL40:
 873              	.LBB11:
 874              	.LBB7:
 447:../firmware/n32g430_std_periph_driver/src/n32g430_gpio.c ****         temp_value |= ((uint32_t)alternate << ((uint32_t)(position & (uint32_t)AF_WRITE_POSITION_MA
 875              		.loc 1 447 38 view .LVU305
 876 0014 03FA04F3 		lsl	r3, r3, r4
 447:../firmware/n32g430_std_periph_driver/src/n32g430_gpio.c ****         temp_value |= ((uint32_t)alternate << ((uint32_t)(position & (uint32_t)AF_WRITE_POSITION_MA
 877              		.loc 1 447 23 view .LVU306
 878 0018 6FEA0303 		mvn	r3, r3
 448:../firmware/n32g430_std_periph_driver/src/n32g430_gpio.c ****         temp_value |= ((uint32_t)alternate << ((uint32_t)(position & (uint32_t)AF_WRITE_POSITION_MA
 879              		.loc 1 448 44 view .LVU307
 880 001c 01FA04F1 		lsl	r1, r1, r4
 881              	.LVL41:
 447:../firmware/n32g430_std_periph_driver/src/n32g430_gpio.c ****         temp_value |= ((uint32_t)alternate << ((uint32_t)(position & (uint32_t)AF_WRITE_POSITION_MA
 882              		.loc 1 447 20 view .LVU308
 883 0020 4BBF     		itete	mi
 884 0022 1340     		andmi	r3, r3, r2
 885              	.LVL42:
 448:../firmware/n32g430_std_periph_driver/src/n32g430_gpio.c ****         temp_value |= ((uint32_t)alternate << ((uint32_t)(position & (uint32_t)AF_WRITE_POSITION_MA
 886              		.loc 1 448 9 is_stmt 1 view .LVU309
 887              	.LBE7:
 888              	.LBE11:
 454:../firmware/n32g430_std_periph_driver/src/n32g430_gpio.c ****         temp_value &= ~(GPIO_AF_MASK << ((uint32_t)(position & (uint32_t)AF_WRITE_POSITION_MASK) * 
 889              		.loc 1 454 20 is_stmt 0 view .LVU310
 890 0024 1340     		andpl	r3, r3, r2
 891              	.LVL43:
 892              	.LBB12:
 893              	.LBB8:
 448:../firmware/n32g430_std_periph_driver/src/n32g430_gpio.c ****         temp_value |= ((uint32_t)alternate << ((uint32_t)(position & (uint32_t)AF_WRITE_POSITION_MA
 894              		.loc 1 448 20 view .LVU311
 895 0026 0B43     		orrmi	r3, r3, r1
 896              	.LVL44:
 449:../firmware/n32g430_std_periph_driver/src/n32g430_gpio.c ****     }
 897              		.loc 1 449 9 is_stmt 1 view .LVU312
 898              	.LBE8:
 899              	.LBE12:
 455:../firmware/n32g430_std_periph_driver/src/n32g430_gpio.c ****         temp_value |= ((uint32_t)alternate << ((uint32_t)(position & (uint32_t)AF_WRITE_POSITION_MA
 900              		.loc 1 455 20 is_stmt 0 view .LVU313
 901 0028 0B43     		orrpl	r3, r3, r1
 902              	.LBB13:
 903              	.LBB9:
 449:../firmware/n32g430_std_periph_driver/src/n32g430_gpio.c ****     }
 904              		.loc 1 449 20 view .LVU314
 905 002a 4CBF     		ite	mi
 906 002c 4362     		strmi	r3, [r0, #36]
 907              	.LVL45:
ARM GAS  C:\Users\Dawn\AppData\Local\Temp\cccrm2KO.s 			page 29


 449:../firmware/n32g430_std_periph_driver/src/n32g430_gpio.c ****     }
 908              		.loc 1 449 20 view .LVU315
 909              	.LBE9:
 910              	.LBE13:
 453:../firmware/n32g430_std_periph_driver/src/n32g430_gpio.c ****         temp_value &= ~(GPIO_AF_MASK << ((uint32_t)(position & (uint32_t)AF_WRITE_POSITION_MASK) * 
 911              		.loc 1 453 9 is_stmt 1 view .LVU316
 454:../firmware/n32g430_std_periph_driver/src/n32g430_gpio.c ****         temp_value |= ((uint32_t)alternate << ((uint32_t)(position & (uint32_t)AF_WRITE_POSITION_MA
 912              		.loc 1 454 9 view .LVU317
 913              		.loc 1 455 9 view .LVU318
 456:../firmware/n32g430_std_periph_driver/src/n32g430_gpio.c ****         GPIOx->AFL = temp_value;
 914              		.loc 1 456 9 view .LVU319
 915              		.loc 1 456 20 is_stmt 0 view .LVU320
 916 002e 0362     		strpl	r3, [r0, #32]
 457:../firmware/n32g430_std_periph_driver/src/n32g430_gpio.c ****     }
 458:../firmware/n32g430_std_periph_driver/src/n32g430_gpio.c **** }
 917              		.loc 1 458 1 view .LVU321
 918 0030 10BD     		pop	{r4, pc}
 919              		.cfi_endproc
 920              	.LFE137:
 922              		.section	.text.GPIO_Mode_Set,"ax",%progbits
 923              		.align	1
 924              		.global	GPIO_Mode_Set
 925              		.syntax unified
 926              		.thumb
 927              		.thumb_func
 929              	GPIO_Mode_Set:
 930              	.LVL46:
 931              	.LFB138:
 459:../firmware/n32g430_std_periph_driver/src/n32g430_gpio.c **** 
 460:../firmware/n32g430_std_periph_driver/src/n32g430_gpio.c **** 
 461:../firmware/n32g430_std_periph_driver/src/n32g430_gpio.c **** /**
 462:../firmware/n32g430_std_periph_driver/src/n32g430_gpio.c ****  *\*\name   GPIO_Mode_Set.
 463:../firmware/n32g430_std_periph_driver/src/n32g430_gpio.c ****  *\*\fun    Configure GPIO mode.
 464:../firmware/n32g430_std_periph_driver/src/n32g430_gpio.c ****  *\*\param  GPIOx :
 465:../firmware/n32g430_std_periph_driver/src/n32g430_gpio.c ****  *\*\          - GPIOA
 466:../firmware/n32g430_std_periph_driver/src/n32g430_gpio.c ****  *\*\          - GPIOB
 467:../firmware/n32g430_std_periph_driver/src/n32g430_gpio.c ****  *\*\          - GPIOC
 468:../firmware/n32g430_std_periph_driver/src/n32g430_gpio.c ****  *\*\          - GPIOD
 469:../firmware/n32g430_std_periph_driver/src/n32g430_gpio.c ****  *\*\param  mode 
 470:../firmware/n32g430_std_periph_driver/src/n32g430_gpio.c ****  *\*\          - GPIO_MODE_INPUT
 471:../firmware/n32g430_std_periph_driver/src/n32g430_gpio.c ****  *\*\          - GPIO_MODE_OUT_PP
 472:../firmware/n32g430_std_periph_driver/src/n32g430_gpio.c ****  *\*\          - GPIO_MODE_OUT_OD
 473:../firmware/n32g430_std_periph_driver/src/n32g430_gpio.c ****  *\*\          - GPIO_MODE_AF_PP
 474:../firmware/n32g430_std_periph_driver/src/n32g430_gpio.c ****  *\*\          - GPIO_MODE_AF_OD
 475:../firmware/n32g430_std_periph_driver/src/n32g430_gpio.c ****  *\*\          - GPIO_MODE_ANALOG
 476:../firmware/n32g430_std_periph_driver/src/n32g430_gpio.c ****  *\*\param  position
 477:../firmware/n32g430_std_periph_driver/src/n32g430_gpio.c ****  *\*\          - 0x00 ~ 0x0F    0x00 represents GPIO_PIN_0, 
 478:../firmware/n32g430_std_periph_driver/src/n32g430_gpio.c ****  *\*\                           0x01 represents GPIO_PIN_1
 479:../firmware/n32g430_std_periph_driver/src/n32g430_gpio.c ****  *\*\                           ...
 480:../firmware/n32g430_std_periph_driver/src/n32g430_gpio.c ****  *\*\                           0x0F represents GPIO_PIN_15
 481:../firmware/n32g430_std_periph_driver/src/n32g430_gpio.c ****  *\*\return none
 482:../firmware/n32g430_std_periph_driver/src/n32g430_gpio.c ****  */
 483:../firmware/n32g430_std_periph_driver/src/n32g430_gpio.c **** void GPIO_Mode_Set(GPIO_Module* GPIOx, uint32_t mode, uint32_t position)
 484:../firmware/n32g430_std_periph_driver/src/n32g430_gpio.c **** {
 932              		.loc 1 484 1 is_stmt 1 view -0
 933              		.cfi_startproc
 934              		@ args = 0, pretend = 0, frame = 0
ARM GAS  C:\Users\Dawn\AppData\Local\Temp\cccrm2KO.s 			page 30


 935              		@ frame_needed = 0, uses_anonymous_args = 0
 485:../firmware/n32g430_std_periph_driver/src/n32g430_gpio.c ****     uint32_t temp_value = 0x00U;
 936              		.loc 1 485 5 view .LVU323
 486:../firmware/n32g430_std_periph_driver/src/n32g430_gpio.c ****     uint32_t temp = 0x00U;
 937              		.loc 1 486 5 view .LVU324
 487:../firmware/n32g430_std_periph_driver/src/n32g430_gpio.c **** 
 488:../firmware/n32g430_std_periph_driver/src/n32g430_gpio.c ****     /* Configure IO Direction mode (Input, Output, Alternate or Analog) */
 489:../firmware/n32g430_std_periph_driver/src/n32g430_gpio.c ****     temp_value = GPIOx->PMODE;
 938              		.loc 1 489 5 view .LVU325
 484:../firmware/n32g430_std_periph_driver/src/n32g430_gpio.c ****     uint32_t temp_value = 0x00U;
 939              		.loc 1 484 1 is_stmt 0 view .LVU326
 940 0000 30B5     		push	{r4, r5, lr}
 941              	.LCFI8:
 942              		.cfi_def_cfa_offset 12
 943              		.cfi_offset 4, -12
 944              		.cfi_offset 5, -8
 945              		.cfi_offset 14, -4
 490:../firmware/n32g430_std_periph_driver/src/n32g430_gpio.c ****     temp = (mode & GPIO_SET_PMODE_MASK);
 491:../firmware/n32g430_std_periph_driver/src/n32g430_gpio.c ****     temp_value &= ~(GPIO_PMODE_MASK << (position * MULTIPLIER_FACTOR_2));
 946              		.loc 1 491 37 view .LVU327
 947 0002 0323     		movs	r3, #3
 489:../firmware/n32g430_std_periph_driver/src/n32g430_gpio.c ****     temp = (mode & GPIO_SET_PMODE_MASK);
 948              		.loc 1 489 16 view .LVU328
 949 0004 0468     		ldr	r4, [r0]
 950              	.LVL47:
 490:../firmware/n32g430_std_periph_driver/src/n32g430_gpio.c ****     temp = (mode & GPIO_SET_PMODE_MASK);
 951              		.loc 1 490 5 is_stmt 1 view .LVU329
 952              		.loc 1 491 5 view .LVU330
 953              		.loc 1 491 50 is_stmt 0 view .LVU331
 954 0006 5500     		lsls	r5, r2, #1
 955              		.loc 1 491 37 view .LVU332
 956 0008 AB40     		lsls	r3, r3, r5
 957              		.loc 1 491 16 view .LVU333
 958 000a 24EA0304 		bic	r4, r4, r3
 959              	.LVL48:
 492:../firmware/n32g430_std_periph_driver/src/n32g430_gpio.c ****     temp_value |= (temp << (position * MULTIPLIER_FACTOR_2));
 960              		.loc 1 492 5 is_stmt 1 view .LVU334
 490:../firmware/n32g430_std_periph_driver/src/n32g430_gpio.c ****     temp = (mode & GPIO_SET_PMODE_MASK);
 961              		.loc 1 490 10 is_stmt 0 view .LVU335
 962 000e 01F00303 		and	r3, r1, #3
 963              	.LVL49:
 964              		.loc 1 492 25 view .LVU336
 965 0012 AB40     		lsls	r3, r3, r5
 966              	.LVL50:
 967              		.loc 1 492 16 view .LVU337
 968 0014 2343     		orrs	r3, r3, r4
 969              	.LVL51:
 493:../firmware/n32g430_std_periph_driver/src/n32g430_gpio.c ****     GPIOx->PMODE = temp_value;
 970              		.loc 1 493 5 is_stmt 1 view .LVU338
 971              		.loc 1 493 18 is_stmt 0 view .LVU339
 972 0016 0360     		str	r3, [r0]
 494:../firmware/n32g430_std_periph_driver/src/n32g430_gpio.c **** 
 495:../firmware/n32g430_std_periph_driver/src/n32g430_gpio.c ****     /* In case of Output or Alternate function mode selection */
 496:../firmware/n32g430_std_periph_driver/src/n32g430_gpio.c ****     if((mode == GPIO_MODE_OUT_PP) || (mode == GPIO_MODE_OUT_OD) ||
 973              		.loc 1 496 5 is_stmt 1 view .LVU340
 974              		.loc 1 496 7 is_stmt 0 view .LVU341
 975 0018 21F01003 		bic	r3, r1, #16
ARM GAS  C:\Users\Dawn\AppData\Local\Temp\cccrm2KO.s 			page 31


 976              	.LVL52:
 977              		.loc 1 496 7 view .LVU342
 978 001c 013B     		subs	r3, r3, #1
 979 001e 012B     		cmp	r3, #1
 980 0020 08D8     		bhi	.L83
 497:../firmware/n32g430_std_periph_driver/src/n32g430_gpio.c ****        (mode == GPIO_MODE_AF_PP) || (mode == GPIO_MODE_AF_OD))
 498:../firmware/n32g430_std_periph_driver/src/n32g430_gpio.c ****     {
 499:../firmware/n32g430_std_periph_driver/src/n32g430_gpio.c ****         /* Configure the IO Output Type */
 500:../firmware/n32g430_std_periph_driver/src/n32g430_gpio.c ****         temp_value = GPIOx->POTYPE;
 981              		.loc 1 500 9 is_stmt 1 view .LVU343
 982              		.loc 1 500 20 is_stmt 0 view .LVU344
 983 0022 4368     		ldr	r3, [r0, #4]
 984              	.LVL53:
 501:../firmware/n32g430_std_periph_driver/src/n32g430_gpio.c ****         temp_value &= ~(GPIO_POTYPE_MASK << position);
 985              		.loc 1 501 9 is_stmt 1 view .LVU345
 986              		.loc 1 501 42 is_stmt 0 view .LVU346
 987 0024 0124     		movs	r4, #1
 988 0026 9440     		lsls	r4, r4, r2
 502:../firmware/n32g430_std_periph_driver/src/n32g430_gpio.c ****         temp_value |= (((mode & GPIO_OUTPUT_TYPE_MASK) >> SHIFT_POTYPE) << position);
 989              		.loc 1 502 56 view .LVU347
 990 0028 0909     		lsrs	r1, r1, #4
 991              	.LVL54:
 501:../firmware/n32g430_std_periph_driver/src/n32g430_gpio.c ****         temp_value &= ~(GPIO_POTYPE_MASK << position);
 992              		.loc 1 501 20 view .LVU348
 993 002a 23EA0403 		bic	r3, r3, r4
 994              	.LVL55:
 995              		.loc 1 502 9 is_stmt 1 view .LVU349
 996              		.loc 1 502 73 is_stmt 0 view .LVU350
 997 002e 9140     		lsls	r1, r1, r2
 998              		.loc 1 502 20 view .LVU351
 999 0030 1943     		orrs	r1, r1, r3
 1000              	.LVL56:
 503:../firmware/n32g430_std_periph_driver/src/n32g430_gpio.c ****         GPIOx->POTYPE = temp_value;
 1001              		.loc 1 503 9 is_stmt 1 view .LVU352
 1002              		.loc 1 503 23 is_stmt 0 view .LVU353
 1003 0032 4160     		str	r1, [r0, #4]
 1004              	.LVL57:
 1005              	.L83:
 504:../firmware/n32g430_std_periph_driver/src/n32g430_gpio.c ****     }
 505:../firmware/n32g430_std_periph_driver/src/n32g430_gpio.c **** }
 1006              		.loc 1 505 1 view .LVU354
 1007 0034 30BD     		pop	{r4, r5, pc}
 1008              		.cfi_endproc
 1009              	.LFE138:
 1011              		.section	.text.GPIO_Pull_Set,"ax",%progbits
 1012              		.align	1
 1013              		.global	GPIO_Pull_Set
 1014              		.syntax unified
 1015              		.thumb
 1016              		.thumb_func
 1018              	GPIO_Pull_Set:
 1019              	.LVL58:
 1020              	.LFB139:
 506:../firmware/n32g430_std_periph_driver/src/n32g430_gpio.c **** 
 507:../firmware/n32g430_std_periph_driver/src/n32g430_gpio.c **** 
 508:../firmware/n32g430_std_periph_driver/src/n32g430_gpio.c **** /**
 509:../firmware/n32g430_std_periph_driver/src/n32g430_gpio.c ****  *\*\name   GPIO_Pull_Set.
ARM GAS  C:\Users\Dawn\AppData\Local\Temp\cccrm2KO.s 			page 32


 510:../firmware/n32g430_std_periph_driver/src/n32g430_gpio.c ****  *\*\fun    Configure pull mode.
 511:../firmware/n32g430_std_periph_driver/src/n32g430_gpio.c ****  *\*\param  GPIOx :
 512:../firmware/n32g430_std_periph_driver/src/n32g430_gpio.c ****  *\*\          - GPIOA
 513:../firmware/n32g430_std_periph_driver/src/n32g430_gpio.c ****  *\*\          - GPIOB
 514:../firmware/n32g430_std_periph_driver/src/n32g430_gpio.c ****  *\*\          - GPIOC
 515:../firmware/n32g430_std_periph_driver/src/n32g430_gpio.c ****  *\*\          - GPIOD
 516:../firmware/n32g430_std_periph_driver/src/n32g430_gpio.c ****  *\*\param  pull 
 517:../firmware/n32g430_std_periph_driver/src/n32g430_gpio.c ****  *\*\          - GPIO_NO_PULL
 518:../firmware/n32g430_std_periph_driver/src/n32g430_gpio.c ****  *\*\          - GPIO_PULL_UP
 519:../firmware/n32g430_std_periph_driver/src/n32g430_gpio.c ****  *\*\          - GPIO_PULL_DOWN
 520:../firmware/n32g430_std_periph_driver/src/n32g430_gpio.c ****  *\*\param  position
 521:../firmware/n32g430_std_periph_driver/src/n32g430_gpio.c ****  *\*\          - 0x00 ~ 0x0F    0x00 represents GPIO_PIN_0, 
 522:../firmware/n32g430_std_periph_driver/src/n32g430_gpio.c ****  *\*\                           0x01 represents GPIO_PIN_1
 523:../firmware/n32g430_std_periph_driver/src/n32g430_gpio.c ****  *\*\                           ...
 524:../firmware/n32g430_std_periph_driver/src/n32g430_gpio.c ****  *\*\                           0x0F represents GPIO_PIN_15
 525:../firmware/n32g430_std_periph_driver/src/n32g430_gpio.c ****  *\*\return none
 526:../firmware/n32g430_std_periph_driver/src/n32g430_gpio.c ****  */
 527:../firmware/n32g430_std_periph_driver/src/n32g430_gpio.c **** void GPIO_Pull_Set(GPIO_Module* GPIOx, uint32_t pull, uint32_t position)
 528:../firmware/n32g430_std_periph_driver/src/n32g430_gpio.c **** {
 1021              		.loc 1 528 1 is_stmt 1 view -0
 1022              		.cfi_startproc
 1023              		@ args = 0, pretend = 0, frame = 0
 1024              		@ frame_needed = 0, uses_anonymous_args = 0
 529:../firmware/n32g430_std_periph_driver/src/n32g430_gpio.c ****     uint32_t temp_value = 0x00U;
 1025              		.loc 1 529 5 view .LVU356
 530:../firmware/n32g430_std_periph_driver/src/n32g430_gpio.c **** 
 531:../firmware/n32g430_std_periph_driver/src/n32g430_gpio.c ****     /* Configure pull-down mode */
 532:../firmware/n32g430_std_periph_driver/src/n32g430_gpio.c ****     temp_value = GPIOx->PUPD;
 1026              		.loc 1 532 5 view .LVU357
 528:../firmware/n32g430_std_periph_driver/src/n32g430_gpio.c ****     uint32_t temp_value = 0x00U;
 1027              		.loc 1 528 1 is_stmt 0 view .LVU358
 1028 0000 10B5     		push	{r4, lr}
 1029              	.LCFI9:
 1030              		.cfi_def_cfa_offset 8
 1031              		.cfi_offset 4, -8
 1032              		.cfi_offset 14, -4
 1033              		.loc 1 532 16 view .LVU359
 1034 0002 C368     		ldr	r3, [r0, #12]
 1035              	.LVL59:
 533:../firmware/n32g430_std_periph_driver/src/n32g430_gpio.c ****     temp_value &= ~(GPIO_PUPD_MASK << (position * MULTIPLIER_FACTOR_2));
 1036              		.loc 1 533 5 is_stmt 1 view .LVU360
 1037              		.loc 1 533 49 is_stmt 0 view .LVU361
 1038 0004 5200     		lsls	r2, r2, #1
 1039              	.LVL60:
 1040              		.loc 1 533 36 view .LVU362
 1041 0006 0324     		movs	r4, #3
 1042 0008 9440     		lsls	r4, r4, r2
 1043              		.loc 1 533 16 view .LVU363
 1044 000a 23EA0403 		bic	r3, r3, r4
 1045              	.LVL61:
 534:../firmware/n32g430_std_periph_driver/src/n32g430_gpio.c ****     temp_value |= (pull << (position * MULTIPLIER_FACTOR_2));
 1046              		.loc 1 534 5 is_stmt 1 view .LVU364
 1047              		.loc 1 534 25 is_stmt 0 view .LVU365
 1048 000e 9140     		lsls	r1, r1, r2
 1049              	.LVL62:
 1050              		.loc 1 534 16 view .LVU366
 1051 0010 1943     		orrs	r1, r1, r3
ARM GAS  C:\Users\Dawn\AppData\Local\Temp\cccrm2KO.s 			page 33


 1052              	.LVL63:
 535:../firmware/n32g430_std_periph_driver/src/n32g430_gpio.c ****     GPIOx->PUPD = temp_value;
 1053              		.loc 1 535 5 is_stmt 1 view .LVU367
 1054              		.loc 1 535 17 is_stmt 0 view .LVU368
 1055 0012 C160     		str	r1, [r0, #12]
 536:../firmware/n32g430_std_periph_driver/src/n32g430_gpio.c **** }
 1056              		.loc 1 536 1 view .LVU369
 1057 0014 10BD     		pop	{r4, pc}
 1058              		.cfi_endproc
 1059              	.LFE139:
 1061              		.section	.text.GPIO_SlewRate_Set,"ax",%progbits
 1062              		.align	1
 1063              		.global	GPIO_SlewRate_Set
 1064              		.syntax unified
 1065              		.thumb
 1066              		.thumb_func
 1068              	GPIO_SlewRate_Set:
 1069              	.LVL64:
 1070              	.LFB140:
 537:../firmware/n32g430_std_periph_driver/src/n32g430_gpio.c **** 
 538:../firmware/n32g430_std_periph_driver/src/n32g430_gpio.c **** 
 539:../firmware/n32g430_std_periph_driver/src/n32g430_gpio.c **** /**
 540:../firmware/n32g430_std_periph_driver/src/n32g430_gpio.c ****  *\*\name   GPIO_SlewRate_Set.
 541:../firmware/n32g430_std_periph_driver/src/n32g430_gpio.c ****  *\*\fun    GPIO slew rate configuration.
 542:../firmware/n32g430_std_periph_driver/src/n32g430_gpio.c ****  *\*\param  GPIOx :
 543:../firmware/n32g430_std_periph_driver/src/n32g430_gpio.c ****  *\*\          - GPIOA
 544:../firmware/n32g430_std_periph_driver/src/n32g430_gpio.c ****  *\*\          - GPIOB
 545:../firmware/n32g430_std_periph_driver/src/n32g430_gpio.c ****  *\*\          - GPIOC
 546:../firmware/n32g430_std_periph_driver/src/n32g430_gpio.c ****  *\*\          - GPIOD
 547:../firmware/n32g430_std_periph_driver/src/n32g430_gpio.c ****  *\*\param  slew_rate
 548:../firmware/n32g430_std_periph_driver/src/n32g430_gpio.c ****  *\*\          - GPIO_SLEW_RATE_FAST
 549:../firmware/n32g430_std_periph_driver/src/n32g430_gpio.c ****  *\*\          - GPIO_SLEW_RATE_SLOW
 550:../firmware/n32g430_std_periph_driver/src/n32g430_gpio.c ****  *\*\param  position
 551:../firmware/n32g430_std_periph_driver/src/n32g430_gpio.c ****  *\*\          - 0x00 ~ 0x0F    0x00 represents GPIO_PIN_0, 
 552:../firmware/n32g430_std_periph_driver/src/n32g430_gpio.c ****  *\*\                           0x01 represents GPIO_PIN_1
 553:../firmware/n32g430_std_periph_driver/src/n32g430_gpio.c ****  *\*\                           ...
 554:../firmware/n32g430_std_periph_driver/src/n32g430_gpio.c ****  *\*\                           0x0F represents GPIO_PIN_15
 555:../firmware/n32g430_std_periph_driver/src/n32g430_gpio.c ****  *\*\return none
 556:../firmware/n32g430_std_periph_driver/src/n32g430_gpio.c ****  */
 557:../firmware/n32g430_std_periph_driver/src/n32g430_gpio.c **** void GPIO_SlewRate_Set(GPIO_Module* GPIOx, uint32_t slew_rate, uint32_t position)
 558:../firmware/n32g430_std_periph_driver/src/n32g430_gpio.c **** {
 1071              		.loc 1 558 1 is_stmt 1 view -0
 1072              		.cfi_startproc
 1073              		@ args = 0, pretend = 0, frame = 0
 1074              		@ frame_needed = 0, uses_anonymous_args = 0
 559:../firmware/n32g430_std_periph_driver/src/n32g430_gpio.c ****     uint32_t temp_value = 0x00U;
 1075              		.loc 1 559 5 view .LVU371
 560:../firmware/n32g430_std_periph_driver/src/n32g430_gpio.c **** 
 561:../firmware/n32g430_std_periph_driver/src/n32g430_gpio.c ****     /* Configure slew rate */
 562:../firmware/n32g430_std_periph_driver/src/n32g430_gpio.c ****     temp_value = GPIOx->SR;
 1076              		.loc 1 562 5 view .LVU372
 558:../firmware/n32g430_std_periph_driver/src/n32g430_gpio.c ****     uint32_t temp_value = 0x00U;
 1077              		.loc 1 558 1 is_stmt 0 view .LVU373
 1078 0000 10B5     		push	{r4, lr}
 1079              	.LCFI10:
 1080              		.cfi_def_cfa_offset 8
 1081              		.cfi_offset 4, -8
ARM GAS  C:\Users\Dawn\AppData\Local\Temp\cccrm2KO.s 			page 34


 1082              		.cfi_offset 14, -4
 1083              		.loc 1 562 16 view .LVU374
 1084 0002 8368     		ldr	r3, [r0, #8]
 1085              	.LVL65:
 563:../firmware/n32g430_std_periph_driver/src/n32g430_gpio.c ****     temp_value &= ~(GPIO_SR_MASK << position);
 1086              		.loc 1 563 5 is_stmt 1 view .LVU375
 1087              		.loc 1 563 34 is_stmt 0 view .LVU376
 1088 0004 0124     		movs	r4, #1
 1089 0006 9440     		lsls	r4, r4, r2
 1090              		.loc 1 563 16 view .LVU377
 1091 0008 23EA0403 		bic	r3, r3, r4
 1092              	.LVL66:
 564:../firmware/n32g430_std_periph_driver/src/n32g430_gpio.c ****     temp_value |= (slew_rate << position);
 1093              		.loc 1 564 5 is_stmt 1 view .LVU378
 1094              		.loc 1 564 30 is_stmt 0 view .LVU379
 1095 000c 9140     		lsls	r1, r1, r2
 1096              	.LVL67:
 1097              		.loc 1 564 16 view .LVU380
 1098 000e 1943     		orrs	r1, r1, r3
 1099              	.LVL68:
 565:../firmware/n32g430_std_periph_driver/src/n32g430_gpio.c ****     GPIOx->SR = temp_value;
 1100              		.loc 1 565 5 is_stmt 1 view .LVU381
 1101              		.loc 1 565 15 is_stmt 0 view .LVU382
 1102 0010 8160     		str	r1, [r0, #8]
 566:../firmware/n32g430_std_periph_driver/src/n32g430_gpio.c **** }
 1103              		.loc 1 566 1 view .LVU383
 1104 0012 10BD     		pop	{r4, pc}
 1105              		.cfi_endproc
 1106              	.LFE140:
 1108              		.section	.text.GPIO_Driver_Set,"ax",%progbits
 1109              		.align	1
 1110              		.global	GPIO_Driver_Set
 1111              		.syntax unified
 1112              		.thumb
 1113              		.thumb_func
 1115              	GPIO_Driver_Set:
 1116              	.LVL69:
 1117              	.LFB141:
 567:../firmware/n32g430_std_periph_driver/src/n32g430_gpio.c **** 
 568:../firmware/n32g430_std_periph_driver/src/n32g430_gpio.c **** 
 569:../firmware/n32g430_std_periph_driver/src/n32g430_gpio.c **** /**
 570:../firmware/n32g430_std_periph_driver/src/n32g430_gpio.c ****  *\*\name   GPIO_Driver_Set.
 571:../firmware/n32g430_std_periph_driver/src/n32g430_gpio.c ****  *\*\fun    GPIO driver configuration.
 572:../firmware/n32g430_std_periph_driver/src/n32g430_gpio.c ****  *\*\param  GPIOx :
 573:../firmware/n32g430_std_periph_driver/src/n32g430_gpio.c ****  *\*\          - GPIOA
 574:../firmware/n32g430_std_periph_driver/src/n32g430_gpio.c ****  *\*\          - GPIOB
 575:../firmware/n32g430_std_periph_driver/src/n32g430_gpio.c ****  *\*\          - GPIOC
 576:../firmware/n32g430_std_periph_driver/src/n32g430_gpio.c ****  *\*\          - GPIOD
 577:../firmware/n32g430_std_periph_driver/src/n32g430_gpio.c ****  *\*\param  current 
 578:../firmware/n32g430_std_periph_driver/src/n32g430_gpio.c ****  *\*\          - GPIO_DS_2MA
 579:../firmware/n32g430_std_periph_driver/src/n32g430_gpio.c ****  *\*\          - GPIO_DS_8MA
 580:../firmware/n32g430_std_periph_driver/src/n32g430_gpio.c ****  *\*\          - GPIO_DS_4MA
 581:../firmware/n32g430_std_periph_driver/src/n32g430_gpio.c ****  *\*\          - GPIO_DS_12MA
 582:../firmware/n32g430_std_periph_driver/src/n32g430_gpio.c ****  *\*\param  position
 583:../firmware/n32g430_std_periph_driver/src/n32g430_gpio.c ****  *\*\          - 0x00 ~ 0x0F    0x00 represents GPIO_PIN_0, 
 584:../firmware/n32g430_std_periph_driver/src/n32g430_gpio.c ****  *\*\                           0x01 represents GPIO_PIN_1
 585:../firmware/n32g430_std_periph_driver/src/n32g430_gpio.c ****  *\*\                           ...
ARM GAS  C:\Users\Dawn\AppData\Local\Temp\cccrm2KO.s 			page 35


 586:../firmware/n32g430_std_periph_driver/src/n32g430_gpio.c ****  *\*\                           0x0F represents GPIO_PIN_15
 587:../firmware/n32g430_std_periph_driver/src/n32g430_gpio.c ****  *\*\return none
 588:../firmware/n32g430_std_periph_driver/src/n32g430_gpio.c ****  */ 
 589:../firmware/n32g430_std_periph_driver/src/n32g430_gpio.c **** void GPIO_Driver_Set(GPIO_Module* GPIOx, uint32_t current, uint32_t position)
 590:../firmware/n32g430_std_periph_driver/src/n32g430_gpio.c **** {
 1118              		.loc 1 590 1 is_stmt 1 view -0
 1119              		.cfi_startproc
 1120              		@ args = 0, pretend = 0, frame = 0
 1121              		@ frame_needed = 0, uses_anonymous_args = 0
 591:../firmware/n32g430_std_periph_driver/src/n32g430_gpio.c ****     uint32_t temp_value = 0x00U;
 1122              		.loc 1 591 5 view .LVU385
 592:../firmware/n32g430_std_periph_driver/src/n32g430_gpio.c ****     
 593:../firmware/n32g430_std_periph_driver/src/n32g430_gpio.c ****     temp_value = GPIOx->DS;
 1123              		.loc 1 593 5 view .LVU386
 590:../firmware/n32g430_std_periph_driver/src/n32g430_gpio.c ****     uint32_t temp_value = 0x00U;
 1124              		.loc 1 590 1 is_stmt 0 view .LVU387
 1125 0000 10B5     		push	{r4, lr}
 1126              	.LCFI11:
 1127              		.cfi_def_cfa_offset 8
 1128              		.cfi_offset 4, -8
 1129              		.cfi_offset 14, -4
 1130              		.loc 1 593 16 view .LVU388
 1131 0002 C36A     		ldr	r3, [r0, #44]
 1132              	.LVL70:
 594:../firmware/n32g430_std_periph_driver/src/n32g430_gpio.c ****     temp_value &= ~(GPIO_DRIVER_MASK << (position * MULTIPLIER_FACTOR_2));
 1133              		.loc 1 594 5 is_stmt 1 view .LVU389
 1134              		.loc 1 594 51 is_stmt 0 view .LVU390
 1135 0004 5200     		lsls	r2, r2, #1
 1136              	.LVL71:
 1137              		.loc 1 594 38 view .LVU391
 1138 0006 0324     		movs	r4, #3
 1139 0008 9440     		lsls	r4, r4, r2
 1140              		.loc 1 594 16 view .LVU392
 1141 000a 23EA0403 		bic	r3, r3, r4
 1142              	.LVL72:
 595:../firmware/n32g430_std_periph_driver/src/n32g430_gpio.c ****     temp_value |= (current << (position * MULTIPLIER_FACTOR_2));
 1143              		.loc 1 595 5 is_stmt 1 view .LVU393
 1144              		.loc 1 595 28 is_stmt 0 view .LVU394
 1145 000e 9140     		lsls	r1, r1, r2
 1146              	.LVL73:
 1147              		.loc 1 595 16 view .LVU395
 1148 0010 1943     		orrs	r1, r1, r3
 1149              	.LVL74:
 596:../firmware/n32g430_std_periph_driver/src/n32g430_gpio.c ****     GPIOx->DS = temp_value;
 1150              		.loc 1 596 5 is_stmt 1 view .LVU396
 1151              		.loc 1 596 15 is_stmt 0 view .LVU397
 1152 0012 C162     		str	r1, [r0, #44]
 597:../firmware/n32g430_std_periph_driver/src/n32g430_gpio.c **** }
 1153              		.loc 1 597 1 view .LVU398
 1154 0014 10BD     		pop	{r4, pc}
 1155              		.cfi_endproc
 1156              	.LFE141:
 1158              		.section	.text.GPIO_Peripheral_Initialize,"ax",%progbits
 1159              		.align	1
 1160              		.global	GPIO_Peripheral_Initialize
 1161              		.syntax unified
 1162              		.thumb
ARM GAS  C:\Users\Dawn\AppData\Local\Temp\cccrm2KO.s 			page 36


 1163              		.thumb_func
 1165              	GPIO_Peripheral_Initialize:
 1166              	.LVL75:
 1167              	.LFB142:
 598:../firmware/n32g430_std_periph_driver/src/n32g430_gpio.c **** 
 599:../firmware/n32g430_std_periph_driver/src/n32g430_gpio.c **** 
 600:../firmware/n32g430_std_periph_driver/src/n32g430_gpio.c **** 
 601:../firmware/n32g430_std_periph_driver/src/n32g430_gpio.c **** /**
 602:../firmware/n32g430_std_periph_driver/src/n32g430_gpio.c ****  *\*\name   GPIO_Peripheral_Initialization.
 603:../firmware/n32g430_std_periph_driver/src/n32g430_gpio.c ****  *\*\fun    Initialize the GPIOx peripheral with the value of the GPIO_InitStruct structure.
 604:../firmware/n32g430_std_periph_driver/src/n32g430_gpio.c ****  *\*\param  GPIOx :
 605:../firmware/n32g430_std_periph_driver/src/n32g430_gpio.c ****  *\*\          - GPIOA
 606:../firmware/n32g430_std_periph_driver/src/n32g430_gpio.c ****  *\*\          - GPIOB
 607:../firmware/n32g430_std_periph_driver/src/n32g430_gpio.c ****  *\*\          - GPIOC
 608:../firmware/n32g430_std_periph_driver/src/n32g430_gpio.c ****  *\*\          - GPIOD
 609:../firmware/n32g430_std_periph_driver/src/n32g430_gpio.c ****  *\*\param  GPIO_InitStructure :
 610:../firmware/n32g430_std_periph_driver/src/n32g430_gpio.c ****  *\*\           pointer to GPIO_InitType structure.
 611:../firmware/n32g430_std_periph_driver/src/n32g430_gpio.c ****  *\*\return none
 612:../firmware/n32g430_std_periph_driver/src/n32g430_gpio.c ****  */
 613:../firmware/n32g430_std_periph_driver/src/n32g430_gpio.c **** void GPIO_Peripheral_Initialize(GPIO_Module* GPIOx, GPIO_InitType* GPIO_InitStructure)
 614:../firmware/n32g430_std_periph_driver/src/n32g430_gpio.c **** {
 1168              		.loc 1 614 1 is_stmt 1 view -0
 1169              		.cfi_startproc
 1170              		@ args = 0, pretend = 0, frame = 0
 1171              		@ frame_needed = 0, uses_anonymous_args = 0
 615:../firmware/n32g430_std_periph_driver/src/n32g430_gpio.c ****     uint32_t position = 0x00U;
 1172              		.loc 1 615 5 view .LVU400
 616:../firmware/n32g430_std_periph_driver/src/n32g430_gpio.c ****     uint32_t current_pin = 0x00U;
 1173              		.loc 1 616 5 view .LVU401
 617:../firmware/n32g430_std_periph_driver/src/n32g430_gpio.c **** 
 618:../firmware/n32g430_std_periph_driver/src/n32g430_gpio.c ****     while(((GPIO_InitStructure->Pin) >> position) != 0)
 1174              		.loc 1 618 5 view .LVU402
 614:../firmware/n32g430_std_periph_driver/src/n32g430_gpio.c ****     uint32_t position = 0x00U;
 1175              		.loc 1 614 1 is_stmt 0 view .LVU403
 1176 0000 70B5     		push	{r4, r5, r6, lr}
 1177              	.LCFI12:
 1178              		.cfi_def_cfa_offset 16
 1179              		.cfi_offset 4, -16
 1180              		.cfi_offset 5, -12
 1181              		.cfi_offset 6, -8
 1182              		.cfi_offset 14, -4
 614:../firmware/n32g430_std_periph_driver/src/n32g430_gpio.c ****     uint32_t position = 0x00U;
 1183              		.loc 1 614 1 view .LVU404
 1184 0002 0C46     		mov	r4, r1
 615:../firmware/n32g430_std_periph_driver/src/n32g430_gpio.c ****     uint32_t current_pin = 0x00U;
 1185              		.loc 1 615 14 view .LVU405
 1186 0004 0025     		movs	r5, #0
 619:../firmware/n32g430_std_periph_driver/src/n32g430_gpio.c ****     {
 620:../firmware/n32g430_std_periph_driver/src/n32g430_gpio.c ****         /* Get the IO position */
 621:../firmware/n32g430_std_periph_driver/src/n32g430_gpio.c ****         current_pin = (GPIO_InitStructure->Pin) & (IO_POSITION_MASK << position);
 1187              		.loc 1 621 69 view .LVU406
 1188 0006 0126     		movs	r6, #1
 1189              	.LVL76:
 1190              	.L89:
 618:../firmware/n32g430_std_periph_driver/src/n32g430_gpio.c ****     {
 1191              		.loc 1 618 51 is_stmt 1 view .LVU407
 618:../firmware/n32g430_std_periph_driver/src/n32g430_gpio.c ****     {
ARM GAS  C:\Users\Dawn\AppData\Local\Temp\cccrm2KO.s 			page 37


 1192              		.loc 1 618 31 is_stmt 0 view .LVU408
 1193 0008 2368     		ldr	r3, [r4]
 618:../firmware/n32g430_std_periph_driver/src/n32g430_gpio.c ****     {
 1194              		.loc 1 618 51 view .LVU409
 1195 000a 33FA05F2 		lsrs	r2, r3, r5
 1196 000e 00D1     		bne	.L91
 622:../firmware/n32g430_std_periph_driver/src/n32g430_gpio.c ****         if(current_pin)
 623:../firmware/n32g430_std_periph_driver/src/n32g430_gpio.c ****         {
 624:../firmware/n32g430_std_periph_driver/src/n32g430_gpio.c ****             /* Configure GPIO alternate function */
 625:../firmware/n32g430_std_periph_driver/src/n32g430_gpio.c ****             GPIO_Alternate_Set(GPIOx, GPIO_InitStructure->GPIO_Alternate, position);
 626:../firmware/n32g430_std_periph_driver/src/n32g430_gpio.c **** 
 627:../firmware/n32g430_std_periph_driver/src/n32g430_gpio.c ****             /* Configure GPIO mode */
 628:../firmware/n32g430_std_periph_driver/src/n32g430_gpio.c ****             GPIO_Mode_Set(GPIOx, GPIO_InitStructure->GPIO_Mode, position);
 629:../firmware/n32g430_std_periph_driver/src/n32g430_gpio.c **** 
 630:../firmware/n32g430_std_periph_driver/src/n32g430_gpio.c ****             /* Configure pull-down or pull-up mode */
 631:../firmware/n32g430_std_periph_driver/src/n32g430_gpio.c ****             GPIO_Pull_Set(GPIOx, GPIO_InitStructure->GPIO_Pull, position);
 632:../firmware/n32g430_std_periph_driver/src/n32g430_gpio.c **** 
 633:../firmware/n32g430_std_periph_driver/src/n32g430_gpio.c ****             /* Configure slew rate */
 634:../firmware/n32g430_std_periph_driver/src/n32g430_gpio.c ****             GPIO_SlewRate_Set(GPIOx, GPIO_InitStructure->GPIO_Slew_Rate, position);
 635:../firmware/n32g430_std_periph_driver/src/n32g430_gpio.c **** 
 636:../firmware/n32g430_std_periph_driver/src/n32g430_gpio.c ****             /* Configuration drive capability */
 637:../firmware/n32g430_std_periph_driver/src/n32g430_gpio.c ****             GPIO_Driver_Set(GPIOx, GPIO_InitStructure->GPIO_Current, position);
 638:../firmware/n32g430_std_periph_driver/src/n32g430_gpio.c ****         }
 639:../firmware/n32g430_std_periph_driver/src/n32g430_gpio.c ****         position++;
 640:../firmware/n32g430_std_periph_driver/src/n32g430_gpio.c ****     }
 641:../firmware/n32g430_std_periph_driver/src/n32g430_gpio.c **** }
 1197              		.loc 1 641 1 view .LVU410
 1198 0010 70BD     		pop	{r4, r5, r6, pc}
 1199              	.LVL77:
 1200              	.L91:
 621:../firmware/n32g430_std_periph_driver/src/n32g430_gpio.c ****         if(current_pin)
 1201              		.loc 1 621 9 is_stmt 1 view .LVU411
 622:../firmware/n32g430_std_periph_driver/src/n32g430_gpio.c ****         if(current_pin)
 1202              		.loc 1 622 9 view .LVU412
 621:../firmware/n32g430_std_periph_driver/src/n32g430_gpio.c ****         if(current_pin)
 1203              		.loc 1 621 69 is_stmt 0 view .LVU413
 1204 0012 06FA05F2 		lsl	r2, r6, r5
 622:../firmware/n32g430_std_periph_driver/src/n32g430_gpio.c ****         if(current_pin)
 1205              		.loc 1 622 11 view .LVU414
 1206 0016 1A42     		tst	r2, r3
 1207 0018 11D0     		beq	.L90
 625:../firmware/n32g430_std_periph_driver/src/n32g430_gpio.c **** 
 1208              		.loc 1 625 13 is_stmt 1 view .LVU415
 1209 001a 6169     		ldr	r1, [r4, #20]
 1210 001c 2A46     		mov	r2, r5
 1211 001e FFF7FEFF 		bl	GPIO_Alternate_Set
 1212              	.LVL78:
 628:../firmware/n32g430_std_periph_driver/src/n32g430_gpio.c **** 
 1213              		.loc 1 628 13 view .LVU416
 1214 0022 2A46     		mov	r2, r5
 1215 0024 6168     		ldr	r1, [r4, #4]
 1216 0026 FFF7FEFF 		bl	GPIO_Mode_Set
 1217              	.LVL79:
 631:../firmware/n32g430_std_periph_driver/src/n32g430_gpio.c **** 
 1218              		.loc 1 631 13 view .LVU417
 1219 002a A168     		ldr	r1, [r4, #8]
 1220 002c FFF7FEFF 		bl	GPIO_Pull_Set
ARM GAS  C:\Users\Dawn\AppData\Local\Temp\cccrm2KO.s 			page 38


 1221              	.LVL80:
 634:../firmware/n32g430_std_periph_driver/src/n32g430_gpio.c **** 
 1222              		.loc 1 634 13 view .LVU418
 1223 0030 E168     		ldr	r1, [r4, #12]
 1224 0032 2A46     		mov	r2, r5
 1225 0034 FFF7FEFF 		bl	GPIO_SlewRate_Set
 1226              	.LVL81:
 637:../firmware/n32g430_std_periph_driver/src/n32g430_gpio.c ****         }
 1227              		.loc 1 637 13 view .LVU419
 1228 0038 2169     		ldr	r1, [r4, #16]
 1229 003a FFF7FEFF 		bl	GPIO_Driver_Set
 1230              	.LVL82:
 1231              	.L90:
 639:../firmware/n32g430_std_periph_driver/src/n32g430_gpio.c ****     }
 1232              		.loc 1 639 9 view .LVU420
 639:../firmware/n32g430_std_periph_driver/src/n32g430_gpio.c ****     }
 1233              		.loc 1 639 17 is_stmt 0 view .LVU421
 1234 003e 0135     		adds	r5, r5, #1
 1235              	.LVL83:
 639:../firmware/n32g430_std_periph_driver/src/n32g430_gpio.c ****     }
 1236              		.loc 1 639 17 view .LVU422
 1237 0040 E2E7     		b	.L89
 1238              		.cfi_endproc
 1239              	.LFE142:
 1241              		.section	.text.GPIO_Alternate_Function_Reset,"ax",%progbits
 1242              		.align	1
 1243              		.global	GPIO_Alternate_Function_Reset
 1244              		.syntax unified
 1245              		.thumb
 1246              		.thumb_func
 1248              	GPIO_Alternate_Function_Reset:
 1249              	.LFB143:
 642:../firmware/n32g430_std_periph_driver/src/n32g430_gpio.c **** 
 643:../firmware/n32g430_std_periph_driver/src/n32g430_gpio.c **** 
 644:../firmware/n32g430_std_periph_driver/src/n32g430_gpio.c **** /**
 645:../firmware/n32g430_std_periph_driver/src/n32g430_gpio.c ****  *\*\name   GPIO_Alternate_Function_Reset.
 646:../firmware/n32g430_std_periph_driver/src/n32g430_gpio.c ****  *\*\fun    Reset the Alternate Function (remapping, event control, and EXTI configuration) 
 647:../firmware/n32g430_std_periph_driver/src/n32g430_gpio.c ****  *\*\       registers to their default reset values.
 648:../firmware/n32g430_std_periph_driver/src/n32g430_gpio.c ****  *\*\param  none
 649:../firmware/n32g430_std_periph_driver/src/n32g430_gpio.c ****  *\*\return none
 650:../firmware/n32g430_std_periph_driver/src/n32g430_gpio.c ****  */
 651:../firmware/n32g430_std_periph_driver/src/n32g430_gpio.c **** void GPIO_Alternate_Function_Reset(void)
 652:../firmware/n32g430_std_periph_driver/src/n32g430_gpio.c **** {
 1250              		.loc 1 652 1 is_stmt 1 view -0
 1251              		.cfi_startproc
 1252              		@ args = 0, pretend = 0, frame = 0
 1253              		@ frame_needed = 0, uses_anonymous_args = 0
 1254              		@ link register save eliminated.
 653:../firmware/n32g430_std_periph_driver/src/n32g430_gpio.c ****     RCC_APB2_Peripheral_Reset(RCC_APB2_PERIPH_AFIO);
 1255              		.loc 1 653 5 view .LVU424
 1256 0000 0120     		movs	r0, #1
 1257 0002 FFF7FEBF 		b	RCC_APB2_Peripheral_Reset
 1258              	.LVL84:
 1259              		.cfi_endproc
 1260              	.LFE143:
 1262              		.section	.text.GPIO_Structure_Initialize,"ax",%progbits
 1263              		.align	1
ARM GAS  C:\Users\Dawn\AppData\Local\Temp\cccrm2KO.s 			page 39


 1264              		.global	GPIO_Structure_Initialize
 1265              		.syntax unified
 1266              		.thumb
 1267              		.thumb_func
 1269              	GPIO_Structure_Initialize:
 1270              	.LVL85:
 1271              	.LFB144:
 654:../firmware/n32g430_std_periph_driver/src/n32g430_gpio.c **** }
 655:../firmware/n32g430_std_periph_driver/src/n32g430_gpio.c **** 
 656:../firmware/n32g430_std_periph_driver/src/n32g430_gpio.c **** 
 657:../firmware/n32g430_std_periph_driver/src/n32g430_gpio.c **** /**
 658:../firmware/n32g430_std_periph_driver/src/n32g430_gpio.c ****  *\*\name   GPIO_Struct_Initialization.
 659:../firmware/n32g430_std_periph_driver/src/n32g430_gpio.c ****  *\*\fun    Assign default values to each GPIO_InitStruct member.
 660:../firmware/n32g430_std_periph_driver/src/n32g430_gpio.c ****  *\*\param  GPIO_InitStructure :
 661:../firmware/n32g430_std_periph_driver/src/n32g430_gpio.c ****  *\*\           pointer to GPIO_InitType structure.
 662:../firmware/n32g430_std_periph_driver/src/n32g430_gpio.c ****  *\*\return none
 663:../firmware/n32g430_std_periph_driver/src/n32g430_gpio.c ****  */
 664:../firmware/n32g430_std_periph_driver/src/n32g430_gpio.c **** void GPIO_Structure_Initialize(GPIO_InitType* GPIO_InitStruct)
 665:../firmware/n32g430_std_periph_driver/src/n32g430_gpio.c **** {
 1272              		.loc 1 665 1 view -0
 1273              		.cfi_startproc
 1274              		@ args = 0, pretend = 0, frame = 0
 1275              		@ frame_needed = 0, uses_anonymous_args = 0
 1276              		@ link register save eliminated.
 666:../firmware/n32g430_std_periph_driver/src/n32g430_gpio.c ****     /* Reset GPIO structure member */
 667:../firmware/n32g430_std_periph_driver/src/n32g430_gpio.c ****     GPIO_InitStruct->Pin            = GPIO_PIN_ALL;
 1277              		.loc 1 667 5 view .LVU426
 1278              		.loc 1 667 37 is_stmt 0 view .LVU427
 1279 0000 4FF6FF73 		movw	r3, #65535
 1280 0004 0360     		str	r3, [r0]
 668:../firmware/n32g430_std_periph_driver/src/n32g430_gpio.c ****     GPIO_InitStruct->GPIO_Slew_Rate = GPIO_SLEW_RATE_FAST;
 1281              		.loc 1 668 5 is_stmt 1 view .LVU428
 669:../firmware/n32g430_std_periph_driver/src/n32g430_gpio.c ****     GPIO_InitStruct->GPIO_Mode      = GPIO_MODE_INPUT;
 670:../firmware/n32g430_std_periph_driver/src/n32g430_gpio.c ****     GPIO_InitStruct->GPIO_Alternate = GPIO_NO_AF;
 1282              		.loc 1 670 37 is_stmt 0 view .LVU429
 1283 0006 0F22     		movs	r2, #15
 668:../firmware/n32g430_std_periph_driver/src/n32g430_gpio.c ****     GPIO_InitStruct->GPIO_Slew_Rate = GPIO_SLEW_RATE_FAST;
 1284              		.loc 1 668 37 view .LVU430
 1285 0008 0023     		movs	r3, #0
 1286 000a C360     		str	r3, [r0, #12]
 669:../firmware/n32g430_std_periph_driver/src/n32g430_gpio.c ****     GPIO_InitStruct->GPIO_Mode      = GPIO_MODE_INPUT;
 1287              		.loc 1 669 5 is_stmt 1 view .LVU431
 669:../firmware/n32g430_std_periph_driver/src/n32g430_gpio.c ****     GPIO_InitStruct->GPIO_Mode      = GPIO_MODE_INPUT;
 1288              		.loc 1 669 37 is_stmt 0 view .LVU432
 1289 000c 4360     		str	r3, [r0, #4]
 1290              		.loc 1 670 5 is_stmt 1 view .LVU433
 1291              		.loc 1 670 37 is_stmt 0 view .LVU434
 1292 000e 4261     		str	r2, [r0, #20]
 671:../firmware/n32g430_std_periph_driver/src/n32g430_gpio.c ****     GPIO_InitStruct->GPIO_Pull      = GPIO_NO_PULL;
 1293              		.loc 1 671 5 is_stmt 1 view .LVU435
 1294              		.loc 1 671 37 is_stmt 0 view .LVU436
 1295 0010 8360     		str	r3, [r0, #8]
 672:../firmware/n32g430_std_periph_driver/src/n32g430_gpio.c ****     GPIO_InitStruct->GPIO_Current   = GPIO_DS_2MA;
 1296              		.loc 1 672 5 is_stmt 1 view .LVU437
 1297              		.loc 1 672 37 is_stmt 0 view .LVU438
 1298 0012 0361     		str	r3, [r0, #16]
 673:../firmware/n32g430_std_periph_driver/src/n32g430_gpio.c **** }
ARM GAS  C:\Users\Dawn\AppData\Local\Temp\cccrm2KO.s 			page 40


 1299              		.loc 1 673 1 view .LVU439
 1300 0014 7047     		bx	lr
 1301              		.cfi_endproc
 1302              	.LFE144:
 1304              		.section	.text.GPIO_Input_Pin_Data_Get,"ax",%progbits
 1305              		.align	1
 1306              		.global	GPIO_Input_Pin_Data_Get
 1307              		.syntax unified
 1308              		.thumb
 1309              		.thumb_func
 1311              	GPIO_Input_Pin_Data_Get:
 1312              	.LVL86:
 1313              	.LFB145:
 674:../firmware/n32g430_std_periph_driver/src/n32g430_gpio.c **** 
 675:../firmware/n32g430_std_periph_driver/src/n32g430_gpio.c **** 
 676:../firmware/n32g430_std_periph_driver/src/n32g430_gpio.c **** /**
 677:../firmware/n32g430_std_periph_driver/src/n32g430_gpio.c ****  *\*\name   GPIO_Input_Pin_Data_Get.
 678:../firmware/n32g430_std_periph_driver/src/n32g430_gpio.c ****  *\*\fun    Get the pin status on the specified input port.
 679:../firmware/n32g430_std_periph_driver/src/n32g430_gpio.c ****  *\*\param  GPIOx :
 680:../firmware/n32g430_std_periph_driver/src/n32g430_gpio.c ****  *\*\          - GPIOA
 681:../firmware/n32g430_std_periph_driver/src/n32g430_gpio.c ****  *\*\          - GPIOB
 682:../firmware/n32g430_std_periph_driver/src/n32g430_gpio.c ****  *\*\          - GPIOC
 683:../firmware/n32g430_std_periph_driver/src/n32g430_gpio.c ****  *\*\          - GPIOD
 684:../firmware/n32g430_std_periph_driver/src/n32g430_gpio.c ****  *\*\param  pin :
 685:../firmware/n32g430_std_periph_driver/src/n32g430_gpio.c ****  *\*\          - GPIO_PIN_0
 686:../firmware/n32g430_std_periph_driver/src/n32g430_gpio.c ****  *\*\          - GPIO_PIN_1
 687:../firmware/n32g430_std_periph_driver/src/n32g430_gpio.c ****  *\*\          - GPIO_PIN_2
 688:../firmware/n32g430_std_periph_driver/src/n32g430_gpio.c ****  *\*\          - GPIO_PIN_3
 689:../firmware/n32g430_std_periph_driver/src/n32g430_gpio.c ****  *\*\          - GPIO_PIN_4
 690:../firmware/n32g430_std_periph_driver/src/n32g430_gpio.c ****  *\*\          - GPIO_PIN_5
 691:../firmware/n32g430_std_periph_driver/src/n32g430_gpio.c ****  *\*\          - GPIO_PIN_6
 692:../firmware/n32g430_std_periph_driver/src/n32g430_gpio.c ****  *\*\          - GPIO_PIN_7
 693:../firmware/n32g430_std_periph_driver/src/n32g430_gpio.c ****  *\*\          - GPIO_PIN_8
 694:../firmware/n32g430_std_periph_driver/src/n32g430_gpio.c ****  *\*\          - GPIO_PIN_9
 695:../firmware/n32g430_std_periph_driver/src/n32g430_gpio.c ****  *\*\          - GPIO_PIN_10
 696:../firmware/n32g430_std_periph_driver/src/n32g430_gpio.c ****  *\*\          - GPIO_PIN_11
 697:../firmware/n32g430_std_periph_driver/src/n32g430_gpio.c ****  *\*\          - GPIO_PIN_12
 698:../firmware/n32g430_std_periph_driver/src/n32g430_gpio.c ****  *\*\          - GPIO_PIN_13
 699:../firmware/n32g430_std_periph_driver/src/n32g430_gpio.c ****  *\*\          - GPIO_PIN_14
 700:../firmware/n32g430_std_periph_driver/src/n32g430_gpio.c ****  *\*\          - GPIO_PIN_15
 701:../firmware/n32g430_std_periph_driver/src/n32g430_gpio.c ****  *\*\return the pin state on the input port.
 702:../firmware/n32g430_std_periph_driver/src/n32g430_gpio.c ****  */
 703:../firmware/n32g430_std_periph_driver/src/n32g430_gpio.c **** uint8_t GPIO_Input_Pin_Data_Get(GPIO_Module* GPIOx, uint16_t pin)
 704:../firmware/n32g430_std_periph_driver/src/n32g430_gpio.c **** {
 1314              		.loc 1 704 1 is_stmt 1 view -0
 1315              		.cfi_startproc
 1316              		@ args = 0, pretend = 0, frame = 0
 1317              		@ frame_needed = 0, uses_anonymous_args = 0
 1318              		@ link register save eliminated.
 705:../firmware/n32g430_std_periph_driver/src/n32g430_gpio.c ****     if ((GPIOx->PID & pin) != (uint32_t)PIN_RESET)
 1319              		.loc 1 705 5 view .LVU441
 1320              		.loc 1 705 15 is_stmt 0 view .LVU442
 1321 0000 0069     		ldr	r0, [r0, #16]
 1322              	.LVL87:
 1323              		.loc 1 705 21 view .LVU443
 1324 0002 0840     		ands	r0, r0, r1
 706:../firmware/n32g430_std_periph_driver/src/n32g430_gpio.c ****     {
ARM GAS  C:\Users\Dawn\AppData\Local\Temp\cccrm2KO.s 			page 41


 707:../firmware/n32g430_std_periph_driver/src/n32g430_gpio.c ****         return (uint8_t)PIN_SET;
 708:../firmware/n32g430_std_periph_driver/src/n32g430_gpio.c ****     }
 709:../firmware/n32g430_std_periph_driver/src/n32g430_gpio.c ****     else
 710:../firmware/n32g430_std_periph_driver/src/n32g430_gpio.c ****     {
 711:../firmware/n32g430_std_periph_driver/src/n32g430_gpio.c ****         return (uint8_t)PIN_RESET;
 712:../firmware/n32g430_std_periph_driver/src/n32g430_gpio.c ****     }
 713:../firmware/n32g430_std_periph_driver/src/n32g430_gpio.c **** }
 1325              		.loc 1 713 1 view .LVU444
 1326 0004 0038     		subs	r0, r0, #0
 1327 0006 18BF     		it	ne
 1328 0008 0120     		movne	r0, #1
 1329 000a 7047     		bx	lr
 1330              		.cfi_endproc
 1331              	.LFE145:
 1333              		.section	.text.GPIO_Input_Data_Get,"ax",%progbits
 1334              		.align	1
 1335              		.global	GPIO_Input_Data_Get
 1336              		.syntax unified
 1337              		.thumb
 1338              		.thumb_func
 1340              	GPIO_Input_Data_Get:
 1341              	.LVL88:
 1342              	.LFB146:
 714:../firmware/n32g430_std_periph_driver/src/n32g430_gpio.c **** 
 715:../firmware/n32g430_std_periph_driver/src/n32g430_gpio.c **** 
 716:../firmware/n32g430_std_periph_driver/src/n32g430_gpio.c **** /**
 717:../firmware/n32g430_std_periph_driver/src/n32g430_gpio.c ****  *\*\name   GPIO_Input_Data_Get.
 718:../firmware/n32g430_std_periph_driver/src/n32g430_gpio.c ****  *\*\fun    Get the input data on the designated GPIO port.
 719:../firmware/n32g430_std_periph_driver/src/n32g430_gpio.c ****  *\*\param  GPIOx :
 720:../firmware/n32g430_std_periph_driver/src/n32g430_gpio.c ****  *\*\          - GPIOA
 721:../firmware/n32g430_std_periph_driver/src/n32g430_gpio.c ****  *\*\          - GPIOB
 722:../firmware/n32g430_std_periph_driver/src/n32g430_gpio.c ****  *\*\          - GPIOC
 723:../firmware/n32g430_std_periph_driver/src/n32g430_gpio.c ****  *\*\          - GPIOD
 724:../firmware/n32g430_std_periph_driver/src/n32g430_gpio.c ****  *\*\return the data value on the GPIO input port.
 725:../firmware/n32g430_std_periph_driver/src/n32g430_gpio.c ****  */
 726:../firmware/n32g430_std_periph_driver/src/n32g430_gpio.c **** uint16_t GPIO_Input_Data_Get(GPIO_Module* GPIOx)
 727:../firmware/n32g430_std_periph_driver/src/n32g430_gpio.c **** {
 1343              		.loc 1 727 1 is_stmt 1 view -0
 1344              		.cfi_startproc
 1345              		@ args = 0, pretend = 0, frame = 0
 1346              		@ frame_needed = 0, uses_anonymous_args = 0
 1347              		@ link register save eliminated.
 728:../firmware/n32g430_std_periph_driver/src/n32g430_gpio.c ****     return ((uint16_t)GPIOx->PID);
 1348              		.loc 1 728 5 view .LVU446
 1349              		.loc 1 728 28 is_stmt 0 view .LVU447
 1350 0000 0069     		ldr	r0, [r0, #16]
 1351              	.LVL89:
 729:../firmware/n32g430_std_periph_driver/src/n32g430_gpio.c **** }
 1352              		.loc 1 729 1 view .LVU448
 1353 0002 80B2     		uxth	r0, r0
 1354 0004 7047     		bx	lr
 1355              		.cfi_endproc
 1356              	.LFE146:
 1358              		.section	.text.GPIO_Output_Pin_Data_Get,"ax",%progbits
 1359              		.align	1
 1360              		.global	GPIO_Output_Pin_Data_Get
 1361              		.syntax unified
ARM GAS  C:\Users\Dawn\AppData\Local\Temp\cccrm2KO.s 			page 42


 1362              		.thumb
 1363              		.thumb_func
 1365              	GPIO_Output_Pin_Data_Get:
 1366              	.LVL90:
 1367              	.LFB147:
 730:../firmware/n32g430_std_periph_driver/src/n32g430_gpio.c **** 
 731:../firmware/n32g430_std_periph_driver/src/n32g430_gpio.c **** 
 732:../firmware/n32g430_std_periph_driver/src/n32g430_gpio.c **** /**
 733:../firmware/n32g430_std_periph_driver/src/n32g430_gpio.c ****  *\*\name   GPIO_Output_Pin_Data_Get.
 734:../firmware/n32g430_std_periph_driver/src/n32g430_gpio.c ****  *\*\fun    Get the pin status on the specified output port.
 735:../firmware/n32g430_std_periph_driver/src/n32g430_gpio.c ****  *\*\param  GPIOx :
 736:../firmware/n32g430_std_periph_driver/src/n32g430_gpio.c ****  *\*\          - GPIOA
 737:../firmware/n32g430_std_periph_driver/src/n32g430_gpio.c ****  *\*\          - GPIOB
 738:../firmware/n32g430_std_periph_driver/src/n32g430_gpio.c ****  *\*\          - GPIOC
 739:../firmware/n32g430_std_periph_driver/src/n32g430_gpio.c ****  *\*\          - GPIOD
 740:../firmware/n32g430_std_periph_driver/src/n32g430_gpio.c ****  *\*\param  pin :
 741:../firmware/n32g430_std_periph_driver/src/n32g430_gpio.c ****  *\*\          - GPIO_PIN_0
 742:../firmware/n32g430_std_periph_driver/src/n32g430_gpio.c ****  *\*\          - GPIO_PIN_1
 743:../firmware/n32g430_std_periph_driver/src/n32g430_gpio.c ****  *\*\          - GPIO_PIN_2
 744:../firmware/n32g430_std_periph_driver/src/n32g430_gpio.c ****  *\*\          - GPIO_PIN_3
 745:../firmware/n32g430_std_periph_driver/src/n32g430_gpio.c ****  *\*\          - GPIO_PIN_4
 746:../firmware/n32g430_std_periph_driver/src/n32g430_gpio.c ****  *\*\          - GPIO_PIN_5
 747:../firmware/n32g430_std_periph_driver/src/n32g430_gpio.c ****  *\*\          - GPIO_PIN_6
 748:../firmware/n32g430_std_periph_driver/src/n32g430_gpio.c ****  *\*\          - GPIO_PIN_7
 749:../firmware/n32g430_std_periph_driver/src/n32g430_gpio.c ****  *\*\          - GPIO_PIN_8
 750:../firmware/n32g430_std_periph_driver/src/n32g430_gpio.c ****  *\*\          - GPIO_PIN_9
 751:../firmware/n32g430_std_periph_driver/src/n32g430_gpio.c ****  *\*\          - GPIO_PIN_10
 752:../firmware/n32g430_std_periph_driver/src/n32g430_gpio.c ****  *\*\          - GPIO_PIN_11
 753:../firmware/n32g430_std_periph_driver/src/n32g430_gpio.c ****  *\*\          - GPIO_PIN_12
 754:../firmware/n32g430_std_periph_driver/src/n32g430_gpio.c ****  *\*\          - GPIO_PIN_13
 755:../firmware/n32g430_std_periph_driver/src/n32g430_gpio.c ****  *\*\          - GPIO_PIN_14
 756:../firmware/n32g430_std_periph_driver/src/n32g430_gpio.c ****  *\*\          - GPIO_PIN_15
 757:../firmware/n32g430_std_periph_driver/src/n32g430_gpio.c ****  *\*\return the pin state on the output port.
 758:../firmware/n32g430_std_periph_driver/src/n32g430_gpio.c ****  */
 759:../firmware/n32g430_std_periph_driver/src/n32g430_gpio.c **** uint8_t GPIO_Output_Pin_Data_Get(GPIO_Module* GPIOx, uint16_t pin)
 760:../firmware/n32g430_std_periph_driver/src/n32g430_gpio.c **** {
 1368              		.loc 1 760 1 is_stmt 1 view -0
 1369              		.cfi_startproc
 1370              		@ args = 0, pretend = 0, frame = 0
 1371              		@ frame_needed = 0, uses_anonymous_args = 0
 1372              		@ link register save eliminated.
 761:../firmware/n32g430_std_periph_driver/src/n32g430_gpio.c ****     if ((GPIOx->POD & pin) != (uint32_t)PIN_RESET)
 1373              		.loc 1 761 5 view .LVU450
 1374              		.loc 1 761 15 is_stmt 0 view .LVU451
 1375 0000 4069     		ldr	r0, [r0, #20]
 1376              	.LVL91:
 1377              		.loc 1 761 21 view .LVU452
 1378 0002 0840     		ands	r0, r0, r1
 762:../firmware/n32g430_std_periph_driver/src/n32g430_gpio.c ****     {
 763:../firmware/n32g430_std_periph_driver/src/n32g430_gpio.c ****         return (uint8_t)PIN_SET;
 764:../firmware/n32g430_std_periph_driver/src/n32g430_gpio.c ****     }
 765:../firmware/n32g430_std_periph_driver/src/n32g430_gpio.c ****     else
 766:../firmware/n32g430_std_periph_driver/src/n32g430_gpio.c ****     {
 767:../firmware/n32g430_std_periph_driver/src/n32g430_gpio.c ****         return (uint8_t)PIN_RESET;
 768:../firmware/n32g430_std_periph_driver/src/n32g430_gpio.c ****     }
 769:../firmware/n32g430_std_periph_driver/src/n32g430_gpio.c **** }
 1379              		.loc 1 769 1 view .LVU453
ARM GAS  C:\Users\Dawn\AppData\Local\Temp\cccrm2KO.s 			page 43


 1380 0004 0038     		subs	r0, r0, #0
 1381 0006 18BF     		it	ne
 1382 0008 0120     		movne	r0, #1
 1383 000a 7047     		bx	lr
 1384              		.cfi_endproc
 1385              	.LFE147:
 1387              		.section	.text.GPIO_Output_Data_Get,"ax",%progbits
 1388              		.align	1
 1389              		.global	GPIO_Output_Data_Get
 1390              		.syntax unified
 1391              		.thumb
 1392              		.thumb_func
 1394              	GPIO_Output_Data_Get:
 1395              	.LVL92:
 1396              	.LFB148:
 770:../firmware/n32g430_std_periph_driver/src/n32g430_gpio.c **** 
 771:../firmware/n32g430_std_periph_driver/src/n32g430_gpio.c **** 
 772:../firmware/n32g430_std_periph_driver/src/n32g430_gpio.c **** /**
 773:../firmware/n32g430_std_periph_driver/src/n32g430_gpio.c ****  *\*\name   GPIO_Output_Data_Get.
 774:../firmware/n32g430_std_periph_driver/src/n32g430_gpio.c ****  *\*\fun    Get the output data on the designated GPIO port.
 775:../firmware/n32g430_std_periph_driver/src/n32g430_gpio.c ****  *\*\param  GPIOx :
 776:../firmware/n32g430_std_periph_driver/src/n32g430_gpio.c ****  *\*\          - GPIOA
 777:../firmware/n32g430_std_periph_driver/src/n32g430_gpio.c ****  *\*\          - GPIOB
 778:../firmware/n32g430_std_periph_driver/src/n32g430_gpio.c ****  *\*\          - GPIOC
 779:../firmware/n32g430_std_periph_driver/src/n32g430_gpio.c ****  *\*\          - GPIOD
 780:../firmware/n32g430_std_periph_driver/src/n32g430_gpio.c ****  *\*\return the data value on the GPIO output port.
 781:../firmware/n32g430_std_periph_driver/src/n32g430_gpio.c ****  */
 782:../firmware/n32g430_std_periph_driver/src/n32g430_gpio.c **** uint16_t GPIO_Output_Data_Get(GPIO_Module* GPIOx)
 783:../firmware/n32g430_std_periph_driver/src/n32g430_gpio.c **** {
 1397              		.loc 1 783 1 is_stmt 1 view -0
 1398              		.cfi_startproc
 1399              		@ args = 0, pretend = 0, frame = 0
 1400              		@ frame_needed = 0, uses_anonymous_args = 0
 1401              		@ link register save eliminated.
 784:../firmware/n32g430_std_periph_driver/src/n32g430_gpio.c ****     return ((uint16_t)GPIOx->POD);
 1402              		.loc 1 784 5 view .LVU455
 1403              		.loc 1 784 28 is_stmt 0 view .LVU456
 1404 0000 4069     		ldr	r0, [r0, #20]
 1405              	.LVL93:
 785:../firmware/n32g430_std_periph_driver/src/n32g430_gpio.c **** }
 1406              		.loc 1 785 1 view .LVU457
 1407 0002 80B2     		uxth	r0, r0
 1408 0004 7047     		bx	lr
 1409              		.cfi_endproc
 1410              	.LFE148:
 1412              		.section	.text.GPIO_Pins_Set,"ax",%progbits
 1413              		.align	1
 1414              		.global	GPIO_Pins_Set
 1415              		.syntax unified
 1416              		.thumb
 1417              		.thumb_func
 1419              	GPIO_Pins_Set:
 1420              	.LVL94:
 1421              	.LFB149:
 786:../firmware/n32g430_std_periph_driver/src/n32g430_gpio.c **** 
 787:../firmware/n32g430_std_periph_driver/src/n32g430_gpio.c **** 
 788:../firmware/n32g430_std_periph_driver/src/n32g430_gpio.c **** /**
ARM GAS  C:\Users\Dawn\AppData\Local\Temp\cccrm2KO.s 			page 44


 789:../firmware/n32g430_std_periph_driver/src/n32g430_gpio.c ****  *\*\name   GPIO_Pins_Set.
 790:../firmware/n32g430_std_periph_driver/src/n32g430_gpio.c ****  *\*\fun    Sets the selected data port bits.
 791:../firmware/n32g430_std_periph_driver/src/n32g430_gpio.c ****  *\*\param  GPIOx :
 792:../firmware/n32g430_std_periph_driver/src/n32g430_gpio.c ****  *\*\          - GPIOA
 793:../firmware/n32g430_std_periph_driver/src/n32g430_gpio.c ****  *\*\          - GPIOB
 794:../firmware/n32g430_std_periph_driver/src/n32g430_gpio.c ****  *\*\          - GPIOC
 795:../firmware/n32g430_std_periph_driver/src/n32g430_gpio.c ****  *\*\          - GPIOD
 796:../firmware/n32g430_std_periph_driver/src/n32g430_gpio.c ****  *\*\param  pin :
 797:../firmware/n32g430_std_periph_driver/src/n32g430_gpio.c ****  *\*\          - GPIO_PIN_0
 798:../firmware/n32g430_std_periph_driver/src/n32g430_gpio.c ****  *\*\          - GPIO_PIN_1
 799:../firmware/n32g430_std_periph_driver/src/n32g430_gpio.c ****  *\*\          - GPIO_PIN_2
 800:../firmware/n32g430_std_periph_driver/src/n32g430_gpio.c ****  *\*\          - GPIO_PIN_3
 801:../firmware/n32g430_std_periph_driver/src/n32g430_gpio.c ****  *\*\          - GPIO_PIN_4
 802:../firmware/n32g430_std_periph_driver/src/n32g430_gpio.c ****  *\*\          - GPIO_PIN_5
 803:../firmware/n32g430_std_periph_driver/src/n32g430_gpio.c ****  *\*\          - GPIO_PIN_6
 804:../firmware/n32g430_std_periph_driver/src/n32g430_gpio.c ****  *\*\          - GPIO_PIN_7
 805:../firmware/n32g430_std_periph_driver/src/n32g430_gpio.c ****  *\*\          - GPIO_PIN_8
 806:../firmware/n32g430_std_periph_driver/src/n32g430_gpio.c ****  *\*\          - GPIO_PIN_9
 807:../firmware/n32g430_std_periph_driver/src/n32g430_gpio.c ****  *\*\          - GPIO_PIN_10
 808:../firmware/n32g430_std_periph_driver/src/n32g430_gpio.c ****  *\*\          - GPIO_PIN_11
 809:../firmware/n32g430_std_periph_driver/src/n32g430_gpio.c ****  *\*\          - GPIO_PIN_12
 810:../firmware/n32g430_std_periph_driver/src/n32g430_gpio.c ****  *\*\          - GPIO_PIN_13
 811:../firmware/n32g430_std_periph_driver/src/n32g430_gpio.c ****  *\*\          - GPIO_PIN_14
 812:../firmware/n32g430_std_periph_driver/src/n32g430_gpio.c ****  *\*\          - GPIO_PIN_15
 813:../firmware/n32g430_std_periph_driver/src/n32g430_gpio.c ****  *\*\return none
 814:../firmware/n32g430_std_periph_driver/src/n32g430_gpio.c ****  */
 815:../firmware/n32g430_std_periph_driver/src/n32g430_gpio.c **** void GPIO_Pins_Set(GPIO_Module* GPIOx, uint16_t pin)
 816:../firmware/n32g430_std_periph_driver/src/n32g430_gpio.c **** {
 1422              		.loc 1 816 1 is_stmt 1 view -0
 1423              		.cfi_startproc
 1424              		@ args = 0, pretend = 0, frame = 0
 1425              		@ frame_needed = 0, uses_anonymous_args = 0
 1426              		@ link register save eliminated.
 817:../firmware/n32g430_std_periph_driver/src/n32g430_gpio.c ****     GPIOx->PBSC = pin;
 1427              		.loc 1 817 5 view .LVU459
 1428              		.loc 1 817 17 is_stmt 0 view .LVU460
 1429 0000 8161     		str	r1, [r0, #24]
 818:../firmware/n32g430_std_periph_driver/src/n32g430_gpio.c **** }
 1430              		.loc 1 818 1 view .LVU461
 1431 0002 7047     		bx	lr
 1432              		.cfi_endproc
 1433              	.LFE149:
 1435              		.section	.text.GPIO_Pins_Reset,"ax",%progbits
 1436              		.align	1
 1437              		.global	GPIO_Pins_Reset
 1438              		.syntax unified
 1439              		.thumb
 1440              		.thumb_func
 1442              	GPIO_Pins_Reset:
 1443              	.LVL95:
 1444              	.LFB150:
 819:../firmware/n32g430_std_periph_driver/src/n32g430_gpio.c **** 
 820:../firmware/n32g430_std_periph_driver/src/n32g430_gpio.c **** /**
 821:../firmware/n32g430_std_periph_driver/src/n32g430_gpio.c ****  *\*\name   GPIO_Pins_Reset.
 822:../firmware/n32g430_std_periph_driver/src/n32g430_gpio.c ****  *\*\fun    Reset the selected data port bits.
 823:../firmware/n32g430_std_periph_driver/src/n32g430_gpio.c ****  *\*\param  GPIOx :
 824:../firmware/n32g430_std_periph_driver/src/n32g430_gpio.c ****  *\*\          - GPIOA
ARM GAS  C:\Users\Dawn\AppData\Local\Temp\cccrm2KO.s 			page 45


 825:../firmware/n32g430_std_periph_driver/src/n32g430_gpio.c ****  *\*\          - GPIOB
 826:../firmware/n32g430_std_periph_driver/src/n32g430_gpio.c ****  *\*\          - GPIOC
 827:../firmware/n32g430_std_periph_driver/src/n32g430_gpio.c ****  *\*\          - GPIOD
 828:../firmware/n32g430_std_periph_driver/src/n32g430_gpio.c ****  *\*\param  pin :
 829:../firmware/n32g430_std_periph_driver/src/n32g430_gpio.c ****  *\*\          - GPIO_PIN_0
 830:../firmware/n32g430_std_periph_driver/src/n32g430_gpio.c ****  *\*\          - GPIO_PIN_1
 831:../firmware/n32g430_std_periph_driver/src/n32g430_gpio.c ****  *\*\          - GPIO_PIN_2
 832:../firmware/n32g430_std_periph_driver/src/n32g430_gpio.c ****  *\*\          - GPIO_PIN_3
 833:../firmware/n32g430_std_periph_driver/src/n32g430_gpio.c ****  *\*\          - GPIO_PIN_4
 834:../firmware/n32g430_std_periph_driver/src/n32g430_gpio.c ****  *\*\          - GPIO_PIN_5
 835:../firmware/n32g430_std_periph_driver/src/n32g430_gpio.c ****  *\*\          - GPIO_PIN_6
 836:../firmware/n32g430_std_periph_driver/src/n32g430_gpio.c ****  *\*\          - GPIO_PIN_7
 837:../firmware/n32g430_std_periph_driver/src/n32g430_gpio.c ****  *\*\          - GPIO_PIN_8
 838:../firmware/n32g430_std_periph_driver/src/n32g430_gpio.c ****  *\*\          - GPIO_PIN_9
 839:../firmware/n32g430_std_periph_driver/src/n32g430_gpio.c ****  *\*\          - GPIO_PIN_10
 840:../firmware/n32g430_std_periph_driver/src/n32g430_gpio.c ****  *\*\          - GPIO_PIN_11
 841:../firmware/n32g430_std_periph_driver/src/n32g430_gpio.c ****  *\*\          - GPIO_PIN_12
 842:../firmware/n32g430_std_periph_driver/src/n32g430_gpio.c ****  *\*\          - GPIO_PIN_13
 843:../firmware/n32g430_std_periph_driver/src/n32g430_gpio.c ****  *\*\          - GPIO_PIN_14
 844:../firmware/n32g430_std_periph_driver/src/n32g430_gpio.c ****  *\*\          - GPIO_PIN_15
 845:../firmware/n32g430_std_periph_driver/src/n32g430_gpio.c ****  *\*\return none
 846:../firmware/n32g430_std_periph_driver/src/n32g430_gpio.c ****  */
 847:../firmware/n32g430_std_periph_driver/src/n32g430_gpio.c **** void GPIO_Pins_Reset(GPIO_Module* GPIOx, uint16_t pin)
 848:../firmware/n32g430_std_periph_driver/src/n32g430_gpio.c **** {
 1445              		.loc 1 848 1 is_stmt 1 view -0
 1446              		.cfi_startproc
 1447              		@ args = 0, pretend = 0, frame = 0
 1448              		@ frame_needed = 0, uses_anonymous_args = 0
 1449              		@ link register save eliminated.
 849:../firmware/n32g430_std_periph_driver/src/n32g430_gpio.c ****     GPIOx->PBC = pin;
 1450              		.loc 1 849 5 view .LVU463
 1451              		.loc 1 849 16 is_stmt 0 view .LVU464
 1452 0000 8162     		str	r1, [r0, #40]
 850:../firmware/n32g430_std_periph_driver/src/n32g430_gpio.c **** }
 1453              		.loc 1 850 1 view .LVU465
 1454 0002 7047     		bx	lr
 1455              		.cfi_endproc
 1456              	.LFE150:
 1458              		.section	.text.GPIO_PBSC_Pins_Reset,"ax",%progbits
 1459              		.align	1
 1460              		.global	GPIO_PBSC_Pins_Reset
 1461              		.syntax unified
 1462              		.thumb
 1463              		.thumb_func
 1465              	GPIO_PBSC_Pins_Reset:
 1466              	.LVL96:
 1467              	.LFB151:
 851:../firmware/n32g430_std_periph_driver/src/n32g430_gpio.c **** 
 852:../firmware/n32g430_std_periph_driver/src/n32g430_gpio.c **** /**
 853:../firmware/n32g430_std_periph_driver/src/n32g430_gpio.c ****  *\*\name   GPIO_PBSC_Pins_Reset.
 854:../firmware/n32g430_std_periph_driver/src/n32g430_gpio.c ****  *\*\fun    Sets the selected data port bits.
 855:../firmware/n32g430_std_periph_driver/src/n32g430_gpio.c ****  *\*\param  GPIOx :
 856:../firmware/n32g430_std_periph_driver/src/n32g430_gpio.c ****  *\*\          - GPIOA
 857:../firmware/n32g430_std_periph_driver/src/n32g430_gpio.c ****  *\*\          - GPIOB
 858:../firmware/n32g430_std_periph_driver/src/n32g430_gpio.c ****  *\*\          - GPIOC
 859:../firmware/n32g430_std_periph_driver/src/n32g430_gpio.c ****  *\*\          - GPIOD
 860:../firmware/n32g430_std_periph_driver/src/n32g430_gpio.c ****  *\*\param  pin :
ARM GAS  C:\Users\Dawn\AppData\Local\Temp\cccrm2KO.s 			page 46


 861:../firmware/n32g430_std_periph_driver/src/n32g430_gpio.c ****  *\*\          - GPIO_PIN_0
 862:../firmware/n32g430_std_periph_driver/src/n32g430_gpio.c ****  *\*\          - GPIO_PIN_1
 863:../firmware/n32g430_std_periph_driver/src/n32g430_gpio.c ****  *\*\          - GPIO_PIN_2
 864:../firmware/n32g430_std_periph_driver/src/n32g430_gpio.c ****  *\*\          - GPIO_PIN_3
 865:../firmware/n32g430_std_periph_driver/src/n32g430_gpio.c ****  *\*\          - GPIO_PIN_4
 866:../firmware/n32g430_std_periph_driver/src/n32g430_gpio.c ****  *\*\          - GPIO_PIN_5
 867:../firmware/n32g430_std_periph_driver/src/n32g430_gpio.c ****  *\*\          - GPIO_PIN_6
 868:../firmware/n32g430_std_periph_driver/src/n32g430_gpio.c ****  *\*\          - GPIO_PIN_7
 869:../firmware/n32g430_std_periph_driver/src/n32g430_gpio.c ****  *\*\          - GPIO_PIN_8
 870:../firmware/n32g430_std_periph_driver/src/n32g430_gpio.c ****  *\*\          - GPIO_PIN_9
 871:../firmware/n32g430_std_periph_driver/src/n32g430_gpio.c ****  *\*\          - GPIO_PIN_10
 872:../firmware/n32g430_std_periph_driver/src/n32g430_gpio.c ****  *\*\          - GPIO_PIN_11
 873:../firmware/n32g430_std_periph_driver/src/n32g430_gpio.c ****  *\*\          - GPIO_PIN_12
 874:../firmware/n32g430_std_periph_driver/src/n32g430_gpio.c ****  *\*\          - GPIO_PIN_13
 875:../firmware/n32g430_std_periph_driver/src/n32g430_gpio.c ****  *\*\          - GPIO_PIN_14
 876:../firmware/n32g430_std_periph_driver/src/n32g430_gpio.c ****  *\*\          - GPIO_PIN_15
 877:../firmware/n32g430_std_periph_driver/src/n32g430_gpio.c ****  *\*\return none
 878:../firmware/n32g430_std_periph_driver/src/n32g430_gpio.c ****  */
 879:../firmware/n32g430_std_periph_driver/src/n32g430_gpio.c **** void GPIO_PBSC_Pins_Reset(GPIO_Module* GPIOx, uint16_t pin)
 880:../firmware/n32g430_std_periph_driver/src/n32g430_gpio.c **** {
 1468              		.loc 1 880 1 is_stmt 1 view -0
 1469              		.cfi_startproc
 1470              		@ args = 0, pretend = 0, frame = 0
 1471              		@ frame_needed = 0, uses_anonymous_args = 0
 1472              		@ link register save eliminated.
 881:../firmware/n32g430_std_periph_driver/src/n32g430_gpio.c ****     uint32_t Pin = pin;
 1473              		.loc 1 881 5 view .LVU467
 882:../firmware/n32g430_std_periph_driver/src/n32g430_gpio.c ****     GPIOx->PBSC = (Pin << SHIFT_PBSC_HIGH16);
 1474              		.loc 1 882 5 view .LVU468
 1475              		.loc 1 882 24 is_stmt 0 view .LVU469
 1476 0000 0904     		lsls	r1, r1, #16
 1477              	.LVL97:
 1478              		.loc 1 882 17 view .LVU470
 1479 0002 8161     		str	r1, [r0, #24]
 883:../firmware/n32g430_std_periph_driver/src/n32g430_gpio.c **** }
 1480              		.loc 1 883 1 view .LVU471
 1481 0004 7047     		bx	lr
 1482              		.cfi_endproc
 1483              	.LFE151:
 1485              		.section	.text.GPIO_PBC_Pins_Reset,"ax",%progbits
 1486              		.align	1
 1487              		.global	GPIO_PBC_Pins_Reset
 1488              		.syntax unified
 1489              		.thumb
 1490              		.thumb_func
 1492              	GPIO_PBC_Pins_Reset:
 1493              	.LFB169:
 1494              		.cfi_startproc
 884:../firmware/n32g430_std_periph_driver/src/n32g430_gpio.c **** 
 885:../firmware/n32g430_std_periph_driver/src/n32g430_gpio.c **** 
 886:../firmware/n32g430_std_periph_driver/src/n32g430_gpio.c **** /**
 887:../firmware/n32g430_std_periph_driver/src/n32g430_gpio.c ****  *\*\name   GPIO_PBC_Pins_Reset.
 888:../firmware/n32g430_std_periph_driver/src/n32g430_gpio.c ****  *\*\fun    Reset the selected data port bits.
 889:../firmware/n32g430_std_periph_driver/src/n32g430_gpio.c ****  *\*\param  GPIOx :
 890:../firmware/n32g430_std_periph_driver/src/n32g430_gpio.c ****  *\*\          - GPIOA
 891:../firmware/n32g430_std_periph_driver/src/n32g430_gpio.c ****  *\*\          - GPIOB
 892:../firmware/n32g430_std_periph_driver/src/n32g430_gpio.c ****  *\*\          - GPIOC
ARM GAS  C:\Users\Dawn\AppData\Local\Temp\cccrm2KO.s 			page 47


 893:../firmware/n32g430_std_periph_driver/src/n32g430_gpio.c ****  *\*\          - GPIOD
 894:../firmware/n32g430_std_periph_driver/src/n32g430_gpio.c ****  *\*\param  pin :
 895:../firmware/n32g430_std_periph_driver/src/n32g430_gpio.c ****  *\*\          - GPIO_PIN_0
 896:../firmware/n32g430_std_periph_driver/src/n32g430_gpio.c ****  *\*\          - GPIO_PIN_1
 897:../firmware/n32g430_std_periph_driver/src/n32g430_gpio.c ****  *\*\          - GPIO_PIN_2
 898:../firmware/n32g430_std_periph_driver/src/n32g430_gpio.c ****  *\*\          - GPIO_PIN_3
 899:../firmware/n32g430_std_periph_driver/src/n32g430_gpio.c ****  *\*\          - GPIO_PIN_4
 900:../firmware/n32g430_std_periph_driver/src/n32g430_gpio.c ****  *\*\          - GPIO_PIN_5
 901:../firmware/n32g430_std_periph_driver/src/n32g430_gpio.c ****  *\*\          - GPIO_PIN_6
 902:../firmware/n32g430_std_periph_driver/src/n32g430_gpio.c ****  *\*\          - GPIO_PIN_7
 903:../firmware/n32g430_std_periph_driver/src/n32g430_gpio.c ****  *\*\          - GPIO_PIN_8
 904:../firmware/n32g430_std_periph_driver/src/n32g430_gpio.c ****  *\*\          - GPIO_PIN_9
 905:../firmware/n32g430_std_periph_driver/src/n32g430_gpio.c ****  *\*\          - GPIO_PIN_10
 906:../firmware/n32g430_std_periph_driver/src/n32g430_gpio.c ****  *\*\          - GPIO_PIN_11
 907:../firmware/n32g430_std_periph_driver/src/n32g430_gpio.c ****  *\*\          - GPIO_PIN_12
 908:../firmware/n32g430_std_periph_driver/src/n32g430_gpio.c ****  *\*\          - GPIO_PIN_13
 909:../firmware/n32g430_std_periph_driver/src/n32g430_gpio.c ****  *\*\          - GPIO_PIN_14
 910:../firmware/n32g430_std_periph_driver/src/n32g430_gpio.c ****  *\*\          - GPIO_PIN_15
 911:../firmware/n32g430_std_periph_driver/src/n32g430_gpio.c ****  *\*\return none
 912:../firmware/n32g430_std_periph_driver/src/n32g430_gpio.c ****  */
 913:../firmware/n32g430_std_periph_driver/src/n32g430_gpio.c **** void GPIO_PBC_Pins_Reset(GPIO_Module* GPIOx, uint16_t pin)
 1495              		.loc 1 913 6 is_stmt 1 view -0
 1496              		@ args = 0, pretend = 0, frame = 0
 1497              		@ frame_needed = 0, uses_anonymous_args = 0
 1498              		@ link register save eliminated.
 1499 0000 8162     		str	r1, [r0, #40]
 1500 0002 7047     		bx	lr
 1501              		.cfi_endproc
 1502              	.LFE169:
 1504              		.section	.text.GPIO_Write,"ax",%progbits
 1505              		.align	1
 1506              		.global	GPIO_Write
 1507              		.syntax unified
 1508              		.thumb
 1509              		.thumb_func
 1511              	GPIO_Write:
 1512              	.LVL98:
 1513              	.LFB153:
 914:../firmware/n32g430_std_periph_driver/src/n32g430_gpio.c **** {
 915:../firmware/n32g430_std_periph_driver/src/n32g430_gpio.c ****     GPIOx->PBC = pin;
 916:../firmware/n32g430_std_periph_driver/src/n32g430_gpio.c **** }
 917:../firmware/n32g430_std_periph_driver/src/n32g430_gpio.c **** 
 918:../firmware/n32g430_std_periph_driver/src/n32g430_gpio.c **** 
 919:../firmware/n32g430_std_periph_driver/src/n32g430_gpio.c **** /**
 920:../firmware/n32g430_std_periph_driver/src/n32g430_gpio.c ****  *\*\name   GPIO_Write_Data.
 921:../firmware/n32g430_std_periph_driver/src/n32g430_gpio.c ****  *\*\fun    Write data on the designated GPIO data port.
 922:../firmware/n32g430_std_periph_driver/src/n32g430_gpio.c ****  *\*\param  GPIOx :
 923:../firmware/n32g430_std_periph_driver/src/n32g430_gpio.c ****  *\*\          - GPIOA
 924:../firmware/n32g430_std_periph_driver/src/n32g430_gpio.c ****  *\*\          - GPIOB
 925:../firmware/n32g430_std_periph_driver/src/n32g430_gpio.c ****  *\*\          - GPIOC
 926:../firmware/n32g430_std_periph_driver/src/n32g430_gpio.c ****  *\*\          - GPIOD
 927:../firmware/n32g430_std_periph_driver/src/n32g430_gpio.c ****  *\*\param  data_value :
 928:../firmware/n32g430_std_periph_driver/src/n32g430_gpio.c ****  *\*\          the value to be written to the port output data register.
 929:../firmware/n32g430_std_periph_driver/src/n32g430_gpio.c ****  *\*\return none
 930:../firmware/n32g430_std_periph_driver/src/n32g430_gpio.c ****  */
 931:../firmware/n32g430_std_periph_driver/src/n32g430_gpio.c **** void GPIO_Write(GPIO_Module* GPIOx, uint16_t data_value)
 932:../firmware/n32g430_std_periph_driver/src/n32g430_gpio.c **** {
ARM GAS  C:\Users\Dawn\AppData\Local\Temp\cccrm2KO.s 			page 48


 1514              		.loc 1 932 1 view -0
 1515              		.cfi_startproc
 1516              		@ args = 0, pretend = 0, frame = 0
 1517              		@ frame_needed = 0, uses_anonymous_args = 0
 1518              		@ link register save eliminated.
 933:../firmware/n32g430_std_periph_driver/src/n32g430_gpio.c ****     GPIOx->POD = data_value;
 1519              		.loc 1 933 5 view .LVU474
 1520              		.loc 1 933 16 is_stmt 0 view .LVU475
 1521 0000 4161     		str	r1, [r0, #20]
 934:../firmware/n32g430_std_periph_driver/src/n32g430_gpio.c **** }
 1522              		.loc 1 934 1 view .LVU476
 1523 0002 7047     		bx	lr
 1524              		.cfi_endproc
 1525              	.LFE153:
 1527              		.section	.text.GPIO_Pin_Toggle,"ax",%progbits
 1528              		.align	1
 1529              		.global	GPIO_Pin_Toggle
 1530              		.syntax unified
 1531              		.thumb
 1532              		.thumb_func
 1534              	GPIO_Pin_Toggle:
 1535              	.LVL99:
 1536              	.LFB154:
 935:../firmware/n32g430_std_periph_driver/src/n32g430_gpio.c **** 
 936:../firmware/n32g430_std_periph_driver/src/n32g430_gpio.c **** 
 937:../firmware/n32g430_std_periph_driver/src/n32g430_gpio.c **** /**
 938:../firmware/n32g430_std_periph_driver/src/n32g430_gpio.c ****  *\*\name   GPIO_Pin_Toggle.
 939:../firmware/n32g430_std_periph_driver/src/n32g430_gpio.c ****  *\*\fun    Toggle the specified port pin level.
 940:../firmware/n32g430_std_periph_driver/src/n32g430_gpio.c ****  *\*\param  GPIOx :
 941:../firmware/n32g430_std_periph_driver/src/n32g430_gpio.c ****  *\*\          - GPIOA
 942:../firmware/n32g430_std_periph_driver/src/n32g430_gpio.c ****  *\*\          - GPIOB
 943:../firmware/n32g430_std_periph_driver/src/n32g430_gpio.c ****  *\*\          - GPIOC
 944:../firmware/n32g430_std_periph_driver/src/n32g430_gpio.c ****  *\*\          - GPIOD
 945:../firmware/n32g430_std_periph_driver/src/n32g430_gpio.c ****  *\*\param  pin :
 946:../firmware/n32g430_std_periph_driver/src/n32g430_gpio.c ****  *\*\          - GPIO_PIN_0
 947:../firmware/n32g430_std_periph_driver/src/n32g430_gpio.c ****  *\*\          - GPIO_PIN_1
 948:../firmware/n32g430_std_periph_driver/src/n32g430_gpio.c ****  *\*\          - GPIO_PIN_2
 949:../firmware/n32g430_std_periph_driver/src/n32g430_gpio.c ****  *\*\          - GPIO_PIN_3
 950:../firmware/n32g430_std_periph_driver/src/n32g430_gpio.c ****  *\*\          - GPIO_PIN_4
 951:../firmware/n32g430_std_periph_driver/src/n32g430_gpio.c ****  *\*\          - GPIO_PIN_5
 952:../firmware/n32g430_std_periph_driver/src/n32g430_gpio.c ****  *\*\          - GPIO_PIN_6
 953:../firmware/n32g430_std_periph_driver/src/n32g430_gpio.c ****  *\*\          - GPIO_PIN_7
 954:../firmware/n32g430_std_periph_driver/src/n32g430_gpio.c ****  *\*\          - GPIO_PIN_8
 955:../firmware/n32g430_std_periph_driver/src/n32g430_gpio.c ****  *\*\          - GPIO_PIN_9
 956:../firmware/n32g430_std_periph_driver/src/n32g430_gpio.c ****  *\*\          - GPIO_PIN_10
 957:../firmware/n32g430_std_periph_driver/src/n32g430_gpio.c ****  *\*\          - GPIO_PIN_11
 958:../firmware/n32g430_std_periph_driver/src/n32g430_gpio.c ****  *\*\          - GPIO_PIN_12
 959:../firmware/n32g430_std_periph_driver/src/n32g430_gpio.c ****  *\*\          - GPIO_PIN_13
 960:../firmware/n32g430_std_periph_driver/src/n32g430_gpio.c ****  *\*\          - GPIO_PIN_14
 961:../firmware/n32g430_std_periph_driver/src/n32g430_gpio.c ****  *\*\          - GPIO_PIN_15
 962:../firmware/n32g430_std_periph_driver/src/n32g430_gpio.c ****  *\*\return none
 963:../firmware/n32g430_std_periph_driver/src/n32g430_gpio.c ****  */
 964:../firmware/n32g430_std_periph_driver/src/n32g430_gpio.c **** void GPIO_Pin_Toggle(GPIO_Module* GPIOx, uint16_t pin)
 965:../firmware/n32g430_std_periph_driver/src/n32g430_gpio.c **** {
 1537              		.loc 1 965 1 is_stmt 1 view -0
 1538              		.cfi_startproc
 1539              		@ args = 0, pretend = 0, frame = 0
ARM GAS  C:\Users\Dawn\AppData\Local\Temp\cccrm2KO.s 			page 49


 1540              		@ frame_needed = 0, uses_anonymous_args = 0
 1541              		@ link register save eliminated.
 966:../firmware/n32g430_std_periph_driver/src/n32g430_gpio.c ****     GPIOx->POD ^= pin;
 1542              		.loc 1 966 5 view .LVU478
 1543              		.loc 1 966 10 is_stmt 0 view .LVU479
 1544 0000 4369     		ldr	r3, [r0, #20]
 1545              		.loc 1 966 16 view .LVU480
 1546 0002 5940     		eors	r1, r1, r3
 1547              	.LVL100:
 1548              		.loc 1 966 16 view .LVU481
 1549 0004 4161     		str	r1, [r0, #20]
 967:../firmware/n32g430_std_periph_driver/src/n32g430_gpio.c **** }
 1550              		.loc 1 967 1 view .LVU482
 1551 0006 7047     		bx	lr
 1552              		.cfi_endproc
 1553              	.LFE154:
 1555              		.section	.text.GPIO_Pin_Lock_Set,"ax",%progbits
 1556              		.align	1
 1557              		.global	GPIO_Pin_Lock_Set
 1558              		.syntax unified
 1559              		.thumb
 1560              		.thumb_func
 1562              	GPIO_Pin_Lock_Set:
 1563              	.LVL101:
 1564              	.LFB155:
 968:../firmware/n32g430_std_periph_driver/src/n32g430_gpio.c **** 
 969:../firmware/n32g430_std_periph_driver/src/n32g430_gpio.c **** 
 970:../firmware/n32g430_std_periph_driver/src/n32g430_gpio.c **** /**
 971:../firmware/n32g430_std_periph_driver/src/n32g430_gpio.c ****  *\*\name   GPIO_Pin_Lock_Set.
 972:../firmware/n32g430_std_periph_driver/src/n32g430_gpio.c ****  *\*\fun    GPIO port lock register configuration.
 973:../firmware/n32g430_std_periph_driver/src/n32g430_gpio.c ****  *\*\param  GPIOx :
 974:../firmware/n32g430_std_periph_driver/src/n32g430_gpio.c ****  *\*\          - GPIOA
 975:../firmware/n32g430_std_periph_driver/src/n32g430_gpio.c ****  *\*\          - GPIOB
 976:../firmware/n32g430_std_periph_driver/src/n32g430_gpio.c ****  *\*\          - GPIOC
 977:../firmware/n32g430_std_periph_driver/src/n32g430_gpio.c ****  *\*\          - GPIOD
 978:../firmware/n32g430_std_periph_driver/src/n32g430_gpio.c ****  *\*\param  pin :
 979:../firmware/n32g430_std_periph_driver/src/n32g430_gpio.c ****  *\*\          - GPIO_PIN_0
 980:../firmware/n32g430_std_periph_driver/src/n32g430_gpio.c ****  *\*\          - GPIO_PIN_1
 981:../firmware/n32g430_std_periph_driver/src/n32g430_gpio.c ****  *\*\          - GPIO_PIN_2
 982:../firmware/n32g430_std_periph_driver/src/n32g430_gpio.c ****  *\*\          - GPIO_PIN_3
 983:../firmware/n32g430_std_periph_driver/src/n32g430_gpio.c ****  *\*\          - GPIO_PIN_4
 984:../firmware/n32g430_std_periph_driver/src/n32g430_gpio.c ****  *\*\          - GPIO_PIN_5
 985:../firmware/n32g430_std_periph_driver/src/n32g430_gpio.c ****  *\*\          - GPIO_PIN_6
 986:../firmware/n32g430_std_periph_driver/src/n32g430_gpio.c ****  *\*\          - GPIO_PIN_7
 987:../firmware/n32g430_std_periph_driver/src/n32g430_gpio.c ****  *\*\          - GPIO_PIN_8
 988:../firmware/n32g430_std_periph_driver/src/n32g430_gpio.c ****  *\*\          - GPIO_PIN_9
 989:../firmware/n32g430_std_periph_driver/src/n32g430_gpio.c ****  *\*\          - GPIO_PIN_10
 990:../firmware/n32g430_std_periph_driver/src/n32g430_gpio.c ****  *\*\          - GPIO_PIN_11
 991:../firmware/n32g430_std_periph_driver/src/n32g430_gpio.c ****  *\*\          - GPIO_PIN_12
 992:../firmware/n32g430_std_periph_driver/src/n32g430_gpio.c ****  *\*\          - GPIO_PIN_13
 993:../firmware/n32g430_std_periph_driver/src/n32g430_gpio.c ****  *\*\          - GPIO_PIN_14
 994:../firmware/n32g430_std_periph_driver/src/n32g430_gpio.c ****  *\*\          - GPIO_PIN_15
 995:../firmware/n32g430_std_periph_driver/src/n32g430_gpio.c ****  *\*\return none
 996:../firmware/n32g430_std_periph_driver/src/n32g430_gpio.c ****  */
 997:../firmware/n32g430_std_periph_driver/src/n32g430_gpio.c **** void GPIO_Pin_Lock_Set(GPIO_Module* GPIOx, uint16_t pin)
 998:../firmware/n32g430_std_periph_driver/src/n32g430_gpio.c **** {
 1565              		.loc 1 998 1 is_stmt 1 view -0
ARM GAS  C:\Users\Dawn\AppData\Local\Temp\cccrm2KO.s 			page 50


 1566              		.cfi_startproc
 1567              		@ args = 0, pretend = 0, frame = 0
 1568              		@ frame_needed = 0, uses_anonymous_args = 0
 1569              		@ link register save eliminated.
 999:../firmware/n32g430_std_periph_driver/src/n32g430_gpio.c ****     uint32_t temp_value = 0x00U;
 1570              		.loc 1 999 5 view .LVU484
1000:../firmware/n32g430_std_periph_driver/src/n32g430_gpio.c **** 	
1001:../firmware/n32g430_std_periph_driver/src/n32g430_gpio.c **** 	temp_value = (GPIO_PLOCKK_MASK | pin);
 1571              		.loc 1 1001 2 view .LVU485
 1572              		.loc 1 1001 13 is_stmt 0 view .LVU486
 1573 0000 41F48033 		orr	r3, r1, #65536
 1574              	.LVL102:
1002:../firmware/n32g430_std_periph_driver/src/n32g430_gpio.c **** 
1003:../firmware/n32g430_std_periph_driver/src/n32g430_gpio.c ****     /* PLOCKK and PLOCKx write 1 */
1004:../firmware/n32g430_std_periph_driver/src/n32g430_gpio.c ****     GPIOx->PLOCK = temp_value;
 1575              		.loc 1 1004 5 is_stmt 1 view .LVU487
 1576              		.loc 1 1004 18 is_stmt 0 view .LVU488
 1577 0004 C361     		str	r3, [r0, #28]
1005:../firmware/n32g430_std_periph_driver/src/n32g430_gpio.c ****     
1006:../firmware/n32g430_std_periph_driver/src/n32g430_gpio.c ****     /* PLOCKK write 0 */
1007:../firmware/n32g430_std_periph_driver/src/n32g430_gpio.c ****     GPIOx->PLOCK = pin; 
 1578              		.loc 1 1007 5 is_stmt 1 view .LVU489
 1579              		.loc 1 1007 18 is_stmt 0 view .LVU490
 1580 0006 C161     		str	r1, [r0, #28]
1008:../firmware/n32g430_std_periph_driver/src/n32g430_gpio.c ****     
1009:../firmware/n32g430_std_periph_driver/src/n32g430_gpio.c ****     /* PLOCKK and PLOCKx write 1 */
1010:../firmware/n32g430_std_periph_driver/src/n32g430_gpio.c ****     GPIOx->PLOCK = temp_value; 
 1581              		.loc 1 1010 5 is_stmt 1 view .LVU491
 1582              		.loc 1 1010 18 is_stmt 0 view .LVU492
 1583 0008 C361     		str	r3, [r0, #28]
1011:../firmware/n32g430_std_periph_driver/src/n32g430_gpio.c **** 
1012:../firmware/n32g430_std_periph_driver/src/n32g430_gpio.c ****     /* PLOCKK read 0 */
1013:../firmware/n32g430_std_periph_driver/src/n32g430_gpio.c ****     temp_value = GPIOx->PLOCK;
 1584              		.loc 1 1013 5 is_stmt 1 view .LVU493
 1585              		.loc 1 1013 16 is_stmt 0 view .LVU494
 1586 000a C369     		ldr	r3, [r0, #28]
 1587              	.LVL103:
1014:../firmware/n32g430_std_periph_driver/src/n32g430_gpio.c ****     
1015:../firmware/n32g430_std_periph_driver/src/n32g430_gpio.c ****     /* PLOCKK read 1 */
1016:../firmware/n32g430_std_periph_driver/src/n32g430_gpio.c ****     temp_value = GPIOx->PLOCK;
 1588              		.loc 1 1016 5 is_stmt 1 view .LVU495
 1589              		.loc 1 1016 16 is_stmt 0 view .LVU496
 1590 000c C369     		ldr	r3, [r0, #28]
1017:../firmware/n32g430_std_periph_driver/src/n32g430_gpio.c **** }
 1591              		.loc 1 1017 1 view .LVU497
 1592 000e 7047     		bx	lr
 1593              		.cfi_endproc
 1594              	.LFE155:
 1596              		.section	.text.GPIO_Pin_Remap_Set,"ax",%progbits
 1597              		.align	1
 1598              		.global	GPIO_Pin_Remap_Set
 1599              		.syntax unified
 1600              		.thumb
 1601              		.thumb_func
 1603              	GPIO_Pin_Remap_Set:
 1604              	.LVL104:
 1605              	.LFB156:
ARM GAS  C:\Users\Dawn\AppData\Local\Temp\cccrm2KO.s 			page 51


1018:../firmware/n32g430_std_periph_driver/src/n32g430_gpio.c **** 
1019:../firmware/n32g430_std_periph_driver/src/n32g430_gpio.c **** 
1020:../firmware/n32g430_std_periph_driver/src/n32g430_gpio.c **** /**
1021:../firmware/n32g430_std_periph_driver/src/n32g430_gpio.c ****  *\*\name   GPIO_Pin_Remap_Set.
1022:../firmware/n32g430_std_periph_driver/src/n32g430_gpio.c ****  *\*\fun    Pin remapping configuration.
1023:../firmware/n32g430_std_periph_driver/src/n32g430_gpio.c ****  *\*\param  port_source :
1024:../firmware/n32g430_std_periph_driver/src/n32g430_gpio.c ****  *\*\          - GPIOA_PORT_SOURCE
1025:../firmware/n32g430_std_periph_driver/src/n32g430_gpio.c ****  *\*\          - GPIOB_PORT_SOURCE
1026:../firmware/n32g430_std_periph_driver/src/n32g430_gpio.c ****  *\*\          - GPIOC_PORT_SOURCE
1027:../firmware/n32g430_std_periph_driver/src/n32g430_gpio.c ****  *\*\          - GPIOD_PORT_SOURCE
1028:../firmware/n32g430_std_periph_driver/src/n32g430_gpio.c ****  *\*\param  pin_source :
1029:../firmware/n32g430_std_periph_driver/src/n32g430_gpio.c ****  *\*\          - GPIO_PIN_SOURCE0
1030:../firmware/n32g430_std_periph_driver/src/n32g430_gpio.c ****  *\*\          - GPIO_PIN_SOURCE1
1031:../firmware/n32g430_std_periph_driver/src/n32g430_gpio.c ****  *\*\          - GPIO_PIN_SOURCE2
1032:../firmware/n32g430_std_periph_driver/src/n32g430_gpio.c ****  *\*\          - GPIO_PIN_SOURCE3
1033:../firmware/n32g430_std_periph_driver/src/n32g430_gpio.c ****  *\*\          - GPIO_PIN_SOURCE4
1034:../firmware/n32g430_std_periph_driver/src/n32g430_gpio.c ****  *\*\          - GPIO_PIN_SOURCE5
1035:../firmware/n32g430_std_periph_driver/src/n32g430_gpio.c ****  *\*\          - GPIO_PIN_SOURCE6
1036:../firmware/n32g430_std_periph_driver/src/n32g430_gpio.c ****  *\*\          - GPIO_PIN_SOURCE7
1037:../firmware/n32g430_std_periph_driver/src/n32g430_gpio.c ****  *\*\          - GPIO_PIN_SOURCE8
1038:../firmware/n32g430_std_periph_driver/src/n32g430_gpio.c ****  *\*\          - GPIO_PIN_SOURCE9
1039:../firmware/n32g430_std_periph_driver/src/n32g430_gpio.c ****  *\*\          - GPIO_PIN_SOURCE10
1040:../firmware/n32g430_std_periph_driver/src/n32g430_gpio.c ****  *\*\          - GPIO_PIN_SOURCE11
1041:../firmware/n32g430_std_periph_driver/src/n32g430_gpio.c ****  *\*\          - GPIO_PIN_SOURCE12
1042:../firmware/n32g430_std_periph_driver/src/n32g430_gpio.c ****  *\*\          - GPIO_PIN_SOURCE13
1043:../firmware/n32g430_std_periph_driver/src/n32g430_gpio.c ****  *\*\          - GPIO_PIN_SOURCE14
1044:../firmware/n32g430_std_periph_driver/src/n32g430_gpio.c ****  *\*\          - GPIO_PIN_SOURCE15
1045:../firmware/n32g430_std_periph_driver/src/n32g430_gpio.c ****  *\*\param  alternate_function :
1046:../firmware/n32g430_std_periph_driver/src/n32g430_gpio.c ****  *\*\          - GPIO_AF0_SWDIO_JTMS   SWDIO Alternate Function mapping   
1047:../firmware/n32g430_std_periph_driver/src/n32g430_gpio.c ****  *\*\          - GPIO_AF0_SWCLK_JTCK   SWCLK Alternate Function mapping   
1048:../firmware/n32g430_std_periph_driver/src/n32g430_gpio.c ****  *\*\          - GPIO_AF0_JTDI         JTDI  Alternate Function mapping   
1049:../firmware/n32g430_std_periph_driver/src/n32g430_gpio.c ****  *\*\          - GPIO_AF0_JTDO         JTDO  Alternate Function mapping   
1050:../firmware/n32g430_std_periph_driver/src/n32g430_gpio.c ****  *\*\          - GPIO_AF0_NJRST        NJRST Alternate Function mapping   
1051:../firmware/n32g430_std_periph_driver/src/n32g430_gpio.c ****  *\*\
1052:../firmware/n32g430_std_periph_driver/src/n32g430_gpio.c ****  *\*\          - GPIO_AF1_SPI1         SPI1 Alternate Function mapping    
1053:../firmware/n32g430_std_periph_driver/src/n32g430_gpio.c ****  *\*\          - GPIO_AF1_SPI2         SPI2 Alternate Function mapping    
1054:../firmware/n32g430_std_periph_driver/src/n32g430_gpio.c ****  *\*\          - GPIO_AF1_TIM8         TIM8 Alternate Function mapping    
1055:../firmware/n32g430_std_periph_driver/src/n32g430_gpio.c ****  *\*\          - GPIO_AF1_USART1       USART1 Alternate Function mapping  
1056:../firmware/n32g430_std_periph_driver/src/n32g430_gpio.c ****  *\*\
1057:../firmware/n32g430_std_periph_driver/src/n32g430_gpio.c ****  *\*\          - GPIO_AF2_TIM5         TIM5 Alternate Function mapping    
1058:../firmware/n32g430_std_periph_driver/src/n32g430_gpio.c ****  *\*\          - GPIO_AF2_TIM1         TIM1 Alternate Function mapping    
1059:../firmware/n32g430_std_periph_driver/src/n32g430_gpio.c ****  *\*\          - GPIO_AF2_USART1       USART1 Alternate Function mapping  
1060:../firmware/n32g430_std_periph_driver/src/n32g430_gpio.c ****  *\*\          - GPIO_AF2_I2C2         I2C2 Alternate Function mapping    
1061:../firmware/n32g430_std_periph_driver/src/n32g430_gpio.c ****  *\*\          - GPIO_AF2_CAN          CAN Alternate Function mapping     
1062:../firmware/n32g430_std_periph_driver/src/n32g430_gpio.c ****  *\*\          - GPIO_AF2_CAN1         CAN1 Alternate Function mapping    
1063:../firmware/n32g430_std_periph_driver/src/n32g430_gpio.c ****  *\*\          - GPIO_AF2_SPI2         SPI2 Alternate Function mapping    
1064:../firmware/n32g430_std_periph_driver/src/n32g430_gpio.c ****  *\*\          - GPIO_AF2_SPI1         SPI1 Alternate Function mapping    
1065:../firmware/n32g430_std_periph_driver/src/n32g430_gpio.c ****  *\*\          - GPIO_AF2_I2C1         I2C1 Alternate Function mapping    
1066:../firmware/n32g430_std_periph_driver/src/n32g430_gpio.c ****  *\*\
1067:../firmware/n32g430_std_periph_driver/src/n32g430_gpio.c ****  *\*\          - GPIO_AF3_TIM2         TIM2 Alternate Function mapping    
1068:../firmware/n32g430_std_periph_driver/src/n32g430_gpio.c ****  *\*\          - GPIO_AF3_SPI2         SPI2 Alternate Function mapping    
1069:../firmware/n32g430_std_periph_driver/src/n32g430_gpio.c ****  *\*\          - GPIO_AF3_TIM3         TIM3 Alternate Function mapping    
1070:../firmware/n32g430_std_periph_driver/src/n32g430_gpio.c ****  *\*\          - GPIO_AF3_TIM1         TIM1 Alternate Function mapping    
1071:../firmware/n32g430_std_periph_driver/src/n32g430_gpio.c ****  *\*\          - GPIO_AF3_LPTIM        LPTIM Alternate Function mapping   
1072:../firmware/n32g430_std_periph_driver/src/n32g430_gpio.c ****  *\*\          - GPIO_AF3_TIM4         TIM4 Alternate Function mapping    
1073:../firmware/n32g430_std_periph_driver/src/n32g430_gpio.c ****  *\*\
1074:../firmware/n32g430_std_periph_driver/src/n32g430_gpio.c ****  *\*\          - GPIO_AF4_EVENTOUT     EVENTOUT Alternate Function mapping
ARM GAS  C:\Users\Dawn\AppData\Local\Temp\cccrm2KO.s 			page 52


1075:../firmware/n32g430_std_periph_driver/src/n32g430_gpio.c ****  *\*\          - GPIO_AF4_USART2       USART2 Alternate Function mapping  
1076:../firmware/n32g430_std_periph_driver/src/n32g430_gpio.c ****  *\*\
1077:../firmware/n32g430_std_periph_driver/src/n32g430_gpio.c ****  *\*\          - GPIO_AF5_USART2       USART2 Alternate Function mapping  
1078:../firmware/n32g430_std_periph_driver/src/n32g430_gpio.c ****  *\*\          - GPIO_AF5_USART1       USART1 Alternate Function mapping  
1079:../firmware/n32g430_std_periph_driver/src/n32g430_gpio.c ****  *\*\          - GPIO_AF5_SPI1         SPI1 Alternate Function mapping    
1080:../firmware/n32g430_std_periph_driver/src/n32g430_gpio.c ****  *\*\          - GPIO_AF5_TIM3         TIM3 Alternate Function mapping    
1081:../firmware/n32g430_std_periph_driver/src/n32g430_gpio.c ****  *\*\          - GPIO_AF5_SPI2         SPI2 Alternate Function mapping    
1082:../firmware/n32g430_std_periph_driver/src/n32g430_gpio.c ****  *\*\          - GPIO_AF5_I2C1         I2C1 Alternate Function mapping    
1083:../firmware/n32g430_std_periph_driver/src/n32g430_gpio.c ****  *\*\
1084:../firmware/n32g430_std_periph_driver/src/n32g430_gpio.c ****  *\*\          - GPIO_AF6_TIM2         TIM2 Alternate Function mapping    
1085:../firmware/n32g430_std_periph_driver/src/n32g430_gpio.c ****  *\*\          - GPIO_AF6_I2C2         I2C2 Alternate Function mapping    
1086:../firmware/n32g430_std_periph_driver/src/n32g430_gpio.c ****  *\*\          - GPIO_AF6_TIM4         TIM4 Alternate Function mapping    
1087:../firmware/n32g430_std_periph_driver/src/n32g430_gpio.c ****  *\*\          - GPIO_AF6_TIM1         TIM1 Alternate Function mapping    
1088:../firmware/n32g430_std_periph_driver/src/n32g430_gpio.c ****  *\*\          - GPIO_AF6_SPI1         SPI1 Alternate Function mapping    
1089:../firmware/n32g430_std_periph_driver/src/n32g430_gpio.c ****  *\*\          - GPIO_AF6_SPI2         SPI2 Alternate Function mapping    
1090:../firmware/n32g430_std_periph_driver/src/n32g430_gpio.c ****  *\*\          - GPIO_AF6_LPTIM        LPTIM Alternate Function mapping   
1091:../firmware/n32g430_std_periph_driver/src/n32g430_gpio.c ****  *\*\          - GPIO_AF6_CAN          CAN Alternate Function mapping     
1092:../firmware/n32g430_std_periph_driver/src/n32g430_gpio.c ****  *\*\          - GPIO_AF6_UART4        UART4 Alternate Function mapping     
1093:../firmware/n32g430_std_periph_driver/src/n32g430_gpio.c ****  *\*\
1094:../firmware/n32g430_std_periph_driver/src/n32g430_gpio.c ****  *\*\          - GPIO_AF7_TIM5         TIM5 Alternate Function mapping     
1095:../firmware/n32g430_std_periph_driver/src/n32g430_gpio.c ****  *\*\          - GPIO_AF7_TIM8         TIM8 Alternate Function mapping     
1096:../firmware/n32g430_std_periph_driver/src/n32g430_gpio.c ****  *\*\          - GPIO_AF7_I2C2         I2C2 Alternate Function mapping     
1097:../firmware/n32g430_std_periph_driver/src/n32g430_gpio.c ****  *\*\          - GPIO_AF7_USART2       USART2 Alternate Function mapping   
1098:../firmware/n32g430_std_periph_driver/src/n32g430_gpio.c ****  *\*\          - GPIO_AF7_UART4        UART4 Alternate Function mapping    
1099:../firmware/n32g430_std_periph_driver/src/n32g430_gpio.c ****  *\*\          - GPIO_AF7_UART3        UART3 Alternate Function mapping    
1100:../firmware/n32g430_std_periph_driver/src/n32g430_gpio.c ****  *\*\          - GPIO_AF7_TIM1         TIM1 Alternate Function mapping     
1101:../firmware/n32g430_std_periph_driver/src/n32g430_gpio.c ****  *\*\          - GPIO_AF7_I2C1         I2C1 Alternate Function mapping     
1102:../firmware/n32g430_std_periph_driver/src/n32g430_gpio.c ****  *\*\
1103:../firmware/n32g430_std_periph_driver/src/n32g430_gpio.c ****  *\*\          - GPIO_AF8_TIM8         TIM8 Alternate Function mapping     
1104:../firmware/n32g430_std_periph_driver/src/n32g430_gpio.c ****  *\*\          - GPIO_AF8_TIM5         TIM5 Alternate Function mapping     
1105:../firmware/n32g430_std_periph_driver/src/n32g430_gpio.c ****  *\*\          - GPIO_AF8_COMP2        COMP2 Alternate Function mapping    
1106:../firmware/n32g430_std_periph_driver/src/n32g430_gpio.c ****  *\*\          - GPIO_AF8_I2C1         I2C1 Alternate Function mapping     
1107:../firmware/n32g430_std_periph_driver/src/n32g430_gpio.c ****  *\*\          - GPIO_AF8_TIM1         TIM1 Alternate Function mapping     
1108:../firmware/n32g430_std_periph_driver/src/n32g430_gpio.c ****  *\*\          - GPIO_AF8_COMP1        COMP1 Alternate Function mapping    
1109:../firmware/n32g430_std_periph_driver/src/n32g430_gpio.c ****  *\*\          - GPIO_AF8_UART3        UART3 Alternate Function mapping    
1110:../firmware/n32g430_std_periph_driver/src/n32g430_gpio.c ****  *\*\
1111:../firmware/n32g430_std_periph_driver/src/n32g430_gpio.c ****  *\*\          - GPIO_AF9_COMP1        COMP1 Alternate Function mapping    
1112:../firmware/n32g430_std_periph_driver/src/n32g430_gpio.c ****  *\*\          - GPIO_AF9_TIM8         TIM8 Alternate Function mapping     
1113:../firmware/n32g430_std_periph_driver/src/n32g430_gpio.c ****  *\*\          - GPIO_AF9_TIM4         TIM4 Alternate Function mapping     
1114:../firmware/n32g430_std_periph_driver/src/n32g430_gpio.c ****  *\*\          - GPIO_AF9_MCO          MCO Alternate Function mapping      
1115:../firmware/n32g430_std_periph_driver/src/n32g430_gpio.c ****  *\*\          - GPIO_AF9_RTC          RTC Alternate Function mapping      
1116:../firmware/n32g430_std_periph_driver/src/n32g430_gpio.c ****  *\*\          - GPIO_AF9_COMP2        COMP2 Alternate Function mapping    
1117:../firmware/n32g430_std_periph_driver/src/n32g430_gpio.c ****  *\*\          - GPIO_AF9_LPTIM        LPTIM Alternate Function mapping    
1118:../firmware/n32g430_std_periph_driver/src/n32g430_gpio.c ****  *\*\          - GPIO_AF9_I2C2         I2C2 Alternate Function mapping     
1119:../firmware/n32g430_std_periph_driver/src/n32g430_gpio.c ****  *\*\          - GPIO_AF9_TIMESTAMP    TIMESTAMP Alternate Function mapping 
1120:../firmware/n32g430_std_periph_driver/src/n32g430_gpio.c ****  *\*\
1121:../firmware/n32g430_std_periph_driver/src/n32g430_gpio.c ****  *\*\          - GPIO_AF10_TIM1        TIM1 Alternate Function mapping     
1122:../firmware/n32g430_std_periph_driver/src/n32g430_gpio.c ****  *\*\          - GPIO_AF10_TIM8        TIM8 Alternate Function mapping     
1123:../firmware/n32g430_std_periph_driver/src/n32g430_gpio.c ****  *\*\          - GPIO_AF10_COMP3       COMP3 Alternate Function mapping    
1124:../firmware/n32g430_std_periph_driver/src/n32g430_gpio.c ****  *\*\          - GPIO_AF10_TIM4        TIM4 Alternate Function mapping     
1125:../firmware/n32g430_std_periph_driver/src/n32g430_gpio.c ****  *\*\          - GPIO_AF10_COMP1       COMP1 Alternate Function mapping    
1126:../firmware/n32g430_std_periph_driver/src/n32g430_gpio.c ****  *\*\          - GPIO_AF10_UART3       UART3 Alternate Function mapping    
1127:../firmware/n32g430_std_periph_driver/src/n32g430_gpio.c ****  *\*\
1128:../firmware/n32g430_std_periph_driver/src/n32g430_gpio.c ****  *\*\          - GPIO_AF11_UART4       UART4 Alternate Function mapping    
1129:../firmware/n32g430_std_periph_driver/src/n32g430_gpio.c ****  *\*\          - GPIO_AF11_CAN         CAN Alternate Function mapping      
1130:../firmware/n32g430_std_periph_driver/src/n32g430_gpio.c ****  *\*\          - GPIO_AF11_USART2      USART2 Alternate Function mapping   
1131:../firmware/n32g430_std_periph_driver/src/n32g430_gpio.c ****  *\*\          - GPIO_AF11_TIM8        TIM8 Alternate Function mapping     
ARM GAS  C:\Users\Dawn\AppData\Local\Temp\cccrm2KO.s 			page 53


1132:../firmware/n32g430_std_periph_driver/src/n32g430_gpio.c ****  *\*\          - GPIO_AF11_COMP3       COMP3 Alternate Function mapping    
1133:../firmware/n32g430_std_periph_driver/src/n32g430_gpio.c ****  *\*\
1134:../firmware/n32g430_std_periph_driver/src/n32g430_gpio.c ****  *\*\          - GPIO_AF12_LPTIM       LPTIM Alternate Function mapping    
1135:../firmware/n32g430_std_periph_driver/src/n32g430_gpio.c ****  *\*\          - GPIO_AF12_BEEPER      BEEPER Alternate Function mapping   
1136:../firmware/n32g430_std_periph_driver/src/n32g430_gpio.c ****  *\*\
1137:../firmware/n32g430_std_periph_driver/src/n32g430_gpio.c ****  *\*\          - GPIO_AF13_TIM3        TIM3 Alternate Function mapping     
1138:../firmware/n32g430_std_periph_driver/src/n32g430_gpio.c ****  *\*\          - GPIO_AF13_TIM8        TIM8 Alternate Function mapping     
1139:../firmware/n32g430_std_periph_driver/src/n32g430_gpio.c ****  *\*\          - GPIO_AF13_TIM4        TIM4 Alternate Function mapping     
1140:../firmware/n32g430_std_periph_driver/src/n32g430_gpio.c ****  *\*\          - GPIO_AF13_TIM5        TIM5 Alternate Function mapping     
1141:../firmware/n32g430_std_periph_driver/src/n32g430_gpio.c ****  *\*\return none
1142:../firmware/n32g430_std_periph_driver/src/n32g430_gpio.c ****  */
1143:../firmware/n32g430_std_periph_driver/src/n32g430_gpio.c **** void GPIO_Pin_Remap_Set(uint8_t port_source, uint8_t pin_source, uint32_t alternate_function)
1144:../firmware/n32g430_std_periph_driver/src/n32g430_gpio.c **** {
 1606              		.loc 1 1144 1 is_stmt 1 view -0
 1607              		.cfi_startproc
 1608              		@ args = 0, pretend = 0, frame = 0
 1609              		@ frame_needed = 0, uses_anonymous_args = 0
1145:../firmware/n32g430_std_periph_driver/src/n32g430_gpio.c ****     uint32_t position = 0x00, temp_value = 0x00;
 1610              		.loc 1 1145 5 view .LVU499
1146:../firmware/n32g430_std_periph_driver/src/n32g430_gpio.c ****     GPIO_Module *GPIOx;
 1611              		.loc 1 1146 5 view .LVU500
1147:../firmware/n32g430_std_periph_driver/src/n32g430_gpio.c **** 
1148:../firmware/n32g430_std_periph_driver/src/n32g430_gpio.c ****     /* Get Peripheral index */
1149:../firmware/n32g430_std_periph_driver/src/n32g430_gpio.c ****     GPIOx = GPIO_GET_PERIPH(port_source);
 1612              		.loc 1 1149 5 view .LVU501
 1613 0000 0228     		cmp	r0, #2
 1614 0002 9BBF     		ittet	ls
 1615 0004 8002     		lslls	r0, r0, #10
 1616              	.LVL105:
 1617              		.loc 1 1149 5 is_stmt 0 view .LVU502
 1618 0006 00F18043 		addls	r3, r0, #1073741824
1144:../firmware/n32g430_std_periph_driver/src/n32g430_gpio.c ****     uint32_t position = 0x00, temp_value = 0x00;
 1619              		.loc 1 1144 1 view .LVU503
 1620 000a 0E4B     		ldrhi	r3, .L113
 1621 000c 03F50D33 		addls	r3, r3, #144384
 1622              	.LVL106:
1150:../firmware/n32g430_std_periph_driver/src/n32g430_gpio.c **** 
1151:../firmware/n32g430_std_periph_driver/src/n32g430_gpio.c ****     if(pin_source & (uint8_t)AF_SELECTION_MASK)
 1623              		.loc 1 1151 5 is_stmt 1 view .LVU504
1144:../firmware/n32g430_std_periph_driver/src/n32g430_gpio.c ****     uint32_t position = 0x00, temp_value = 0x00;
 1624              		.loc 1 1144 1 is_stmt 0 view .LVU505
 1625 0010 10B5     		push	{r4, lr}
 1626              	.LCFI13:
 1627              		.cfi_def_cfa_offset 8
 1628              		.cfi_offset 4, -8
 1629              		.cfi_offset 14, -4
1152:../firmware/n32g430_std_periph_driver/src/n32g430_gpio.c ****     {
1153:../firmware/n32g430_std_periph_driver/src/n32g430_gpio.c ****         position = (uint32_t)(pin_source & (uint8_t)AF_WRITE_POSITION_MASK);
 1630              		.loc 1 1153 18 view .LVU506
 1631 0012 01F00704 		and	r4, r1, #7
1154:../firmware/n32g430_std_periph_driver/src/n32g430_gpio.c **** 
1155:../firmware/n32g430_std_periph_driver/src/n32g430_gpio.c ****         /* Read GPIO_AFH register */
1156:../firmware/n32g430_std_periph_driver/src/n32g430_gpio.c ****         temp_value = GPIOx->AFH;
1157:../firmware/n32g430_std_periph_driver/src/n32g430_gpio.c **** 
1158:../firmware/n32g430_std_periph_driver/src/n32g430_gpio.c ****         /* Reset corresponding bits */
1159:../firmware/n32g430_std_periph_driver/src/n32g430_gpio.c ****         temp_value &= ~(GPIO_AF_MASK << (position * MULTIPLIER_FACTOR_4));
 1632              		.loc 1 1159 51 view .LVU507
ARM GAS  C:\Users\Dawn\AppData\Local\Temp\cccrm2KO.s 			page 54


 1633 0016 A400     		lsls	r4, r4, #2
1151:../firmware/n32g430_std_periph_driver/src/n32g430_gpio.c ****     {
 1634              		.loc 1 1151 7 view .LVU508
 1635 0018 0907     		lsls	r1, r1, #28
 1636              	.LVL107:
1153:../firmware/n32g430_std_periph_driver/src/n32g430_gpio.c **** 
 1637              		.loc 1 1153 9 is_stmt 1 view .LVU509
1156:../firmware/n32g430_std_periph_driver/src/n32g430_gpio.c **** 
 1638              		.loc 1 1156 9 view .LVU510
 1639              		.loc 1 1159 38 is_stmt 0 view .LVU511
 1640 001a 4FF00F00 		mov	r0, #15
1156:../firmware/n32g430_std_periph_driver/src/n32g430_gpio.c **** 
 1641              		.loc 1 1156 20 view .LVU512
 1642 001e 4CBF     		ite	mi
 1643 0020 596A     		ldrmi	r1, [r3, #36]
 1644              	.LVL108:
 1645              		.loc 1 1159 9 is_stmt 1 view .LVU513
1160:../firmware/n32g430_std_periph_driver/src/n32g430_gpio.c **** 
1161:../firmware/n32g430_std_periph_driver/src/n32g430_gpio.c ****         /* Set corresponding bits */
1162:../firmware/n32g430_std_periph_driver/src/n32g430_gpio.c ****         temp_value |= (alternate_function << (position * MULTIPLIER_FACTOR_4));
1163:../firmware/n32g430_std_periph_driver/src/n32g430_gpio.c **** 
1164:../firmware/n32g430_std_periph_driver/src/n32g430_gpio.c ****         /* Write to the GPIO_AFH register */
1165:../firmware/n32g430_std_periph_driver/src/n32g430_gpio.c ****         GPIOx->AFH = temp_value;
1166:../firmware/n32g430_std_periph_driver/src/n32g430_gpio.c ****     }
1167:../firmware/n32g430_std_periph_driver/src/n32g430_gpio.c ****     else
1168:../firmware/n32g430_std_periph_driver/src/n32g430_gpio.c ****     {
1169:../firmware/n32g430_std_periph_driver/src/n32g430_gpio.c ****         position = (uint32_t)(pin_source & (uint8_t)AF_WRITE_POSITION_MASK);
1170:../firmware/n32g430_std_periph_driver/src/n32g430_gpio.c **** 
1171:../firmware/n32g430_std_periph_driver/src/n32g430_gpio.c ****         /* Read GPIO_AFL register */
1172:../firmware/n32g430_std_periph_driver/src/n32g430_gpio.c ****         temp_value  = GPIOx->AFL;
 1646              		.loc 1 1172 21 is_stmt 0 view .LVU514
 1647 0022 196A     		ldrpl	r1, [r3, #32]
 1648              	.LVL109:
1159:../firmware/n32g430_std_periph_driver/src/n32g430_gpio.c **** 
 1649              		.loc 1 1159 38 view .LVU515
 1650 0024 00FA04F0 		lsl	r0, r0, r4
1159:../firmware/n32g430_std_periph_driver/src/n32g430_gpio.c **** 
 1651              		.loc 1 1159 23 view .LVU516
 1652 0028 6FEA0000 		mvn	r0, r0
1162:../firmware/n32g430_std_periph_driver/src/n32g430_gpio.c **** 
 1653              		.loc 1 1162 43 view .LVU517
 1654 002c 02FA04F2 		lsl	r2, r2, r4
 1655              	.LVL110:
1159:../firmware/n32g430_std_periph_driver/src/n32g430_gpio.c **** 
 1656              		.loc 1 1159 20 view .LVU518
 1657 0030 4BBF     		itete	mi
 1658 0032 0140     		andmi	r1, r1, r0
1162:../firmware/n32g430_std_periph_driver/src/n32g430_gpio.c **** 
 1659              		.loc 1 1162 9 is_stmt 1 view .LVU519
1173:../firmware/n32g430_std_periph_driver/src/n32g430_gpio.c **** 
1174:../firmware/n32g430_std_periph_driver/src/n32g430_gpio.c ****         /* Reset corresponding bits */
1175:../firmware/n32g430_std_periph_driver/src/n32g430_gpio.c ****         temp_value &= ~(GPIO_AF_MASK << (position * MULTIPLIER_FACTOR_4)); 
 1660              		.loc 1 1175 20 is_stmt 0 view .LVU520
 1661 0034 0140     		andpl	r1, r1, r0
1162:../firmware/n32g430_std_periph_driver/src/n32g430_gpio.c **** 
 1662              		.loc 1 1162 20 view .LVU521
 1663 0036 0A43     		orrmi	r2, r2, r1
ARM GAS  C:\Users\Dawn\AppData\Local\Temp\cccrm2KO.s 			page 55


 1664              	.LVL111:
1165:../firmware/n32g430_std_periph_driver/src/n32g430_gpio.c ****     }
 1665              		.loc 1 1165 9 is_stmt 1 view .LVU522
1176:../firmware/n32g430_std_periph_driver/src/n32g430_gpio.c **** 
1177:../firmware/n32g430_std_periph_driver/src/n32g430_gpio.c ****         /* Set corresponding bits */
1178:../firmware/n32g430_std_periph_driver/src/n32g430_gpio.c ****         temp_value |= (alternate_function << (position * MULTIPLIER_FACTOR_4));
 1666              		.loc 1 1178 20 is_stmt 0 view .LVU523
 1667 0038 0A43     		orrpl	r2, r2, r1
 1668              	.LVL112:
1165:../firmware/n32g430_std_periph_driver/src/n32g430_gpio.c ****     }
 1669              		.loc 1 1165 20 view .LVU524
 1670 003a 4CBF     		ite	mi
 1671 003c 5A62     		strmi	r2, [r3, #36]
1169:../firmware/n32g430_std_periph_driver/src/n32g430_gpio.c **** 
 1672              		.loc 1 1169 9 is_stmt 1 view .LVU525
1172:../firmware/n32g430_std_periph_driver/src/n32g430_gpio.c **** 
 1673              		.loc 1 1172 9 view .LVU526
 1674              	.LVL113:
1175:../firmware/n32g430_std_periph_driver/src/n32g430_gpio.c **** 
 1675              		.loc 1 1175 9 view .LVU527
 1676              		.loc 1 1178 9 view .LVU528
1179:../firmware/n32g430_std_periph_driver/src/n32g430_gpio.c **** 
1180:../firmware/n32g430_std_periph_driver/src/n32g430_gpio.c ****         /* Write to the GPIO_AFL register */
1181:../firmware/n32g430_std_periph_driver/src/n32g430_gpio.c ****         GPIOx->AFL = temp_value;
 1677              		.loc 1 1181 9 view .LVU529
 1678              		.loc 1 1181 20 is_stmt 0 view .LVU530
 1679 003e 1A62     		strpl	r2, [r3, #32]
1182:../firmware/n32g430_std_periph_driver/src/n32g430_gpio.c ****     }
1183:../firmware/n32g430_std_periph_driver/src/n32g430_gpio.c **** }
 1680              		.loc 1 1183 1 view .LVU531
 1681 0040 10BD     		pop	{r4, pc}
 1682              	.L114:
 1683 0042 00BF     		.align	2
 1684              	.L113:
 1685 0044 00400240 		.word	1073889280
 1686              		.cfi_endproc
 1687              	.LFE156:
 1689              		.section	.text.GPIO_EXTI_Line_Set,"ax",%progbits
 1690              		.align	1
 1691              		.global	GPIO_EXTI_Line_Set
 1692              		.syntax unified
 1693              		.thumb
 1694              		.thumb_func
 1696              	GPIO_EXTI_Line_Set:
 1697              	.LVL114:
 1698              	.LFB157:
1184:../firmware/n32g430_std_periph_driver/src/n32g430_gpio.c **** 
1185:../firmware/n32g430_std_periph_driver/src/n32g430_gpio.c **** /**
1186:../firmware/n32g430_std_periph_driver/src/n32g430_gpio.c ****  *\*\name   GPIO_EXTI_Line_Set.
1187:../firmware/n32g430_std_periph_driver/src/n32g430_gpio.c ****  *\*\fun    Selects the GPIO pin used as EXTI Line.
1188:../firmware/n32g430_std_periph_driver/src/n32g430_gpio.c ****  *\*\param  EXTI_line :
1189:../firmware/n32g430_std_periph_driver/src/n32g430_gpio.c ****  *\*\          - EXTI_LINE_SOURCE0
1190:../firmware/n32g430_std_periph_driver/src/n32g430_gpio.c ****  *\*\          - EXTI_LINE_SOURCE1
1191:../firmware/n32g430_std_periph_driver/src/n32g430_gpio.c ****  *\*\          - EXTI_LINE_SOURCE2
1192:../firmware/n32g430_std_periph_driver/src/n32g430_gpio.c ****  *\*\          - EXTI_LINE_SOURCE3
1193:../firmware/n32g430_std_periph_driver/src/n32g430_gpio.c ****  *\*\          - EXTI_LINE_SOURCE4
1194:../firmware/n32g430_std_periph_driver/src/n32g430_gpio.c ****  *\*\          - EXTI_LINE_SOURCE5
ARM GAS  C:\Users\Dawn\AppData\Local\Temp\cccrm2KO.s 			page 56


1195:../firmware/n32g430_std_periph_driver/src/n32g430_gpio.c ****  *\*\          - EXTI_LINE_SOURCE6
1196:../firmware/n32g430_std_periph_driver/src/n32g430_gpio.c ****  *\*\          - EXTI_LINE_SOURCE7
1197:../firmware/n32g430_std_periph_driver/src/n32g430_gpio.c ****  *\*\          - EXTI_LINE_SOURCE8
1198:../firmware/n32g430_std_periph_driver/src/n32g430_gpio.c ****  *\*\          - EXTI_LINE_SOURCE9
1199:../firmware/n32g430_std_periph_driver/src/n32g430_gpio.c ****  *\*\          - EXTI_LINE_SOURCE10
1200:../firmware/n32g430_std_periph_driver/src/n32g430_gpio.c ****  *\*\          - EXTI_LINE_SOURCE11
1201:../firmware/n32g430_std_periph_driver/src/n32g430_gpio.c ****  *\*\          - EXTI_LINE_SOURCE12
1202:../firmware/n32g430_std_periph_driver/src/n32g430_gpio.c ****  *\*\          - EXTI_LINE_SOURCE13
1203:../firmware/n32g430_std_periph_driver/src/n32g430_gpio.c ****  *\*\          - EXTI_LINE_SOURCE14
1204:../firmware/n32g430_std_periph_driver/src/n32g430_gpio.c ****  *\*\          - EXTI_LINE_SOURCE15
1205:../firmware/n32g430_std_periph_driver/src/n32g430_gpio.c ****  *\*\param  pin_source :
1206:../firmware/n32g430_std_periph_driver/src/n32g430_gpio.c ****  *\*\          - AFIO_EXTI_PA0
1207:../firmware/n32g430_std_periph_driver/src/n32g430_gpio.c ****  *\*\          - AFIO_EXTI_PB0
1208:../firmware/n32g430_std_periph_driver/src/n32g430_gpio.c ****  *\*\          - AFIO_EXTI_PD0
1209:../firmware/n32g430_std_periph_driver/src/n32g430_gpio.c ****  *\*\          - AFIO_EXTI_PA1
1210:../firmware/n32g430_std_periph_driver/src/n32g430_gpio.c ****  *\*\          - AFIO_EXTI_PB1
1211:../firmware/n32g430_std_periph_driver/src/n32g430_gpio.c ****  *\*\          - AFIO_EXTI_PA2
1212:../firmware/n32g430_std_periph_driver/src/n32g430_gpio.c ****  *\*\          - AFIO_EXTI_PB2
1213:../firmware/n32g430_std_periph_driver/src/n32g430_gpio.c ****  *\*\          - AFIO_EXTI_PA3
1214:../firmware/n32g430_std_periph_driver/src/n32g430_gpio.c ****  *\*\          - AFIO_EXTI_PB3
1215:../firmware/n32g430_std_periph_driver/src/n32g430_gpio.c ****  *\*\          - AFIO_EXTI_PA4
1216:../firmware/n32g430_std_periph_driver/src/n32g430_gpio.c ****  *\*\          - AFIO_EXTI_PB4
1217:../firmware/n32g430_std_periph_driver/src/n32g430_gpio.c ****  *\*\          - AFIO_EXTI_PA5
1218:../firmware/n32g430_std_periph_driver/src/n32g430_gpio.c ****  *\*\          - AFIO_EXTI_PB5
1219:../firmware/n32g430_std_periph_driver/src/n32g430_gpio.c ****  *\*\          - AFIO_EXTI_PA6
1220:../firmware/n32g430_std_periph_driver/src/n32g430_gpio.c ****  *\*\          - AFIO_EXTI_PB6
1221:../firmware/n32g430_std_periph_driver/src/n32g430_gpio.c ****  *\*\          - AFIO_EXTI_PA7
1222:../firmware/n32g430_std_periph_driver/src/n32g430_gpio.c ****  *\*\          - AFIO_EXTI_PB7
1223:../firmware/n32g430_std_periph_driver/src/n32g430_gpio.c ****  *\*\          - AFIO_EXTI_PA8
1224:../firmware/n32g430_std_periph_driver/src/n32g430_gpio.c ****  *\*\          - AFIO_EXTI_PB8
1225:../firmware/n32g430_std_periph_driver/src/n32g430_gpio.c ****  *\*\          - AFIO_EXTI_PA9
1226:../firmware/n32g430_std_periph_driver/src/n32g430_gpio.c ****  *\*\          - AFIO_EXTI_PB9
1227:../firmware/n32g430_std_periph_driver/src/n32g430_gpio.c ****  *\*\          - AFIO_EXTI_PA10
1228:../firmware/n32g430_std_periph_driver/src/n32g430_gpio.c ****  *\*\          - AFIO_EXTI_PB10
1229:../firmware/n32g430_std_periph_driver/src/n32g430_gpio.c ****  *\*\          - AFIO_EXTI_PA11
1230:../firmware/n32g430_std_periph_driver/src/n32g430_gpio.c ****  *\*\          - AFIO_EXTI_PB11
1231:../firmware/n32g430_std_periph_driver/src/n32g430_gpio.c ****  *\*\          - AFIO_EXTI_PA12
1232:../firmware/n32g430_std_periph_driver/src/n32g430_gpio.c ****  *\*\          - AFIO_EXTI_PB12
1233:../firmware/n32g430_std_periph_driver/src/n32g430_gpio.c ****  *\*\          - AFIO_EXTI_PD12
1234:../firmware/n32g430_std_periph_driver/src/n32g430_gpio.c ****  *\*\          - AFIO_EXTI_PA13
1235:../firmware/n32g430_std_periph_driver/src/n32g430_gpio.c ****  *\*\          - AFIO_EXTI_PB13
1236:../firmware/n32g430_std_periph_driver/src/n32g430_gpio.c ****  *\*\          - AFIO_EXTI_PC13
1237:../firmware/n32g430_std_periph_driver/src/n32g430_gpio.c ****  *\*\          - AFIO_EXTI_PD13
1238:../firmware/n32g430_std_periph_driver/src/n32g430_gpio.c ****  *\*\          - AFIO_EXTI_PA14
1239:../firmware/n32g430_std_periph_driver/src/n32g430_gpio.c ****  *\*\          - AFIO_EXTI_PB14
1240:../firmware/n32g430_std_periph_driver/src/n32g430_gpio.c ****  *\*\          - AFIO_EXTI_PC14
1241:../firmware/n32g430_std_periph_driver/src/n32g430_gpio.c ****  *\*\          - AFIO_EXTI_PD14
1242:../firmware/n32g430_std_periph_driver/src/n32g430_gpio.c ****  *\*\          - AFIO_EXTI_PA15
1243:../firmware/n32g430_std_periph_driver/src/n32g430_gpio.c ****  *\*\          - AFIO_EXTI_PB15
1244:../firmware/n32g430_std_periph_driver/src/n32g430_gpio.c ****  *\*\          - AFIO_EXTI_PC15
1245:../firmware/n32g430_std_periph_driver/src/n32g430_gpio.c ****  *\*\          - AFIO_EXTI_PD15
1246:../firmware/n32g430_std_periph_driver/src/n32g430_gpio.c ****  *\*\return none
1247:../firmware/n32g430_std_periph_driver/src/n32g430_gpio.c ****  */
1248:../firmware/n32g430_std_periph_driver/src/n32g430_gpio.c **** void GPIO_EXTI_Line_Set(uint8_t EXTI_line, uint32_t pin_source)
1249:../firmware/n32g430_std_periph_driver/src/n32g430_gpio.c **** {
 1699              		.loc 1 1249 1 is_stmt 1 view -0
 1700              		.cfi_startproc
ARM GAS  C:\Users\Dawn\AppData\Local\Temp\cccrm2KO.s 			page 57


 1701              		@ args = 0, pretend = 0, frame = 0
 1702              		@ frame_needed = 0, uses_anonymous_args = 0
1250:../firmware/n32g430_std_periph_driver/src/n32g430_gpio.c ****     AFIO->EXTI_CFG[(EXTI_line >> SHIFT_EXTI)] &= ~(AFIO_EXTI_CFG_MASK << ((uint32_t)((EXTI_line & (
 1703              		.loc 1 1250 5 view .LVU533
 1704 0000 00F0FC03 		and	r3, r0, #252
 1705 0004 03F18043 		add	r3, r3, #1073741824
 1706 0008 03F58033 		add	r3, r3, #65536
 1707              		.loc 1 1250 97 is_stmt 0 view .LVU534
 1708 000c 00F00300 		and	r0, r0, #3
 1709              	.LVL115:
 1710              		.loc 1 1250 19 view .LVU535
 1711 0010 5A68     		ldr	r2, [r3, #4]
1249:../firmware/n32g430_std_periph_driver/src/n32g430_gpio.c ****     AFIO->EXTI_CFG[(EXTI_line >> SHIFT_EXTI)] &= ~(AFIO_EXTI_CFG_MASK << ((uint32_t)((EXTI_line & (
 1712              		.loc 1 1249 1 view .LVU536
 1713 0012 10B5     		push	{r4, lr}
 1714              	.LCFI14:
 1715              		.cfi_def_cfa_offset 8
 1716              		.cfi_offset 4, -8
 1717              		.cfi_offset 14, -4
 1718              		.loc 1 1250 133 view .LVU537
 1719 0014 C000     		lsls	r0, r0, #3
 1720              		.loc 1 1250 71 view .LVU538
 1721 0016 3F24     		movs	r4, #63
 1722 0018 8440     		lsls	r4, r4, r0
 1723              		.loc 1 1250 47 view .LVU539
 1724 001a 22EA0402 		bic	r2, r2, r4
 1725 001e 5A60     		str	r2, [r3, #4]
1251:../firmware/n32g430_std_periph_driver/src/n32g430_gpio.c ****     AFIO->EXTI_CFG[(EXTI_line >> SHIFT_EXTI)] |=  (pin_source << ((uint32_t)((EXTI_line & (uint8_t)
 1726              		.loc 1 1251 5 is_stmt 1 view .LVU540
 1727              		.loc 1 1251 19 is_stmt 0 view .LVU541
 1728 0020 5A68     		ldr	r2, [r3, #4]
 1729              		.loc 1 1251 63 view .LVU542
 1730 0022 8140     		lsls	r1, r1, r0
 1731              	.LVL116:
 1732              		.loc 1 1251 47 view .LVU543
 1733 0024 1143     		orrs	r1, r1, r2
 1734 0026 5960     		str	r1, [r3, #4]
1252:../firmware/n32g430_std_periph_driver/src/n32g430_gpio.c **** }
 1735              		.loc 1 1252 1 view .LVU544
 1736 0028 10BD     		pop	{r4, pc}
 1737              		.cfi_endproc
 1738              	.LFE157:
 1740              		.section	.text.AFIO_SPI_NSS_Mode_Set,"ax",%progbits
 1741              		.align	1
 1742              		.global	AFIO_SPI_NSS_Mode_Set
 1743              		.syntax unified
 1744              		.thumb
 1745              		.thumb_func
 1747              	AFIO_SPI_NSS_Mode_Set:
 1748              	.LVL117:
 1749              	.LFB158:
1253:../firmware/n32g430_std_periph_driver/src/n32g430_gpio.c **** 
1254:../firmware/n32g430_std_periph_driver/src/n32g430_gpio.c **** 
1255:../firmware/n32g430_std_periph_driver/src/n32g430_gpio.c **** /**
1256:../firmware/n32g430_std_periph_driver/src/n32g430_gpio.c ****  *\*\name   AFIO_SPI_NSS_Mode_Set.
1257:../firmware/n32g430_std_periph_driver/src/n32g430_gpio.c ****  *\*\fun    Selects the alternate function SPIx NSS mode.
1258:../firmware/n32g430_std_periph_driver/src/n32g430_gpio.c ****  *\*\param  AFIO_SPIx_NSS : 
ARM GAS  C:\Users\Dawn\AppData\Local\Temp\cccrm2KO.s 			page 58


1259:../firmware/n32g430_std_periph_driver/src/n32g430_gpio.c ****  *\*\          choose which SPI configuration.
1260:../firmware/n32g430_std_periph_driver/src/n32g430_gpio.c ****  *\*\          - AFIO_SPI1_NSS
1261:../firmware/n32g430_std_periph_driver/src/n32g430_gpio.c ****  *\*\          - AFIO_SPI2_NSS
1262:../firmware/n32g430_std_periph_driver/src/n32g430_gpio.c ****  *\*\param  SPI_nss_mode : 
1263:../firmware/n32g430_std_periph_driver/src/n32g430_gpio.c ****  *\*\          specifies the SPI_NSS mode to be configured.
1264:../firmware/n32g430_std_periph_driver/src/n32g430_gpio.c ****  *\*\          - AFIO_SPI_NSS_HIGH_IMPEDANCE
1265:../firmware/n32g430_std_periph_driver/src/n32g430_gpio.c ****  *\*\          - AFIO_SPI_NSS_High_LEVEL
1266:../firmware/n32g430_std_periph_driver/src/n32g430_gpio.c ****  *\*\return none
1267:../firmware/n32g430_std_periph_driver/src/n32g430_gpio.c ****  */
1268:../firmware/n32g430_std_periph_driver/src/n32g430_gpio.c **** void AFIO_SPI_NSS_Mode_Set(uint32_t AFIO_SPIx_NSS, uint32_t SPI_NSS_mode)
1269:../firmware/n32g430_std_periph_driver/src/n32g430_gpio.c **** {
 1750              		.loc 1 1269 1 is_stmt 1 view -0
 1751              		.cfi_startproc
 1752              		@ args = 0, pretend = 0, frame = 0
 1753              		@ frame_needed = 0, uses_anonymous_args = 0
 1754              		@ link register save eliminated.
1270:../firmware/n32g430_std_periph_driver/src/n32g430_gpio.c ****     uint32_t temp_value = 0x00U;
 1755              		.loc 1 1270 5 view .LVU546
1271:../firmware/n32g430_std_periph_driver/src/n32g430_gpio.c **** 
1272:../firmware/n32g430_std_periph_driver/src/n32g430_gpio.c ****     temp_value = (AFIO->RMP_CFG & AFIO_RMP_CFG_MASK);
 1756              		.loc 1 1272 5 view .LVU547
 1757              		.loc 1 1272 23 is_stmt 0 view .LVU548
 1758 0000 054A     		ldr	r2, .L119
 1759 0002 1368     		ldr	r3, [r2]
 1760              		.loc 1 1272 16 view .LVU549
 1761 0004 C3F30B03 		ubfx	r3, r3, #0, #12
 1762              	.LVL118:
1273:../firmware/n32g430_std_periph_driver/src/n32g430_gpio.c **** 
1274:../firmware/n32g430_std_periph_driver/src/n32g430_gpio.c ****     if(SPI_NSS_mode != AFIO_SPI_NSS_HIGH_IMPEDANCE)
 1763              		.loc 1 1274 5 is_stmt 1 view .LVU550
 1764              		.loc 1 1274 7 is_stmt 0 view .LVU551
 1765 0008 11B1     		cbz	r1, .L117
1275:../firmware/n32g430_std_periph_driver/src/n32g430_gpio.c ****     {
1276:../firmware/n32g430_std_periph_driver/src/n32g430_gpio.c ****         temp_value |= AFIO_SPIx_NSS;
 1766              		.loc 1 1276 9 is_stmt 1 view .LVU552
 1767              		.loc 1 1276 20 is_stmt 0 view .LVU553
 1768 000a 0343     		orrs	r3, r3, r0
 1769              	.LVL119:
 1770              	.L118:
1277:../firmware/n32g430_std_periph_driver/src/n32g430_gpio.c ****     }
1278:../firmware/n32g430_std_periph_driver/src/n32g430_gpio.c ****     else
1279:../firmware/n32g430_std_periph_driver/src/n32g430_gpio.c ****     {
1280:../firmware/n32g430_std_periph_driver/src/n32g430_gpio.c ****         temp_value &= ~AFIO_SPIx_NSS;
1281:../firmware/n32g430_std_periph_driver/src/n32g430_gpio.c ****     }
1282:../firmware/n32g430_std_periph_driver/src/n32g430_gpio.c **** 
1283:../firmware/n32g430_std_periph_driver/src/n32g430_gpio.c ****     AFIO->RMP_CFG = temp_value;
 1771              		.loc 1 1283 5 is_stmt 1 view .LVU554
 1772              		.loc 1 1283 19 is_stmt 0 view .LVU555
 1773 000c 1360     		str	r3, [r2]
1284:../firmware/n32g430_std_periph_driver/src/n32g430_gpio.c **** }
 1774              		.loc 1 1284 1 view .LVU556
 1775 000e 7047     		bx	lr
 1776              	.L117:
1280:../firmware/n32g430_std_periph_driver/src/n32g430_gpio.c ****     }
 1777              		.loc 1 1280 9 is_stmt 1 view .LVU557
1280:../firmware/n32g430_std_periph_driver/src/n32g430_gpio.c ****     }
 1778              		.loc 1 1280 20 is_stmt 0 view .LVU558
ARM GAS  C:\Users\Dawn\AppData\Local\Temp\cccrm2KO.s 			page 59


 1779 0010 23EA0003 		bic	r3, r3, r0
 1780              	.LVL120:
1280:../firmware/n32g430_std_periph_driver/src/n32g430_gpio.c ****     }
 1781              		.loc 1 1280 20 view .LVU559
 1782 0014 FAE7     		b	.L118
 1783              	.L120:
 1784 0016 00BF     		.align	2
 1785              	.L119:
 1786 0018 00000140 		.word	1073807360
 1787              		.cfi_endproc
 1788              	.LFE158:
 1790              		.section	.text.AFIO_ADC_External_Trigger_Remap_Set,"ax",%progbits
 1791              		.align	1
 1792              		.global	AFIO_ADC_External_Trigger_Remap_Set
 1793              		.syntax unified
 1794              		.thumb
 1795              		.thumb_func
 1797              	AFIO_ADC_External_Trigger_Remap_Set:
 1798              	.LVL121:
 1799              	.LFB159:
1285:../firmware/n32g430_std_periph_driver/src/n32g430_gpio.c **** 
1286:../firmware/n32g430_std_periph_driver/src/n32g430_gpio.c **** 
1287:../firmware/n32g430_std_periph_driver/src/n32g430_gpio.c **** /**
1288:../firmware/n32g430_std_periph_driver/src/n32g430_gpio.c ****  *\*\name   AFIO_ADC_External_Trigger_Remap_Set.
1289:../firmware/n32g430_std_periph_driver/src/n32g430_gpio.c ****  *\*\fun    Configurate ADC external trigger.
1290:../firmware/n32g430_std_periph_driver/src/n32g430_gpio.c ****  *\*\param  ADC_ETR_type : 
1291:../firmware/n32g430_std_periph_driver/src/n32g430_gpio.c ****  *\*\          choose whether to configure rule conversion or injection conversion.
1292:../firmware/n32g430_std_periph_driver/src/n32g430_gpio.c ****  *\*\          - AFIO_ADC_ETRI
1293:../firmware/n32g430_std_periph_driver/src/n32g430_gpio.c ****  *\*\          - AFIO_ADC_ETRR
1294:../firmware/n32g430_std_periph_driver/src/n32g430_gpio.c ****  *\*\param  ADC_trigger_remap : 
1295:../firmware/n32g430_std_periph_driver/src/n32g430_gpio.c ****  *\*\          specifies the external trigger line be configured.
1296:../firmware/n32g430_std_periph_driver/src/n32g430_gpio.c ****  *\*\          - AFIO_ADC_TRIG_EXTI_0
1297:../firmware/n32g430_std_periph_driver/src/n32g430_gpio.c ****  *\*\          - AFIO_ADC_TRIG_EXTI_1
1298:../firmware/n32g430_std_periph_driver/src/n32g430_gpio.c ****  *\*\          - AFIO_ADC_TRIG_EXTI_2
1299:../firmware/n32g430_std_periph_driver/src/n32g430_gpio.c ****  *\*\          - AFIO_ADC_TRIG_EXTI_3
1300:../firmware/n32g430_std_periph_driver/src/n32g430_gpio.c ****  *\*\          - AFIO_ADC_TRIG_EXTI_4
1301:../firmware/n32g430_std_periph_driver/src/n32g430_gpio.c ****  *\*\          - AFIO_ADC_TRIG_EXTI_5
1302:../firmware/n32g430_std_periph_driver/src/n32g430_gpio.c ****  *\*\          - AFIO_ADC_TRIG_EXTI_6
1303:../firmware/n32g430_std_periph_driver/src/n32g430_gpio.c ****  *\*\          - AFIO_ADC_TRIG_EXTI_7
1304:../firmware/n32g430_std_periph_driver/src/n32g430_gpio.c ****  *\*\          - AFIO_ADC_TRIG_EXTI_8
1305:../firmware/n32g430_std_periph_driver/src/n32g430_gpio.c ****  *\*\          - AFIO_ADC_TRIG_EXTI_9
1306:../firmware/n32g430_std_periph_driver/src/n32g430_gpio.c ****  *\*\          - AFIO_ADC_TRIG_EXTI_10
1307:../firmware/n32g430_std_periph_driver/src/n32g430_gpio.c ****  *\*\          - AFIO_ADC_TRIG_EXTI_11
1308:../firmware/n32g430_std_periph_driver/src/n32g430_gpio.c ****  *\*\          - AFIO_ADC_TRIG_EXTI_12
1309:../firmware/n32g430_std_periph_driver/src/n32g430_gpio.c ****  *\*\          - AFIO_ADC_TRIG_EXTI_13
1310:../firmware/n32g430_std_periph_driver/src/n32g430_gpio.c ****  *\*\          - AFIO_ADC_TRIG_EXTI_14
1311:../firmware/n32g430_std_periph_driver/src/n32g430_gpio.c ****  *\*\          - AFIO_ADC_TRIG_EXTI_15
1312:../firmware/n32g430_std_periph_driver/src/n32g430_gpio.c ****  *\*\          - AFIO_ADC_TRIG_TIM8_TRGO
1313:../firmware/n32g430_std_periph_driver/src/n32g430_gpio.c ****  *\*\          - AFIO_ADC_TRIG_TIM8_CH4
1314:../firmware/n32g430_std_periph_driver/src/n32g430_gpio.c ****  *\*\return none
1315:../firmware/n32g430_std_periph_driver/src/n32g430_gpio.c ****  */
1316:../firmware/n32g430_std_periph_driver/src/n32g430_gpio.c **** void AFIO_ADC_External_Trigger_Remap_Set(AFIO_ADC_ETRType ADC_ETR_type, AFIO_ADC_Trig_RemapType ADC
1317:../firmware/n32g430_std_periph_driver/src/n32g430_gpio.c **** {
 1800              		.loc 1 1317 1 is_stmt 1 view -0
 1801              		.cfi_startproc
 1802              		@ args = 0, pretend = 0, frame = 0
 1803              		@ frame_needed = 0, uses_anonymous_args = 0
ARM GAS  C:\Users\Dawn\AppData\Local\Temp\cccrm2KO.s 			page 60


 1804              		@ link register save eliminated.
1318:../firmware/n32g430_std_periph_driver/src/n32g430_gpio.c ****     uint32_t temp_value = 0x00U;
 1805              		.loc 1 1318 5 view .LVU561
1319:../firmware/n32g430_std_periph_driver/src/n32g430_gpio.c **** 
1320:../firmware/n32g430_std_periph_driver/src/n32g430_gpio.c ****     if(ADC_ETR_type == AFIO_ADC_ETRI)
 1806              		.loc 1 1320 5 view .LVU562
 1807              		.loc 1 1320 7 is_stmt 0 view .LVU563
 1808 0000 0928     		cmp	r0, #9
 1809 0002 0BD1     		bne	.L122
1321:../firmware/n32g430_std_periph_driver/src/n32g430_gpio.c ****     {
1322:../firmware/n32g430_std_periph_driver/src/n32g430_gpio.c ****         temp_value = AFIO->RMP_CFG;
 1810              		.loc 1 1322 9 is_stmt 1 view .LVU564
 1811              		.loc 1 1322 20 is_stmt 0 view .LVU565
 1812 0004 0C4A     		ldr	r2, .L128
 1813 0006 1368     		ldr	r3, [r2]
 1814              	.LVL122:
1323:../firmware/n32g430_std_periph_driver/src/n32g430_gpio.c **** 
1324:../firmware/n32g430_std_periph_driver/src/n32g430_gpio.c ****         /* clear AFIO_RMP_CFG register ETRI bit */
1325:../firmware/n32g430_std_periph_driver/src/n32g430_gpio.c ****         temp_value &= (~(AFIO_RMPCFG_ADC_MASK << AFIO_ADC_ETRI));
 1815              		.loc 1 1325 9 is_stmt 1 view .LVU566
1326:../firmware/n32g430_std_periph_driver/src/n32g430_gpio.c **** 
1327:../firmware/n32g430_std_periph_driver/src/n32g430_gpio.c ****         /* if ADC_ETR_type is AFIO_ADC_ETRI then ADC_trigger_remap cannot be AFIO_ADC_TRIG_TIM8_TRG
1328:../firmware/n32g430_std_periph_driver/src/n32g430_gpio.c ****         if(ADC_trigger_remap == AFIO_ADC_TRIG_TIM8_CH4)
 1816              		.loc 1 1328 9 view .LVU567
 1817              		.loc 1 1328 11 is_stmt 0 view .LVU568
 1818 0008 1129     		cmp	r1, #17
1329:../firmware/n32g430_std_periph_driver/src/n32g430_gpio.c ****         {
1330:../firmware/n32g430_std_periph_driver/src/n32g430_gpio.c ****             /* select TIM8_CH4 line to connect */
1331:../firmware/n32g430_std_periph_driver/src/n32g430_gpio.c ****             temp_value |= (AFIO_RMPCFG_ADC_MASK << AFIO_ADC_ETRI);
 1819              		.loc 1 1331 13 is_stmt 1 view .LVU569
1332:../firmware/n32g430_std_periph_driver/src/n32g430_gpio.c ****         }
1333:../firmware/n32g430_std_periph_driver/src/n32g430_gpio.c ****         else
1334:../firmware/n32g430_std_periph_driver/src/n32g430_gpio.c ****         {
1335:../firmware/n32g430_std_periph_driver/src/n32g430_gpio.c ****             /* select which external line is connected */
1336:../firmware/n32g430_std_periph_driver/src/n32g430_gpio.c ****             temp_value &= (~(AFIO_RMPCFG_EXTI_MASK << SHIFT_EXTI_ETRI));
 1820              		.loc 1 1336 24 is_stmt 0 view .LVU570
 1821 000a 16BF     		itet	ne
 1822 000c 23F43C73 		bicne	r3, r3, #752
 1823              	.LVL123:
1331:../firmware/n32g430_std_periph_driver/src/n32g430_gpio.c ****         }
 1824              		.loc 1 1331 24 view .LVU571
 1825 0010 43F40073 		orreq	r3, r3, #512
 1826              	.LVL124:
 1827              		.loc 1 1336 13 is_stmt 1 view .LVU572
1337:../firmware/n32g430_std_periph_driver/src/n32g430_gpio.c ****             temp_value |= (ADC_trigger_remap << SHIFT_EXTI_ETRI);
 1828              		.loc 1 1337 13 view .LVU573
 1829              		.loc 1 1337 24 is_stmt 0 view .LVU574
 1830 0014 43EA0113 		orrne	r3, r3, r1, lsl #4
 1831              	.LVL125:
1338:../firmware/n32g430_std_periph_driver/src/n32g430_gpio.c ****         }
1339:../firmware/n32g430_std_periph_driver/src/n32g430_gpio.c ****         AFIO->RMP_CFG = temp_value;
 1832              		.loc 1 1339 9 is_stmt 1 view .LVU575
 1833              	.L127:
1340:../firmware/n32g430_std_periph_driver/src/n32g430_gpio.c ****     }
1341:../firmware/n32g430_std_periph_driver/src/n32g430_gpio.c ****     else if(ADC_ETR_type == AFIO_ADC_ETRR)
1342:../firmware/n32g430_std_periph_driver/src/n32g430_gpio.c ****     {
1343:../firmware/n32g430_std_periph_driver/src/n32g430_gpio.c ****         temp_value  = AFIO->RMP_CFG;
ARM GAS  C:\Users\Dawn\AppData\Local\Temp\cccrm2KO.s 			page 61


1344:../firmware/n32g430_std_periph_driver/src/n32g430_gpio.c **** 
1345:../firmware/n32g430_std_periph_driver/src/n32g430_gpio.c ****         /* clear AFIO_RMP_CFG register ETRR bit */
1346:../firmware/n32g430_std_periph_driver/src/n32g430_gpio.c ****         temp_value &= (~(AFIO_RMPCFG_ADC_MASK << AFIO_ADC_ETRR));
1347:../firmware/n32g430_std_periph_driver/src/n32g430_gpio.c **** 
1348:../firmware/n32g430_std_periph_driver/src/n32g430_gpio.c ****         /* if ADC_ETR_type is AFIO_ADC_ETRR then ADC_trigger_remap cannot be AFIO_ADC_TRIG_TIM8_CH4
1349:../firmware/n32g430_std_periph_driver/src/n32g430_gpio.c ****         if(ADC_trigger_remap == AFIO_ADC_TRIG_TIM8_TRGO)
1350:../firmware/n32g430_std_periph_driver/src/n32g430_gpio.c ****         {
1351:../firmware/n32g430_std_periph_driver/src/n32g430_gpio.c ****             /* select TIM8_TRGO line to connect */
1352:../firmware/n32g430_std_periph_driver/src/n32g430_gpio.c ****             temp_value |= (AFIO_RMPCFG_ADC_MASK << AFIO_ADC_ETRR);
1353:../firmware/n32g430_std_periph_driver/src/n32g430_gpio.c ****         }
1354:../firmware/n32g430_std_periph_driver/src/n32g430_gpio.c ****         else
1355:../firmware/n32g430_std_periph_driver/src/n32g430_gpio.c ****         {
1356:../firmware/n32g430_std_periph_driver/src/n32g430_gpio.c ****             /* select which external line is connected */
1357:../firmware/n32g430_std_periph_driver/src/n32g430_gpio.c ****             temp_value &= ~AFIO_RMPCFG_EXTI_MASK;
1358:../firmware/n32g430_std_periph_driver/src/n32g430_gpio.c ****             temp_value |= ADC_trigger_remap;
1359:../firmware/n32g430_std_periph_driver/src/n32g430_gpio.c ****         }
1360:../firmware/n32g430_std_periph_driver/src/n32g430_gpio.c ****         AFIO->RMP_CFG = temp_value;
 1834              		.loc 1 1360 9 view .LVU576
 1835              		.loc 1 1360 23 is_stmt 0 view .LVU577
 1836 0018 1360     		str	r3, [r2]
 1837              	.LVL126:
 1838              	.L121:
1361:../firmware/n32g430_std_periph_driver/src/n32g430_gpio.c ****     }
1362:../firmware/n32g430_std_periph_driver/src/n32g430_gpio.c **** }
 1839              		.loc 1 1362 1 view .LVU578
 1840 001a 7047     		bx	lr
 1841              	.LVL127:
 1842              	.L122:
1341:../firmware/n32g430_std_periph_driver/src/n32g430_gpio.c ****     {
 1843              		.loc 1 1341 10 is_stmt 1 view .LVU579
1341:../firmware/n32g430_std_periph_driver/src/n32g430_gpio.c ****     {
 1844              		.loc 1 1341 12 is_stmt 0 view .LVU580
 1845 001c 0828     		cmp	r0, #8
 1846 001e FCD1     		bne	.L121
1343:../firmware/n32g430_std_periph_driver/src/n32g430_gpio.c **** 
 1847              		.loc 1 1343 9 is_stmt 1 view .LVU581
1343:../firmware/n32g430_std_periph_driver/src/n32g430_gpio.c **** 
 1848              		.loc 1 1343 21 is_stmt 0 view .LVU582
 1849 0020 054A     		ldr	r2, .L128
 1850 0022 1368     		ldr	r3, [r2]
 1851              	.LVL128:
1346:../firmware/n32g430_std_periph_driver/src/n32g430_gpio.c **** 
 1852              		.loc 1 1346 9 is_stmt 1 view .LVU583
1349:../firmware/n32g430_std_periph_driver/src/n32g430_gpio.c ****         {
 1853              		.loc 1 1349 9 view .LVU584
1349:../firmware/n32g430_std_periph_driver/src/n32g430_gpio.c ****         {
 1854              		.loc 1 1349 11 is_stmt 0 view .LVU585
 1855 0024 1029     		cmp	r1, #16
1352:../firmware/n32g430_std_periph_driver/src/n32g430_gpio.c ****         }
 1856              		.loc 1 1352 13 is_stmt 1 view .LVU586
1357:../firmware/n32g430_std_periph_driver/src/n32g430_gpio.c ****             temp_value |= ADC_trigger_remap;
 1857              		.loc 1 1357 24 is_stmt 0 view .LVU587
 1858 0026 1BBF     		ittet	ne
 1859 0028 23F48773 		bicne	r3, r3, #270
 1860              	.LVL129:
1357:../firmware/n32g430_std_periph_driver/src/n32g430_gpio.c ****             temp_value |= ADC_trigger_remap;
 1861              		.loc 1 1357 24 view .LVU588
ARM GAS  C:\Users\Dawn\AppData\Local\Temp\cccrm2KO.s 			page 62


 1862 002c 23F00103 		bicne	r3, r3, #1
1352:../firmware/n32g430_std_periph_driver/src/n32g430_gpio.c ****         }
 1863              		.loc 1 1352 24 view .LVU589
 1864 0030 43F48073 		orreq	r3, r3, #256
 1865              	.LVL130:
1357:../firmware/n32g430_std_periph_driver/src/n32g430_gpio.c ****             temp_value |= ADC_trigger_remap;
 1866              		.loc 1 1357 13 is_stmt 1 view .LVU590
1358:../firmware/n32g430_std_periph_driver/src/n32g430_gpio.c ****         }
 1867              		.loc 1 1358 13 view .LVU591
1358:../firmware/n32g430_std_periph_driver/src/n32g430_gpio.c ****         }
 1868              		.loc 1 1358 24 is_stmt 0 view .LVU592
 1869 0034 0B43     		orrne	r3, r3, r1
 1870              	.LVL131:
1358:../firmware/n32g430_std_periph_driver/src/n32g430_gpio.c ****         }
 1871              		.loc 1 1358 24 view .LVU593
 1872 0036 EFE7     		b	.L127
 1873              	.L129:
 1874              		.align	2
 1875              	.L128:
 1876 0038 00000140 		.word	1073807360
 1877              		.cfi_endproc
 1878              	.LFE159:
 1880              		.section	.text.AFIO_5V_Tolerance_Enable,"ax",%progbits
 1881              		.align	1
 1882              		.global	AFIO_5V_Tolerance_Enable
 1883              		.syntax unified
 1884              		.thumb
 1885              		.thumb_func
 1887              	AFIO_5V_Tolerance_Enable:
 1888              	.LVL132:
 1889              	.LFB160:
1363:../firmware/n32g430_std_periph_driver/src/n32g430_gpio.c **** 
1364:../firmware/n32g430_std_periph_driver/src/n32g430_gpio.c **** 
1365:../firmware/n32g430_std_periph_driver/src/n32g430_gpio.c **** /**
1366:../firmware/n32g430_std_periph_driver/src/n32g430_gpio.c ****  *\*\name   AFIO_5V_Tolerance_Enable.
1367:../firmware/n32g430_std_periph_driver/src/n32g430_gpio.c ****  *\*\fun    Enables 5V tolerance of GPIOA and GPIOB.
1368:../firmware/n32g430_std_periph_driver/src/n32g430_gpio.c ****  *\*\param  tolerance_pin : 
1369:../firmware/n32g430_std_periph_driver/src/n32g430_gpio.c ****  *\*\          - PA0_5V_TOLERANCE         
1370:../firmware/n32g430_std_periph_driver/src/n32g430_gpio.c ****  *\*\          - PA1_5V_TOLERANCE         
1371:../firmware/n32g430_std_periph_driver/src/n32g430_gpio.c ****  *\*\          - PA2_5V_TOLERANCE        
1372:../firmware/n32g430_std_periph_driver/src/n32g430_gpio.c ****  *\*\          - PA3_5V_TOLERANCE         
1373:../firmware/n32g430_std_periph_driver/src/n32g430_gpio.c ****  *\*\          - PA4_5V_TOLERANCE         
1374:../firmware/n32g430_std_periph_driver/src/n32g430_gpio.c ****  *\*\          - PA5_5V_TOLERANCE         
1375:../firmware/n32g430_std_periph_driver/src/n32g430_gpio.c ****  *\*\          - PA6_5V_TOLERANCE         
1376:../firmware/n32g430_std_periph_driver/src/n32g430_gpio.c ****  *\*\          - PA7_5V_TOLERANCE        
1377:../firmware/n32g430_std_periph_driver/src/n32g430_gpio.c ****  *\*\          - PA8_5V_TOLERANCE         
1378:../firmware/n32g430_std_periph_driver/src/n32g430_gpio.c ****  *\*\          - PA11_5V_TOLERANCE        
1379:../firmware/n32g430_std_periph_driver/src/n32g430_gpio.c ****  *\*\          - PA12_5V_TOLERANCE        
1380:../firmware/n32g430_std_periph_driver/src/n32g430_gpio.c ****  *\*\          - PA15_5V_TOLERANCE        
1381:../firmware/n32g430_std_periph_driver/src/n32g430_gpio.c ****  *\*\          - PB0_5V_TOLERANCE         
1382:../firmware/n32g430_std_periph_driver/src/n32g430_gpio.c ****  *\*\          - PB1_5V_TOLERANCE         
1383:../firmware/n32g430_std_periph_driver/src/n32g430_gpio.c ****  *\*\          - PB2_5V_TOLERANCE         
1384:../firmware/n32g430_std_periph_driver/src/n32g430_gpio.c ****  *\*\          - PB3_5V_TOLERANCE        
1385:../firmware/n32g430_std_periph_driver/src/n32g430_gpio.c ****  *\*\          - PB4_5V_TOLERANCE         
1386:../firmware/n32g430_std_periph_driver/src/n32g430_gpio.c ****  *\*\          - PB5_5V_TOLERANCE         
1387:../firmware/n32g430_std_periph_driver/src/n32g430_gpio.c ****  *\*\          - PB7_5V_TOLERANCE         
1388:../firmware/n32g430_std_periph_driver/src/n32g430_gpio.c ****  *\*\          - PB10_5V_TOLERANCE       
ARM GAS  C:\Users\Dawn\AppData\Local\Temp\cccrm2KO.s 			page 63


1389:../firmware/n32g430_std_periph_driver/src/n32g430_gpio.c ****  *\*\          - PB11_5V_TOLERANCE      
1390:../firmware/n32g430_std_periph_driver/src/n32g430_gpio.c ****  *\*\          - PB12_5V_TOLERANCE        
1391:../firmware/n32g430_std_periph_driver/src/n32g430_gpio.c ****  *\*\          - PB13_5V_TOLERANCE        
1392:../firmware/n32g430_std_periph_driver/src/n32g430_gpio.c ****  *\*\          - PB14_5V_TOLERANCE        
1393:../firmware/n32g430_std_periph_driver/src/n32g430_gpio.c ****  *\*\          - PB15_5V_TOLERANCE
1394:../firmware/n32g430_std_periph_driver/src/n32g430_gpio.c ****  *\*\return none
1395:../firmware/n32g430_std_periph_driver/src/n32g430_gpio.c ****  */
1396:../firmware/n32g430_std_periph_driver/src/n32g430_gpio.c **** void AFIO_5V_Tolerance_Enable(uint32_t tolerance_pin)
1397:../firmware/n32g430_std_periph_driver/src/n32g430_gpio.c **** {
 1890              		.loc 1 1397 1 is_stmt 1 view -0
 1891              		.cfi_startproc
 1892              		@ args = 0, pretend = 0, frame = 0
 1893              		@ frame_needed = 0, uses_anonymous_args = 0
 1894              		@ link register save eliminated.
1398:../firmware/n32g430_std_periph_driver/src/n32g430_gpio.c ****     AFIO->TOL5V_CFG &= ~tolerance_pin;
 1895              		.loc 1 1398 5 view .LVU595
 1896              		.loc 1 1398 9 is_stmt 0 view .LVU596
 1897 0000 024A     		ldr	r2, .L131
 1898 0002 5369     		ldr	r3, [r2, #20]
 1899              		.loc 1 1398 21 view .LVU597
 1900 0004 23EA0003 		bic	r3, r3, r0
 1901 0008 5361     		str	r3, [r2, #20]
1399:../firmware/n32g430_std_periph_driver/src/n32g430_gpio.c **** }
 1902              		.loc 1 1399 1 view .LVU598
 1903 000a 7047     		bx	lr
 1904              	.L132:
 1905              		.align	2
 1906              	.L131:
 1907 000c 00000140 		.word	1073807360
 1908              		.cfi_endproc
 1909              	.LFE160:
 1911              		.section	.text.AFIO_5V_Tolerance_Disable,"ax",%progbits
 1912              		.align	1
 1913              		.global	AFIO_5V_Tolerance_Disable
 1914              		.syntax unified
 1915              		.thumb
 1916              		.thumb_func
 1918              	AFIO_5V_Tolerance_Disable:
 1919              	.LVL133:
 1920              	.LFB161:
1400:../firmware/n32g430_std_periph_driver/src/n32g430_gpio.c **** 
1401:../firmware/n32g430_std_periph_driver/src/n32g430_gpio.c **** /**
1402:../firmware/n32g430_std_periph_driver/src/n32g430_gpio.c ****  *\*\name   AFIO_5V_Tolerance_Disable.
1403:../firmware/n32g430_std_periph_driver/src/n32g430_gpio.c ****  *\*\fun    Disables 5V tolerance of GPIOA and GPIOB.
1404:../firmware/n32g430_std_periph_driver/src/n32g430_gpio.c ****  *\*\param  tolerance_pin : 
1405:../firmware/n32g430_std_periph_driver/src/n32g430_gpio.c ****  *\*\          - PA0_5V_TOLERANCE         
1406:../firmware/n32g430_std_periph_driver/src/n32g430_gpio.c ****  *\*\          - PA1_5V_TOLERANCE         
1407:../firmware/n32g430_std_periph_driver/src/n32g430_gpio.c ****  *\*\          - PA2_5V_TOLERANCE        
1408:../firmware/n32g430_std_periph_driver/src/n32g430_gpio.c ****  *\*\          - PA3_5V_TOLERANCE         
1409:../firmware/n32g430_std_periph_driver/src/n32g430_gpio.c ****  *\*\          - PA4_5V_TOLERANCE         
1410:../firmware/n32g430_std_periph_driver/src/n32g430_gpio.c ****  *\*\          - PA5_5V_TOLERANCE         
1411:../firmware/n32g430_std_periph_driver/src/n32g430_gpio.c ****  *\*\          - PA6_5V_TOLERANCE         
1412:../firmware/n32g430_std_periph_driver/src/n32g430_gpio.c ****  *\*\          - PA7_5V_TOLERANCE        
1413:../firmware/n32g430_std_periph_driver/src/n32g430_gpio.c ****  *\*\          - PA8_5V_TOLERANCE         
1414:../firmware/n32g430_std_periph_driver/src/n32g430_gpio.c ****  *\*\          - PA11_5V_TOLERANCE        
1415:../firmware/n32g430_std_periph_driver/src/n32g430_gpio.c ****  *\*\          - PA12_5V_TOLERANCE        
1416:../firmware/n32g430_std_periph_driver/src/n32g430_gpio.c ****  *\*\          - PA15_5V_TOLERANCE        
ARM GAS  C:\Users\Dawn\AppData\Local\Temp\cccrm2KO.s 			page 64


1417:../firmware/n32g430_std_periph_driver/src/n32g430_gpio.c ****  *\*\          - PB0_5V_TOLERANCE         
1418:../firmware/n32g430_std_periph_driver/src/n32g430_gpio.c ****  *\*\          - PB1_5V_TOLERANCE         
1419:../firmware/n32g430_std_periph_driver/src/n32g430_gpio.c ****  *\*\          - PB2_5V_TOLERANCE         
1420:../firmware/n32g430_std_periph_driver/src/n32g430_gpio.c ****  *\*\          - PB3_5V_TOLERANCE        
1421:../firmware/n32g430_std_periph_driver/src/n32g430_gpio.c ****  *\*\          - PB4_5V_TOLERANCE         
1422:../firmware/n32g430_std_periph_driver/src/n32g430_gpio.c ****  *\*\          - PB5_5V_TOLERANCE         
1423:../firmware/n32g430_std_periph_driver/src/n32g430_gpio.c ****  *\*\          - PB7_5V_TOLERANCE         
1424:../firmware/n32g430_std_periph_driver/src/n32g430_gpio.c ****  *\*\          - PB10_5V_TOLERANCE       
1425:../firmware/n32g430_std_periph_driver/src/n32g430_gpio.c ****  *\*\          - PB11_5V_TOLERANCE      
1426:../firmware/n32g430_std_periph_driver/src/n32g430_gpio.c ****  *\*\          - PB12_5V_TOLERANCE        
1427:../firmware/n32g430_std_periph_driver/src/n32g430_gpio.c ****  *\*\          - PB13_5V_TOLERANCE        
1428:../firmware/n32g430_std_periph_driver/src/n32g430_gpio.c ****  *\*\          - PB14_5V_TOLERANCE        
1429:../firmware/n32g430_std_periph_driver/src/n32g430_gpio.c ****  *\*\          - PB15_5V_TOLERANCE
1430:../firmware/n32g430_std_periph_driver/src/n32g430_gpio.c ****  *\*\return none
1431:../firmware/n32g430_std_periph_driver/src/n32g430_gpio.c ****  */
1432:../firmware/n32g430_std_periph_driver/src/n32g430_gpio.c **** void AFIO_5V_Tolerance_Disable(uint32_t tolerance_pin)
1433:../firmware/n32g430_std_periph_driver/src/n32g430_gpio.c **** {
 1921              		.loc 1 1433 1 is_stmt 1 view -0
 1922              		.cfi_startproc
 1923              		@ args = 0, pretend = 0, frame = 0
 1924              		@ frame_needed = 0, uses_anonymous_args = 0
 1925              		@ link register save eliminated.
