ARM GAS  C:\Users\Dawn\AppData\Local\Temp\ccSkpskc.s 			page 1


   1              		.cpu cortex-m4
   2              		.arch armv7e-m
   3              		.fpu fpv4-sp-d16
   4              		.eabi_attribute 27, 1
   5              		.eabi_attribute 28, 1
   6              		.eabi_attribute 23, 1
   7              		.eabi_attribute 24, 1
   8              		.eabi_attribute 25, 1
   9              		.eabi_attribute 26, 1
  10              		.eabi_attribute 30, 1
  11              		.eabi_attribute 34, 1
  12              		.eabi_attribute 18, 4
  13              		.file	"n32g430_usart.c"
  14              		.text
  15              	.Ltext0:
  16              		.cfi_sections	.debug_frame
  17              		.file 1 "n32g430_std_periph_driver/src/n32g430_usart.c"
  18              		.section	.text.USART_Reset,"ax",%progbits
  19              		.align	1
  20              		.global	USART_Reset
  21              		.syntax unified
  22              		.thumb
  23              		.thumb_func
  25              	USART_Reset:
  26              	.LVL0:
  27              	.LFB123:
   1:n32g430_std_periph_driver/src/n32g430_usart.c **** /**
   2:n32g430_std_periph_driver/src/n32g430_usart.c **** *     Copyright (c) 2022, Nations Technologies Inc.
   3:n32g430_std_periph_driver/src/n32g430_usart.c **** * 
   4:n32g430_std_periph_driver/src/n32g430_usart.c **** *     All rights reserved.
   5:n32g430_std_periph_driver/src/n32g430_usart.c **** *
   6:n32g430_std_periph_driver/src/n32g430_usart.c **** *     This software is the exclusive property of Nations Technologies Inc. (Hereinafter 
   7:n32g430_std_periph_driver/src/n32g430_usart.c **** * referred to as NATIONS). This software, and the product of NATIONS described herein 
   8:n32g430_std_periph_driver/src/n32g430_usart.c **** * (Hereinafter referred to as the Product) are owned by NATIONS under the laws and treaties
   9:n32g430_std_periph_driver/src/n32g430_usart.c **** * of the People's Republic of China and other applicable jurisdictions worldwide.
  10:n32g430_std_periph_driver/src/n32g430_usart.c **** *
  11:n32g430_std_periph_driver/src/n32g430_usart.c **** *     NATIONS does not grant any license under its patents, copyrights, trademarks, or other 
  12:n32g430_std_periph_driver/src/n32g430_usart.c **** * intellectual property rights. Names and brands of third party may be mentioned or referred 
  13:n32g430_std_periph_driver/src/n32g430_usart.c **** * thereto (if any) for identification purposes only.
  14:n32g430_std_periph_driver/src/n32g430_usart.c **** *
  15:n32g430_std_periph_driver/src/n32g430_usart.c **** *     NATIONS reserves the right to make changes, corrections, enhancements, modifications, and 
  16:n32g430_std_periph_driver/src/n32g430_usart.c **** * improvements to this software at any time without notice. Please contact NATIONS and obtain 
  17:n32g430_std_periph_driver/src/n32g430_usart.c **** * the latest version of this software before placing orders.
  18:n32g430_std_periph_driver/src/n32g430_usart.c **** 
  19:n32g430_std_periph_driver/src/n32g430_usart.c **** *     Although NATIONS has attempted to provide accurate and reliable information, NATIONS assumes 
  20:n32g430_std_periph_driver/src/n32g430_usart.c **** * no responsibility for the accuracy and reliability of this software.
  21:n32g430_std_periph_driver/src/n32g430_usart.c **** * 
  22:n32g430_std_periph_driver/src/n32g430_usart.c **** *     It is the responsibility of the user of this software to properly design, program, and test 
  23:n32g430_std_periph_driver/src/n32g430_usart.c **** * the functionality and safety of any application made of this information and any resulting produc
  24:n32g430_std_periph_driver/src/n32g430_usart.c **** * In no event shall NATIONS be liable for any direct, indirect, incidental, special,exemplary, or 
  25:n32g430_std_periph_driver/src/n32g430_usart.c **** * consequential damages arising in any way out of the use of this software or the Product.
  26:n32g430_std_periph_driver/src/n32g430_usart.c **** *
  27:n32g430_std_periph_driver/src/n32g430_usart.c **** *     NATIONS Products are neither intended nor warranted for usage in systems or equipment, any
  28:n32g430_std_periph_driver/src/n32g430_usart.c **** * malfunction or failure of which may cause loss of human life, bodily injury or severe property 
  29:n32g430_std_periph_driver/src/n32g430_usart.c **** * damage. Such applications are deemed, "Insecure Usage".
  30:n32g430_std_periph_driver/src/n32g430_usart.c **** *
  31:n32g430_std_periph_driver/src/n32g430_usart.c **** *     All Insecure Usage shall be made at user's risk. User shall indemnify NATIONS and hold NATION
ARM GAS  C:\Users\Dawn\AppData\Local\Temp\ccSkpskc.s 			page 2


  32:n32g430_std_periph_driver/src/n32g430_usart.c **** * harmless from and against all claims, costs, damages, and other liabilities, arising from or rela
  33:n32g430_std_periph_driver/src/n32g430_usart.c **** * to any customer's Insecure Usage.
  34:n32g430_std_periph_driver/src/n32g430_usart.c **** 
  35:n32g430_std_periph_driver/src/n32g430_usart.c **** *     Any express or implied warranty with regard to this software or the Product, including,but no
  36:n32g430_std_periph_driver/src/n32g430_usart.c **** * limited to, the warranties of merchantability, fitness for a particular purpose and non-infringem
  37:n32g430_std_periph_driver/src/n32g430_usart.c **** * are disclaimed to the fullest extent permitted by law.
  38:n32g430_std_periph_driver/src/n32g430_usart.c **** 
  39:n32g430_std_periph_driver/src/n32g430_usart.c **** *     Unless otherwise explicitly permitted by NATIONS, anyone may not duplicate, modify, transcrib
  40:n32g430_std_periph_driver/src/n32g430_usart.c **** * or otherwise distribute this software for any purposes, in whole or in part.
  41:n32g430_std_periph_driver/src/n32g430_usart.c **** *
  42:n32g430_std_periph_driver/src/n32g430_usart.c **** *     NATIONS products and technologies shall not be used for or incorporated into any products or 
  43:n32g430_std_periph_driver/src/n32g430_usart.c **** * whose manufacture, use, or sale is prohibited under any applicable domestic or foreign laws or re
  44:n32g430_std_periph_driver/src/n32g430_usart.c **** * User shall comply with any applicable export control laws and regulations promulgated and adminis
  45:n32g430_std_periph_driver/src/n32g430_usart.c **** * the governments of any countries asserting jurisdiction over the parties or transactions.
  46:n32g430_std_periph_driver/src/n32g430_usart.c **** **/
  47:n32g430_std_periph_driver/src/n32g430_usart.c **** 
  48:n32g430_std_periph_driver/src/n32g430_usart.c **** /**
  49:n32g430_std_periph_driver/src/n32g430_usart.c **** *\*\file n32g430_usart.c
  50:n32g430_std_periph_driver/src/n32g430_usart.c **** *\*\author Nations
  51:n32g430_std_periph_driver/src/n32g430_usart.c **** *\*\version v1.0.0
  52:n32g430_std_periph_driver/src/n32g430_usart.c **** *\*\copyright Copyright (c) 2022, Nations Technologies Inc. All rights reserved.
  53:n32g430_std_periph_driver/src/n32g430_usart.c **** **/
  54:n32g430_std_periph_driver/src/n32g430_usart.c **** 
  55:n32g430_std_periph_driver/src/n32g430_usart.c **** #include "n32g430_usart.h"
  56:n32g430_std_periph_driver/src/n32g430_usart.c **** #include "n32g430_rcc.h"
  57:n32g430_std_periph_driver/src/n32g430_usart.c **** 
  58:n32g430_std_periph_driver/src/n32g430_usart.c **** 
  59:n32g430_std_periph_driver/src/n32g430_usart.c **** /**
  60:n32g430_std_periph_driver/src/n32g430_usart.c **** *\*\name    USART_Reset
  61:n32g430_std_periph_driver/src/n32g430_usart.c **** *\*\fun     Reset the USARTx registers.
  62:n32g430_std_periph_driver/src/n32g430_usart.c **** *\*\param   USARTx :
  63:n32g430_std_periph_driver/src/n32g430_usart.c **** *\*\          - USART1
  64:n32g430_std_periph_driver/src/n32g430_usart.c **** *\*\          - USART2
  65:n32g430_std_periph_driver/src/n32g430_usart.c **** *\*\          - UART3
  66:n32g430_std_periph_driver/src/n32g430_usart.c **** *\*\          - UART4
  67:n32g430_std_periph_driver/src/n32g430_usart.c **** *\*\return  none
  68:n32g430_std_periph_driver/src/n32g430_usart.c **** **/
  69:n32g430_std_periph_driver/src/n32g430_usart.c **** 
  70:n32g430_std_periph_driver/src/n32g430_usart.c **** void USART_Reset(USART_Module* USARTx)
  71:n32g430_std_periph_driver/src/n32g430_usart.c **** {
  28              		.loc 1 71 1 view -0
  29              		.cfi_startproc
  30              		@ args = 0, pretend = 0, frame = 0
  31              		@ frame_needed = 0, uses_anonymous_args = 0
  32              		.loc 1 71 1 is_stmt 0 view .LVU1
  33 0000 08B5     		push	{r3, lr}
  34              	.LCFI0:
  35              		.cfi_def_cfa_offset 8
  36              		.cfi_offset 3, -8
  37              		.cfi_offset 14, -4
  72:n32g430_std_periph_driver/src/n32g430_usart.c **** 
  73:n32g430_std_periph_driver/src/n32g430_usart.c ****     if (USARTx == USART1)
  38              		.loc 1 73 5 is_stmt 1 view .LVU2
  39              		.loc 1 73 8 is_stmt 0 view .LVU3
  40 0002 104B     		ldr	r3, .L11
  41 0004 9842     		cmp	r0, r3
  42 0006 09D0     		beq	.L7
ARM GAS  C:\Users\Dawn\AppData\Local\Temp\ccSkpskc.s 			page 3


  74:n32g430_std_periph_driver/src/n32g430_usart.c ****     {
  75:n32g430_std_periph_driver/src/n32g430_usart.c ****         /* USART1 Reset */
  76:n32g430_std_periph_driver/src/n32g430_usart.c ****         RCC_APB2_Peripheral_Reset(RCC_APB2_PERIPH_USART1);
  77:n32g430_std_periph_driver/src/n32g430_usart.c ****     }
  78:n32g430_std_periph_driver/src/n32g430_usart.c ****     else if (USARTx == USART2)
  43              		.loc 1 78 10 is_stmt 1 view .LVU4
  44              		.loc 1 78 13 is_stmt 0 view .LVU5
  45 0008 0F4B     		ldr	r3, .L11+4
  46 000a 9842     		cmp	r0, r3
  47 000c 0BD0     		beq	.L8
  79:n32g430_std_periph_driver/src/n32g430_usart.c ****     {
  80:n32g430_std_periph_driver/src/n32g430_usart.c ****         /* USART2 Reset */
  81:n32g430_std_periph_driver/src/n32g430_usart.c ****         RCC_APB1_Peripheral_Reset(RCC_APB1_PERIPH_USART2);
  82:n32g430_std_periph_driver/src/n32g430_usart.c ****     }
  83:n32g430_std_periph_driver/src/n32g430_usart.c ****     else if (USARTx == UART3)
  48              		.loc 1 83 10 is_stmt 1 view .LVU6
  49              		.loc 1 83 13 is_stmt 0 view .LVU7
  50 000e 0F4B     		ldr	r3, .L11+8
  51 0010 9842     		cmp	r0, r3
  52 0012 0DD0     		beq	.L9
  84:n32g430_std_periph_driver/src/n32g430_usart.c ****     {
  85:n32g430_std_periph_driver/src/n32g430_usart.c ****         /* USART3 Reset */
  86:n32g430_std_periph_driver/src/n32g430_usart.c ****         RCC_APB2_Peripheral_Reset(RCC_APB2_PERIPH_UART3);
  87:n32g430_std_periph_driver/src/n32g430_usart.c ****     }
  88:n32g430_std_periph_driver/src/n32g430_usart.c ****     else if (USARTx == UART4)
  53              		.loc 1 88 10 is_stmt 1 view .LVU8
  54              		.loc 1 88 13 is_stmt 0 view .LVU9
  55 0014 0E4B     		ldr	r3, .L11+12
  56 0016 9842     		cmp	r0, r3
  57 0018 0FD0     		beq	.L10
  58              	.LVL1:
  59              	.L1:
  89:n32g430_std_periph_driver/src/n32g430_usart.c ****     {
  90:n32g430_std_periph_driver/src/n32g430_usart.c ****         /* UART4 Reset */
  91:n32g430_std_periph_driver/src/n32g430_usart.c ****         RCC_APB2_Peripheral_Reset(RCC_APB2_PERIPH_UART4);
  92:n32g430_std_periph_driver/src/n32g430_usart.c ****     }
  93:n32g430_std_periph_driver/src/n32g430_usart.c **** }
  60              		.loc 1 93 1 view .LVU10
  61 001a 08BD     		pop	{r3, pc}
  62              	.LVL2:
  63              	.L7:
  76:n32g430_std_periph_driver/src/n32g430_usart.c ****     }
  64              		.loc 1 76 9 is_stmt 1 view .LVU11
  65 001c 4FF48040 		mov	r0, #16384
  66              	.LVL3:
  76:n32g430_std_periph_driver/src/n32g430_usart.c ****     }
  67              		.loc 1 76 9 is_stmt 0 view .LVU12
  68 0020 FFF7FEFF 		bl	RCC_APB2_Peripheral_Reset
  69              	.LVL4:
  70 0024 F9E7     		b	.L1
  71              	.LVL5:
  72              	.L8:
  81:n32g430_std_periph_driver/src/n32g430_usart.c ****     }
  73              		.loc 1 81 9 is_stmt 1 view .LVU13
  74 0026 4FF40030 		mov	r0, #131072
  75              	.LVL6:
  81:n32g430_std_periph_driver/src/n32g430_usart.c ****     }
ARM GAS  C:\Users\Dawn\AppData\Local\Temp\ccSkpskc.s 			page 4


  76              		.loc 1 81 9 is_stmt 0 view .LVU14
  77 002a FFF7FEFF 		bl	RCC_APB1_Peripheral_Reset
  78              	.LVL7:
  79 002e F4E7     		b	.L1
  80              	.LVL8:
  81              	.L9:
  86:n32g430_std_periph_driver/src/n32g430_usart.c ****     }
  82              		.loc 1 86 9 is_stmt 1 view .LVU15
  83 0030 4FF40030 		mov	r0, #131072
  84              	.LVL9:
  86:n32g430_std_periph_driver/src/n32g430_usart.c ****     }
  85              		.loc 1 86 9 is_stmt 0 view .LVU16
  86 0034 FFF7FEFF 		bl	RCC_APB2_Peripheral_Reset
  87              	.LVL10:
  88 0038 EFE7     		b	.L1
  89              	.LVL11:
  90              	.L10:
  91:n32g430_std_periph_driver/src/n32g430_usart.c ****     }
  91              		.loc 1 91 9 is_stmt 1 view .LVU17
  92 003a 4FF48020 		mov	r0, #262144
  93              	.LVL12:
  91:n32g430_std_periph_driver/src/n32g430_usart.c ****     }
  94              		.loc 1 91 9 is_stmt 0 view .LVU18
  95 003e FFF7FEFF 		bl	RCC_APB2_Peripheral_Reset
  96              	.LVL13:
  97              		.loc 1 93 1 view .LVU19
  98 0042 EAE7     		b	.L1
  99              	.L12:
 100              		.align	2
 101              	.L11:
 102 0044 00380140 		.word	1073821696
 103 0048 00440040 		.word	1073759232
 104 004c 00500140 		.word	1073827840
 105 0050 00540140 		.word	1073828864
 106              		.cfi_endproc
 107              	.LFE123:
 109              		.section	.text.USART_Baud_Rate_Config,"ax",%progbits
 110              		.align	1
 111              		.global	USART_Baud_Rate_Config
 112              		.syntax unified
 113              		.thumb
 114              		.thumb_func
 116              	USART_Baud_Rate_Config:
 117              	.LVL14:
 118              	.LFB125:
  94:n32g430_std_periph_driver/src/n32g430_usart.c **** 
  95:n32g430_std_periph_driver/src/n32g430_usart.c **** /**
  96:n32g430_std_periph_driver/src/n32g430_usart.c **** *\*\name    USART_Initializes
  97:n32g430_std_periph_driver/src/n32g430_usart.c **** *\*\fun     Initializes the USARTx peripheral according to USART_InitStruct .
  98:n32g430_std_periph_driver/src/n32g430_usart.c **** *\*\param   USARTx :
  99:n32g430_std_periph_driver/src/n32g430_usart.c **** *\*\          - USART1
 100:n32g430_std_periph_driver/src/n32g430_usart.c **** *\*\          - USART2
 101:n32g430_std_periph_driver/src/n32g430_usart.c **** *\*\          - UART3
 102:n32g430_std_periph_driver/src/n32g430_usart.c **** *\*\          - UART4
 103:n32g430_std_periph_driver/src/n32g430_usart.c **** *\*\param   USART_InitStruct :
 104:n32g430_std_periph_driver/src/n32g430_usart.c **** *\*\          - buad_rate :
 105:n32g430_std_periph_driver/src/n32g430_usart.c **** *\*\            - (((buad_rate) > 0) && ((buad_rate) < 0x00337F99))
ARM GAS  C:\Users\Dawn\AppData\Local\Temp\ccSkpskc.s 			page 5


 106:n32g430_std_periph_driver/src/n32g430_usart.c **** *\*\          - WordLength
 107:n32g430_std_periph_driver/src/n32g430_usart.c **** *\*\            - USART_WL_8B
 108:n32g430_std_periph_driver/src/n32g430_usart.c **** *\*\            - USART_WL_9B
 109:n32g430_std_periph_driver/src/n32g430_usart.c **** *\*\          - StopBits
 110:n32g430_std_periph_driver/src/n32g430_usart.c **** *\*\            - USART_STPB_1
 111:n32g430_std_periph_driver/src/n32g430_usart.c **** *\*\            - USART_STPB_0_5
 112:n32g430_std_periph_driver/src/n32g430_usart.c **** *\*\            - USART_STPB_2
 113:n32g430_std_periph_driver/src/n32g430_usart.c **** *\*\            - USART_STPB_1_5
 114:n32g430_std_periph_driver/src/n32g430_usart.c **** *\*\          - Parity
 115:n32g430_std_periph_driver/src/n32g430_usart.c **** *\*\            - USART_PE_NO
 116:n32g430_std_periph_driver/src/n32g430_usart.c **** *\*\            - USART_PE_EVEN
 117:n32g430_std_periph_driver/src/n32g430_usart.c **** *\*\            - USART_PE_ODD
 118:n32g430_std_periph_driver/src/n32g430_usart.c **** *\*\          - Mode
 119:n32g430_std_periph_driver/src/n32g430_usart.c **** *\*\            - USART_MODE_RX
 120:n32g430_std_periph_driver/src/n32g430_usart.c **** *\*\            - USART_MODE_TX
 121:n32g430_std_periph_driver/src/n32g430_usart.c **** *\*\          - HardwareFlowControl
 122:n32g430_std_periph_driver/src/n32g430_usart.c **** *\*\            - USART_HFCTRL_NONE
 123:n32g430_std_periph_driver/src/n32g430_usart.c **** *\*\            - USART_HFCTRL_RTS
 124:n32g430_std_periph_driver/src/n32g430_usart.c **** *\*\            - USART_HFCTRL_CTS
 125:n32g430_std_periph_driver/src/n32g430_usart.c **** *\*\            - USART_HFCTRL_RTS_CTS
 126:n32g430_std_periph_driver/src/n32g430_usart.c **** *\*\return  none
 127:n32g430_std_periph_driver/src/n32g430_usart.c **** **/
 128:n32g430_std_periph_driver/src/n32g430_usart.c **** 
 129:n32g430_std_periph_driver/src/n32g430_usart.c **** void USART_Initializes(USART_Module* USARTx, USART_InitType* USART_InitStruct)
 130:n32g430_std_periph_driver/src/n32g430_usart.c **** {
 131:n32g430_std_periph_driver/src/n32g430_usart.c ****     USART_Baud_Rate_Config(USARTx,USART_InitStruct->BaudRate);
 132:n32g430_std_periph_driver/src/n32g430_usart.c ****     USART_Word_Length_Config(USARTx,USART_InitStruct->WordLength);
 133:n32g430_std_periph_driver/src/n32g430_usart.c ****     USART_Stop_Bits_Config(USARTx,USART_InitStruct->StopBits);
 134:n32g430_std_periph_driver/src/n32g430_usart.c ****     USART_Parity_Config(USARTx,USART_InitStruct->Parity);
 135:n32g430_std_periph_driver/src/n32g430_usart.c ****     USART_Mode_Config(USARTx,USART_InitStruct->Mode);  
 136:n32g430_std_periph_driver/src/n32g430_usart.c ****     USART_Hardware_Flow_Control_Config(USARTx,USART_InitStruct->HardwareFlowControl);  
 137:n32g430_std_periph_driver/src/n32g430_usart.c **** }
 138:n32g430_std_periph_driver/src/n32g430_usart.c **** 
 139:n32g430_std_periph_driver/src/n32g430_usart.c **** /**
 140:n32g430_std_periph_driver/src/n32g430_usart.c **** *\*\name    USART_Baud_Rate_Config
 141:n32g430_std_periph_driver/src/n32g430_usart.c **** *\*\fun     Configure the baud rate of the USART.
 142:n32g430_std_periph_driver/src/n32g430_usart.c **** *\*\          The baud rate is computed using the following formula:
 143:n32g430_std_periph_driver/src/n32g430_usart.c **** *\*\          - IntegerDivider = ((PCLKx) / (16 * (USART_InitStruct->BaudRate)))
 144:n32g430_std_periph_driver/src/n32g430_usart.c **** *\*\          - FractionalDivider = ((IntegerDivider - ((u32) IntegerDivider)) * 16) + 0.5 
 145:n32g430_std_periph_driver/src/n32g430_usart.c **** *\*\param   USARTx :
 146:n32g430_std_periph_driver/src/n32g430_usart.c **** *\*\          - USART1
 147:n32g430_std_periph_driver/src/n32g430_usart.c **** *\*\          - USART2
 148:n32g430_std_periph_driver/src/n32g430_usart.c **** *\*\          - UART3
 149:n32g430_std_periph_driver/src/n32g430_usart.c **** *\*\          - UART4
 150:n32g430_std_periph_driver/src/n32g430_usart.c **** *\*\param   buad_rate :
 151:n32g430_std_periph_driver/src/n32g430_usart.c **** *\*\          - (((buad_rate) > 0) && ((buad_rate) < 0x00337F99))
 152:n32g430_std_periph_driver/src/n32g430_usart.c **** *\*\return  none
 153:n32g430_std_periph_driver/src/n32g430_usart.c **** **/
 154:n32g430_std_periph_driver/src/n32g430_usart.c **** void USART_Baud_Rate_Config(USART_Module* USARTx,uint32_t buad_rate)
 155:n32g430_std_periph_driver/src/n32g430_usart.c **** {
 119              		.loc 1 155 1 is_stmt 1 view -0
 120              		.cfi_startproc
 121              		@ args = 0, pretend = 0, frame = 24
 122              		@ frame_needed = 0, uses_anonymous_args = 0
 123              		.loc 1 155 1 is_stmt 0 view .LVU21
 124 0000 30B5     		push	{r4, r5, lr}
 125              	.LCFI1:
ARM GAS  C:\Users\Dawn\AppData\Local\Temp\ccSkpskc.s 			page 6


 126              		.cfi_def_cfa_offset 12
 127              		.cfi_offset 4, -12
 128              		.cfi_offset 5, -8
 129              		.cfi_offset 14, -4
 130 0002 87B0     		sub	sp, sp, #28
 131              	.LCFI2:
 132              		.cfi_def_cfa_offset 40
 133 0004 0446     		mov	r4, r0
 134 0006 0D46     		mov	r5, r1
 156:n32g430_std_periph_driver/src/n32g430_usart.c ****     uint32_t temp_value = 0x00, apb_clock_value = 0x00;
 135              		.loc 1 156 5 is_stmt 1 view .LVU22
 136              	.LVL15:
 157:n32g430_std_periph_driver/src/n32g430_usart.c ****     uint32_t integer_divider_value    = 0x00;
 137              		.loc 1 157 5 view .LVU23
 158:n32g430_std_periph_driver/src/n32g430_usart.c ****     uint32_t fractional_divider_value = 0x00;
 138              		.loc 1 158 5 view .LVU24
 159:n32g430_std_periph_driver/src/n32g430_usart.c ****     uint32_t base_value        = 0;
 139              		.loc 1 159 5 view .LVU25
 160:n32g430_std_periph_driver/src/n32g430_usart.c ****     RCC_ClocksType RCC_ClocksStatus; 
 140              		.loc 1 160 5 view .LVU26
 161:n32g430_std_periph_driver/src/n32g430_usart.c ****     base_value = (uint32_t)USARTx;       
 141              		.loc 1 161 5 view .LVU27
 162:n32g430_std_periph_driver/src/n32g430_usart.c ****     RCC_Clocks_Frequencies_Value_Get(&RCC_ClocksStatus);
 142              		.loc 1 162 5 view .LVU28
 143 0008 6846     		mov	r0, sp
 144              	.LVL16:
 145              		.loc 1 162 5 is_stmt 0 view .LVU29
 146 000a FFF7FEFF 		bl	RCC_Clocks_Frequencies_Value_Get
 147              	.LVL17:
 163:n32g430_std_periph_driver/src/n32g430_usart.c ****     if ((base_value == USART1_BASE) || (base_value == UART3_BASE) || (base_value == UART4_BASE))
 148              		.loc 1 163 5 is_stmt 1 view .LVU30
 149              		.loc 1 163 8 is_stmt 0 view .LVU31
 150 000e 144B     		ldr	r3, .L18
 151 0010 9C42     		cmp	r4, r3
 152 0012 09D0     		beq	.L14
 153              		.loc 1 163 37 discriminator 1 view .LVU32
 154 0014 03F5C053 		add	r3, r3, #6144
 155 0018 9C42     		cmp	r4, r3
 156 001a 05D0     		beq	.L14
 157              		.loc 1 163 67 discriminator 2 view .LVU33
 158 001c 03F58063 		add	r3, r3, #1024
 159 0020 9C42     		cmp	r4, r3
 160 0022 01D0     		beq	.L14
 164:n32g430_std_periph_driver/src/n32g430_usart.c ****     {
 165:n32g430_std_periph_driver/src/n32g430_usart.c ****         apb_clock_value = RCC_ClocksStatus.Pclk2Freq;
 166:n32g430_std_periph_driver/src/n32g430_usart.c ****     }
 167:n32g430_std_periph_driver/src/n32g430_usart.c ****     else
 168:n32g430_std_periph_driver/src/n32g430_usart.c ****     {
 169:n32g430_std_periph_driver/src/n32g430_usart.c ****         apb_clock_value = RCC_ClocksStatus.Pclk1Freq;
 161              		.loc 1 169 9 is_stmt 1 view .LVU34
 162              		.loc 1 169 25 is_stmt 0 view .LVU35
 163 0024 029B     		ldr	r3, [sp, #8]
 164 0026 00E0     		b	.L16
 165              	.L14:
 165:n32g430_std_periph_driver/src/n32g430_usart.c ****     }
 166              		.loc 1 165 9 is_stmt 1 view .LVU36
 165:n32g430_std_periph_driver/src/n32g430_usart.c ****     }
ARM GAS  C:\Users\Dawn\AppData\Local\Temp\ccSkpskc.s 			page 7


 167              		.loc 1 165 25 is_stmt 0 view .LVU37
 168 0028 039B     		ldr	r3, [sp, #12]
 169              	.LVL18:
 170              	.L16:
 170:n32g430_std_periph_driver/src/n32g430_usart.c ****     }
 171:n32g430_std_periph_driver/src/n32g430_usart.c **** 
 172:n32g430_std_periph_driver/src/n32g430_usart.c ****     /* Determine the integer part */
 173:n32g430_std_periph_driver/src/n32g430_usart.c ****     integer_divider_value = ((25 * apb_clock_value) / (4 * buad_rate));
 171              		.loc 1 173 5 is_stmt 1 view .LVU38
 172              		.loc 1 173 34 is_stmt 0 view .LVU39
 173 002a 03EB8303 		add	r3, r3, r3, lsl #2
 174              	.LVL19:
 175              		.loc 1 173 34 view .LVU40
 176 002e 03EB8303 		add	r3, r3, r3, lsl #2
 177              		.loc 1 173 58 view .LVU41
 178 0032 AD00     		lsls	r5, r5, #2
 179              	.LVL20:
 180              		.loc 1 173 27 view .LVU42
 181 0034 B3FBF5F3 		udiv	r3, r3, r5
 182              	.LVL21:
 174:n32g430_std_periph_driver/src/n32g430_usart.c ****     temp_value = (integer_divider_value / 100) << USART_BUAD_INTEGER_OFFSET;
 183              		.loc 1 174 5 is_stmt 1 view .LVU43
 184              		.loc 1 174 41 is_stmt 0 view .LVU44
 185 0038 0A49     		ldr	r1, .L18+4
 186 003a A1FB0302 		umull	r0, r2, r1, r3
 187 003e 5209     		lsrs	r2, r2, #5
 188              	.LVL22:
 175:n32g430_std_periph_driver/src/n32g430_usart.c **** 
 176:n32g430_std_periph_driver/src/n32g430_usart.c ****     /* Determine the fractional part */
 177:n32g430_std_periph_driver/src/n32g430_usart.c ****     fractional_divider_value = integer_divider_value - (100 * (temp_value >> USART_BUAD_FRACTIONAL_
 189              		.loc 1 177 5 is_stmt 1 view .LVU45
 190              		.loc 1 177 30 is_stmt 0 view .LVU46
 191 0040 6420     		movs	r0, #100
 192 0042 02FB1033 		mls	r3, r2, r0, r3
 193              	.LVL23:
 178:n32g430_std_periph_driver/src/n32g430_usart.c **** 
 179:n32g430_std_periph_driver/src/n32g430_usart.c ****     /* Implement the fractional part in the register */   
 180:n32g430_std_periph_driver/src/n32g430_usart.c ****     temp_value |= ((((fractional_divider_value * 16) + 50) / 100)) & ((uint8_t)0x0F);
 194              		.loc 1 180 5 is_stmt 1 view .LVU47
 195              		.loc 1 180 48 is_stmt 0 view .LVU48
 196 0046 1B01     		lsls	r3, r3, #4
 197              	.LVL24:
 198              		.loc 1 180 54 view .LVU49
 199 0048 3233     		adds	r3, r3, #50
 200              		.loc 1 180 60 view .LVU50
 201 004a A1FB0313 		umull	r1, r3, r1, r3
 202              		.loc 1 180 68 view .LVU51
 203 004e C3F34313 		ubfx	r3, r3, #5, #4
 204              		.loc 1 180 16 view .LVU52
 205 0052 43EA0213 		orr	r3, r3, r2, lsl #4
 206              	.LVL25:
 181:n32g430_std_periph_driver/src/n32g430_usart.c **** 
 182:n32g430_std_periph_driver/src/n32g430_usart.c ****     /* Write to USART PBC */
 183:n32g430_std_periph_driver/src/n32g430_usart.c ****     USARTx->BRCF = (uint16_t)temp_value;
 207              		.loc 1 183 5 is_stmt 1 view .LVU53
 208              		.loc 1 183 20 is_stmt 0 view .LVU54
 209 0056 9BB2     		uxth	r3, r3
ARM GAS  C:\Users\Dawn\AppData\Local\Temp\ccSkpskc.s 			page 8


 210              	.LVL26:
 211              		.loc 1 183 18 view .LVU55
 212 0058 2381     		strh	r3, [r4, #8]	@ movhi
 184:n32g430_std_periph_driver/src/n32g430_usart.c **** 
 185:n32g430_std_periph_driver/src/n32g430_usart.c **** }
 213              		.loc 1 185 1 view .LVU56
 214 005a 07B0     		add	sp, sp, #28
 215              	.LCFI3:
 216              		.cfi_def_cfa_offset 12
 217              		@ sp needed
 218 005c 30BD     		pop	{r4, r5, pc}
 219              	.LVL27:
 220              	.L19:
 221              		.loc 1 185 1 view .LVU57
 222 005e 00BF     		.align	2
 223              	.L18:
 224 0060 00380140 		.word	1073821696
 225 0064 1F85EB51 		.word	1374389535
 226              		.cfi_endproc
 227              	.LFE125:
 229              		.section	.text.USART_Word_Length_Config,"ax",%progbits
 230              		.align	1
 231              		.global	USART_Word_Length_Config
 232              		.syntax unified
 233              		.thumb
 234              		.thumb_func
 236              	USART_Word_Length_Config:
 237              	.LVL28:
 238              	.LFB126:
 186:n32g430_std_periph_driver/src/n32g430_usart.c **** 
 187:n32g430_std_periph_driver/src/n32g430_usart.c **** /**
 188:n32g430_std_periph_driver/src/n32g430_usart.c **** *\*\name    USART_Word_Length_Config
 189:n32g430_std_periph_driver/src/n32g430_usart.c **** *\*\fun     Configure the word length of the USART.
 190:n32g430_std_periph_driver/src/n32g430_usart.c **** *\*\param   USARTx :
 191:n32g430_std_periph_driver/src/n32g430_usart.c **** *\*\          - USART1
 192:n32g430_std_periph_driver/src/n32g430_usart.c **** *\*\          - USART2
 193:n32g430_std_periph_driver/src/n32g430_usart.c **** *\*\          - UART3
 194:n32g430_std_periph_driver/src/n32g430_usart.c **** *\*\          - UART4
 195:n32g430_std_periph_driver/src/n32g430_usart.c **** *\*\param   word_length :
 196:n32g430_std_periph_driver/src/n32g430_usart.c **** *\*\            - USART_WL_8B
 197:n32g430_std_periph_driver/src/n32g430_usart.c **** *\*\            - USART_WL_9B
 198:n32g430_std_periph_driver/src/n32g430_usart.c **** *\*\return  none
 199:n32g430_std_periph_driver/src/n32g430_usart.c **** **/
 200:n32g430_std_periph_driver/src/n32g430_usart.c **** void USART_Word_Length_Config(USART_Module* USARTx,uint16_t word_length)
 201:n32g430_std_periph_driver/src/n32g430_usart.c **** {
 239              		.loc 1 201 1 is_stmt 1 view -0
 240              		.cfi_startproc
 241              		@ args = 0, pretend = 0, frame = 0
 242              		@ frame_needed = 0, uses_anonymous_args = 0
 243              		@ link register save eliminated.
 202:n32g430_std_periph_driver/src/n32g430_usart.c ****     uint32_t temp_value   = 0x00; 
 244              		.loc 1 202 5 view .LVU59
 203:n32g430_std_periph_driver/src/n32g430_usart.c ****     temp_value = USARTx->CTRL1;    
 245              		.loc 1 203 5 view .LVU60
 246              		.loc 1 203 24 is_stmt 0 view .LVU61
 247 0000 8389     		ldrh	r3, [r0, #12]
 248 0002 9BB2     		uxth	r3, r3
ARM GAS  C:\Users\Dawn\AppData\Local\Temp\ccSkpskc.s 			page 9


 249              	.LVL29:
 204:n32g430_std_periph_driver/src/n32g430_usart.c ****     /* Clear M bit */
 205:n32g430_std_periph_driver/src/n32g430_usart.c ****     temp_value &= USART_WL_MASK;
 250              		.loc 1 205 5 is_stmt 1 view .LVU62
 251              		.loc 1 205 16 is_stmt 0 view .LVU63
 252 0004 23F48053 		bic	r3, r3, #4096
 253              	.LVL30:
 206:n32g430_std_periph_driver/src/n32g430_usart.c ****     /* Configure the USART Word Length */
 207:n32g430_std_periph_driver/src/n32g430_usart.c ****     temp_value |= word_length;
 254              		.loc 1 207 5 is_stmt 1 view .LVU64
 208:n32g430_std_periph_driver/src/n32g430_usart.c ****     USARTx->CTRL1 = (uint16_t)temp_value;
 255              		.loc 1 208 5 view .LVU65
 256              		.loc 1 208 21 is_stmt 0 view .LVU66
 257 0008 1943     		orrs	r1, r1, r3
 258              	.LVL31:
 259              		.loc 1 208 19 view .LVU67
 260 000a 8181     		strh	r1, [r0, #12]	@ movhi
 209:n32g430_std_periph_driver/src/n32g430_usart.c **** 
 210:n32g430_std_periph_driver/src/n32g430_usart.c **** }
 261              		.loc 1 210 1 view .LVU68
 262 000c 7047     		bx	lr
 263              		.cfi_endproc
 264              	.LFE126:
 266              		.section	.text.USART_Stop_Bits_Config,"ax",%progbits
 267              		.align	1
 268              		.global	USART_Stop_Bits_Config
 269              		.syntax unified
 270              		.thumb
 271              		.thumb_func
 273              	USART_Stop_Bits_Config:
 274              	.LVL32:
 275              	.LFB127:
 211:n32g430_std_periph_driver/src/n32g430_usart.c **** 
 212:n32g430_std_periph_driver/src/n32g430_usart.c **** /**
 213:n32g430_std_periph_driver/src/n32g430_usart.c **** *\*\name    USART_Stop_Bits_Config
 214:n32g430_std_periph_driver/src/n32g430_usart.c **** *\*\fun     Configure the stop bits of the USART.
 215:n32g430_std_periph_driver/src/n32g430_usart.c **** *\*\param   USARTx :
 216:n32g430_std_periph_driver/src/n32g430_usart.c **** *\*\          - USART1
 217:n32g430_std_periph_driver/src/n32g430_usart.c **** *\*\          - USART2
 218:n32g430_std_periph_driver/src/n32g430_usart.c **** *\*\          - UART3
 219:n32g430_std_periph_driver/src/n32g430_usart.c **** *\*\          - UART4
 220:n32g430_std_periph_driver/src/n32g430_usart.c **** *\*\param   stop_bits :
 221:n32g430_std_periph_driver/src/n32g430_usart.c **** *\*\            - USART_STPB_1
 222:n32g430_std_periph_driver/src/n32g430_usart.c **** *\*\            - USART_STPB_0_5
 223:n32g430_std_periph_driver/src/n32g430_usart.c **** *\*\            - USART_STPB_2
 224:n32g430_std_periph_driver/src/n32g430_usart.c **** *\*\            - USART_STPB_1_5
 225:n32g430_std_periph_driver/src/n32g430_usart.c **** *\*\return  none
 226:n32g430_std_periph_driver/src/n32g430_usart.c **** **/
 227:n32g430_std_periph_driver/src/n32g430_usart.c **** void USART_Stop_Bits_Config(USART_Module* USARTx,uint16_t stop_bits)
 228:n32g430_std_periph_driver/src/n32g430_usart.c **** {
 276              		.loc 1 228 1 is_stmt 1 view -0
 277              		.cfi_startproc
 278              		@ args = 0, pretend = 0, frame = 0
 279              		@ frame_needed = 0, uses_anonymous_args = 0
 280              		@ link register save eliminated.
 229:n32g430_std_periph_driver/src/n32g430_usart.c ****     uint32_t temp_value   = 0x00;
 281              		.loc 1 229 5 view .LVU70
ARM GAS  C:\Users\Dawn\AppData\Local\Temp\ccSkpskc.s 			page 10


 230:n32g430_std_periph_driver/src/n32g430_usart.c ****     temp_value = USARTx->CTRL2;
 282              		.loc 1 230 5 view .LVU71
 283              		.loc 1 230 24 is_stmt 0 view .LVU72
 284 0000 038A     		ldrh	r3, [r0, #16]
 285 0002 9BB2     		uxth	r3, r3
 286              	.LVL33:
 231:n32g430_std_periph_driver/src/n32g430_usart.c ****     /* Clear STOP[13:12] bits */
 232:n32g430_std_periph_driver/src/n32g430_usart.c ****     temp_value &= CTRL2_STPB_CLR_MASK;
 287              		.loc 1 232 5 is_stmt 1 view .LVU73
 288              		.loc 1 232 16 is_stmt 0 view .LVU74
 289 0004 23F44053 		bic	r3, r3, #12288
 290              	.LVL34:
 233:n32g430_std_periph_driver/src/n32g430_usart.c ****     /* Set STOP[13:12] bits according to stop bits value */
 234:n32g430_std_periph_driver/src/n32g430_usart.c ****     temp_value |= stop_bits;
 291              		.loc 1 234 5 is_stmt 1 view .LVU75
 235:n32g430_std_periph_driver/src/n32g430_usart.c ****     USARTx->CTRL2 = (uint16_t)temp_value;    
 292              		.loc 1 235 5 view .LVU76
 293              		.loc 1 235 21 is_stmt 0 view .LVU77
 294 0008 1943     		orrs	r1, r1, r3
 295              	.LVL35:
 296              		.loc 1 235 19 view .LVU78
 297 000a 0182     		strh	r1, [r0, #16]	@ movhi
 236:n32g430_std_periph_driver/src/n32g430_usart.c **** }
 298              		.loc 1 236 1 view .LVU79
 299 000c 7047     		bx	lr
 300              		.cfi_endproc
 301              	.LFE127:
 303              		.section	.text.USART_Parity_Config,"ax",%progbits
 304              		.align	1
 305              		.global	USART_Parity_Config
 306              		.syntax unified
 307              		.thumb
 308              		.thumb_func
 310              	USART_Parity_Config:
 311              	.LVL36:
 312              	.LFB128:
 237:n32g430_std_periph_driver/src/n32g430_usart.c **** 
 238:n32g430_std_periph_driver/src/n32g430_usart.c **** /**
 239:n32g430_std_periph_driver/src/n32g430_usart.c **** *\*\name    USART_Parity_Config
 240:n32g430_std_periph_driver/src/n32g430_usart.c **** *\*\fun     Configure the parity of the USART.
 241:n32g430_std_periph_driver/src/n32g430_usart.c **** *\*\param   USARTx :
 242:n32g430_std_periph_driver/src/n32g430_usart.c **** *\*\          - USART1
 243:n32g430_std_periph_driver/src/n32g430_usart.c **** *\*\          - USART2
 244:n32g430_std_periph_driver/src/n32g430_usart.c **** *\*\          - UART3
 245:n32g430_std_periph_driver/src/n32g430_usart.c **** *\*\          - UART4
 246:n32g430_std_periph_driver/src/n32g430_usart.c **** *\*\param   parity :
 247:n32g430_std_periph_driver/src/n32g430_usart.c **** *\*\            - USART_PE_NO
 248:n32g430_std_periph_driver/src/n32g430_usart.c **** *\*\            - USART_PE_EVEN
 249:n32g430_std_periph_driver/src/n32g430_usart.c **** *\*\            - USART_PE_ODD
 250:n32g430_std_periph_driver/src/n32g430_usart.c **** *\*\return  none
 251:n32g430_std_periph_driver/src/n32g430_usart.c **** **/
 252:n32g430_std_periph_driver/src/n32g430_usart.c **** void USART_Parity_Config(USART_Module* USARTx,uint16_t parity)
 253:n32g430_std_periph_driver/src/n32g430_usart.c **** {
 313              		.loc 1 253 1 is_stmt 1 view -0
 314              		.cfi_startproc
 315              		@ args = 0, pretend = 0, frame = 0
 316              		@ frame_needed = 0, uses_anonymous_args = 0
ARM GAS  C:\Users\Dawn\AppData\Local\Temp\ccSkpskc.s 			page 11


 317              		@ link register save eliminated.
 254:n32g430_std_periph_driver/src/n32g430_usart.c ****     uint32_t temp_value   = 0x00; 
 318              		.loc 1 254 5 view .LVU81
 255:n32g430_std_periph_driver/src/n32g430_usart.c ****     temp_value = USARTx->CTRL1;    
 319              		.loc 1 255 5 view .LVU82
 320              		.loc 1 255 24 is_stmt 0 view .LVU83
 321 0000 8389     		ldrh	r3, [r0, #12]
 322 0002 9BB2     		uxth	r3, r3
 323              	.LVL37:
 256:n32g430_std_periph_driver/src/n32g430_usart.c ****     /* Clear parity[10:9] bits */
 257:n32g430_std_periph_driver/src/n32g430_usart.c ****     temp_value &= USART_PE_MASK;
 324              		.loc 1 257 5 is_stmt 1 view .LVU84
 325              		.loc 1 257 16 is_stmt 0 view .LVU85
 326 0004 23F4C063 		bic	r3, r3, #1536
 327              	.LVL38:
 258:n32g430_std_periph_driver/src/n32g430_usart.c ****     /* Configure the USART parity */
 259:n32g430_std_periph_driver/src/n32g430_usart.c ****     temp_value |= parity;
 328              		.loc 1 259 5 is_stmt 1 view .LVU86
 260:n32g430_std_periph_driver/src/n32g430_usart.c ****     USARTx->CTRL1 = (uint16_t)temp_value;   
 329              		.loc 1 260 5 view .LVU87
 330              		.loc 1 260 21 is_stmt 0 view .LVU88
 331 0008 1943     		orrs	r1, r1, r3
 332              	.LVL39:
 333              		.loc 1 260 19 view .LVU89
 334 000a 8181     		strh	r1, [r0, #12]	@ movhi
 261:n32g430_std_periph_driver/src/n32g430_usart.c **** }
 335              		.loc 1 261 1 view .LVU90
 336 000c 7047     		bx	lr
 337              		.cfi_endproc
 338              	.LFE128:
 340              		.section	.text.USART_Mode_Config,"ax",%progbits
 341              		.align	1
 342              		.global	USART_Mode_Config
 343              		.syntax unified
 344              		.thumb
 345              		.thumb_func
 347              	USART_Mode_Config:
 348              	.LVL40:
 349              	.LFB129:
 262:n32g430_std_periph_driver/src/n32g430_usart.c **** 
 263:n32g430_std_periph_driver/src/n32g430_usart.c **** /**
 264:n32g430_std_periph_driver/src/n32g430_usart.c **** *\*\name    USART_Mode_Config
 265:n32g430_std_periph_driver/src/n32g430_usart.c **** *\*\fun     Configure the mode of the USART.
 266:n32g430_std_periph_driver/src/n32g430_usart.c **** *\*\param   USARTx :
 267:n32g430_std_periph_driver/src/n32g430_usart.c **** *\*\          - USART1
 268:n32g430_std_periph_driver/src/n32g430_usart.c **** *\*\          - USART2
 269:n32g430_std_periph_driver/src/n32g430_usart.c **** *\*\          - UART3
 270:n32g430_std_periph_driver/src/n32g430_usart.c **** *\*\          - UART4
 271:n32g430_std_periph_driver/src/n32g430_usart.c **** *\*\param   mode :
 272:n32g430_std_periph_driver/src/n32g430_usart.c **** *\*\            - USART_MODE_RX
 273:n32g430_std_periph_driver/src/n32g430_usart.c **** *\*\            - USART_MODE_TX
 274:n32g430_std_periph_driver/src/n32g430_usart.c **** *\*\return  none
 275:n32g430_std_periph_driver/src/n32g430_usart.c **** **/
 276:n32g430_std_periph_driver/src/n32g430_usart.c **** void USART_Mode_Config(USART_Module* USARTx,uint16_t mode)
 277:n32g430_std_periph_driver/src/n32g430_usart.c **** {
 350              		.loc 1 277 1 is_stmt 1 view -0
 351              		.cfi_startproc
ARM GAS  C:\Users\Dawn\AppData\Local\Temp\ccSkpskc.s 			page 12


 352              		@ args = 0, pretend = 0, frame = 0
 353              		@ frame_needed = 0, uses_anonymous_args = 0
 354              		@ link register save eliminated.
 278:n32g430_std_periph_driver/src/n32g430_usart.c ****     uint32_t temp_value   = 0x00;   
 355              		.loc 1 278 5 view .LVU92
 279:n32g430_std_periph_driver/src/n32g430_usart.c ****     temp_value = USARTx->CTRL1;    
 356              		.loc 1 279 5 view .LVU93
 357              		.loc 1 279 24 is_stmt 0 view .LVU94
 358 0000 8389     		ldrh	r3, [r0, #12]
 359 0002 9BB2     		uxth	r3, r3
 360              	.LVL41:
 280:n32g430_std_periph_driver/src/n32g430_usart.c ****     /* Clear mode[3:2] bits */
 281:n32g430_std_periph_driver/src/n32g430_usart.c ****     temp_value &= USART_MODE_MASK;
 361              		.loc 1 281 5 is_stmt 1 view .LVU95
 362              		.loc 1 281 16 is_stmt 0 view .LVU96
 363 0004 23F00C03 		bic	r3, r3, #12
 364              	.LVL42:
 282:n32g430_std_periph_driver/src/n32g430_usart.c ****     /* Configure the USART parity */
 283:n32g430_std_periph_driver/src/n32g430_usart.c ****     temp_value |= mode;
 365              		.loc 1 283 5 is_stmt 1 view .LVU97
 284:n32g430_std_periph_driver/src/n32g430_usart.c ****     USARTx->CTRL1 = (uint16_t)temp_value; 
 366              		.loc 1 284 5 view .LVU98
 367              		.loc 1 284 21 is_stmt 0 view .LVU99
 368 0008 1943     		orrs	r1, r1, r3
 369              	.LVL43:
 370              		.loc 1 284 19 view .LVU100
 371 000a 8181     		strh	r1, [r0, #12]	@ movhi
 285:n32g430_std_periph_driver/src/n32g430_usart.c **** }
 372              		.loc 1 285 1 view .LVU101
 373 000c 7047     		bx	lr
 374              		.cfi_endproc
 375              	.LFE129:
 377              		.section	.text.USART_Hardware_Flow_Control_Config,"ax",%progbits
 378              		.align	1
 379              		.global	USART_Hardware_Flow_Control_Config
 380              		.syntax unified
 381              		.thumb
 382              		.thumb_func
 384              	USART_Hardware_Flow_Control_Config:
 385              	.LVL44:
 386              	.LFB130:
 286:n32g430_std_periph_driver/src/n32g430_usart.c **** 
 287:n32g430_std_periph_driver/src/n32g430_usart.c **** /**
 288:n32g430_std_periph_driver/src/n32g430_usart.c **** *\*\name    USART_Hardware_Flow_Control_Config
 289:n32g430_std_periph_driver/src/n32g430_usart.c **** *\*\fun     Configure the hardware flow control of the USART.
 290:n32g430_std_periph_driver/src/n32g430_usart.c **** *\*\param   USARTx :
 291:n32g430_std_periph_driver/src/n32g430_usart.c **** *\*\          - USART1
 292:n32g430_std_periph_driver/src/n32g430_usart.c **** *\*\          - USART2
 293:n32g430_std_periph_driver/src/n32g430_usart.c **** *\*\          - UART3
 294:n32g430_std_periph_driver/src/n32g430_usart.c **** *\*\          - UART4
 295:n32g430_std_periph_driver/src/n32g430_usart.c **** *\*\param   hardware_flow_control :
 296:n32g430_std_periph_driver/src/n32g430_usart.c **** *\*\            - USART_HFCTRL_NONE
 297:n32g430_std_periph_driver/src/n32g430_usart.c **** *\*\            - USART_HFCTRL_RTS
 298:n32g430_std_periph_driver/src/n32g430_usart.c **** *\*\            - USART_HFCTRL_CTS
 299:n32g430_std_periph_driver/src/n32g430_usart.c **** *\*\            - USART_HFCTRL_RTS_CTS
 300:n32g430_std_periph_driver/src/n32g430_usart.c **** *\*\return  none
 301:n32g430_std_periph_driver/src/n32g430_usart.c **** **/
ARM GAS  C:\Users\Dawn\AppData\Local\Temp\ccSkpskc.s 			page 13


 302:n32g430_std_periph_driver/src/n32g430_usart.c **** void USART_Hardware_Flow_Control_Config(USART_Module* USARTx,uint16_t hardware_flow_control)
 303:n32g430_std_periph_driver/src/n32g430_usart.c **** {
 387              		.loc 1 303 1 is_stmt 1 view -0
 388              		.cfi_startproc
 389              		@ args = 0, pretend = 0, frame = 0
 390              		@ frame_needed = 0, uses_anonymous_args = 0
 391              		@ link register save eliminated.
 304:n32g430_std_periph_driver/src/n32g430_usart.c ****     uint32_t temp_value   = 0x00;  
 392              		.loc 1 304 5 view .LVU103
 305:n32g430_std_periph_driver/src/n32g430_usart.c ****     temp_value = USARTx->CTRL3;    
 393              		.loc 1 305 5 view .LVU104
 394              		.loc 1 305 24 is_stmt 0 view .LVU105
 395 0000 838A     		ldrh	r3, [r0, #20]
 396 0002 9BB2     		uxth	r3, r3
 397              	.LVL45:
 306:n32g430_std_periph_driver/src/n32g430_usart.c ****     /* Clear hardware_flow_control[9:8] bits */
 307:n32g430_std_periph_driver/src/n32g430_usart.c ****     temp_value &= USART_HFCTRL_MASK;
 398              		.loc 1 307 5 is_stmt 1 view .LVU106
 399              		.loc 1 307 16 is_stmt 0 view .LVU107
 400 0004 23F44073 		bic	r3, r3, #768
 401              	.LVL46:
 308:n32g430_std_periph_driver/src/n32g430_usart.c ****     /* Configure the USART hardware_flow_control */
 309:n32g430_std_periph_driver/src/n32g430_usart.c ****     temp_value |= hardware_flow_control;
 402              		.loc 1 309 5 is_stmt 1 view .LVU108
 310:n32g430_std_periph_driver/src/n32g430_usart.c ****     USARTx->CTRL3 = (uint16_t)temp_value; 
 403              		.loc 1 310 5 view .LVU109
 404              		.loc 1 310 21 is_stmt 0 view .LVU110
 405 0008 1943     		orrs	r1, r1, r3
 406              	.LVL47:
 407              		.loc 1 310 19 view .LVU111
 408 000a 8182     		strh	r1, [r0, #20]	@ movhi
 311:n32g430_std_periph_driver/src/n32g430_usart.c **** }
 409              		.loc 1 311 1 view .LVU112
 410 000c 7047     		bx	lr
 411              		.cfi_endproc
 412              	.LFE130:
 414              		.section	.text.USART_Initializes,"ax",%progbits
 415              		.align	1
 416              		.global	USART_Initializes
 417              		.syntax unified
 418              		.thumb
 419              		.thumb_func
 421              	USART_Initializes:
 422              	.LVL48:
 423              	.LFB124:
 130:n32g430_std_periph_driver/src/n32g430_usart.c ****     USART_Baud_Rate_Config(USARTx,USART_InitStruct->BaudRate);
 424              		.loc 1 130 1 is_stmt 1 view -0
 425              		.cfi_startproc
 426              		@ args = 0, pretend = 0, frame = 0
 427              		@ frame_needed = 0, uses_anonymous_args = 0
 130:n32g430_std_periph_driver/src/n32g430_usart.c ****     USART_Baud_Rate_Config(USARTx,USART_InitStruct->BaudRate);
 428              		.loc 1 130 1 is_stmt 0 view .LVU114
 429 0000 38B5     		push	{r3, r4, r5, lr}
 430              	.LCFI4:
 431              		.cfi_def_cfa_offset 16
 432              		.cfi_offset 3, -16
 433              		.cfi_offset 4, -12
ARM GAS  C:\Users\Dawn\AppData\Local\Temp\ccSkpskc.s 			page 14


 434              		.cfi_offset 5, -8
 435              		.cfi_offset 14, -4
 436 0002 0546     		mov	r5, r0
 437 0004 0C46     		mov	r4, r1
 131:n32g430_std_periph_driver/src/n32g430_usart.c ****     USART_Word_Length_Config(USARTx,USART_InitStruct->WordLength);
 438              		.loc 1 131 5 is_stmt 1 view .LVU115
 439 0006 0968     		ldr	r1, [r1]
 440              	.LVL49:
 131:n32g430_std_periph_driver/src/n32g430_usart.c ****     USART_Word_Length_Config(USARTx,USART_InitStruct->WordLength);
 441              		.loc 1 131 5 is_stmt 0 view .LVU116
 442 0008 FFF7FEFF 		bl	USART_Baud_Rate_Config
 443              	.LVL50:
 132:n32g430_std_periph_driver/src/n32g430_usart.c ****     USART_Stop_Bits_Config(USARTx,USART_InitStruct->StopBits);
 444              		.loc 1 132 5 is_stmt 1 view .LVU117
 445 000c A188     		ldrh	r1, [r4, #4]
 446 000e 2846     		mov	r0, r5
 447 0010 FFF7FEFF 		bl	USART_Word_Length_Config
 448              	.LVL51:
 133:n32g430_std_periph_driver/src/n32g430_usart.c ****     USART_Parity_Config(USARTx,USART_InitStruct->Parity);
 449              		.loc 1 133 5 view .LVU118
 450 0014 E188     		ldrh	r1, [r4, #6]
 451 0016 2846     		mov	r0, r5
 452 0018 FFF7FEFF 		bl	USART_Stop_Bits_Config
 453              	.LVL52:
 134:n32g430_std_periph_driver/src/n32g430_usart.c ****     USART_Mode_Config(USARTx,USART_InitStruct->Mode);  
 454              		.loc 1 134 5 view .LVU119
 455 001c 2189     		ldrh	r1, [r4, #8]
 456 001e 2846     		mov	r0, r5
 457 0020 FFF7FEFF 		bl	USART_Parity_Config
 458              	.LVL53:
 135:n32g430_std_periph_driver/src/n32g430_usart.c ****     USART_Hardware_Flow_Control_Config(USARTx,USART_InitStruct->HardwareFlowControl);  
 459              		.loc 1 135 5 view .LVU120
 460 0024 6189     		ldrh	r1, [r4, #10]
 461 0026 2846     		mov	r0, r5
 462 0028 FFF7FEFF 		bl	USART_Mode_Config
 463              	.LVL54:
 136:n32g430_std_periph_driver/src/n32g430_usart.c **** }
 464              		.loc 1 136 5 view .LVU121
 465 002c A189     		ldrh	r1, [r4, #12]
 466 002e 2846     		mov	r0, r5
 467 0030 FFF7FEFF 		bl	USART_Hardware_Flow_Control_Config
 468              	.LVL55:
 137:n32g430_std_periph_driver/src/n32g430_usart.c **** 
 469              		.loc 1 137 1 is_stmt 0 view .LVU122
 470 0034 38BD     		pop	{r3, r4, r5, pc}
 137:n32g430_std_periph_driver/src/n32g430_usart.c **** 
 471              		.loc 1 137 1 view .LVU123
 472              		.cfi_endproc
 473              	.LFE124:
 475              		.section	.text.USART_Structure_Initializes,"ax",%progbits
 476              		.align	1
 477              		.global	USART_Structure_Initializes
 478              		.syntax unified
 479              		.thumb
 480              		.thumb_func
 482              	USART_Structure_Initializes:
 483              	.LVL56:
ARM GAS  C:\Users\Dawn\AppData\Local\Temp\ccSkpskc.s 			page 15


 484              	.LFB131:
 312:n32g430_std_periph_driver/src/n32g430_usart.c **** 
 313:n32g430_std_periph_driver/src/n32g430_usart.c **** /**
 314:n32g430_std_periph_driver/src/n32g430_usart.c **** *\*\name    USART_Structure_Initializes.
 315:n32g430_std_periph_driver/src/n32g430_usart.c **** *\*\fun     Fills each USART_InitStruct member with its default value.
 316:n32g430_std_periph_driver/src/n32g430_usart.c **** *\*\param   USART_InitStruct :
 317:n32g430_std_periph_driver/src/n32g430_usart.c **** *\*\          - BaudRate
 318:n32g430_std_periph_driver/src/n32g430_usart.c **** *\*\          - WordLength
 319:n32g430_std_periph_driver/src/n32g430_usart.c **** *\*\          - StopBits
 320:n32g430_std_periph_driver/src/n32g430_usart.c **** *\*\          - Parity
 321:n32g430_std_periph_driver/src/n32g430_usart.c **** *\*\          - Mode
 322:n32g430_std_periph_driver/src/n32g430_usart.c **** *\*\          - HardwareFlowControl
 323:n32g430_std_periph_driver/src/n32g430_usart.c **** *\*\return  none
 324:n32g430_std_periph_driver/src/n32g430_usart.c **** **/
 325:n32g430_std_periph_driver/src/n32g430_usart.c **** 
 326:n32g430_std_periph_driver/src/n32g430_usart.c **** void USART_Structure_Initializes(USART_InitType* USART_InitStruct)  
 327:n32g430_std_periph_driver/src/n32g430_usart.c **** {
 485              		.loc 1 327 1 is_stmt 1 view -0
 486              		.cfi_startproc
 487              		@ args = 0, pretend = 0, frame = 0
 488              		@ frame_needed = 0, uses_anonymous_args = 0
 489              		@ link register save eliminated.
 328:n32g430_std_periph_driver/src/n32g430_usart.c ****     /* USART_InitStruct members default value */
 329:n32g430_std_periph_driver/src/n32g430_usart.c ****     USART_InitStruct->BaudRate            = 9600;
 490              		.loc 1 329 5 view .LVU125
 491              		.loc 1 329 43 is_stmt 0 view .LVU126
 492 0000 4FF41653 		mov	r3, #9600
 493 0004 0360     		str	r3, [r0]
 330:n32g430_std_periph_driver/src/n32g430_usart.c ****     USART_InitStruct->WordLength          = USART_WL_8B;
 494              		.loc 1 330 5 is_stmt 1 view .LVU127
 495              		.loc 1 330 43 is_stmt 0 view .LVU128
 496 0006 0023     		movs	r3, #0
 497 0008 8380     		strh	r3, [r0, #4]	@ movhi
 331:n32g430_std_periph_driver/src/n32g430_usart.c ****     USART_InitStruct->StopBits            = USART_STPB_1;
 498              		.loc 1 331 5 is_stmt 1 view .LVU129
 499              		.loc 1 331 43 is_stmt 0 view .LVU130
 500 000a C380     		strh	r3, [r0, #6]	@ movhi
 332:n32g430_std_periph_driver/src/n32g430_usart.c ****     USART_InitStruct->Parity              = USART_PE_NO;
 501              		.loc 1 332 5 is_stmt 1 view .LVU131
 502              		.loc 1 332 43 is_stmt 0 view .LVU132
 503 000c 0381     		strh	r3, [r0, #8]	@ movhi
 333:n32g430_std_periph_driver/src/n32g430_usart.c ****     USART_InitStruct->Mode                = USART_MODE_RX | USART_MODE_TX;
 504              		.loc 1 333 5 is_stmt 1 view .LVU133
 505              		.loc 1 333 43 is_stmt 0 view .LVU134
 506 000e 0C22     		movs	r2, #12
 507 0010 4281     		strh	r2, [r0, #10]	@ movhi
 334:n32g430_std_periph_driver/src/n32g430_usart.c ****     USART_InitStruct->HardwareFlowControl = USART_HFCTRL_NONE;
 508              		.loc 1 334 5 is_stmt 1 view .LVU135
 509              		.loc 1 334 43 is_stmt 0 view .LVU136
 510 0012 8381     		strh	r3, [r0, #12]	@ movhi
 335:n32g430_std_periph_driver/src/n32g430_usart.c **** }
 511              		.loc 1 335 1 view .LVU137
 512 0014 7047     		bx	lr
 513              		.cfi_endproc
 514              	.LFE131:
 516              		.section	.text.USART_Clock_Config,"ax",%progbits
 517              		.align	1
ARM GAS  C:\Users\Dawn\AppData\Local\Temp\ccSkpskc.s 			page 16


 518              		.global	USART_Clock_Config
 519              		.syntax unified
 520              		.thumb
 521              		.thumb_func
 523              	USART_Clock_Config:
 524              	.LVL57:
 525              	.LFB133:
 336:n32g430_std_periph_driver/src/n32g430_usart.c **** 
 337:n32g430_std_periph_driver/src/n32g430_usart.c **** /**
 338:n32g430_std_periph_driver/src/n32g430_usart.c **** *\*\name    USART_Clock_Initializes
 339:n32g430_std_periph_driver/src/n32g430_usart.c **** *\*\fun     Initializes the USARTx peripheral Clock according to the 
 340:n32g430_std_periph_driver/src/n32g430_usart.c ****             specified parameters in the USART_ClockInitStruct .
 341:n32g430_std_periph_driver/src/n32g430_usart.c **** *\*\param   USARTx :
 342:n32g430_std_periph_driver/src/n32g430_usart.c **** *\*\          - USART1
 343:n32g430_std_periph_driver/src/n32g430_usart.c **** *\*\          - USART2
 344:n32g430_std_periph_driver/src/n32g430_usart.c **** *\*\param   USART_ClockInitStruct :
 345:n32g430_std_periph_driver/src/n32g430_usart.c **** *\*\          - Clock :
 346:n32g430_std_periph_driver/src/n32g430_usart.c **** *\*\            - USART_CLK_DISABLE
 347:n32g430_std_periph_driver/src/n32g430_usart.c **** *\*\            - USART_CLK_ENABLE
 348:n32g430_std_periph_driver/src/n32g430_usart.c **** *\*\          - Polarity
 349:n32g430_std_periph_driver/src/n32g430_usart.c **** *\*\            - USART_CLKPOL_LOW
 350:n32g430_std_periph_driver/src/n32g430_usart.c **** *\*\            - USART_CLKPOL_HIGH
 351:n32g430_std_periph_driver/src/n32g430_usart.c **** *\*\          - Phase
 352:n32g430_std_periph_driver/src/n32g430_usart.c **** *\*\            - USART_CLKPHA_1EDGE
 353:n32g430_std_periph_driver/src/n32g430_usart.c **** *\*\            - USART_CLKPHA_2EDGE
 354:n32g430_std_periph_driver/src/n32g430_usart.c **** *\*\          - LastBit
 355:n32g430_std_periph_driver/src/n32g430_usart.c **** *\*\            - USART_CLKLB_DISABLE
 356:n32g430_std_periph_driver/src/n32g430_usart.c **** *\*\            - USART_CLKLB_ENABLE
 357:n32g430_std_periph_driver/src/n32g430_usart.c **** *\*\return  none
 358:n32g430_std_periph_driver/src/n32g430_usart.c **** **/
 359:n32g430_std_periph_driver/src/n32g430_usart.c **** 
 360:n32g430_std_periph_driver/src/n32g430_usart.c **** void USART_Clock_Initializes(USART_Module* USARTx, USART_ClockInitType* USART_ClockInitStruct)
 361:n32g430_std_periph_driver/src/n32g430_usart.c **** {
 362:n32g430_std_periph_driver/src/n32g430_usart.c ****     USART_Clock_Config(USARTx,USART_ClockInitStruct->Clock);
 363:n32g430_std_periph_driver/src/n32g430_usart.c ****     USART_Polarity_Config(USARTx,USART_ClockInitStruct->Polarity);
 364:n32g430_std_periph_driver/src/n32g430_usart.c ****     USART_Phase_Config(USARTx,USART_ClockInitStruct->Phase);
 365:n32g430_std_periph_driver/src/n32g430_usart.c ****     USART_Last_Bit_Config(USARTx,USART_ClockInitStruct->LastBit);
 366:n32g430_std_periph_driver/src/n32g430_usart.c **** 
 367:n32g430_std_periph_driver/src/n32g430_usart.c **** }
 368:n32g430_std_periph_driver/src/n32g430_usart.c **** 
 369:n32g430_std_periph_driver/src/n32g430_usart.c **** /**
 370:n32g430_std_periph_driver/src/n32g430_usart.c **** *\*\name    USART_Clock_Config.
 371:n32g430_std_periph_driver/src/n32g430_usart.c **** *\*\fun     Enable or disable the USART clock
 372:n32g430_std_periph_driver/src/n32g430_usart.c **** *\*\param   USARTx :
 373:n32g430_std_periph_driver/src/n32g430_usart.c **** *\*\          - USART1
 374:n32g430_std_periph_driver/src/n32g430_usart.c **** *\*\          - USART2
 375:n32g430_std_periph_driver/src/n32g430_usart.c **** *\*\param   clock :
 376:n32g430_std_periph_driver/src/n32g430_usart.c **** *\*\          - USART_CLK_DISABLE
 377:n32g430_std_periph_driver/src/n32g430_usart.c **** *\*\          - USART_CLK_ENABLE
 378:n32g430_std_periph_driver/src/n32g430_usart.c **** *\*\return  none
 379:n32g430_std_periph_driver/src/n32g430_usart.c **** **/
 380:n32g430_std_periph_driver/src/n32g430_usart.c **** 
 381:n32g430_std_periph_driver/src/n32g430_usart.c **** void USART_Clock_Config(USART_Module* USARTx,uint16_t clock)
 382:n32g430_std_periph_driver/src/n32g430_usart.c **** {
 526              		.loc 1 382 1 is_stmt 1 view -0
 527              		.cfi_startproc
 528              		@ args = 0, pretend = 0, frame = 0
ARM GAS  C:\Users\Dawn\AppData\Local\Temp\ccSkpskc.s 			page 17


 529              		@ frame_needed = 0, uses_anonymous_args = 0
 530              		@ link register save eliminated.
 383:n32g430_std_periph_driver/src/n32g430_usart.c ****     uint32_t temp_value = 0x00;
 531              		.loc 1 383 5 view .LVU139
 384:n32g430_std_periph_driver/src/n32g430_usart.c ****     temp_value = USARTx->CTRL2; 
 532              		.loc 1 384 5 view .LVU140
 533              		.loc 1 384 24 is_stmt 0 view .LVU141
 534 0000 038A     		ldrh	r3, [r0, #16]
 535 0002 9BB2     		uxth	r3, r3
 536              	.LVL58:
 385:n32g430_std_periph_driver/src/n32g430_usart.c ****     /* Clear CLKEN bit */  
 386:n32g430_std_periph_driver/src/n32g430_usart.c ****     temp_value &= USART_CLK_MASK;   
 537              		.loc 1 386 5 is_stmt 1 view .LVU142
 538              		.loc 1 386 16 is_stmt 0 view .LVU143
 539 0004 23F40063 		bic	r3, r3, #2048
 540              	.LVL59:
 387:n32g430_std_periph_driver/src/n32g430_usart.c ****     /* Set CLKEN bit according to clock value */
 388:n32g430_std_periph_driver/src/n32g430_usart.c ****     temp_value |= clock;       
 541              		.loc 1 388 5 is_stmt 1 view .LVU144
 389:n32g430_std_periph_driver/src/n32g430_usart.c ****     USARTx->CTRL2 = (uint16_t)temp_value; 
 542              		.loc 1 389 5 view .LVU145
 543              		.loc 1 389 21 is_stmt 0 view .LVU146
 544 0008 1943     		orrs	r1, r1, r3
 545              	.LVL60:
 546              		.loc 1 389 19 view .LVU147
 547 000a 0182     		strh	r1, [r0, #16]	@ movhi
 390:n32g430_std_periph_driver/src/n32g430_usart.c **** }
 548              		.loc 1 390 1 view .LVU148
 549 000c 7047     		bx	lr
 550              		.cfi_endproc
 551              	.LFE133:
 553              		.section	.text.USART_Polarity_Config,"ax",%progbits
 554              		.align	1
 555              		.global	USART_Polarity_Config
 556              		.syntax unified
 557              		.thumb
 558              		.thumb_func
 560              	USART_Polarity_Config:
 561              	.LVL61:
 562              	.LFB134:
 391:n32g430_std_periph_driver/src/n32g430_usart.c **** 
 392:n32g430_std_periph_driver/src/n32g430_usart.c **** /**
 393:n32g430_std_periph_driver/src/n32g430_usart.c **** *\*\name    USART_Polarity_Config.
 394:n32g430_std_periph_driver/src/n32g430_usart.c **** *\*\fun     Configure USART clock polarity.
 395:n32g430_std_periph_driver/src/n32g430_usart.c **** *\*\param   USARTx :
 396:n32g430_std_periph_driver/src/n32g430_usart.c **** *\*\          - USART1
 397:n32g430_std_periph_driver/src/n32g430_usart.c **** *\*\          - USART2
 398:n32g430_std_periph_driver/src/n32g430_usart.c **** *\*\param   polarity :
 399:n32g430_std_periph_driver/src/n32g430_usart.c **** *\*\          - USART_CLKPOL_LOW
 400:n32g430_std_periph_driver/src/n32g430_usart.c **** *\*\          - USART_CLKPOL_HIGH
 401:n32g430_std_periph_driver/src/n32g430_usart.c **** *\*\return  none
 402:n32g430_std_periph_driver/src/n32g430_usart.c **** **/
 403:n32g430_std_periph_driver/src/n32g430_usart.c **** 
 404:n32g430_std_periph_driver/src/n32g430_usart.c **** void USART_Polarity_Config(USART_Module* USARTx,uint16_t polarity)
 405:n32g430_std_periph_driver/src/n32g430_usart.c **** {
 563              		.loc 1 405 1 is_stmt 1 view -0
 564              		.cfi_startproc
ARM GAS  C:\Users\Dawn\AppData\Local\Temp\ccSkpskc.s 			page 18


 565              		@ args = 0, pretend = 0, frame = 0
 566              		@ frame_needed = 0, uses_anonymous_args = 0
 567              		@ link register save eliminated.
 406:n32g430_std_periph_driver/src/n32g430_usart.c ****     uint32_t temp_value = 0x00;
 568              		.loc 1 406 5 view .LVU150
 407:n32g430_std_periph_driver/src/n32g430_usart.c ****     temp_value = USARTx->CTRL2; 
 569              		.loc 1 407 5 view .LVU151
 570              		.loc 1 407 24 is_stmt 0 view .LVU152
 571 0000 038A     		ldrh	r3, [r0, #16]
 572 0002 9BB2     		uxth	r3, r3
 573              	.LVL62:
 408:n32g430_std_periph_driver/src/n32g430_usart.c ****     /* Clear CLKPOL bit */  
 409:n32g430_std_periph_driver/src/n32g430_usart.c ****     temp_value &= USART_CLKPOL_MASK;   
 574              		.loc 1 409 5 is_stmt 1 view .LVU153
 575              		.loc 1 409 16 is_stmt 0 view .LVU154
 576 0004 23F48063 		bic	r3, r3, #1024
 577              	.LVL63:
 410:n32g430_std_periph_driver/src/n32g430_usart.c ****     /* Set CLKPOL bit according to clock value */
 411:n32g430_std_periph_driver/src/n32g430_usart.c ****     temp_value |= polarity;       
 578              		.loc 1 411 5 is_stmt 1 view .LVU155
 412:n32g430_std_periph_driver/src/n32g430_usart.c ****     USARTx->CTRL2 = (uint16_t)temp_value; 
 579              		.loc 1 412 5 view .LVU156
 580              		.loc 1 412 21 is_stmt 0 view .LVU157
 581 0008 1943     		orrs	r1, r1, r3
 582              	.LVL64:
 583              		.loc 1 412 19 view .LVU158
 584 000a 0182     		strh	r1, [r0, #16]	@ movhi
 413:n32g430_std_periph_driver/src/n32g430_usart.c **** }
 585              		.loc 1 413 1 view .LVU159
 586 000c 7047     		bx	lr
 587              		.cfi_endproc
 588              	.LFE134:
 590              		.section	.text.USART_Phase_Config,"ax",%progbits
 591              		.align	1
 592              		.global	USART_Phase_Config
 593              		.syntax unified
 594              		.thumb
 595              		.thumb_func
 597              	USART_Phase_Config:
 598              	.LVL65:
 599              	.LFB135:
 414:n32g430_std_periph_driver/src/n32g430_usart.c **** 
 415:n32g430_std_periph_driver/src/n32g430_usart.c **** /**
 416:n32g430_std_periph_driver/src/n32g430_usart.c **** *\*\name    USART_Phase_Config.
 417:n32g430_std_periph_driver/src/n32g430_usart.c **** *\*\fun     Configure USART clock phase.
 418:n32g430_std_periph_driver/src/n32g430_usart.c **** *\*\param   USARTx :
 419:n32g430_std_periph_driver/src/n32g430_usart.c **** *\*\          - USART1
 420:n32g430_std_periph_driver/src/n32g430_usart.c **** *\*\          - USART2
 421:n32g430_std_periph_driver/src/n32g430_usart.c **** *\*\param   phase :
 422:n32g430_std_periph_driver/src/n32g430_usart.c **** *\*\          - USART_CLKPHA_1EDGE
 423:n32g430_std_periph_driver/src/n32g430_usart.c **** *\*\          - USART_CLKPHA_2EDGE
 424:n32g430_std_periph_driver/src/n32g430_usart.c **** *\*\return  none
 425:n32g430_std_periph_driver/src/n32g430_usart.c **** **/
 426:n32g430_std_periph_driver/src/n32g430_usart.c **** 
 427:n32g430_std_periph_driver/src/n32g430_usart.c **** void USART_Phase_Config(USART_Module* USARTx,uint16_t phase)
 428:n32g430_std_periph_driver/src/n32g430_usart.c **** {
 600              		.loc 1 428 1 is_stmt 1 view -0
ARM GAS  C:\Users\Dawn\AppData\Local\Temp\ccSkpskc.s 			page 19


 601              		.cfi_startproc
 602              		@ args = 0, pretend = 0, frame = 0
 603              		@ frame_needed = 0, uses_anonymous_args = 0
 604              		@ link register save eliminated.
 429:n32g430_std_periph_driver/src/n32g430_usart.c ****     uint32_t temp_value = 0x00;
 605              		.loc 1 429 5 view .LVU161
 430:n32g430_std_periph_driver/src/n32g430_usart.c ****     temp_value = USARTx->CTRL2; 
 606              		.loc 1 430 5 view .LVU162
 607              		.loc 1 430 24 is_stmt 0 view .LVU163
 608 0000 038A     		ldrh	r3, [r0, #16]
 609 0002 9BB2     		uxth	r3, r3
 610              	.LVL66:
 431:n32g430_std_periph_driver/src/n32g430_usart.c ****     /* Clear CLKPHA bit */  
 432:n32g430_std_periph_driver/src/n32g430_usart.c ****     temp_value &= USART_CLKPHA_MASK;   
 611              		.loc 1 432 5 is_stmt 1 view .LVU164
 612              		.loc 1 432 16 is_stmt 0 view .LVU165
 613 0004 23F40073 		bic	r3, r3, #512
 614              	.LVL67:
 433:n32g430_std_periph_driver/src/n32g430_usart.c ****     /* Set CLKPHA bit according to clock value */
 434:n32g430_std_periph_driver/src/n32g430_usart.c ****     temp_value |= phase;       
 615              		.loc 1 434 5 is_stmt 1 view .LVU166
 435:n32g430_std_periph_driver/src/n32g430_usart.c ****     USARTx->CTRL2 = (uint16_t)temp_value; 
 616              		.loc 1 435 5 view .LVU167
 617              		.loc 1 435 21 is_stmt 0 view .LVU168
 618 0008 1943     		orrs	r1, r1, r3
 619              	.LVL68:
 620              		.loc 1 435 19 view .LVU169
 621 000a 0182     		strh	r1, [r0, #16]	@ movhi
 436:n32g430_std_periph_driver/src/n32g430_usart.c **** }
 622              		.loc 1 436 1 view .LVU170
 623 000c 7047     		bx	lr
 624              		.cfi_endproc
 625              	.LFE135:
 627              		.section	.text.USART_Last_Bit_Config,"ax",%progbits
 628              		.align	1
 629              		.global	USART_Last_Bit_Config
 630              		.syntax unified
 631              		.thumb
 632              		.thumb_func
 634              	USART_Last_Bit_Config:
 635              	.LVL69:
 636              	.LFB136:
 437:n32g430_std_periph_driver/src/n32g430_usart.c **** 
 438:n32g430_std_periph_driver/src/n32g430_usart.c **** /**
 439:n32g430_std_periph_driver/src/n32g430_usart.c **** *\*\name    USART_Last_Bit_Config.
 440:n32g430_std_periph_driver/src/n32g430_usart.c **** *\*\fun     Configure last bit clock pulse.
 441:n32g430_std_periph_driver/src/n32g430_usart.c **** *\*\param   USARTx :
 442:n32g430_std_periph_driver/src/n32g430_usart.c **** *\*\          - USART1
 443:n32g430_std_periph_driver/src/n32g430_usart.c **** *\*\          - USART2
 444:n32g430_std_periph_driver/src/n32g430_usart.c **** *\*\param   last_bit :
 445:n32g430_std_periph_driver/src/n32g430_usart.c **** *\*\          - USART_CLKLB_DISABLE
 446:n32g430_std_periph_driver/src/n32g430_usart.c **** *\*\          - USART_CLKLB_ENABLE
 447:n32g430_std_periph_driver/src/n32g430_usart.c **** *\*\return  none
 448:n32g430_std_periph_driver/src/n32g430_usart.c **** **/
 449:n32g430_std_periph_driver/src/n32g430_usart.c **** 
 450:n32g430_std_periph_driver/src/n32g430_usart.c **** void USART_Last_Bit_Config(USART_Module* USARTx,uint16_t last_bit)
 451:n32g430_std_periph_driver/src/n32g430_usart.c **** {
ARM GAS  C:\Users\Dawn\AppData\Local\Temp\ccSkpskc.s 			page 20


 637              		.loc 1 451 1 is_stmt 1 view -0
 638              		.cfi_startproc
 639              		@ args = 0, pretend = 0, frame = 0
 640              		@ frame_needed = 0, uses_anonymous_args = 0
 641              		@ link register save eliminated.
 452:n32g430_std_periph_driver/src/n32g430_usart.c ****     uint32_t temp_value = 0x00;
 642              		.loc 1 452 5 view .LVU172
 453:n32g430_std_periph_driver/src/n32g430_usart.c ****     temp_value = USARTx->CTRL2; 
 643              		.loc 1 453 5 view .LVU173
 644              		.loc 1 453 24 is_stmt 0 view .LVU174
 645 0000 038A     		ldrh	r3, [r0, #16]
 646 0002 9BB2     		uxth	r3, r3
 647              	.LVL70:
 454:n32g430_std_periph_driver/src/n32g430_usart.c ****     /* Clear CLKLB bit */  
 455:n32g430_std_periph_driver/src/n32g430_usart.c ****     temp_value &= USART_CLKLB_MASK;   
 648              		.loc 1 455 5 is_stmt 1 view .LVU175
 649              		.loc 1 455 16 is_stmt 0 view .LVU176
 650 0004 23F48073 		bic	r3, r3, #256
 651              	.LVL71:
 456:n32g430_std_periph_driver/src/n32g430_usart.c ****     /* Set CLKLB bit according to clock value */
 457:n32g430_std_periph_driver/src/n32g430_usart.c ****     temp_value |= last_bit;       
 652              		.loc 1 457 5 is_stmt 1 view .LVU177
 458:n32g430_std_periph_driver/src/n32g430_usart.c ****     USARTx->CTRL2 = (uint16_t)temp_value; 
 653              		.loc 1 458 5 view .LVU178
 654              		.loc 1 458 21 is_stmt 0 view .LVU179
 655 0008 1943     		orrs	r1, r1, r3
 656              	.LVL72:
 657              		.loc 1 458 19 view .LVU180
 658 000a 0182     		strh	r1, [r0, #16]	@ movhi
 459:n32g430_std_periph_driver/src/n32g430_usart.c **** }
 659              		.loc 1 459 1 view .LVU181
 660 000c 7047     		bx	lr
 661              		.cfi_endproc
 662              	.LFE136:
 664              		.section	.text.USART_Clock_Initializes,"ax",%progbits
 665              		.align	1
 666              		.global	USART_Clock_Initializes
 667              		.syntax unified
 668              		.thumb
 669              		.thumb_func
 671              	USART_Clock_Initializes:
 672              	.LVL73:
 673              	.LFB132:
 361:n32g430_std_periph_driver/src/n32g430_usart.c ****     USART_Clock_Config(USARTx,USART_ClockInitStruct->Clock);
 674              		.loc 1 361 1 is_stmt 1 view -0
 675              		.cfi_startproc
 676              		@ args = 0, pretend = 0, frame = 0
 677              		@ frame_needed = 0, uses_anonymous_args = 0
 361:n32g430_std_periph_driver/src/n32g430_usart.c ****     USART_Clock_Config(USARTx,USART_ClockInitStruct->Clock);
 678              		.loc 1 361 1 is_stmt 0 view .LVU183
 679 0000 38B5     		push	{r3, r4, r5, lr}
 680              	.LCFI5:
 681              		.cfi_def_cfa_offset 16
 682              		.cfi_offset 3, -16
 683              		.cfi_offset 4, -12
 684              		.cfi_offset 5, -8
 685              		.cfi_offset 14, -4
ARM GAS  C:\Users\Dawn\AppData\Local\Temp\ccSkpskc.s 			page 21


 686 0002 0546     		mov	r5, r0
 687 0004 0C46     		mov	r4, r1
 362:n32g430_std_periph_driver/src/n32g430_usart.c ****     USART_Polarity_Config(USARTx,USART_ClockInitStruct->Polarity);
 688              		.loc 1 362 5 is_stmt 1 view .LVU184
 689 0006 0988     		ldrh	r1, [r1]
 690              	.LVL74:
 362:n32g430_std_periph_driver/src/n32g430_usart.c ****     USART_Polarity_Config(USARTx,USART_ClockInitStruct->Polarity);
 691              		.loc 1 362 5 is_stmt 0 view .LVU185
 692 0008 FFF7FEFF 		bl	USART_Clock_Config
 693              	.LVL75:
 363:n32g430_std_periph_driver/src/n32g430_usart.c ****     USART_Phase_Config(USARTx,USART_ClockInitStruct->Phase);
 694              		.loc 1 363 5 is_stmt 1 view .LVU186
 695 000c 6188     		ldrh	r1, [r4, #2]
 696 000e 2846     		mov	r0, r5
 697 0010 FFF7FEFF 		bl	USART_Polarity_Config
 698              	.LVL76:
 364:n32g430_std_periph_driver/src/n32g430_usart.c ****     USART_Last_Bit_Config(USARTx,USART_ClockInitStruct->LastBit);
 699              		.loc 1 364 5 view .LVU187
 700 0014 A188     		ldrh	r1, [r4, #4]
 701 0016 2846     		mov	r0, r5
 702 0018 FFF7FEFF 		bl	USART_Phase_Config
 703              	.LVL77:
 365:n32g430_std_periph_driver/src/n32g430_usart.c **** 
 704              		.loc 1 365 5 view .LVU188
 705 001c E188     		ldrh	r1, [r4, #6]
 706 001e 2846     		mov	r0, r5
 707 0020 FFF7FEFF 		bl	USART_Last_Bit_Config
 708              	.LVL78:
 367:n32g430_std_periph_driver/src/n32g430_usart.c **** 
 709              		.loc 1 367 1 is_stmt 0 view .LVU189
 710 0024 38BD     		pop	{r3, r4, r5, pc}
 367:n32g430_std_periph_driver/src/n32g430_usart.c **** 
 711              		.loc 1 367 1 view .LVU190
 712              		.cfi_endproc
 713              	.LFE132:
 715              		.section	.text.USART_Clock_Structure_Initializes,"ax",%progbits
 716              		.align	1
 717              		.global	USART_Clock_Structure_Initializes
 718              		.syntax unified
 719              		.thumb
 720              		.thumb_func
 722              	USART_Clock_Structure_Initializes:
 723              	.LVL79:
 724              	.LFB137:
 460:n32g430_std_periph_driver/src/n32g430_usart.c **** 
 461:n32g430_std_periph_driver/src/n32g430_usart.c **** 
 462:n32g430_std_periph_driver/src/n32g430_usart.c **** /**
 463:n32g430_std_periph_driver/src/n32g430_usart.c **** *\*\name    USART_Initializes_Clock_Structure.
 464:n32g430_std_periph_driver/src/n32g430_usart.c **** *\*\fun     Fills each USART_ClockInitStruct member with its default value.
 465:n32g430_std_periph_driver/src/n32g430_usart.c **** *\*\param   USART_ClockInitStruct :
 466:n32g430_std_periph_driver/src/n32g430_usart.c **** *\*\          - Clock
 467:n32g430_std_periph_driver/src/n32g430_usart.c **** *\*\          - Polarity
 468:n32g430_std_periph_driver/src/n32g430_usart.c **** *\*\          - Phase
 469:n32g430_std_periph_driver/src/n32g430_usart.c **** *\*\          - LastBit
 470:n32g430_std_periph_driver/src/n32g430_usart.c **** *\*\return  none
 471:n32g430_std_periph_driver/src/n32g430_usart.c **** **/
 472:n32g430_std_periph_driver/src/n32g430_usart.c **** 
ARM GAS  C:\Users\Dawn\AppData\Local\Temp\ccSkpskc.s 			page 22


 473:n32g430_std_periph_driver/src/n32g430_usart.c **** void USART_Clock_Structure_Initializes(USART_ClockInitType* USART_ClockInitStruct)
 474:n32g430_std_periph_driver/src/n32g430_usart.c **** {
 725              		.loc 1 474 1 is_stmt 1 view -0
 726              		.cfi_startproc
 727              		@ args = 0, pretend = 0, frame = 0
 728              		@ frame_needed = 0, uses_anonymous_args = 0
 729              		@ link register save eliminated.
 475:n32g430_std_periph_driver/src/n32g430_usart.c ****     /* USART_ClockInitStruct members default value */
 476:n32g430_std_periph_driver/src/n32g430_usart.c ****     USART_ClockInitStruct->Clock    = USART_CLK_DISABLE;
 730              		.loc 1 476 5 view .LVU192
 731              		.loc 1 476 37 is_stmt 0 view .LVU193
 732 0000 0023     		movs	r3, #0
 733 0002 0380     		strh	r3, [r0]	@ movhi
 477:n32g430_std_periph_driver/src/n32g430_usart.c ****     USART_ClockInitStruct->Polarity = USART_CLKPOL_LOW;
 734              		.loc 1 477 5 is_stmt 1 view .LVU194
 735              		.loc 1 477 37 is_stmt 0 view .LVU195
 736 0004 4380     		strh	r3, [r0, #2]	@ movhi
 478:n32g430_std_periph_driver/src/n32g430_usart.c ****     USART_ClockInitStruct->Phase    = USART_CLKPHA_1EDGE;
 737              		.loc 1 478 5 is_stmt 1 view .LVU196
 738              		.loc 1 478 37 is_stmt 0 view .LVU197
 739 0006 8380     		strh	r3, [r0, #4]	@ movhi
 479:n32g430_std_periph_driver/src/n32g430_usart.c ****     USART_ClockInitStruct->LastBit  = USART_CLKLB_DISABLE;
 740              		.loc 1 479 5 is_stmt 1 view .LVU198
 741              		.loc 1 479 37 is_stmt 0 view .LVU199
 742 0008 C380     		strh	r3, [r0, #6]	@ movhi
 480:n32g430_std_periph_driver/src/n32g430_usart.c **** }
 743              		.loc 1 480 1 view .LVU200
 744 000a 7047     		bx	lr
 745              		.cfi_endproc
 746              	.LFE137:
 748              		.section	.text.USART_Enable,"ax",%progbits
 749              		.align	1
 750              		.global	USART_Enable
 751              		.syntax unified
 752              		.thumb
 753              		.thumb_func
 755              	USART_Enable:
 756              	.LVL80:
 757              	.LFB138:
 481:n32g430_std_periph_driver/src/n32g430_usart.c **** 
 482:n32g430_std_periph_driver/src/n32g430_usart.c **** 
 483:n32g430_std_periph_driver/src/n32g430_usart.c **** /**
 484:n32g430_std_periph_driver/src/n32g430_usart.c **** *\*\name    USART_Enable.
 485:n32g430_std_periph_driver/src/n32g430_usart.c **** *\*\fun     Enables the specified USART peripheral.
 486:n32g430_std_periph_driver/src/n32g430_usart.c **** *\*\param   USARTx :
 487:n32g430_std_periph_driver/src/n32g430_usart.c **** *\*\          - USART1
 488:n32g430_std_periph_driver/src/n32g430_usart.c **** *\*\          - USART2
 489:n32g430_std_periph_driver/src/n32g430_usart.c **** *\*\          - UART3
 490:n32g430_std_periph_driver/src/n32g430_usart.c **** *\*\          - UART4
 491:n32g430_std_periph_driver/src/n32g430_usart.c **** *\*\return  none
 492:n32g430_std_periph_driver/src/n32g430_usart.c **** **/
 493:n32g430_std_periph_driver/src/n32g430_usart.c **** void USART_Enable(USART_Module* USARTx)  
 494:n32g430_std_periph_driver/src/n32g430_usart.c **** {
 758              		.loc 1 494 1 is_stmt 1 view -0
 759              		.cfi_startproc
 760              		@ args = 0, pretend = 0, frame = 0
 761              		@ frame_needed = 0, uses_anonymous_args = 0
ARM GAS  C:\Users\Dawn\AppData\Local\Temp\ccSkpskc.s 			page 23


 762              		@ link register save eliminated.
 495:n32g430_std_periph_driver/src/n32g430_usart.c ****     /* Enable the selected USART by setting the UE bit in the CTRL1 register */
 496:n32g430_std_periph_driver/src/n32g430_usart.c ****     USARTx->CTRL1 |= CTRL1_UEN_SET;
 763              		.loc 1 496 5 view .LVU202
 764              		.loc 1 496 11 is_stmt 0 view .LVU203
 765 0000 8389     		ldrh	r3, [r0, #12]
 766 0002 9BB2     		uxth	r3, r3
 767              		.loc 1 496 19 view .LVU204
 768 0004 43F40053 		orr	r3, r3, #8192
 769 0008 8381     		strh	r3, [r0, #12]	@ movhi
 497:n32g430_std_periph_driver/src/n32g430_usart.c **** }
 770              		.loc 1 497 1 view .LVU205
 771 000a 7047     		bx	lr
 772              		.cfi_endproc
 773              	.LFE138:
 775              		.section	.text.USART_Disable,"ax",%progbits
 776              		.align	1
 777              		.global	USART_Disable
 778              		.syntax unified
 779              		.thumb
 780              		.thumb_func
 782              	USART_Disable:
 783              	.LVL81:
 784              	.LFB139:
 498:n32g430_std_periph_driver/src/n32g430_usart.c **** 
 499:n32g430_std_periph_driver/src/n32g430_usart.c **** /**
 500:n32g430_std_periph_driver/src/n32g430_usart.c **** *\*\name    USART_Disable.
 501:n32g430_std_periph_driver/src/n32g430_usart.c **** *\*\fun     Disables the specified USART peripheral.
 502:n32g430_std_periph_driver/src/n32g430_usart.c **** *\*\param   USARTx :
 503:n32g430_std_periph_driver/src/n32g430_usart.c **** *\*\          - USART1
 504:n32g430_std_periph_driver/src/n32g430_usart.c **** *\*\          - USART2
 505:n32g430_std_periph_driver/src/n32g430_usart.c **** *\*\          - UART3
 506:n32g430_std_periph_driver/src/n32g430_usart.c **** *\*\          - UART4
 507:n32g430_std_periph_driver/src/n32g430_usart.c **** *\*\return  none
 508:n32g430_std_periph_driver/src/n32g430_usart.c **** **/
 509:n32g430_std_periph_driver/src/n32g430_usart.c **** void USART_Disable(USART_Module* USARTx)
 510:n32g430_std_periph_driver/src/n32g430_usart.c **** {
 785              		.loc 1 510 1 is_stmt 1 view -0
 786              		.cfi_startproc
 787              		@ args = 0, pretend = 0, frame = 0
 788              		@ frame_needed = 0, uses_anonymous_args = 0
 789              		@ link register save eliminated.
 511:n32g430_std_periph_driver/src/n32g430_usart.c ****     /* Disable the selected USART by clearing the UE bit in the CTRL1 register */
 512:n32g430_std_periph_driver/src/n32g430_usart.c ****     USARTx->CTRL1 &= CTRL1_UEN_RESET;
 790              		.loc 1 512 5 view .LVU207
 791              		.loc 1 512 11 is_stmt 0 view .LVU208
 792 0000 8389     		ldrh	r3, [r0, #12]
 793 0002 9BB2     		uxth	r3, r3
 794              		.loc 1 512 19 view .LVU209
 795 0004 23F40053 		bic	r3, r3, #8192
 796 0008 9BB2     		uxth	r3, r3
 797 000a 8381     		strh	r3, [r0, #12]	@ movhi
 513:n32g430_std_periph_driver/src/n32g430_usart.c **** }
 798              		.loc 1 513 1 view .LVU210
 799 000c 7047     		bx	lr
 800              		.cfi_endproc
 801              	.LFE139:
ARM GAS  C:\Users\Dawn\AppData\Local\Temp\ccSkpskc.s 			page 24


 803              		.section	.text.USART_Interrput_Enable,"ax",%progbits
 804              		.align	1
 805              		.global	USART_Interrput_Enable
 806              		.syntax unified
 807              		.thumb
 808              		.thumb_func
 810              	USART_Interrput_Enable:
 811              	.LVL82:
 812              	.LFB140:
 514:n32g430_std_periph_driver/src/n32g430_usart.c **** 
 515:n32g430_std_periph_driver/src/n32g430_usart.c **** /**
 516:n32g430_std_periph_driver/src/n32g430_usart.c **** *\*\name    USART_Interrput_Enable.
 517:n32g430_std_periph_driver/src/n32g430_usart.c **** *\*\fun     Enables the specified USART interrupts.
 518:n32g430_std_periph_driver/src/n32g430_usart.c **** *\*\param   USARTx :
 519:n32g430_std_periph_driver/src/n32g430_usart.c **** *\*\          - USART1
 520:n32g430_std_periph_driver/src/n32g430_usart.c **** *\*\          - USART2
 521:n32g430_std_periph_driver/src/n32g430_usart.c **** *\*\          - UART3
 522:n32g430_std_periph_driver/src/n32g430_usart.c **** *\*\          - UART4
 523:n32g430_std_periph_driver/src/n32g430_usart.c **** *\*\param   USART_interrupt :
 524:n32g430_std_periph_driver/src/n32g430_usart.c **** *\*\          - USART_INT_PEF
 525:n32g430_std_periph_driver/src/n32g430_usart.c **** *\*\          - USART_INT_TXDE
 526:n32g430_std_periph_driver/src/n32g430_usart.c **** *\*\          - USART_INT_TXC
 527:n32g430_std_periph_driver/src/n32g430_usart.c **** *\*\          - USART_INT_RXDNE
 528:n32g430_std_periph_driver/src/n32g430_usart.c **** *\*\          - USART_INT_IDLEF
 529:n32g430_std_periph_driver/src/n32g430_usart.c **** *\*\          - USART_INT_LINBD
 530:n32g430_std_periph_driver/src/n32g430_usart.c **** *\*\          - USART_INT_CTSF
 531:n32g430_std_periph_driver/src/n32g430_usart.c **** *\*\          - USART_INT_ERRF
 532:n32g430_std_periph_driver/src/n32g430_usart.c **** *\*\return  none
 533:n32g430_std_periph_driver/src/n32g430_usart.c **** **/
 534:n32g430_std_periph_driver/src/n32g430_usart.c **** 
 535:n32g430_std_periph_driver/src/n32g430_usart.c **** void USART_Interrput_Enable(USART_Module* USARTx, uint16_t USART_interrupt)
 536:n32g430_std_periph_driver/src/n32g430_usart.c **** {
 813              		.loc 1 536 1 is_stmt 1 view -0
 814              		.cfi_startproc
 815              		@ args = 0, pretend = 0, frame = 0
 816              		@ frame_needed = 0, uses_anonymous_args = 0
 817              		@ link register save eliminated.
 537:n32g430_std_periph_driver/src/n32g430_usart.c ****     uint32_t register_value = 0x00, interrupt_position = 0x00, temp_value = 0x00;
 818              		.loc 1 537 5 view .LVU212
 538:n32g430_std_periph_driver/src/n32g430_usart.c ****     uint32_t base_value = 0x00;
 819              		.loc 1 538 5 view .LVU213
 539:n32g430_std_periph_driver/src/n32g430_usart.c **** 
 540:n32g430_std_periph_driver/src/n32g430_usart.c ****     base_value = (uint32_t)USARTx;
 820              		.loc 1 540 5 view .LVU214
 541:n32g430_std_periph_driver/src/n32g430_usart.c **** 
 542:n32g430_std_periph_driver/src/n32g430_usart.c ****     /* Get the USART register index */
 543:n32g430_std_periph_driver/src/n32g430_usart.c ****     register_value = (((uint8_t)USART_interrupt) >> USART_CTRL_INDEX_OFFSET);
 821              		.loc 1 543 5 view .LVU215
 822              		.loc 1 543 50 is_stmt 0 view .LVU216
 823 0000 C1F34213 		ubfx	r3, r1, #5, #3
 824              	.LVL83:
 544:n32g430_std_periph_driver/src/n32g430_usart.c **** 
 545:n32g430_std_periph_driver/src/n32g430_usart.c ****     /* Get the interrupt position */
 546:n32g430_std_periph_driver/src/n32g430_usart.c ****     interrupt_position  = USART_interrupt & INT_MASK;
 825              		.loc 1 546 5 is_stmt 1 view .LVU217
 826              		.loc 1 546 25 is_stmt 0 view .LVU218
 827 0004 01F01F01 		and	r1, r1, #31
ARM GAS  C:\Users\Dawn\AppData\Local\Temp\ccSkpskc.s 			page 25


 828              	.LVL84:
 547:n32g430_std_periph_driver/src/n32g430_usart.c ****     temp_value = (((uint32_t)0x01) << interrupt_position);
 829              		.loc 1 547 5 is_stmt 1 view .LVU219
 830              		.loc 1 547 16 is_stmt 0 view .LVU220
 831 0008 0122     		movs	r2, #1
 832 000a 8A40     		lsls	r2, r2, r1
 833              	.LVL85:
 548:n32g430_std_periph_driver/src/n32g430_usart.c **** 
 549:n32g430_std_periph_driver/src/n32g430_usart.c ****     if (register_value == 0x01) /* The IT is in CTRL1 register */
 834              		.loc 1 549 5 is_stmt 1 view .LVU221
 835              		.loc 1 549 8 is_stmt 0 view .LVU222
 836 000c 012B     		cmp	r3, #1
 837 000e 06D0     		beq	.L41
 550:n32g430_std_periph_driver/src/n32g430_usart.c ****     {
 551:n32g430_std_periph_driver/src/n32g430_usart.c ****         base_value += 0x0C;
 552:n32g430_std_periph_driver/src/n32g430_usart.c ****     }
 553:n32g430_std_periph_driver/src/n32g430_usart.c ****     else if (register_value == 0x02) /* The IT is in CTRL2 register */
 838              		.loc 1 553 10 is_stmt 1 view .LVU223
 839              		.loc 1 553 13 is_stmt 0 view .LVU224
 840 0010 022B     		cmp	r3, #2
 841 0012 06D0     		beq	.L42
 554:n32g430_std_periph_driver/src/n32g430_usart.c ****     {
 555:n32g430_std_periph_driver/src/n32g430_usart.c ****         base_value += 0x10;
 556:n32g430_std_periph_driver/src/n32g430_usart.c ****     }
 557:n32g430_std_periph_driver/src/n32g430_usart.c ****     else /* The IT is in CTRL3 register */
 558:n32g430_std_periph_driver/src/n32g430_usart.c ****     {
 559:n32g430_std_periph_driver/src/n32g430_usart.c ****         base_value += 0x14;
 842              		.loc 1 559 9 is_stmt 1 view .LVU225
 843              		.loc 1 559 20 is_stmt 0 view .LVU226
 844 0014 1430     		adds	r0, r0, #20
 845              	.LVL86:
 846              	.L39:
 560:n32g430_std_periph_driver/src/n32g430_usart.c ****     }
 561:n32g430_std_periph_driver/src/n32g430_usart.c **** 
 562:n32g430_std_periph_driver/src/n32g430_usart.c ****     *(__IO uint32_t*)base_value |= temp_value;
 847              		.loc 1 562 5 is_stmt 1 view .LVU227
 848 0016 0368     		ldr	r3, [r0]
 849              	.LVL87:
 850              		.loc 1 562 33 is_stmt 0 view .LVU228
 851 0018 1343     		orrs	r3, r3, r2
 852 001a 0360     		str	r3, [r0]
 563:n32g430_std_periph_driver/src/n32g430_usart.c **** 
 564:n32g430_std_periph_driver/src/n32g430_usart.c **** }
 853              		.loc 1 564 1 view .LVU229
 854 001c 7047     		bx	lr
 855              	.LVL88:
 856              	.L41:
 551:n32g430_std_periph_driver/src/n32g430_usart.c ****     }
 857              		.loc 1 551 9 is_stmt 1 view .LVU230
 551:n32g430_std_periph_driver/src/n32g430_usart.c ****     }
 858              		.loc 1 551 20 is_stmt 0 view .LVU231
 859 001e 0C30     		adds	r0, r0, #12
 860              	.LVL89:
 551:n32g430_std_periph_driver/src/n32g430_usart.c ****     }
 861              		.loc 1 551 20 view .LVU232
 862 0020 F9E7     		b	.L39
 863              	.LVL90:
ARM GAS  C:\Users\Dawn\AppData\Local\Temp\ccSkpskc.s 			page 26


 864              	.L42:
 555:n32g430_std_periph_driver/src/n32g430_usart.c ****     }
 865              		.loc 1 555 9 is_stmt 1 view .LVU233
 555:n32g430_std_periph_driver/src/n32g430_usart.c ****     }
 866              		.loc 1 555 20 is_stmt 0 view .LVU234
 867 0022 1030     		adds	r0, r0, #16
 868              	.LVL91:
 555:n32g430_std_periph_driver/src/n32g430_usart.c ****     }
 869              		.loc 1 555 20 view .LVU235
 870 0024 F7E7     		b	.L39
 871              		.cfi_endproc
 872              	.LFE140:
 874              		.section	.text.USART_Interrput_Disable,"ax",%progbits
 875              		.align	1
 876              		.global	USART_Interrput_Disable
 877              		.syntax unified
 878              		.thumb
 879              		.thumb_func
 881              	USART_Interrput_Disable:
 882              	.LVL92:
 883              	.LFB141:
 565:n32g430_std_periph_driver/src/n32g430_usart.c **** 
 566:n32g430_std_periph_driver/src/n32g430_usart.c **** /**
 567:n32g430_std_periph_driver/src/n32g430_usart.c **** *\*\name    USART_Interrput_Disable.
 568:n32g430_std_periph_driver/src/n32g430_usart.c **** *\*\fun     Disables the specified USART interrupts.
 569:n32g430_std_periph_driver/src/n32g430_usart.c **** *\*\param   USARTx :
 570:n32g430_std_periph_driver/src/n32g430_usart.c **** *\*\          - USART1
 571:n32g430_std_periph_driver/src/n32g430_usart.c **** *\*\          - USART2
 572:n32g430_std_periph_driver/src/n32g430_usart.c **** *\*\          - UART3
 573:n32g430_std_periph_driver/src/n32g430_usart.c **** *\*\          - UART4
 574:n32g430_std_periph_driver/src/n32g430_usart.c **** *\*\param   USART_interrupt :
 575:n32g430_std_periph_driver/src/n32g430_usart.c **** *\*\          - USART_INT_PEF
 576:n32g430_std_periph_driver/src/n32g430_usart.c **** *\*\          - USART_INT_TXDE
 577:n32g430_std_periph_driver/src/n32g430_usart.c **** *\*\          - USART_INT_TXC
 578:n32g430_std_periph_driver/src/n32g430_usart.c **** *\*\          - USART_INT_RXDNE
 579:n32g430_std_periph_driver/src/n32g430_usart.c **** *\*\          - USART_INT_IDLEF
 580:n32g430_std_periph_driver/src/n32g430_usart.c **** *\*\          - USART_INT_LINBD
 581:n32g430_std_periph_driver/src/n32g430_usart.c **** *\*\          - USART_INT_CTSF
 582:n32g430_std_periph_driver/src/n32g430_usart.c **** *\*\          - USART_INT_ERRF
 583:n32g430_std_periph_driver/src/n32g430_usart.c **** *\*\return  none
 584:n32g430_std_periph_driver/src/n32g430_usart.c **** **/
 585:n32g430_std_periph_driver/src/n32g430_usart.c **** 
 586:n32g430_std_periph_driver/src/n32g430_usart.c **** void USART_Interrput_Disable(USART_Module* USARTx, uint16_t USART_interrupt)
 587:n32g430_std_periph_driver/src/n32g430_usart.c **** {
 884              		.loc 1 587 1 is_stmt 1 view -0
 885              		.cfi_startproc
 886              		@ args = 0, pretend = 0, frame = 0
 887              		@ frame_needed = 0, uses_anonymous_args = 0
 888              		@ link register save eliminated.
 588:n32g430_std_periph_driver/src/n32g430_usart.c ****     uint32_t register_value = 0x00, interrupt_position = 0x00, temp_value = 0x00;
 889              		.loc 1 588 5 view .LVU237
 589:n32g430_std_periph_driver/src/n32g430_usart.c ****     uint32_t base_value = 0x00;
 890              		.loc 1 589 5 view .LVU238
 590:n32g430_std_periph_driver/src/n32g430_usart.c ****     base_value = (uint32_t)USARTx;
 891              		.loc 1 590 5 view .LVU239
 591:n32g430_std_periph_driver/src/n32g430_usart.c **** 
 592:n32g430_std_periph_driver/src/n32g430_usart.c ****     /* Get the USART register index */
ARM GAS  C:\Users\Dawn\AppData\Local\Temp\ccSkpskc.s 			page 27


 593:n32g430_std_periph_driver/src/n32g430_usart.c ****     register_value = (((uint8_t)USART_interrupt) >> USART_CTRL_INDEX_OFFSET);
 892              		.loc 1 593 5 view .LVU240
 893              		.loc 1 593 50 is_stmt 0 view .LVU241
 894 0000 C1F34213 		ubfx	r3, r1, #5, #3
 895              	.LVL93:
 594:n32g430_std_periph_driver/src/n32g430_usart.c **** 
 595:n32g430_std_periph_driver/src/n32g430_usart.c ****     /* Get the interrupt position */
 596:n32g430_std_periph_driver/src/n32g430_usart.c ****     interrupt_position  = USART_interrupt & INT_MASK;
 896              		.loc 1 596 5 is_stmt 1 view .LVU242
 897              		.loc 1 596 25 is_stmt 0 view .LVU243
 898 0004 01F01F01 		and	r1, r1, #31
 899              	.LVL94:
 597:n32g430_std_periph_driver/src/n32g430_usart.c ****     temp_value = (((uint32_t)0x01) << interrupt_position);
 900              		.loc 1 597 5 is_stmt 1 view .LVU244
 901              		.loc 1 597 16 is_stmt 0 view .LVU245
 902 0008 0122     		movs	r2, #1
 903 000a 8A40     		lsls	r2, r2, r1
 904              	.LVL95:
 598:n32g430_std_periph_driver/src/n32g430_usart.c **** 
 599:n32g430_std_periph_driver/src/n32g430_usart.c ****     if (register_value == 0x01) /* The IT is in CTRL1 register */
 905              		.loc 1 599 5 is_stmt 1 view .LVU246
 906              		.loc 1 599 8 is_stmt 0 view .LVU247
 907 000c 012B     		cmp	r3, #1
 908 000e 07D0     		beq	.L47
 600:n32g430_std_periph_driver/src/n32g430_usart.c ****     {
 601:n32g430_std_periph_driver/src/n32g430_usart.c ****         base_value += 0x0C;
 602:n32g430_std_periph_driver/src/n32g430_usart.c ****     }
 603:n32g430_std_periph_driver/src/n32g430_usart.c ****     else if (register_value == 0x02) /* The IT is in CTRL2 register */
 909              		.loc 1 603 10 is_stmt 1 view .LVU248
 910              		.loc 1 603 13 is_stmt 0 view .LVU249
 911 0010 022B     		cmp	r3, #2
 912 0012 07D0     		beq	.L48
 604:n32g430_std_periph_driver/src/n32g430_usart.c ****     {
 605:n32g430_std_periph_driver/src/n32g430_usart.c ****         base_value += 0x10;
 606:n32g430_std_periph_driver/src/n32g430_usart.c ****     }
 607:n32g430_std_periph_driver/src/n32g430_usart.c ****     else /* The IT is in CTRL3 register */
 608:n32g430_std_periph_driver/src/n32g430_usart.c ****     {
 609:n32g430_std_periph_driver/src/n32g430_usart.c ****         base_value += 0x14;
 913              		.loc 1 609 9 is_stmt 1 view .LVU250
 914              		.loc 1 609 20 is_stmt 0 view .LVU251
 915 0014 1430     		adds	r0, r0, #20
 916              	.LVL96:
 917              	.L45:
 610:n32g430_std_periph_driver/src/n32g430_usart.c ****     }
 611:n32g430_std_periph_driver/src/n32g430_usart.c **** 
 612:n32g430_std_periph_driver/src/n32g430_usart.c ****     *(__IO uint32_t*)base_value &= ~temp_value;
 918              		.loc 1 612 5 is_stmt 1 view .LVU252
 919 0016 0368     		ldr	r3, [r0]
 920              	.LVL97:
 921              		.loc 1 612 33 is_stmt 0 view .LVU253
 922 0018 23EA0203 		bic	r3, r3, r2
 923 001c 0360     		str	r3, [r0]
 613:n32g430_std_periph_driver/src/n32g430_usart.c **** 
 614:n32g430_std_periph_driver/src/n32g430_usart.c **** }
 924              		.loc 1 614 1 view .LVU254
 925 001e 7047     		bx	lr
 926              	.LVL98:
ARM GAS  C:\Users\Dawn\AppData\Local\Temp\ccSkpskc.s 			page 28


 927              	.L47:
 601:n32g430_std_periph_driver/src/n32g430_usart.c ****     }
 928              		.loc 1 601 9 is_stmt 1 view .LVU255
 601:n32g430_std_periph_driver/src/n32g430_usart.c ****     }
 929              		.loc 1 601 20 is_stmt 0 view .LVU256
 930 0020 0C30     		adds	r0, r0, #12
 931              	.LVL99:
 601:n32g430_std_periph_driver/src/n32g430_usart.c ****     }
 932              		.loc 1 601 20 view .LVU257
 933 0022 F8E7     		b	.L45
 934              	.LVL100:
 935              	.L48:
 605:n32g430_std_periph_driver/src/n32g430_usart.c ****     }
 936              		.loc 1 605 9 is_stmt 1 view .LVU258
 605:n32g430_std_periph_driver/src/n32g430_usart.c ****     }
 937              		.loc 1 605 20 is_stmt 0 view .LVU259
 938 0024 1030     		adds	r0, r0, #16
 939              	.LVL101:
 605:n32g430_std_periph_driver/src/n32g430_usart.c ****     }
 940              		.loc 1 605 20 view .LVU260
 941 0026 F6E7     		b	.L45
 942              		.cfi_endproc
 943              	.LFE141:
 945              		.section	.text.USART_DMA_Transfer_Enable,"ax",%progbits
 946              		.align	1
 947              		.global	USART_DMA_Transfer_Enable
 948              		.syntax unified
 949              		.thumb
 950              		.thumb_func
 952              	USART_DMA_Transfer_Enable:
 953              	.LVL102:
 954              	.LFB142:
 615:n32g430_std_periph_driver/src/n32g430_usart.c **** 
 616:n32g430_std_periph_driver/src/n32g430_usart.c **** /**
 617:n32g430_std_periph_driver/src/n32g430_usart.c **** *\*\name    USART_DMA_Transfer_Enable.
 618:n32g430_std_periph_driver/src/n32g430_usart.c **** *\*\fun     Enables the DMA transfer for selected requests.
 619:n32g430_std_periph_driver/src/n32g430_usart.c **** *\*\param   USARTx :
 620:n32g430_std_periph_driver/src/n32g430_usart.c **** *\*\          - USART1
 621:n32g430_std_periph_driver/src/n32g430_usart.c **** *\*\          - USART2
 622:n32g430_std_periph_driver/src/n32g430_usart.c **** *\*\          - UART3
 623:n32g430_std_periph_driver/src/n32g430_usart.c **** *\*\          - UART4
 624:n32g430_std_periph_driver/src/n32g430_usart.c **** *\*\param   USART_DMA_request :
 625:n32g430_std_periph_driver/src/n32g430_usart.c **** *\*\          - USART_DMAREQ_TX
 626:n32g430_std_periph_driver/src/n32g430_usart.c **** *\*\          - USART_DMAREQ_RX
 627:n32g430_std_periph_driver/src/n32g430_usart.c **** *\*\return  none
 628:n32g430_std_periph_driver/src/n32g430_usart.c **** **/
 629:n32g430_std_periph_driver/src/n32g430_usart.c **** 
 630:n32g430_std_periph_driver/src/n32g430_usart.c **** void USART_DMA_Transfer_Enable(USART_Module* USARTx, uint16_t USART_DMA_request)
 631:n32g430_std_periph_driver/src/n32g430_usart.c **** {
 955              		.loc 1 631 1 is_stmt 1 view -0
 956              		.cfi_startproc
 957              		@ args = 0, pretend = 0, frame = 0
 958              		@ frame_needed = 0, uses_anonymous_args = 0
 959              		@ link register save eliminated.
 632:n32g430_std_periph_driver/src/n32g430_usart.c **** 
 633:n32g430_std_periph_driver/src/n32g430_usart.c ****     /* Enable the DMA transfer for selected requests by setting the DMAT and/or
 634:n32g430_std_periph_driver/src/n32g430_usart.c ****         DADDR bits in the USART CTRL3 register */
ARM GAS  C:\Users\Dawn\AppData\Local\Temp\ccSkpskc.s 			page 29


 635:n32g430_std_periph_driver/src/n32g430_usart.c ****     USARTx->CTRL3 |= USART_DMA_request;
 960              		.loc 1 635 5 view .LVU262
 961              		.loc 1 635 11 is_stmt 0 view .LVU263
 962 0000 838A     		ldrh	r3, [r0, #20]
 963 0002 9BB2     		uxth	r3, r3
 964              		.loc 1 635 19 view .LVU264
 965 0004 0B43     		orrs	r3, r3, r1
 966 0006 8382     		strh	r3, [r0, #20]	@ movhi
 636:n32g430_std_periph_driver/src/n32g430_usart.c **** 
 637:n32g430_std_periph_driver/src/n32g430_usart.c **** }
 967              		.loc 1 637 1 view .LVU265
 968 0008 7047     		bx	lr
 969              		.cfi_endproc
 970              	.LFE142:
 972              		.section	.text.USART_DMA_Transfer_Disable,"ax",%progbits
 973              		.align	1
 974              		.global	USART_DMA_Transfer_Disable
 975              		.syntax unified
 976              		.thumb
 977              		.thumb_func
 979              	USART_DMA_Transfer_Disable:
 980              	.LVL103:
 981              	.LFB143:
 638:n32g430_std_periph_driver/src/n32g430_usart.c **** 
 639:n32g430_std_periph_driver/src/n32g430_usart.c **** /**
 640:n32g430_std_periph_driver/src/n32g430_usart.c **** *\*\name    USART_DMA_Transfer_Disable.
 641:n32g430_std_periph_driver/src/n32g430_usart.c **** *\*\fun     Disables the DMA transfer for selected requests.
 642:n32g430_std_periph_driver/src/n32g430_usart.c **** *\*\param   USARTx :
 643:n32g430_std_periph_driver/src/n32g430_usart.c **** *\*\          - USART1
 644:n32g430_std_periph_driver/src/n32g430_usart.c **** *\*\          - USART2
 645:n32g430_std_periph_driver/src/n32g430_usart.c **** *\*\          - UART3
 646:n32g430_std_periph_driver/src/n32g430_usart.c **** *\*\          - UART4
 647:n32g430_std_periph_driver/src/n32g430_usart.c **** *\*\param   USART_DMA_request :
 648:n32g430_std_periph_driver/src/n32g430_usart.c **** *\*\          - USART_DMAREQ_TX
 649:n32g430_std_periph_driver/src/n32g430_usart.c **** *\*\          - USART_DMAREQ_RX
 650:n32g430_std_periph_driver/src/n32g430_usart.c **** *\*\return  none
 651:n32g430_std_periph_driver/src/n32g430_usart.c **** **/
 652:n32g430_std_periph_driver/src/n32g430_usart.c **** 
 653:n32g430_std_periph_driver/src/n32g430_usart.c **** void USART_DMA_Transfer_Disable(USART_Module* USARTx, uint16_t USART_DMA_request)
 654:n32g430_std_periph_driver/src/n32g430_usart.c **** {
 982              		.loc 1 654 1 is_stmt 1 view -0
 983              		.cfi_startproc
 984              		@ args = 0, pretend = 0, frame = 0
 985              		@ frame_needed = 0, uses_anonymous_args = 0
 986              		@ link register save eliminated.
 655:n32g430_std_periph_driver/src/n32g430_usart.c **** 
 656:n32g430_std_periph_driver/src/n32g430_usart.c **** 
 657:n32g430_std_periph_driver/src/n32g430_usart.c ****     /* Disable the DMA transfer for selected requests by clearing the DMAT and/or
 658:n32g430_std_periph_driver/src/n32g430_usart.c ****         DADDR bits in the USART CTRL3 register */
 659:n32g430_std_periph_driver/src/n32g430_usart.c ****     USARTx->CTRL3 &= (uint16_t)~USART_DMA_request;
 987              		.loc 1 659 5 view .LVU267
 988              		.loc 1 659 11 is_stmt 0 view .LVU268
 989 0000 838A     		ldrh	r3, [r0, #20]
 990              		.loc 1 659 22 view .LVU269
 991 0002 C943     		mvns	r1, r1
 992              	.LVL104:
 993              		.loc 1 659 22 view .LVU270
ARM GAS  C:\Users\Dawn\AppData\Local\Temp\ccSkpskc.s 			page 30


 994 0004 89B2     		uxth	r1, r1
 995              	.LVL105:
 996              		.loc 1 659 19 view .LVU271
 997 0006 1940     		ands	r1, r1, r3
 998 0008 8182     		strh	r1, [r0, #20]	@ movhi
 660:n32g430_std_periph_driver/src/n32g430_usart.c **** 
 661:n32g430_std_periph_driver/src/n32g430_usart.c **** }
 999              		.loc 1 661 1 view .LVU272
 1000 000a 7047     		bx	lr
 1001              		.cfi_endproc
 1002              	.LFE143:
 1004              		.section	.text.USART_Address_Set,"ax",%progbits
 1005              		.align	1
 1006              		.global	USART_Address_Set
 1007              		.syntax unified
 1008              		.thumb
 1009              		.thumb_func
 1011              	USART_Address_Set:
 1012              	.LVL106:
 1013              	.LFB144:
 662:n32g430_std_periph_driver/src/n32g430_usart.c **** 
 663:n32g430_std_periph_driver/src/n32g430_usart.c **** /**
 664:n32g430_std_periph_driver/src/n32g430_usart.c **** *\*\name    USART_Address_Set.
 665:n32g430_std_periph_driver/src/n32g430_usart.c **** *\*\fun     Sets the address of the USART node.
 666:n32g430_std_periph_driver/src/n32g430_usart.c **** *\*\param   USARTx :
 667:n32g430_std_periph_driver/src/n32g430_usart.c **** *\*\          - USART1
 668:n32g430_std_periph_driver/src/n32g430_usart.c **** *\*\          - USART2
 669:n32g430_std_periph_driver/src/n32g430_usart.c **** *\*\          - UART3
 670:n32g430_std_periph_driver/src/n32g430_usart.c **** *\*\          - UART4
 671:n32g430_std_periph_driver/src/n32g430_usart.c **** *\*\param   USART_address :
 672:n32g430_std_periph_driver/src/n32g430_usart.c **** *\*\          - (((USART_address)>=0x00)&&((USART_address)<0x10))
 673:n32g430_std_periph_driver/src/n32g430_usart.c **** *\*\return  none
 674:n32g430_std_periph_driver/src/n32g430_usart.c **** **/
 675:n32g430_std_periph_driver/src/n32g430_usart.c **** 
 676:n32g430_std_periph_driver/src/n32g430_usart.c **** void USART_Address_Set(USART_Module* USARTx, uint8_t USART_address)
 677:n32g430_std_periph_driver/src/n32g430_usart.c **** {
 1014              		.loc 1 677 1 is_stmt 1 view -0
 1015              		.cfi_startproc
 1016              		@ args = 0, pretend = 0, frame = 0
 1017              		@ frame_needed = 0, uses_anonymous_args = 0
 1018              		@ link register save eliminated.
 678:n32g430_std_periph_driver/src/n32g430_usart.c ****     /* Clear the USART address */
 679:n32g430_std_periph_driver/src/n32g430_usart.c ****     USARTx->CTRL2 &= CTRL2_ADDR_MASK;
 1019              		.loc 1 679 5 view .LVU274
 1020              		.loc 1 679 11 is_stmt 0 view .LVU275
 1021 0000 038A     		ldrh	r3, [r0, #16]
 1022 0002 9BB2     		uxth	r3, r3
 1023              		.loc 1 679 19 view .LVU276
 1024 0004 23F00F03 		bic	r3, r3, #15
 1025 0008 9BB2     		uxth	r3, r3
 1026 000a 0382     		strh	r3, [r0, #16]	@ movhi
 680:n32g430_std_periph_driver/src/n32g430_usart.c ****     /* Set the USART address node */
 681:n32g430_std_periph_driver/src/n32g430_usart.c ****     USARTx->CTRL2 |= USART_address;
 1027              		.loc 1 681 5 is_stmt 1 view .LVU277
 1028              		.loc 1 681 11 is_stmt 0 view .LVU278
 1029 000c 038A     		ldrh	r3, [r0, #16]
 1030 000e 9BB2     		uxth	r3, r3
ARM GAS  C:\Users\Dawn\AppData\Local\Temp\ccSkpskc.s 			page 31


 1031              		.loc 1 681 19 view .LVU279
 1032 0010 1943     		orrs	r1, r1, r3
 1033              	.LVL107:
 1034              		.loc 1 681 19 view .LVU280
 1035 0012 0182     		strh	r1, [r0, #16]	@ movhi
 682:n32g430_std_periph_driver/src/n32g430_usart.c **** }
 1036              		.loc 1 682 1 view .LVU281
 1037 0014 7047     		bx	lr
 1038              		.cfi_endproc
 1039              	.LFE144:
 1041              		.section	.text.USART_WakeUp_Mode_Set,"ax",%progbits
 1042              		.align	1
 1043              		.global	USART_WakeUp_Mode_Set
 1044              		.syntax unified
 1045              		.thumb
 1046              		.thumb_func
 1048              	USART_WakeUp_Mode_Set:
 1049              	.LVL108:
 1050              	.LFB145:
 683:n32g430_std_periph_driver/src/n32g430_usart.c **** 
 684:n32g430_std_periph_driver/src/n32g430_usart.c **** /**
 685:n32g430_std_periph_driver/src/n32g430_usart.c **** *\*\name    USART_WakeUp_Mode_Set.
 686:n32g430_std_periph_driver/src/n32g430_usart.c **** *\*\fun     Selects the USART WakeUp method.
 687:n32g430_std_periph_driver/src/n32g430_usart.c **** *\*\param   USARTx :
 688:n32g430_std_periph_driver/src/n32g430_usart.c **** *\*\          - USART1
 689:n32g430_std_periph_driver/src/n32g430_usart.c **** *\*\          - USART2
 690:n32g430_std_periph_driver/src/n32g430_usart.c **** *\*\          - UART3
 691:n32g430_std_periph_driver/src/n32g430_usart.c **** *\*\          - UART4
 692:n32g430_std_periph_driver/src/n32g430_usart.c **** *\*\param   USART_wake_up_mode :
 693:n32g430_std_periph_driver/src/n32g430_usart.c **** *\*\          - USART_WUM_IDLELINE
 694:n32g430_std_periph_driver/src/n32g430_usart.c **** *\*\          - USART_WUM_ADDRMASK
 695:n32g430_std_periph_driver/src/n32g430_usart.c **** *\*\return  none
 696:n32g430_std_periph_driver/src/n32g430_usart.c **** **/
 697:n32g430_std_periph_driver/src/n32g430_usart.c **** 
 698:n32g430_std_periph_driver/src/n32g430_usart.c **** void USART_WakeUp_Mode_Set(USART_Module* USARTx, uint16_t USART_wake_up_mode)
 699:n32g430_std_periph_driver/src/n32g430_usart.c **** {
 1051              		.loc 1 699 1 is_stmt 1 view -0
 1052              		.cfi_startproc
 1053              		@ args = 0, pretend = 0, frame = 0
 1054              		@ frame_needed = 0, uses_anonymous_args = 0
 1055              		@ link register save eliminated.
 700:n32g430_std_periph_driver/src/n32g430_usart.c **** 
 701:n32g430_std_periph_driver/src/n32g430_usart.c ****     USARTx->CTRL1 &= CTRL1_WUM_MASK;
 1056              		.loc 1 701 5 view .LVU283
 1057              		.loc 1 701 11 is_stmt 0 view .LVU284
 1058 0000 8389     		ldrh	r3, [r0, #12]
 1059 0002 9BB2     		uxth	r3, r3
 1060              		.loc 1 701 19 view .LVU285
 1061 0004 23F40063 		bic	r3, r3, #2048
 1062 0008 9BB2     		uxth	r3, r3
 1063 000a 8381     		strh	r3, [r0, #12]	@ movhi
 702:n32g430_std_periph_driver/src/n32g430_usart.c ****     USARTx->CTRL1 |= USART_wake_up_mode;
 1064              		.loc 1 702 5 is_stmt 1 view .LVU286
 1065              		.loc 1 702 11 is_stmt 0 view .LVU287
 1066 000c 8389     		ldrh	r3, [r0, #12]
 1067 000e 9BB2     		uxth	r3, r3
 1068              		.loc 1 702 19 view .LVU288
ARM GAS  C:\Users\Dawn\AppData\Local\Temp\ccSkpskc.s 			page 32


 1069 0010 0B43     		orrs	r3, r3, r1
 1070 0012 8381     		strh	r3, [r0, #12]	@ movhi
 703:n32g430_std_periph_driver/src/n32g430_usart.c **** }
 1071              		.loc 1 703 1 view .LVU289
 1072 0014 7047     		bx	lr
 1073              		.cfi_endproc
 1074              	.LFE145:
 1076              		.section	.text.USART_Receiver_Wakeup_Enable,"ax",%progbits
 1077              		.align	1
 1078              		.global	USART_Receiver_Wakeup_Enable
 1079              		.syntax unified
 1080              		.thumb
 1081              		.thumb_func
 1083              	USART_Receiver_Wakeup_Enable:
 1084              	.LVL109:
 1085              	.LFB146:
 704:n32g430_std_periph_driver/src/n32g430_usart.c **** 
 705:n32g430_std_periph_driver/src/n32g430_usart.c **** /**
 706:n32g430_std_periph_driver/src/n32g430_usart.c **** *\*\name    USART_Receiver_Wakeup_Enable.
 707:n32g430_std_periph_driver/src/n32g430_usart.c **** *\*\fun     Enable the USART mute mode.
 708:n32g430_std_periph_driver/src/n32g430_usart.c **** *\*\param   USARTx :
 709:n32g430_std_periph_driver/src/n32g430_usart.c **** *\*\          - USART1
 710:n32g430_std_periph_driver/src/n32g430_usart.c **** *\*\          - USART2
 711:n32g430_std_periph_driver/src/n32g430_usart.c **** *\*\          - UART3
 712:n32g430_std_periph_driver/src/n32g430_usart.c **** *\*\          - UART4
 713:n32g430_std_periph_driver/src/n32g430_usart.c **** *\*\return  none
 714:n32g430_std_periph_driver/src/n32g430_usart.c **** **/
 715:n32g430_std_periph_driver/src/n32g430_usart.c **** void USART_Receiver_Wakeup_Enable(USART_Module* USARTx)
 716:n32g430_std_periph_driver/src/n32g430_usart.c **** {
 1086              		.loc 1 716 1 is_stmt 1 view -0
 1087              		.cfi_startproc
 1088              		@ args = 0, pretend = 0, frame = 0
 1089              		@ frame_needed = 0, uses_anonymous_args = 0
 1090              		@ link register save eliminated.
 717:n32g430_std_periph_driver/src/n32g430_usart.c ****     /* Enable the USART mute mode  by setting the RWU bit in the CTRL1 register */
 718:n32g430_std_periph_driver/src/n32g430_usart.c ****     USARTx->CTRL1 |= CTRL1_RCVWU_SET;
 1091              		.loc 1 718 5 view .LVU291
 1092              		.loc 1 718 11 is_stmt 0 view .LVU292
 1093 0000 8389     		ldrh	r3, [r0, #12]
 1094 0002 9BB2     		uxth	r3, r3
 1095              		.loc 1 718 19 view .LVU293
 1096 0004 43F00203 		orr	r3, r3, #2
 1097 0008 8381     		strh	r3, [r0, #12]	@ movhi
 719:n32g430_std_periph_driver/src/n32g430_usart.c **** }
 1098              		.loc 1 719 1 view .LVU294
 1099 000a 7047     		bx	lr
 1100              		.cfi_endproc
 1101              	.LFE146:
 1103              		.section	.text.USART_Receiver_Wakeup_Disable,"ax",%progbits
 1104              		.align	1
 1105              		.global	USART_Receiver_Wakeup_Disable
 1106              		.syntax unified
 1107              		.thumb
 1108              		.thumb_func
 1110              	USART_Receiver_Wakeup_Disable:
 1111              	.LVL110:
 1112              	.LFB147:
ARM GAS  C:\Users\Dawn\AppData\Local\Temp\ccSkpskc.s 			page 33


 720:n32g430_std_periph_driver/src/n32g430_usart.c **** 
 721:n32g430_std_periph_driver/src/n32g430_usart.c **** /**
 722:n32g430_std_periph_driver/src/n32g430_usart.c **** *\*\name    USART_Receiver_Wakeup_Disable.
 723:n32g430_std_periph_driver/src/n32g430_usart.c **** *\*\fun     Disable the USART mute mode.
 724:n32g430_std_periph_driver/src/n32g430_usart.c **** *\*\param   USARTx :
 725:n32g430_std_periph_driver/src/n32g430_usart.c **** *\*\          - USART1
 726:n32g430_std_periph_driver/src/n32g430_usart.c **** *\*\          - USART2
 727:n32g430_std_periph_driver/src/n32g430_usart.c **** *\*\          - UART3
 728:n32g430_std_periph_driver/src/n32g430_usart.c **** *\*\          - UART4
 729:n32g430_std_periph_driver/src/n32g430_usart.c **** *\*\return  none
 730:n32g430_std_periph_driver/src/n32g430_usart.c **** **/
 731:n32g430_std_periph_driver/src/n32g430_usart.c **** void USART_Receiver_Wakeup_Disable(USART_Module* USARTx)
 732:n32g430_std_periph_driver/src/n32g430_usart.c **** {
 1113              		.loc 1 732 1 is_stmt 1 view -0
 1114              		.cfi_startproc
 1115              		@ args = 0, pretend = 0, frame = 0
 1116              		@ frame_needed = 0, uses_anonymous_args = 0
 1117              		@ link register save eliminated.
 733:n32g430_std_periph_driver/src/n32g430_usart.c ****     /* Disable the USART mute mode by clearing the RWU bit in the CTRL1 register */
 734:n32g430_std_periph_driver/src/n32g430_usart.c ****     USARTx->CTRL1 &= CTRL1_RCVWU_RESET;
 1118              		.loc 1 734 5 view .LVU296
 1119              		.loc 1 734 11 is_stmt 0 view .LVU297
 1120 0000 8389     		ldrh	r3, [r0, #12]
 1121 0002 9BB2     		uxth	r3, r3
 1122              		.loc 1 734 19 view .LVU298
 1123 0004 23F00203 		bic	r3, r3, #2
 1124 0008 9BB2     		uxth	r3, r3
 1125 000a 8381     		strh	r3, [r0, #12]	@ movhi
 735:n32g430_std_periph_driver/src/n32g430_usart.c **** 
 736:n32g430_std_periph_driver/src/n32g430_usart.c **** }
 1126              		.loc 1 736 1 view .LVU299
 1127 000c 7047     		bx	lr
 1128              		.cfi_endproc
 1129              	.LFE147:
 1131              		.section	.text.USART_LIN_Break_Detect_Length_Set,"ax",%progbits
 1132              		.align	1
 1133              		.global	USART_LIN_Break_Detect_Length_Set
 1134              		.syntax unified
 1135              		.thumb
 1136              		.thumb_func
 1138              	USART_LIN_Break_Detect_Length_Set:
 1139              	.LVL111:
 1140              	.LFB148:
 737:n32g430_std_periph_driver/src/n32g430_usart.c **** 
 738:n32g430_std_periph_driver/src/n32g430_usart.c **** /**
 739:n32g430_std_periph_driver/src/n32g430_usart.c **** *\*\name    USART_LIN_Break_Detect_Length_Set.
 740:n32g430_std_periph_driver/src/n32g430_usart.c **** *\*\fun     Sets the USART LIN Break detection length.
 741:n32g430_std_periph_driver/src/n32g430_usart.c **** *\*\param   USARTx :
 742:n32g430_std_periph_driver/src/n32g430_usart.c **** *\*\          - USART1
 743:n32g430_std_periph_driver/src/n32g430_usart.c **** *\*\          - USART2
 744:n32g430_std_periph_driver/src/n32g430_usart.c **** *\*\          - UART3
 745:n32g430_std_periph_driver/src/n32g430_usart.c **** *\*\          - UART4
 746:n32g430_std_periph_driver/src/n32g430_usart.c **** *\*\param   USART_LIN_break_detect_length :
 747:n32g430_std_periph_driver/src/n32g430_usart.c **** *\*\          - USART_LINBDL_10B
 748:n32g430_std_periph_driver/src/n32g430_usart.c **** *\*\          - USART_LINBDL_11B
 749:n32g430_std_periph_driver/src/n32g430_usart.c **** *\*\return  none
 750:n32g430_std_periph_driver/src/n32g430_usart.c **** **/
ARM GAS  C:\Users\Dawn\AppData\Local\Temp\ccSkpskc.s 			page 34


 751:n32g430_std_periph_driver/src/n32g430_usart.c **** void USART_LIN_Break_Detect_Length_Set(USART_Module* USARTx, uint16_t USART_LIN_break_detect_length
 752:n32g430_std_periph_driver/src/n32g430_usart.c **** {
 1141              		.loc 1 752 1 is_stmt 1 view -0
 1142              		.cfi_startproc
 1143              		@ args = 0, pretend = 0, frame = 0
 1144              		@ frame_needed = 0, uses_anonymous_args = 0
 1145              		@ link register save eliminated.
 753:n32g430_std_periph_driver/src/n32g430_usart.c ****     USARTx->CTRL2 &= CTRL2_LINBDL_MASK;
 1146              		.loc 1 753 5 view .LVU301
 1147              		.loc 1 753 11 is_stmt 0 view .LVU302
 1148 0000 038A     		ldrh	r3, [r0, #16]
 1149 0002 9BB2     		uxth	r3, r3
 1150              		.loc 1 753 19 view .LVU303
 1151 0004 23F02003 		bic	r3, r3, #32
 1152 0008 9BB2     		uxth	r3, r3
 1153 000a 0382     		strh	r3, [r0, #16]	@ movhi
 754:n32g430_std_periph_driver/src/n32g430_usart.c ****     USARTx->CTRL2 |= USART_LIN_break_detect_length;
 1154              		.loc 1 754 5 is_stmt 1 view .LVU304
 1155              		.loc 1 754 11 is_stmt 0 view .LVU305
 1156 000c 038A     		ldrh	r3, [r0, #16]
 1157 000e 9BB2     		uxth	r3, r3
 1158              		.loc 1 754 19 view .LVU306
 1159 0010 0B43     		orrs	r3, r3, r1
 1160 0012 0382     		strh	r3, [r0, #16]	@ movhi
 755:n32g430_std_periph_driver/src/n32g430_usart.c **** }
 1161              		.loc 1 755 1 view .LVU307
 1162 0014 7047     		bx	lr
 1163              		.cfi_endproc
 1164              	.LFE148:
 1166              		.section	.text.USART_LIN_Enable,"ax",%progbits
 1167              		.align	1
 1168              		.global	USART_LIN_Enable
 1169              		.syntax unified
 1170              		.thumb
 1171              		.thumb_func
 1173              	USART_LIN_Enable:
 1174              	.LVL112:
 1175              	.LFB149:
 756:n32g430_std_periph_driver/src/n32g430_usart.c **** 
 757:n32g430_std_periph_driver/src/n32g430_usart.c **** /**
 758:n32g430_std_periph_driver/src/n32g430_usart.c **** *\*\name    USART_LIN_Enable.
 759:n32g430_std_periph_driver/src/n32g430_usart.c **** *\*\fun     Enables the USART's LIN mode.
 760:n32g430_std_periph_driver/src/n32g430_usart.c **** *\*\param   USARTx :
 761:n32g430_std_periph_driver/src/n32g430_usart.c **** *\*\          - USART1
 762:n32g430_std_periph_driver/src/n32g430_usart.c **** *\*\          - USART2
 763:n32g430_std_periph_driver/src/n32g430_usart.c **** *\*\          - UART3
 764:n32g430_std_periph_driver/src/n32g430_usart.c **** *\*\          - UART4
 765:n32g430_std_periph_driver/src/n32g430_usart.c **** *\*\return  none
 766:n32g430_std_periph_driver/src/n32g430_usart.c **** **/
 767:n32g430_std_periph_driver/src/n32g430_usart.c **** void USART_LIN_Enable(USART_Module* USARTx)
 768:n32g430_std_periph_driver/src/n32g430_usart.c **** {
 1176              		.loc 1 768 1 is_stmt 1 view -0
 1177              		.cfi_startproc
 1178              		@ args = 0, pretend = 0, frame = 0
 1179              		@ frame_needed = 0, uses_anonymous_args = 0
 1180              		@ link register save eliminated.
 769:n32g430_std_periph_driver/src/n32g430_usart.c **** 
ARM GAS  C:\Users\Dawn\AppData\Local\Temp\ccSkpskc.s 			page 35


 770:n32g430_std_periph_driver/src/n32g430_usart.c ****     /* Enable the LIN mode by setting the LINEN bit in the CTRL2 register */
 771:n32g430_std_periph_driver/src/n32g430_usart.c ****     USARTx->CTRL2 |= CTRL2_LINMEN_SET;
 1181              		.loc 1 771 5 view .LVU309
 1182              		.loc 1 771 11 is_stmt 0 view .LVU310
 1183 0000 038A     		ldrh	r3, [r0, #16]
 1184 0002 9BB2     		uxth	r3, r3
 1185              		.loc 1 771 19 view .LVU311
 1186 0004 43F48043 		orr	r3, r3, #16384
 1187 0008 0382     		strh	r3, [r0, #16]	@ movhi
 772:n32g430_std_periph_driver/src/n32g430_usart.c **** 
 773:n32g430_std_periph_driver/src/n32g430_usart.c **** }
 1188              		.loc 1 773 1 view .LVU312
 1189 000a 7047     		bx	lr
 1190              		.cfi_endproc
 1191              	.LFE149:
 1193              		.section	.text.USART_LIN_Disable,"ax",%progbits
 1194              		.align	1
 1195              		.global	USART_LIN_Disable
 1196              		.syntax unified
 1197              		.thumb
 1198              		.thumb_func
 1200              	USART_LIN_Disable:
 1201              	.LVL113:
 1202              	.LFB150:
 774:n32g430_std_periph_driver/src/n32g430_usart.c **** 
 775:n32g430_std_periph_driver/src/n32g430_usart.c **** /**
 776:n32g430_std_periph_driver/src/n32g430_usart.c **** *\*\name    USART_LIN_Disable.
 777:n32g430_std_periph_driver/src/n32g430_usart.c **** *\*\fun     Disables the USART's LIN mode.
 778:n32g430_std_periph_driver/src/n32g430_usart.c **** *\*\param   USARTx :
 779:n32g430_std_periph_driver/src/n32g430_usart.c **** *\*\          - USART1
 780:n32g430_std_periph_driver/src/n32g430_usart.c **** *\*\          - USART2
 781:n32g430_std_periph_driver/src/n32g430_usart.c **** *\*\          - UART3
 782:n32g430_std_periph_driver/src/n32g430_usart.c **** *\*\          - UART4
 783:n32g430_std_periph_driver/src/n32g430_usart.c **** *\*\return  none
 784:n32g430_std_periph_driver/src/n32g430_usart.c **** **/
 785:n32g430_std_periph_driver/src/n32g430_usart.c **** void USART_LIN_Disable(USART_Module* USARTx)
 786:n32g430_std_periph_driver/src/n32g430_usart.c **** {
 1203              		.loc 1 786 1 is_stmt 1 view -0
 1204              		.cfi_startproc
 1205              		@ args = 0, pretend = 0, frame = 0
 1206              		@ frame_needed = 0, uses_anonymous_args = 0
 1207              		@ link register save eliminated.
 787:n32g430_std_periph_driver/src/n32g430_usart.c ****     /* Disable the LIN mode by clearing the LINEN bit in the CTRL2 register */
 788:n32g430_std_periph_driver/src/n32g430_usart.c ****     USARTx->CTRL2 &= CTRL2_LINMEN_RESET;
 1208              		.loc 1 788 5 view .LVU314
 1209              		.loc 1 788 11 is_stmt 0 view .LVU315
 1210 0000 038A     		ldrh	r3, [r0, #16]
 1211 0002 9BB2     		uxth	r3, r3
 1212              		.loc 1 788 19 view .LVU316
 1213 0004 23F48043 		bic	r3, r3, #16384
 1214 0008 9BB2     		uxth	r3, r3
 1215 000a 0382     		strh	r3, [r0, #16]	@ movhi
 789:n32g430_std_periph_driver/src/n32g430_usart.c **** }
 1216              		.loc 1 789 1 view .LVU317
 1217 000c 7047     		bx	lr
 1218              		.cfi_endproc
 1219              	.LFE150:
ARM GAS  C:\Users\Dawn\AppData\Local\Temp\ccSkpskc.s 			page 36


 1221              		.section	.text.USART_Data_Send,"ax",%progbits
 1222              		.align	1
 1223              		.global	USART_Data_Send
 1224              		.syntax unified
 1225              		.thumb
 1226              		.thumb_func
 1228              	USART_Data_Send:
 1229              	.LVL114:
 1230              	.LFB151:
 790:n32g430_std_periph_driver/src/n32g430_usart.c **** 
 791:n32g430_std_periph_driver/src/n32g430_usart.c **** /**
 792:n32g430_std_periph_driver/src/n32g430_usart.c **** *\*\name    USART_Data_Send.
 793:n32g430_std_periph_driver/src/n32g430_usart.c **** *\*\fun     Transmits single data through the USARTx peripheral.
 794:n32g430_std_periph_driver/src/n32g430_usart.c **** *\*\param   USARTx :
 795:n32g430_std_periph_driver/src/n32g430_usart.c **** *\*\          - USART1
 796:n32g430_std_periph_driver/src/n32g430_usart.c **** *\*\          - USART2
 797:n32g430_std_periph_driver/src/n32g430_usart.c **** *\*\          - UART3
 798:n32g430_std_periph_driver/src/n32g430_usart.c **** *\*\          - UART4
 799:n32g430_std_periph_driver/src/n32g430_usart.c **** *\*\param   data :
 800:n32g430_std_periph_driver/src/n32g430_usart.c **** *\*\          - The data to transmit.
 801:n32g430_std_periph_driver/src/n32g430_usart.c **** *\*\return  none
 802:n32g430_std_periph_driver/src/n32g430_usart.c **** **/
 803:n32g430_std_periph_driver/src/n32g430_usart.c **** void USART_Data_Send(USART_Module* USARTx, uint16_t data)
 804:n32g430_std_periph_driver/src/n32g430_usart.c **** {
 1231              		.loc 1 804 1 is_stmt 1 view -0
 1232              		.cfi_startproc
 1233              		@ args = 0, pretend = 0, frame = 0
 1234              		@ frame_needed = 0, uses_anonymous_args = 0
 1235              		@ link register save eliminated.
 805:n32g430_std_periph_driver/src/n32g430_usart.c ****     /* Transmit Data */
 806:n32g430_std_periph_driver/src/n32g430_usart.c ****     USARTx->DAT = (data & (uint16_t)0x01FF);
 1236              		.loc 1 806 5 view .LVU319
 1237              		.loc 1 806 25 is_stmt 0 view .LVU320
 1238 0000 C1F30801 		ubfx	r1, r1, #0, #9
 1239              	.LVL115:
 1240              		.loc 1 806 17 view .LVU321
 1241 0004 8180     		strh	r1, [r0, #4]	@ movhi
 807:n32g430_std_periph_driver/src/n32g430_usart.c **** }
 1242              		.loc 1 807 1 view .LVU322
 1243 0006 7047     		bx	lr
 1244              		.cfi_endproc
 1245              	.LFE151:
 1247              		.section	.text.USART_Data_Receive,"ax",%progbits
 1248              		.align	1
 1249              		.global	USART_Data_Receive
 1250              		.syntax unified
 1251              		.thumb
 1252              		.thumb_func
 1254              	USART_Data_Receive:
 1255              	.LVL116:
 1256              	.LFB152:
 808:n32g430_std_periph_driver/src/n32g430_usart.c **** 
 809:n32g430_std_periph_driver/src/n32g430_usart.c **** /**
 810:n32g430_std_periph_driver/src/n32g430_usart.c **** *\*\name    USART_Data_Receive.
 811:n32g430_std_periph_driver/src/n32g430_usart.c **** *\*\fun     Returns the most recent received data by the USARTx peripheral.
 812:n32g430_std_periph_driver/src/n32g430_usart.c **** *\*\param   USARTx :
 813:n32g430_std_periph_driver/src/n32g430_usart.c **** *\*\          - USART1
ARM GAS  C:\Users\Dawn\AppData\Local\Temp\ccSkpskc.s 			page 37


 814:n32g430_std_periph_driver/src/n32g430_usart.c **** *\*\          - USART2
 815:n32g430_std_periph_driver/src/n32g430_usart.c **** *\*\          - UART3
 816:n32g430_std_periph_driver/src/n32g430_usart.c **** *\*\          - UART4
 817:n32g430_std_periph_driver/src/n32g430_usart.c **** *\*\return  The received data.
 818:n32g430_std_periph_driver/src/n32g430_usart.c **** **/
 819:n32g430_std_periph_driver/src/n32g430_usart.c **** uint16_t USART_Data_Receive(USART_Module* USARTx)
 820:n32g430_std_periph_driver/src/n32g430_usart.c **** {
 1257              		.loc 1 820 1 is_stmt 1 view -0
 1258              		.cfi_startproc
 1259              		@ args = 0, pretend = 0, frame = 0
 1260              		@ frame_needed = 0, uses_anonymous_args = 0
 1261              		@ link register save eliminated.
 821:n32g430_std_periph_driver/src/n32g430_usart.c ****     /* Receive Data */
 822:n32g430_std_periph_driver/src/n32g430_usart.c ****     return (uint16_t)(USARTx->DAT & (uint16_t)0x01FF);
 1262              		.loc 1 822 5 view .LVU324
 1263              		.loc 1 822 29 is_stmt 0 view .LVU325
 1264 0000 8088     		ldrh	r0, [r0, #4]
 1265              	.LVL117:
 823:n32g430_std_periph_driver/src/n32g430_usart.c **** }
 1266              		.loc 1 823 1 view .LVU326
 1267 0002 C0F30800 		ubfx	r0, r0, #0, #9
 1268 0006 7047     		bx	lr
 1269              		.cfi_endproc
 1270              	.LFE152:
 1272              		.section	.text.USART_Break_Frame_Send,"ax",%progbits
 1273              		.align	1
 1274              		.global	USART_Break_Frame_Send
 1275              		.syntax unified
 1276              		.thumb
 1277              		.thumb_func
 1279              	USART_Break_Frame_Send:
 1280              	.LVL118:
 1281              	.LFB153:
 824:n32g430_std_periph_driver/src/n32g430_usart.c **** 
 825:n32g430_std_periph_driver/src/n32g430_usart.c **** /**
 826:n32g430_std_periph_driver/src/n32g430_usart.c **** *\*\name    USART_Break_Frame_Send.
 827:n32g430_std_periph_driver/src/n32g430_usart.c **** *\*\fun     Transmits break characters.
 828:n32g430_std_periph_driver/src/n32g430_usart.c **** *\*\param   USARTx :
 829:n32g430_std_periph_driver/src/n32g430_usart.c **** *\*\          - USART1
 830:n32g430_std_periph_driver/src/n32g430_usart.c **** *\*\          - USART2
 831:n32g430_std_periph_driver/src/n32g430_usart.c **** *\*\          - UART3
 832:n32g430_std_periph_driver/src/n32g430_usart.c **** *\*\          - UART4
 833:n32g430_std_periph_driver/src/n32g430_usart.c **** *\*\return  none
 834:n32g430_std_periph_driver/src/n32g430_usart.c **** **/
 835:n32g430_std_periph_driver/src/n32g430_usart.c **** void USART_Break_Frame_Send(USART_Module* USARTx)
 836:n32g430_std_periph_driver/src/n32g430_usart.c **** {
 1282              		.loc 1 836 1 is_stmt 1 view -0
 1283              		.cfi_startproc
 1284              		@ args = 0, pretend = 0, frame = 0
 1285              		@ frame_needed = 0, uses_anonymous_args = 0
 1286              		@ link register save eliminated.
 837:n32g430_std_periph_driver/src/n32g430_usart.c ****     /* Send break characters */
 838:n32g430_std_periph_driver/src/n32g430_usart.c ****     USARTx->CTRL1 |= CTRL1_SDBRK_SET;
 1287              		.loc 1 838 5 view .LVU328
 1288              		.loc 1 838 11 is_stmt 0 view .LVU329
 1289 0000 8389     		ldrh	r3, [r0, #12]
 1290 0002 9BB2     		uxth	r3, r3
ARM GAS  C:\Users\Dawn\AppData\Local\Temp\ccSkpskc.s 			page 38


 1291              		.loc 1 838 19 view .LVU330
 1292 0004 43F00103 		orr	r3, r3, #1
 1293 0008 8381     		strh	r3, [r0, #12]	@ movhi
 839:n32g430_std_periph_driver/src/n32g430_usart.c **** }
 1294              		.loc 1 839 1 view .LVU331
 1295 000a 7047     		bx	lr
 1296              		.cfi_endproc
 1297              	.LFE153:
 1299              		.section	.text.USART_Guard_Time_Set,"ax",%progbits
 1300              		.align	1
 1301              		.global	USART_Guard_Time_Set
 1302              		.syntax unified
 1303              		.thumb
 1304              		.thumb_func
 1306              	USART_Guard_Time_Set:
 1307              	.LVL119:
 1308              	.LFB154:
 840:n32g430_std_periph_driver/src/n32g430_usart.c **** 
 841:n32g430_std_periph_driver/src/n32g430_usart.c **** /**
 842:n32g430_std_periph_driver/src/n32g430_usart.c **** *\*\name    USART_Guard_Time_Set.
 843:n32g430_std_periph_driver/src/n32g430_usart.c **** *\*\fun     Sets the specified USART guard time.
 844:n32g430_std_periph_driver/src/n32g430_usart.c **** *\*\param   USARTx :
 845:n32g430_std_periph_driver/src/n32g430_usart.c **** *\*\          - USART1
 846:n32g430_std_periph_driver/src/n32g430_usart.c **** *\*\          - USART2
 847:n32g430_std_periph_driver/src/n32g430_usart.c **** *\*\param   USART_guard_time :
 848:n32g430_std_periph_driver/src/n32g430_usart.c **** *\*\          - Specifies the guard time
 849:n32g430_std_periph_driver/src/n32g430_usart.c **** *\*\return  none
 850:n32g430_std_periph_driver/src/n32g430_usart.c **** **/
 851:n32g430_std_periph_driver/src/n32g430_usart.c **** void USART_Guard_Time_Set(USART_Module* USARTx, uint8_t USART_guard_time)
 852:n32g430_std_periph_driver/src/n32g430_usart.c **** {
 1309              		.loc 1 852 1 is_stmt 1 view -0
 1310              		.cfi_startproc
 1311              		@ args = 0, pretend = 0, frame = 0
 1312              		@ frame_needed = 0, uses_anonymous_args = 0
 1313              		@ link register save eliminated.
 853:n32g430_std_periph_driver/src/n32g430_usart.c ****     /* Clear the USART Guard time */
 854:n32g430_std_periph_driver/src/n32g430_usart.c ****     USARTx->GTP &= GTP_LSB_MASK;
 1314              		.loc 1 854 5 view .LVU333
 1315              		.loc 1 854 11 is_stmt 0 view .LVU334
 1316 0000 038B     		ldrh	r3, [r0, #24]
 1317              		.loc 1 854 17 view .LVU335
 1318 0002 DBB2     		uxtb	r3, r3
 1319 0004 0383     		strh	r3, [r0, #24]	@ movhi
 855:n32g430_std_periph_driver/src/n32g430_usart.c ****     /* Set the USART guard time */
 856:n32g430_std_periph_driver/src/n32g430_usart.c ****     USARTx->GTP |= (uint16_t)((uint16_t)USART_guard_time << USART_GTP_GTV_OFFSET);
 1320              		.loc 1 856 5 is_stmt 1 view .LVU336
 1321              		.loc 1 856 11 is_stmt 0 view .LVU337
 1322 0006 038B     		ldrh	r3, [r0, #24]
 1323 0008 9BB2     		uxth	r3, r3
 1324              		.loc 1 856 17 view .LVU338
 1325 000a 43EA0123 		orr	r3, r3, r1, lsl #8
 1326 000e 0383     		strh	r3, [r0, #24]	@ movhi
 857:n32g430_std_periph_driver/src/n32g430_usart.c **** }
 1327              		.loc 1 857 1 view .LVU339
 1328 0010 7047     		bx	lr
 1329              		.cfi_endproc
 1330              	.LFE154:
ARM GAS  C:\Users\Dawn\AppData\Local\Temp\ccSkpskc.s 			page 39


 1332              		.section	.text.USART_Prescaler_Set,"ax",%progbits
 1333              		.align	1
 1334              		.global	USART_Prescaler_Set
 1335              		.syntax unified
 1336              		.thumb
 1337              		.thumb_func
 1339              	USART_Prescaler_Set:
 1340              	.LVL120:
 1341              	.LFB155:
 858:n32g430_std_periph_driver/src/n32g430_usart.c **** 
 859:n32g430_std_periph_driver/src/n32g430_usart.c **** /**
 860:n32g430_std_periph_driver/src/n32g430_usart.c **** *\*\name    USART_prescaler_Set.
 861:n32g430_std_periph_driver/src/n32g430_usart.c **** *\*\fun     Sets the system clock prescaler.
 862:n32g430_std_periph_driver/src/n32g430_usart.c **** *\*\param   USARTx :
 863:n32g430_std_periph_driver/src/n32g430_usart.c **** *\*\          - USART1
 864:n32g430_std_periph_driver/src/n32g430_usart.c **** *\*\          - USART2
 865:n32g430_std_periph_driver/src/n32g430_usart.c **** *\*\          - UART3
 866:n32g430_std_periph_driver/src/n32g430_usart.c **** *\*\          - UART4
 867:n32g430_std_periph_driver/src/n32g430_usart.c **** *\*\param   USART_prescaler :
 868:n32g430_std_periph_driver/src/n32g430_usart.c **** *\*\          - Specifies the prescaler clock.
 869:n32g430_std_periph_driver/src/n32g430_usart.c **** *\*\return  none
 870:n32g430_std_periph_driver/src/n32g430_usart.c **** **/
 871:n32g430_std_periph_driver/src/n32g430_usart.c **** void USART_Prescaler_Set(USART_Module* USARTx, uint8_t USART_prescaler)
 872:n32g430_std_periph_driver/src/n32g430_usart.c **** {
 1342              		.loc 1 872 1 is_stmt 1 view -0
 1343              		.cfi_startproc
 1344              		@ args = 0, pretend = 0, frame = 0
 1345              		@ frame_needed = 0, uses_anonymous_args = 0
 1346              		@ link register save eliminated.
 873:n32g430_std_periph_driver/src/n32g430_usart.c ****     /* Clear the USART prescaler */
 874:n32g430_std_periph_driver/src/n32g430_usart.c ****     USARTx->GTP &= GTP_MSB_MASK;
 1347              		.loc 1 874 5 view .LVU341
 1348              		.loc 1 874 11 is_stmt 0 view .LVU342
 1349 0000 038B     		ldrh	r3, [r0, #24]
 1350              		.loc 1 874 17 view .LVU343
 1351 0002 03F47F43 		and	r3, r3, #65280
 1352 0006 0383     		strh	r3, [r0, #24]	@ movhi
 875:n32g430_std_periph_driver/src/n32g430_usart.c ****     /* Set the USART prescaler */
 876:n32g430_std_periph_driver/src/n32g430_usart.c ****     USARTx->GTP |= USART_prescaler;
 1353              		.loc 1 876 5 is_stmt 1 view .LVU344
 1354              		.loc 1 876 11 is_stmt 0 view .LVU345
 1355 0008 038B     		ldrh	r3, [r0, #24]
 1356 000a 9BB2     		uxth	r3, r3
 1357              		.loc 1 876 17 view .LVU346
 1358 000c 1943     		orrs	r1, r1, r3
 1359              	.LVL121:
 1360              		.loc 1 876 17 view .LVU347
 1361 000e 0183     		strh	r1, [r0, #24]	@ movhi
 877:n32g430_std_periph_driver/src/n32g430_usart.c **** }
 1362              		.loc 1 877 1 view .LVU348
 1363 0010 7047     		bx	lr
 1364              		.cfi_endproc
 1365              	.LFE155:
 1367              		.section	.text.USART_Smart_Card_Enable,"ax",%progbits
 1368              		.align	1
 1369              		.global	USART_Smart_Card_Enable
 1370              		.syntax unified
ARM GAS  C:\Users\Dawn\AppData\Local\Temp\ccSkpskc.s 			page 40


 1371              		.thumb
 1372              		.thumb_func
 1374              	USART_Smart_Card_Enable:
 1375              	.LVL122:
 1376              	.LFB156:
 878:n32g430_std_periph_driver/src/n32g430_usart.c **** 
 879:n32g430_std_periph_driver/src/n32g430_usart.c **** /**
 880:n32g430_std_periph_driver/src/n32g430_usart.c **** *\*\name    USART_Smart_Card_Enable.
 881:n32g430_std_periph_driver/src/n32g430_usart.c **** *\*\fun     Enables the USART's Smart Card mode.
 882:n32g430_std_periph_driver/src/n32g430_usart.c **** *\*\param   USARTx :
 883:n32g430_std_periph_driver/src/n32g430_usart.c **** *\*\          - USART1
 884:n32g430_std_periph_driver/src/n32g430_usart.c **** *\*\          - USART2
 885:n32g430_std_periph_driver/src/n32g430_usart.c **** *\*\return  none
 886:n32g430_std_periph_driver/src/n32g430_usart.c **** **/
 887:n32g430_std_periph_driver/src/n32g430_usart.c **** 
 888:n32g430_std_periph_driver/src/n32g430_usart.c **** void USART_Smart_Card_Enable(USART_Module* USARTx)
 889:n32g430_std_periph_driver/src/n32g430_usart.c **** {
 1377              		.loc 1 889 1 is_stmt 1 view -0
 1378              		.cfi_startproc
 1379              		@ args = 0, pretend = 0, frame = 0
 1380              		@ frame_needed = 0, uses_anonymous_args = 0
 1381              		@ link register save eliminated.
 890:n32g430_std_periph_driver/src/n32g430_usart.c **** 
 891:n32g430_std_periph_driver/src/n32g430_usart.c ****     
 892:n32g430_std_periph_driver/src/n32g430_usart.c ****     /* Enable the SC mode by setting the SCEN bit in the CTRL3 register */
 893:n32g430_std_periph_driver/src/n32g430_usart.c ****     USARTx->CTRL3 |= CTRL3_SCMEN_SET;
 1382              		.loc 1 893 5 view .LVU350
 1383              		.loc 1 893 11 is_stmt 0 view .LVU351
 1384 0000 838A     		ldrh	r3, [r0, #20]
 1385 0002 9BB2     		uxth	r3, r3
 1386              		.loc 1 893 19 view .LVU352
 1387 0004 43F02003 		orr	r3, r3, #32
 1388 0008 8382     		strh	r3, [r0, #20]	@ movhi
 894:n32g430_std_periph_driver/src/n32g430_usart.c **** 
 895:n32g430_std_periph_driver/src/n32g430_usart.c **** }
 1389              		.loc 1 895 1 view .LVU353
 1390 000a 7047     		bx	lr
 1391              		.cfi_endproc
 1392              	.LFE156:
 1394              		.section	.text.USART_Smart_Card_Disable,"ax",%progbits
 1395              		.align	1
 1396              		.global	USART_Smart_Card_Disable
 1397              		.syntax unified
 1398              		.thumb
 1399              		.thumb_func
 1401              	USART_Smart_Card_Disable:
 1402              	.LVL123:
 1403              	.LFB157:
 896:n32g430_std_periph_driver/src/n32g430_usart.c **** 
 897:n32g430_std_periph_driver/src/n32g430_usart.c **** /**
 898:n32g430_std_periph_driver/src/n32g430_usart.c **** *\*\name    USART_Smart_Card_Disable.
 899:n32g430_std_periph_driver/src/n32g430_usart.c **** *\*\fun     Disables the USART's Smart Card mode.
 900:n32g430_std_periph_driver/src/n32g430_usart.c **** *\*\param   USARTx :
 901:n32g430_std_periph_driver/src/n32g430_usart.c **** *\*\          - USART1
 902:n32g430_std_periph_driver/src/n32g430_usart.c **** *\*\          - USART2
 903:n32g430_std_periph_driver/src/n32g430_usart.c **** *\*\return  none
 904:n32g430_std_periph_driver/src/n32g430_usart.c **** **/
ARM GAS  C:\Users\Dawn\AppData\Local\Temp\ccSkpskc.s 			page 41


 905:n32g430_std_periph_driver/src/n32g430_usart.c **** 
 906:n32g430_std_periph_driver/src/n32g430_usart.c **** void USART_Smart_Card_Disable(USART_Module* USARTx)
 907:n32g430_std_periph_driver/src/n32g430_usart.c **** {
 1404              		.loc 1 907 1 is_stmt 1 view -0
 1405              		.cfi_startproc
 1406              		@ args = 0, pretend = 0, frame = 0
 1407              		@ frame_needed = 0, uses_anonymous_args = 0
 1408              		@ link register save eliminated.
 908:n32g430_std_periph_driver/src/n32g430_usart.c ****     /* Disable the Smart Card mode by clearing the SCEN bit in the CTRL3 register */
 909:n32g430_std_periph_driver/src/n32g430_usart.c ****     USARTx->CTRL3 &= CTRL3_SCMEN_RESET;
 1409              		.loc 1 909 5 view .LVU355
 1410              		.loc 1 909 11 is_stmt 0 view .LVU356
 1411 0000 838A     		ldrh	r3, [r0, #20]
 1412 0002 9BB2     		uxth	r3, r3
 1413              		.loc 1 909 19 view .LVU357
 1414 0004 23F02003 		bic	r3, r3, #32
 1415 0008 9BB2     		uxth	r3, r3
 1416 000a 8382     		strh	r3, [r0, #20]	@ movhi
 910:n32g430_std_periph_driver/src/n32g430_usart.c **** }
 1417              		.loc 1 910 1 view .LVU358
 1418 000c 7047     		bx	lr
 1419              		.cfi_endproc
 1420              	.LFE157:
 1422              		.section	.text.USART_Smart_Card_NACK_Enable,"ax",%progbits
 1423              		.align	1
 1424              		.global	USART_Smart_Card_NACK_Enable
 1425              		.syntax unified
 1426              		.thumb
 1427              		.thumb_func
 1429              	USART_Smart_Card_NACK_Enable:
 1430              	.LVL124:
 1431              	.LFB158:
 911:n32g430_std_periph_driver/src/n32g430_usart.c **** 
 912:n32g430_std_periph_driver/src/n32g430_usart.c **** /**
 913:n32g430_std_periph_driver/src/n32g430_usart.c **** *\*\name    USART_Smart_Card_NACK_Enable.
 914:n32g430_std_periph_driver/src/n32g430_usart.c **** *\*\fun     Enables Smart Card NACK transmission.
 915:n32g430_std_periph_driver/src/n32g430_usart.c **** *\*\param   USARTx :
 916:n32g430_std_periph_driver/src/n32g430_usart.c **** *\*\          - USART1
 917:n32g430_std_periph_driver/src/n32g430_usart.c **** *\*\          - USART2
 918:n32g430_std_periph_driver/src/n32g430_usart.c **** *\*\return  none
 919:n32g430_std_periph_driver/src/n32g430_usart.c **** **/
 920:n32g430_std_periph_driver/src/n32g430_usart.c **** void USART_Smart_Card_NACK_Enable(USART_Module* USARTx)
 921:n32g430_std_periph_driver/src/n32g430_usart.c **** {
 1432              		.loc 1 921 1 is_stmt 1 view -0
 1433              		.cfi_startproc
 1434              		@ args = 0, pretend = 0, frame = 0
 1435              		@ frame_needed = 0, uses_anonymous_args = 0
 1436              		@ link register save eliminated.
 922:n32g430_std_periph_driver/src/n32g430_usart.c **** 
 923:n32g430_std_periph_driver/src/n32g430_usart.c ****     /* Enable the Smart Card NACK transmission by setting the NACK bit in the CTRL3 register */
 924:n32g430_std_periph_driver/src/n32g430_usart.c ****     USARTx->CTRL3 |= CTRL3_SCNACK_SET;
 1437              		.loc 1 924 5 view .LVU360
 1438              		.loc 1 924 11 is_stmt 0 view .LVU361
 1439 0000 838A     		ldrh	r3, [r0, #20]
 1440 0002 9BB2     		uxth	r3, r3
 1441              		.loc 1 924 19 view .LVU362
 1442 0004 43F01003 		orr	r3, r3, #16
ARM GAS  C:\Users\Dawn\AppData\Local\Temp\ccSkpskc.s 			page 42


 1443 0008 8382     		strh	r3, [r0, #20]	@ movhi
 925:n32g430_std_periph_driver/src/n32g430_usart.c **** 
 926:n32g430_std_periph_driver/src/n32g430_usart.c **** }
 1444              		.loc 1 926 1 view .LVU363
 1445 000a 7047     		bx	lr
 1446              		.cfi_endproc
 1447              	.LFE158:
 1449              		.section	.text.USART_Smart_Card_NACK_Disable,"ax",%progbits
 1450              		.align	1
 1451              		.global	USART_Smart_Card_NACK_Disable
 1452              		.syntax unified
 1453              		.thumb
 1454              		.thumb_func
 1456              	USART_Smart_Card_NACK_Disable:
 1457              	.LVL125:
 1458              	.LFB159:
 927:n32g430_std_periph_driver/src/n32g430_usart.c **** 
 928:n32g430_std_periph_driver/src/n32g430_usart.c **** /**
 929:n32g430_std_periph_driver/src/n32g430_usart.c **** *\*\name    USART_Smart_Card_NACK_Disable.
 930:n32g430_std_periph_driver/src/n32g430_usart.c **** *\*\fun     Disables NACK transmission.
 931:n32g430_std_periph_driver/src/n32g430_usart.c **** *\*\param   USARTx :
 932:n32g430_std_periph_driver/src/n32g430_usart.c **** *\*\          - USART1
 933:n32g430_std_periph_driver/src/n32g430_usart.c **** *\*\          - USART2
 934:n32g430_std_periph_driver/src/n32g430_usart.c **** *\*\return  none
 935:n32g430_std_periph_driver/src/n32g430_usart.c **** **/
 936:n32g430_std_periph_driver/src/n32g430_usart.c **** void USART_Smart_Card_NACK_Disable(USART_Module* USARTx)
 937:n32g430_std_periph_driver/src/n32g430_usart.c **** {
 1459              		.loc 1 937 1 is_stmt 1 view -0
 1460              		.cfi_startproc
 1461              		@ args = 0, pretend = 0, frame = 0
 1462              		@ frame_needed = 0, uses_anonymous_args = 0
 1463              		@ link register save eliminated.
 938:n32g430_std_periph_driver/src/n32g430_usart.c **** 
 939:n32g430_std_periph_driver/src/n32g430_usart.c ****     /* Disable the NACK transmission by clearing the NACK bit in the CTRL3 register */
 940:n32g430_std_periph_driver/src/n32g430_usart.c ****     USARTx->CTRL3 &= CTRL3_SCNACK_RESET;
 1464              		.loc 1 940 5 view .LVU365
 1465              		.loc 1 940 11 is_stmt 0 view .LVU366
 1466 0000 838A     		ldrh	r3, [r0, #20]
 1467 0002 9BB2     		uxth	r3, r3
 1468              		.loc 1 940 19 view .LVU367
 1469 0004 23F01003 		bic	r3, r3, #16
 1470 0008 9BB2     		uxth	r3, r3
 1471 000a 8382     		strh	r3, [r0, #20]	@ movhi
 941:n32g430_std_periph_driver/src/n32g430_usart.c **** 
 942:n32g430_std_periph_driver/src/n32g430_usart.c **** }
 1472              		.loc 1 942 1 view .LVU368
 1473 000c 7047     		bx	lr
 1474              		.cfi_endproc
 1475              	.LFE159:
 1477              		.section	.text.USART_Half_Duplex_Enable,"ax",%progbits
 1478              		.align	1
 1479              		.global	USART_Half_Duplex_Enable
 1480              		.syntax unified
 1481              		.thumb
 1482              		.thumb_func
 1484              	USART_Half_Duplex_Enable:
 1485              	.LVL126:
ARM GAS  C:\Users\Dawn\AppData\Local\Temp\ccSkpskc.s 			page 43


 1486              	.LFB160:
 943:n32g430_std_periph_driver/src/n32g430_usart.c **** 
 944:n32g430_std_periph_driver/src/n32g430_usart.c **** /**
 945:n32g430_std_periph_driver/src/n32g430_usart.c **** *\*\name    USART_Half_Duplex_Enable.
 946:n32g430_std_periph_driver/src/n32g430_usart.c **** *\*\fun     Enables the USART's Half Duplex communication.
 947:n32g430_std_periph_driver/src/n32g430_usart.c **** *\*\param   USARTx :
 948:n32g430_std_periph_driver/src/n32g430_usart.c **** *\*\          - USART1
 949:n32g430_std_periph_driver/src/n32g430_usart.c **** *\*\          - USART2
 950:n32g430_std_periph_driver/src/n32g430_usart.c **** *\*\          - UART3
 951:n32g430_std_periph_driver/src/n32g430_usart.c **** *\*\          - UART4
 952:n32g430_std_periph_driver/src/n32g430_usart.c **** *\*\return  none
 953:n32g430_std_periph_driver/src/n32g430_usart.c **** **/
 954:n32g430_std_periph_driver/src/n32g430_usart.c **** 
 955:n32g430_std_periph_driver/src/n32g430_usart.c **** void USART_Half_Duplex_Enable(USART_Module* USARTx)
 956:n32g430_std_periph_driver/src/n32g430_usart.c **** {
 1487              		.loc 1 956 1 is_stmt 1 view -0
 1488              		.cfi_startproc
 1489              		@ args = 0, pretend = 0, frame = 0
 1490              		@ frame_needed = 0, uses_anonymous_args = 0
 1491              		@ link register save eliminated.
 957:n32g430_std_periph_driver/src/n32g430_usart.c **** 
 958:n32g430_std_periph_driver/src/n32g430_usart.c ****     /* Enable the Half-Duplex mode by setting the HDSEL bit in the CTRL3 register */
 959:n32g430_std_periph_driver/src/n32g430_usart.c ****     USARTx->CTRL3 |= CTRL3_HDMEN_SET;
 1492              		.loc 1 959 5 view .LVU370
 1493              		.loc 1 959 11 is_stmt 0 view .LVU371
 1494 0000 838A     		ldrh	r3, [r0, #20]
 1495 0002 9BB2     		uxth	r3, r3
 1496              		.loc 1 959 19 view .LVU372
 1497 0004 43F00803 		orr	r3, r3, #8
 1498 0008 8382     		strh	r3, [r0, #20]	@ movhi
 960:n32g430_std_periph_driver/src/n32g430_usart.c **** 
 961:n32g430_std_periph_driver/src/n32g430_usart.c **** }
 1499              		.loc 1 961 1 view .LVU373
 1500 000a 7047     		bx	lr
 1501              		.cfi_endproc
 1502              	.LFE160:
 1504              		.section	.text.USART_Half_Duplex_Disable,"ax",%progbits
 1505              		.align	1
 1506              		.global	USART_Half_Duplex_Disable
 1507              		.syntax unified
 1508              		.thumb
 1509              		.thumb_func
 1511              	USART_Half_Duplex_Disable:
 1512              	.LVL127:
 1513              	.LFB161:
 962:n32g430_std_periph_driver/src/n32g430_usart.c **** 
 963:n32g430_std_periph_driver/src/n32g430_usart.c **** /**
 964:n32g430_std_periph_driver/src/n32g430_usart.c **** *\*\name    USART_Half_Duplex_Disable.
 965:n32g430_std_periph_driver/src/n32g430_usart.c **** *\*\fun     Disables the USART's Half Duplex communication.
 966:n32g430_std_periph_driver/src/n32g430_usart.c **** *\*\param   USARTx :
 967:n32g430_std_periph_driver/src/n32g430_usart.c **** *\*\          - USART1
 968:n32g430_std_periph_driver/src/n32g430_usart.c **** *\*\          - USART2
 969:n32g430_std_periph_driver/src/n32g430_usart.c **** *\*\          - UART3
 970:n32g430_std_periph_driver/src/n32g430_usart.c **** *\*\          - UART4
 971:n32g430_std_periph_driver/src/n32g430_usart.c **** *\*\return  none
 972:n32g430_std_periph_driver/src/n32g430_usart.c **** **/
 973:n32g430_std_periph_driver/src/n32g430_usart.c **** 
ARM GAS  C:\Users\Dawn\AppData\Local\Temp\ccSkpskc.s 			page 44


 974:n32g430_std_periph_driver/src/n32g430_usart.c **** void USART_Half_Duplex_Disable(USART_Module* USARTx)
 975:n32g430_std_periph_driver/src/n32g430_usart.c **** {
 1514              		.loc 1 975 1 is_stmt 1 view -0
 1515              		.cfi_startproc
 1516              		@ args = 0, pretend = 0, frame = 0
 1517              		@ frame_needed = 0, uses_anonymous_args = 0
 1518              		@ link register save eliminated.
 976:n32g430_std_periph_driver/src/n32g430_usart.c **** 
 977:n32g430_std_periph_driver/src/n32g430_usart.c ****     /* Disable the Half-Duplex mode by clearing the HDSEL bit in the CTRL3 register */
 978:n32g430_std_periph_driver/src/n32g430_usart.c ****     USARTx->CTRL3 &= CTRL3_HDMEN_RESET;
 1519              		.loc 1 978 5 view .LVU375
 1520              		.loc 1 978 11 is_stmt 0 view .LVU376
 1521 0000 838A     		ldrh	r3, [r0, #20]
 1522 0002 9BB2     		uxth	r3, r3
 1523              		.loc 1 978 19 view .LVU377
 1524 0004 23F00803 		bic	r3, r3, #8
 1525 0008 9BB2     		uxth	r3, r3
 1526 000a 8382     		strh	r3, [r0, #20]	@ movhi
 979:n32g430_std_periph_driver/src/n32g430_usart.c **** 
 980:n32g430_std_periph_driver/src/n32g430_usart.c **** }
 1527              		.loc 1 980 1 view .LVU378
 1528 000c 7047     		bx	lr
 1529              		.cfi_endproc
 1530              	.LFE161:
 1532              		.section	.text.USART_IrDA_Mode_Set,"ax",%progbits
 1533              		.align	1
 1534              		.global	USART_IrDA_Mode_Set
 1535              		.syntax unified
 1536              		.thumb
 1537              		.thumb_func
 1539              	USART_IrDA_Mode_Set:
 1540              	.LVL128:
 1541              	.LFB162:
 981:n32g430_std_periph_driver/src/n32g430_usart.c **** 
 982:n32g430_std_periph_driver/src/n32g430_usart.c **** /**
 983:n32g430_std_periph_driver/src/n32g430_usart.c **** *\*\name    USART_IrDA_Mode_Set.
 984:n32g430_std_periph_driver/src/n32g430_usart.c **** *\*\fun     Configures the USART's IrDA interface.
 985:n32g430_std_periph_driver/src/n32g430_usart.c **** *\*\param   USARTx :
 986:n32g430_std_periph_driver/src/n32g430_usart.c **** *\*\          - USART1
 987:n32g430_std_periph_driver/src/n32g430_usart.c **** *\*\          - USART2
 988:n32g430_std_periph_driver/src/n32g430_usart.c **** *\*\          - UART3
 989:n32g430_std_periph_driver/src/n32g430_usart.c **** *\*\          - UART4
 990:n32g430_std_periph_driver/src/n32g430_usart.c **** *\*\param   USART_IrDA_mode :
 991:n32g430_std_periph_driver/src/n32g430_usart.c **** *\*\          - USART_IRDAMODE_LOWPPWER
 992:n32g430_std_periph_driver/src/n32g430_usart.c **** *\*\          - USART_IRDAMODE_NORMAL
 993:n32g430_std_periph_driver/src/n32g430_usart.c **** *\*\return  none
 994:n32g430_std_periph_driver/src/n32g430_usart.c **** **/
 995:n32g430_std_periph_driver/src/n32g430_usart.c **** 
 996:n32g430_std_periph_driver/src/n32g430_usart.c **** void USART_IrDA_Mode_Set(USART_Module* USARTx, uint16_t USART_IrDA_mode)
 997:n32g430_std_periph_driver/src/n32g430_usart.c **** {
 1542              		.loc 1 997 1 is_stmt 1 view -0
 1543              		.cfi_startproc
 1544              		@ args = 0, pretend = 0, frame = 0
 1545              		@ frame_needed = 0, uses_anonymous_args = 0
 1546              		@ link register save eliminated.
 998:n32g430_std_periph_driver/src/n32g430_usart.c **** 
 999:n32g430_std_periph_driver/src/n32g430_usart.c ****     USARTx->CTRL3 &= CTRL3_IRDALP_MASK;
ARM GAS  C:\Users\Dawn\AppData\Local\Temp\ccSkpskc.s 			page 45


 1547              		.loc 1 999 5 view .LVU380
 1548              		.loc 1 999 11 is_stmt 0 view .LVU381
 1549 0000 838A     		ldrh	r3, [r0, #20]
 1550 0002 9BB2     		uxth	r3, r3
 1551              		.loc 1 999 19 view .LVU382
 1552 0004 23F00403 		bic	r3, r3, #4
 1553 0008 9BB2     		uxth	r3, r3
 1554 000a 8382     		strh	r3, [r0, #20]	@ movhi
1000:n32g430_std_periph_driver/src/n32g430_usart.c ****     USARTx->CTRL3 |= USART_IrDA_mode;
 1555              		.loc 1 1000 5 is_stmt 1 view .LVU383
 1556              		.loc 1 1000 11 is_stmt 0 view .LVU384
 1557 000c 838A     		ldrh	r3, [r0, #20]
 1558 000e 9BB2     		uxth	r3, r3
 1559              		.loc 1 1000 19 view .LVU385
 1560 0010 0B43     		orrs	r3, r3, r1
 1561 0012 8382     		strh	r3, [r0, #20]	@ movhi
1001:n32g430_std_periph_driver/src/n32g430_usart.c **** }
 1562              		.loc 1 1001 1 view .LVU386
 1563 0014 7047     		bx	lr
 1564              		.cfi_endproc
 1565              	.LFE162:
 1567              		.section	.text.USART_IrDA_Enable,"ax",%progbits
 1568              		.align	1
 1569              		.global	USART_IrDA_Enable
 1570              		.syntax unified
 1571              		.thumb
 1572              		.thumb_func
 1574              	USART_IrDA_Enable:
 1575              	.LVL129:
 1576              	.LFB163:
1002:n32g430_std_periph_driver/src/n32g430_usart.c **** 
1003:n32g430_std_periph_driver/src/n32g430_usart.c **** /**
1004:n32g430_std_periph_driver/src/n32g430_usart.c **** *\*\name    USART_IrDA_Enable.
1005:n32g430_std_periph_driver/src/n32g430_usart.c **** *\*\fun     Enables the USART's IrDA interface.
1006:n32g430_std_periph_driver/src/n32g430_usart.c **** *\*\param   USARTx :
1007:n32g430_std_periph_driver/src/n32g430_usart.c **** *\*\          - USART1
1008:n32g430_std_periph_driver/src/n32g430_usart.c **** *\*\          - USART2
1009:n32g430_std_periph_driver/src/n32g430_usart.c **** *\*\          - UART3
1010:n32g430_std_periph_driver/src/n32g430_usart.c **** *\*\          - UART4
1011:n32g430_std_periph_driver/src/n32g430_usart.c **** *\*\return  none
1012:n32g430_std_periph_driver/src/n32g430_usart.c **** **/
1013:n32g430_std_periph_driver/src/n32g430_usart.c **** 
1014:n32g430_std_periph_driver/src/n32g430_usart.c **** void USART_IrDA_Enable(USART_Module* USARTx)
1015:n32g430_std_periph_driver/src/n32g430_usart.c **** {
 1577              		.loc 1 1015 1 is_stmt 1 view -0
 1578              		.cfi_startproc
 1579              		@ args = 0, pretend = 0, frame = 0
 1580              		@ frame_needed = 0, uses_anonymous_args = 0
 1581              		@ link register save eliminated.
1016:n32g430_std_periph_driver/src/n32g430_usart.c **** 
1017:n32g430_std_periph_driver/src/n32g430_usart.c ****     /* Enable the IrDA mode by setting the IREN bit in the CTRL3 register */
1018:n32g430_std_periph_driver/src/n32g430_usart.c ****     USARTx->CTRL3 |= CTRL3_IRDAMEN_SET;
 1582              		.loc 1 1018 5 view .LVU388
 1583              		.loc 1 1018 11 is_stmt 0 view .LVU389
 1584 0000 838A     		ldrh	r3, [r0, #20]
 1585 0002 9BB2     		uxth	r3, r3
 1586              		.loc 1 1018 19 view .LVU390
ARM GAS  C:\Users\Dawn\AppData\Local\Temp\ccSkpskc.s 			page 46


 1587 0004 43F00203 		orr	r3, r3, #2
 1588 0008 8382     		strh	r3, [r0, #20]	@ movhi
1019:n32g430_std_periph_driver/src/n32g430_usart.c **** 
1020:n32g430_std_periph_driver/src/n32g430_usart.c **** }
 1589              		.loc 1 1020 1 view .LVU391
 1590 000a 7047     		bx	lr
 1591              		.cfi_endproc
 1592              	.LFE163:
 1594              		.section	.text.USART_IrDA_Disable,"ax",%progbits
 1595              		.align	1
 1596              		.global	USART_IrDA_Disable
 1597              		.syntax unified
 1598              		.thumb
 1599              		.thumb_func
 1601              	USART_IrDA_Disable:
 1602              	.LVL130:
 1603              	.LFB164:
1021:n32g430_std_periph_driver/src/n32g430_usart.c **** 
1022:n32g430_std_periph_driver/src/n32g430_usart.c **** /**
1023:n32g430_std_periph_driver/src/n32g430_usart.c **** *\*\name    USART_IrDA_Disable.
1024:n32g430_std_periph_driver/src/n32g430_usart.c **** *\*\fun     Disables the USART's IrDA interface.
1025:n32g430_std_periph_driver/src/n32g430_usart.c **** *\*\param   USARTx :
1026:n32g430_std_periph_driver/src/n32g430_usart.c **** *\*\          - USART1
1027:n32g430_std_periph_driver/src/n32g430_usart.c **** *\*\          - USART2
1028:n32g430_std_periph_driver/src/n32g430_usart.c **** *\*\          - UART3
1029:n32g430_std_periph_driver/src/n32g430_usart.c **** *\*\          - UART4
1030:n32g430_std_periph_driver/src/n32g430_usart.c **** *\*\return  none
1031:n32g430_std_periph_driver/src/n32g430_usart.c **** **/
1032:n32g430_std_periph_driver/src/n32g430_usart.c **** 
1033:n32g430_std_periph_driver/src/n32g430_usart.c **** void USART_IrDA_Disable(USART_Module* USARTx)
1034:n32g430_std_periph_driver/src/n32g430_usart.c **** {
 1604              		.loc 1 1034 1 is_stmt 1 view -0
 1605              		.cfi_startproc
 1606              		@ args = 0, pretend = 0, frame = 0
 1607              		@ frame_needed = 0, uses_anonymous_args = 0
 1608              		@ link register save eliminated.
1035:n32g430_std_periph_driver/src/n32g430_usart.c **** 
1036:n32g430_std_periph_driver/src/n32g430_usart.c ****     /* Disable the IrDA mode by clearing the IREN bit in the CTRL3 register */
1037:n32g430_std_periph_driver/src/n32g430_usart.c ****     USARTx->CTRL3 &= CTRL3_IRDAMEN_RESET;
 1609              		.loc 1 1037 5 view .LVU393
 1610              		.loc 1 1037 11 is_stmt 0 view .LVU394
 1611 0000 838A     		ldrh	r3, [r0, #20]
 1612 0002 9BB2     		uxth	r3, r3
 1613              		.loc 1 1037 19 view .LVU395
 1614 0004 23F00203 		bic	r3, r3, #2
 1615 0008 9BB2     		uxth	r3, r3
 1616 000a 8382     		strh	r3, [r0, #20]	@ movhi
1038:n32g430_std_periph_driver/src/n32g430_usart.c **** 
1039:n32g430_std_periph_driver/src/n32g430_usart.c **** }
 1617              		.loc 1 1039 1 view .LVU396
 1618 000c 7047     		bx	lr
 1619              		.cfi_endproc
 1620              	.LFE164:
 1622              		.section	.text.USART_Flag_Status_Get,"ax",%progbits
 1623              		.align	1
 1624              		.global	USART_Flag_Status_Get
 1625              		.syntax unified
ARM GAS  C:\Users\Dawn\AppData\Local\Temp\ccSkpskc.s 			page 47


 1626              		.thumb
 1627              		.thumb_func
 1629              	USART_Flag_Status_Get:
 1630              	.LVL131:
 1631              	.LFB165:
1040:n32g430_std_periph_driver/src/n32g430_usart.c **** 
1041:n32g430_std_periph_driver/src/n32g430_usart.c **** /**
1042:n32g430_std_periph_driver/src/n32g430_usart.c **** *\*\name    USART_Flag_Status_Get.
1043:n32g430_std_periph_driver/src/n32g430_usart.c **** *\*\fun     Checks whether the specified USART flag is set or not.
1044:n32g430_std_periph_driver/src/n32g430_usart.c **** *\*\param   USARTx :
1045:n32g430_std_periph_driver/src/n32g430_usart.c **** *\*\          - USART1
1046:n32g430_std_periph_driver/src/n32g430_usart.c **** *\*\          - USART2
1047:n32g430_std_periph_driver/src/n32g430_usart.c **** *\*\          - UART3
1048:n32g430_std_periph_driver/src/n32g430_usart.c **** *\*\          - UART4
1049:n32g430_std_periph_driver/src/n32g430_usart.c **** *\*\param   USART_flag :
1050:n32g430_std_periph_driver/src/n32g430_usart.c **** *\*\          - USART_FLAG_CTSF
1051:n32g430_std_periph_driver/src/n32g430_usart.c **** *\*\          - USART_FLAG_LINBD
1052:n32g430_std_periph_driver/src/n32g430_usart.c **** *\*\          - USART_FLAG_TXDE
1053:n32g430_std_periph_driver/src/n32g430_usart.c **** *\*\          - USART_FLAG_TXC
1054:n32g430_std_periph_driver/src/n32g430_usart.c **** *\*\          - USART_FLAG_RXDNE
1055:n32g430_std_periph_driver/src/n32g430_usart.c **** *\*\          - USART_FLAG_IDLEF
1056:n32g430_std_periph_driver/src/n32g430_usart.c **** *\*\          - USART_FLAG_OREF
1057:n32g430_std_periph_driver/src/n32g430_usart.c **** *\*\          - USART_FLAG_NEF
1058:n32g430_std_periph_driver/src/n32g430_usart.c **** *\*\          - USART_FLAG_FEF
1059:n32g430_std_periph_driver/src/n32g430_usart.c **** *\*\          - USART_FLAG_PEF
1060:n32g430_std_periph_driver/src/n32g430_usart.c **** *\*\return  SET or RESET
1061:n32g430_std_periph_driver/src/n32g430_usart.c **** **/
1062:n32g430_std_periph_driver/src/n32g430_usart.c **** 
1063:n32g430_std_periph_driver/src/n32g430_usart.c **** FlagStatus USART_Flag_Status_Get(USART_Module* USARTx, uint16_t USART_flag)
1064:n32g430_std_periph_driver/src/n32g430_usart.c **** {
 1632              		.loc 1 1064 1 is_stmt 1 view -0
 1633              		.cfi_startproc
 1634              		@ args = 0, pretend = 0, frame = 0
 1635              		@ frame_needed = 0, uses_anonymous_args = 0
 1636              		@ link register save eliminated.
1065:n32g430_std_periph_driver/src/n32g430_usart.c **** 
1066:n32g430_std_periph_driver/src/n32g430_usart.c ****     if ((USARTx->STS & USART_flag) != (uint16_t)RESET)
 1637              		.loc 1 1066 5 view .LVU398
 1638              		.loc 1 1066 16 is_stmt 0 view .LVU399
 1639 0000 0388     		ldrh	r3, [r0]
 1640              		.loc 1 1066 8 view .LVU400
 1641 0002 1942     		tst	r1, r3
 1642 0004 01D0     		beq	.L74
1067:n32g430_std_periph_driver/src/n32g430_usart.c ****     {
1068:n32g430_std_periph_driver/src/n32g430_usart.c ****        return SET;
 1643              		.loc 1 1068 15 view .LVU401
 1644 0006 0120     		movs	r0, #1
 1645              	.LVL132:
 1646              		.loc 1 1068 15 view .LVU402
 1647 0008 7047     		bx	lr
 1648              	.LVL133:
 1649              	.L74:
1069:n32g430_std_periph_driver/src/n32g430_usart.c ****     }
1070:n32g430_std_periph_driver/src/n32g430_usart.c ****     else
1071:n32g430_std_periph_driver/src/n32g430_usart.c ****     {
1072:n32g430_std_periph_driver/src/n32g430_usart.c ****         return RESET;
 1650              		.loc 1 1072 16 view .LVU403
ARM GAS  C:\Users\Dawn\AppData\Local\Temp\ccSkpskc.s 			page 48


 1651 000a 0020     		movs	r0, #0
 1652              	.LVL134:
1073:n32g430_std_periph_driver/src/n32g430_usart.c ****     }
1074:n32g430_std_periph_driver/src/n32g430_usart.c **** 
1075:n32g430_std_periph_driver/src/n32g430_usart.c **** }
 1653              		.loc 1 1075 1 view .LVU404
 1654 000c 7047     		bx	lr
 1655              		.cfi_endproc
 1656              	.LFE165:
 1658              		.section	.text.USART_Flag_Clear,"ax",%progbits
 1659              		.align	1
 1660              		.global	USART_Flag_Clear
 1661              		.syntax unified
 1662              		.thumb
 1663              		.thumb_func
 1665              	USART_Flag_Clear:
 1666              	.LVL135:
 1667              	.LFB166:
1076:n32g430_std_periph_driver/src/n32g430_usart.c **** 
1077:n32g430_std_periph_driver/src/n32g430_usart.c **** /**
1078:n32g430_std_periph_driver/src/n32g430_usart.c **** *\*\name    USART_Flag_Clear.
1079:n32g430_std_periph_driver/src/n32g430_usart.c **** *\*\fun     Clears the USARTx's pending flags.
1080:n32g430_std_periph_driver/src/n32g430_usart.c **** *\*\param   USARTx :
1081:n32g430_std_periph_driver/src/n32g430_usart.c **** *\*\          - USART1
1082:n32g430_std_periph_driver/src/n32g430_usart.c **** *\*\          - USART2
1083:n32g430_std_periph_driver/src/n32g430_usart.c **** *\*\          - UART3
1084:n32g430_std_periph_driver/src/n32g430_usart.c **** *\*\          - UART4
1085:n32g430_std_periph_driver/src/n32g430_usart.c **** *\*\param   USART_flag :
1086:n32g430_std_periph_driver/src/n32g430_usart.c **** *\*\          - USART_FLAG_CTSF
1087:n32g430_std_periph_driver/src/n32g430_usart.c **** *\*\          - USART_FLAG_LINBD
1088:n32g430_std_periph_driver/src/n32g430_usart.c **** *\*\          - USART_FLAG_TXC
1089:n32g430_std_periph_driver/src/n32g430_usart.c **** *\*\          - USART_FLAG_RXDNE
1090:n32g430_std_periph_driver/src/n32g430_usart.c **** *\*\return  none
1091:n32g430_std_periph_driver/src/n32g430_usart.c **** **/
1092:n32g430_std_periph_driver/src/n32g430_usart.c **** 
1093:n32g430_std_periph_driver/src/n32g430_usart.c **** void USART_Flag_Clear(USART_Module* USARTx, uint16_t USART_flag)
1094:n32g430_std_periph_driver/src/n32g430_usart.c **** {
 1668              		.loc 1 1094 1 is_stmt 1 view -0
 1669              		.cfi_startproc
 1670              		@ args = 0, pretend = 0, frame = 0
 1671              		@ frame_needed = 0, uses_anonymous_args = 0
 1672              		@ link register save eliminated.
1095:n32g430_std_periph_driver/src/n32g430_usart.c **** 
1096:n32g430_std_periph_driver/src/n32g430_usart.c ****     USARTx->STS = (uint16_t)~USART_flag;
 1673              		.loc 1 1096 5 view .LVU406
 1674              		.loc 1 1096 19 is_stmt 0 view .LVU407
 1675 0000 C943     		mvns	r1, r1
 1676              	.LVL136:
 1677              		.loc 1 1096 19 view .LVU408
 1678 0002 89B2     		uxth	r1, r1
 1679              	.LVL137:
 1680              		.loc 1 1096 17 view .LVU409
 1681 0004 0180     		strh	r1, [r0]	@ movhi
1097:n32g430_std_periph_driver/src/n32g430_usart.c **** }
 1682              		.loc 1 1097 1 view .LVU410
 1683 0006 7047     		bx	lr
 1684              		.cfi_endproc
ARM GAS  C:\Users\Dawn\AppData\Local\Temp\ccSkpskc.s 			page 49


 1685              	.LFE166:
 1687              		.section	.text.USART_Interrupt_Status_Get,"ax",%progbits
 1688              		.align	1
 1689              		.global	USART_Interrupt_Status_Get
 1690              		.syntax unified
 1691              		.thumb
 1692              		.thumb_func
 1694              	USART_Interrupt_Status_Get:
 1695              	.LVL138:
 1696              	.LFB167:
1098:n32g430_std_periph_driver/src/n32g430_usart.c **** 
1099:n32g430_std_periph_driver/src/n32g430_usart.c **** /**
1100:n32g430_std_periph_driver/src/n32g430_usart.c **** *\*\name    USART_Interrupt_Status_Get.
1101:n32g430_std_periph_driver/src/n32g430_usart.c **** *\*\fun     Checks whether the specified USART interrupt has occurred or not.
1102:n32g430_std_periph_driver/src/n32g430_usart.c **** *\*\param   USARTx :
1103:n32g430_std_periph_driver/src/n32g430_usart.c **** *\*\          - USART1
1104:n32g430_std_periph_driver/src/n32g430_usart.c **** *\*\          - USART2
1105:n32g430_std_periph_driver/src/n32g430_usart.c **** *\*\          - UART3
1106:n32g430_std_periph_driver/src/n32g430_usart.c **** *\*\          - UART4
1107:n32g430_std_periph_driver/src/n32g430_usart.c **** *\*\param   USART_interrupt :
1108:n32g430_std_periph_driver/src/n32g430_usart.c **** *\*\          - USART_INT_CTSF
1109:n32g430_std_periph_driver/src/n32g430_usart.c **** *\*\          - USART_INT_LINBD
1110:n32g430_std_periph_driver/src/n32g430_usart.c **** *\*\          - USART_INT_TXDE
1111:n32g430_std_periph_driver/src/n32g430_usart.c **** *\*\          - USART_INT_TXC
1112:n32g430_std_periph_driver/src/n32g430_usart.c **** *\*\          - USART_INT_RXDNE
1113:n32g430_std_periph_driver/src/n32g430_usart.c **** *\*\          - USART_INT_IDLEF
1114:n32g430_std_periph_driver/src/n32g430_usart.c **** *\*\          - USART_INT_OREF
1115:n32g430_std_periph_driver/src/n32g430_usart.c **** *\*\          - USART_INT_NEF
1116:n32g430_std_periph_driver/src/n32g430_usart.c **** *\*\          - USART_INT_FEF
1117:n32g430_std_periph_driver/src/n32g430_usart.c **** *\*\          - USART_INT_PEF
1118:n32g430_std_periph_driver/src/n32g430_usart.c **** *\*\return  SET or RESET
1119:n32g430_std_periph_driver/src/n32g430_usart.c **** **/
1120:n32g430_std_periph_driver/src/n32g430_usart.c **** 
1121:n32g430_std_periph_driver/src/n32g430_usart.c **** INTStatus USART_Interrupt_Status_Get(USART_Module* USARTx, uint16_t USART_interrupt)
1122:n32g430_std_periph_driver/src/n32g430_usart.c **** {
 1697              		.loc 1 1122 1 is_stmt 1 view -0
 1698              		.cfi_startproc
 1699              		@ args = 0, pretend = 0, frame = 0
 1700              		@ frame_needed = 0, uses_anonymous_args = 0
 1701              		@ link register save eliminated.
1123:n32g430_std_periph_driver/src/n32g430_usart.c ****     uint32_t bit_position = 0x00, temp_value = 0x00, register_value = 0x00;
 1702              		.loc 1 1123 5 view .LVU412
1124:n32g430_std_periph_driver/src/n32g430_usart.c **** 
1125:n32g430_std_periph_driver/src/n32g430_usart.c **** 
1126:n32g430_std_periph_driver/src/n32g430_usart.c **** 
1127:n32g430_std_periph_driver/src/n32g430_usart.c ****     /* Get the USART register index */
1128:n32g430_std_periph_driver/src/n32g430_usart.c ****     register_value = (((uint8_t)USART_interrupt) >> USART_CTRL_INDEX_OFFSET);
 1703              		.loc 1 1128 5 view .LVU413
 1704              		.loc 1 1128 50 is_stmt 0 view .LVU414
 1705 0000 C1F34212 		ubfx	r2, r1, #5, #3
 1706              	.LVL139:
1129:n32g430_std_periph_driver/src/n32g430_usart.c ****     /* Get the interrupt position */
1130:n32g430_std_periph_driver/src/n32g430_usart.c ****     temp_value = USART_interrupt & INT_MASK;
 1707              		.loc 1 1130 5 is_stmt 1 view .LVU415
 1708              		.loc 1 1130 16 is_stmt 0 view .LVU416
 1709 0004 01F01F0C 		and	ip, r1, #31
 1710              	.LVL140:
ARM GAS  C:\Users\Dawn\AppData\Local\Temp\ccSkpskc.s 			page 50


1131:n32g430_std_periph_driver/src/n32g430_usart.c ****     temp_value = (uint32_t)0x01 << temp_value;
 1711              		.loc 1 1131 5 is_stmt 1 view .LVU417
 1712              		.loc 1 1131 16 is_stmt 0 view .LVU418
 1713 0008 0123     		movs	r3, #1
 1714 000a 03FA0CF3 		lsl	r3, r3, ip
 1715              	.LVL141:
1132:n32g430_std_periph_driver/src/n32g430_usart.c **** 
1133:n32g430_std_periph_driver/src/n32g430_usart.c ****     if (register_value == 0x01) /* The IT  is in CTRL1 register */
 1716              		.loc 1 1133 5 is_stmt 1 view .LVU419
 1717              		.loc 1 1133 8 is_stmt 0 view .LVU420
 1718 000e 012A     		cmp	r2, #1
 1719 0010 0FD0     		beq	.L83
1134:n32g430_std_periph_driver/src/n32g430_usart.c ****     {
1135:n32g430_std_periph_driver/src/n32g430_usart.c ****         temp_value &= USARTx->CTRL1;
1136:n32g430_std_periph_driver/src/n32g430_usart.c ****     }
1137:n32g430_std_periph_driver/src/n32g430_usart.c ****     else if (register_value == 0x02) /* The IT  is in CTRL2 register */
 1720              		.loc 1 1137 10 is_stmt 1 view .LVU421
 1721              		.loc 1 1137 13 is_stmt 0 view .LVU422
 1722 0012 022A     		cmp	r2, #2
 1723 0014 11D0     		beq	.L84
1138:n32g430_std_periph_driver/src/n32g430_usart.c ****     {
1139:n32g430_std_periph_driver/src/n32g430_usart.c ****         temp_value &= USARTx->CTRL2;
1140:n32g430_std_periph_driver/src/n32g430_usart.c ****     }
1141:n32g430_std_periph_driver/src/n32g430_usart.c ****     else /* The IT  is in CTRL3 register */
1142:n32g430_std_periph_driver/src/n32g430_usart.c ****     {
1143:n32g430_std_periph_driver/src/n32g430_usart.c ****         temp_value &= USARTx->CTRL3;
 1724              		.loc 1 1143 9 is_stmt 1 view .LVU423
 1725              		.loc 1 1143 29 is_stmt 0 view .LVU424
 1726 0016 828A     		ldrh	r2, [r0, #20]
 1727              	.LVL142:
 1728              		.loc 1 1143 29 view .LVU425
 1729 0018 92B2     		uxth	r2, r2
 1730              		.loc 1 1143 20 view .LVU426
 1731 001a 1340     		ands	r3, r3, r2
 1732              	.LVL143:
 1733              	.L78:
1144:n32g430_std_periph_driver/src/n32g430_usart.c ****     }
1145:n32g430_std_periph_driver/src/n32g430_usart.c **** 
1146:n32g430_std_periph_driver/src/n32g430_usart.c ****     bit_position = USART_interrupt >> USART_STS_INT_BIT_OFFSET;
 1734              		.loc 1 1146 5 is_stmt 1 view .LVU427
 1735              		.loc 1 1146 36 is_stmt 0 view .LVU428
 1736 001c 090A     		lsrs	r1, r1, #8
 1737              	.LVL144:
1147:n32g430_std_periph_driver/src/n32g430_usart.c ****     bit_position = (uint32_t)0x01 << bit_position;
 1738              		.loc 1 1147 5 is_stmt 1 view .LVU429
 1739              		.loc 1 1147 18 is_stmt 0 view .LVU430
 1740 001e 0122     		movs	r2, #1
 1741 0020 02FA01F1 		lsl	r1, r2, r1
 1742              	.LVL145:
1148:n32g430_std_periph_driver/src/n32g430_usart.c ****     bit_position &= USARTx->STS;
 1743              		.loc 1 1148 5 is_stmt 1 view .LVU431
 1744              		.loc 1 1148 27 is_stmt 0 view .LVU432
 1745 0024 0288     		ldrh	r2, [r0]
 1746 0026 92B2     		uxth	r2, r2
 1747              		.loc 1 1148 18 view .LVU433
 1748 0028 0A40     		ands	r2, r2, r1
 1749              	.LVL146:
ARM GAS  C:\Users\Dawn\AppData\Local\Temp\ccSkpskc.s 			page 51


1149:n32g430_std_periph_driver/src/n32g430_usart.c ****     if ((temp_value != (uint16_t)RESET) && (bit_position != (uint16_t)RESET))
 1750              		.loc 1 1149 5 is_stmt 1 view .LVU434
 1751              		.loc 1 1149 8 is_stmt 0 view .LVU435
 1752 002a 53B1     		cbz	r3, .L81
 1753              		.loc 1 1149 41 discriminator 1 view .LVU436
 1754 002c 5AB9     		cbnz	r2, .L82
1150:n32g430_std_periph_driver/src/n32g430_usart.c ****     {
1151:n32g430_std_periph_driver/src/n32g430_usart.c ****         return SET;
1152:n32g430_std_periph_driver/src/n32g430_usart.c ****     }
1153:n32g430_std_periph_driver/src/n32g430_usart.c ****     else
1154:n32g430_std_periph_driver/src/n32g430_usart.c ****     {
1155:n32g430_std_periph_driver/src/n32g430_usart.c ****         return RESET;
 1755              		.loc 1 1155 16 view .LVU437
 1756 002e 0020     		movs	r0, #0
 1757              	.LVL147:
 1758              		.loc 1 1155 16 view .LVU438
 1759 0030 7047     		bx	lr
 1760              	.LVL148:
 1761              	.L83:
1135:n32g430_std_periph_driver/src/n32g430_usart.c ****     }
 1762              		.loc 1 1135 9 is_stmt 1 view .LVU439
1135:n32g430_std_periph_driver/src/n32g430_usart.c ****     }
 1763              		.loc 1 1135 29 is_stmt 0 view .LVU440
 1764 0032 8289     		ldrh	r2, [r0, #12]
 1765              	.LVL149:
1135:n32g430_std_periph_driver/src/n32g430_usart.c ****     }
 1766              		.loc 1 1135 29 view .LVU441
 1767 0034 92B2     		uxth	r2, r2
1135:n32g430_std_periph_driver/src/n32g430_usart.c ****     }
 1768              		.loc 1 1135 20 view .LVU442
 1769 0036 1340     		ands	r3, r3, r2
 1770              	.LVL150:
1135:n32g430_std_periph_driver/src/n32g430_usart.c ****     }
 1771              		.loc 1 1135 20 view .LVU443
 1772 0038 F0E7     		b	.L78
 1773              	.LVL151:
 1774              	.L84:
1139:n32g430_std_periph_driver/src/n32g430_usart.c ****     }
 1775              		.loc 1 1139 9 is_stmt 1 view .LVU444
1139:n32g430_std_periph_driver/src/n32g430_usart.c ****     }
 1776              		.loc 1 1139 29 is_stmt 0 view .LVU445
 1777 003a 028A     		ldrh	r2, [r0, #16]
 1778              	.LVL152:
1139:n32g430_std_periph_driver/src/n32g430_usart.c ****     }
 1779              		.loc 1 1139 29 view .LVU446
 1780 003c 92B2     		uxth	r2, r2
1139:n32g430_std_periph_driver/src/n32g430_usart.c ****     }
 1781              		.loc 1 1139 20 view .LVU447
 1782 003e 1340     		ands	r3, r3, r2
 1783              	.LVL153:
1139:n32g430_std_periph_driver/src/n32g430_usart.c ****     }
 1784              		.loc 1 1139 20 view .LVU448
 1785 0040 ECE7     		b	.L78
 1786              	.LVL154:
 1787              	.L81:
 1788              		.loc 1 1155 16 view .LVU449
 1789 0042 0020     		movs	r0, #0
ARM GAS  C:\Users\Dawn\AppData\Local\Temp\ccSkpskc.s 			page 52


 1790              	.LVL155:
 1791              		.loc 1 1155 16 view .LVU450
 1792 0044 7047     		bx	lr
 1793              	.LVL156:
 1794              	.L82:
1151:n32g430_std_periph_driver/src/n32g430_usart.c ****     }
 1795              		.loc 1 1151 16 view .LVU451
 1796 0046 0120     		movs	r0, #1
 1797              	.LVL157:
1156:n32g430_std_periph_driver/src/n32g430_usart.c ****     }
1157:n32g430_std_periph_driver/src/n32g430_usart.c **** 
1158:n32g430_std_periph_driver/src/n32g430_usart.c **** 
1159:n32g430_std_periph_driver/src/n32g430_usart.c **** }
 1798              		.loc 1 1159 1 view .LVU452
 1799 0048 7047     		bx	lr
 1800              		.cfi_endproc
 1801              	.LFE167:
 1803              		.section	.text.USART_Interrupt_Status_Clear,"ax",%progbits
 1804              		.align	1
 1805              		.global	USART_Interrupt_Status_Clear
 1806              		.syntax unified
 1807              		.thumb
 1808              		.thumb_func
 1810              	USART_Interrupt_Status_Clear:
 1811              	.LVL158:
 1812              	.LFB168:
1160:n32g430_std_periph_driver/src/n32g430_usart.c **** 
1161:n32g430_std_periph_driver/src/n32g430_usart.c **** /**
1162:n32g430_std_periph_driver/src/n32g430_usart.c **** *\*\name    USART_Interrupt_Status_Clear.
1163:n32g430_std_periph_driver/src/n32g430_usart.c **** *\*\fun     Clears the USARTx's interrupt Status.
1164:n32g430_std_periph_driver/src/n32g430_usart.c **** *\*\param   USARTx :
1165:n32g430_std_periph_driver/src/n32g430_usart.c **** *\*\          - USART1
1166:n32g430_std_periph_driver/src/n32g430_usart.c **** *\*\          - USART2
1167:n32g430_std_periph_driver/src/n32g430_usart.c **** *\*\          - UART3
1168:n32g430_std_periph_driver/src/n32g430_usart.c **** *\*\          - UART4
1169:n32g430_std_periph_driver/src/n32g430_usart.c **** *\*\param   USART_Interrupt :
1170:n32g430_std_periph_driver/src/n32g430_usart.c **** *\*\          - USART_INT_CTSF
1171:n32g430_std_periph_driver/src/n32g430_usart.c **** *\*\          - USART_INT_LINBD
1172:n32g430_std_periph_driver/src/n32g430_usart.c **** *\*\          - USART_INT_TXC
1173:n32g430_std_periph_driver/src/n32g430_usart.c **** *\*\          - USART_INT_RXDNE
1174:n32g430_std_periph_driver/src/n32g430_usart.c **** *\*\return  none
1175:n32g430_std_periph_driver/src/n32g430_usart.c **** **/
1176:n32g430_std_periph_driver/src/n32g430_usart.c **** 
1177:n32g430_std_periph_driver/src/n32g430_usart.c **** void USART_Interrupt_Status_Clear(USART_Module* USARTx, uint16_t USART_Interrupt)
1178:n32g430_std_periph_driver/src/n32g430_usart.c **** {
 1813              		.loc 1 1178 1 is_stmt 1 view -0
 1814              		.cfi_startproc
 1815              		@ args = 0, pretend = 0, frame = 0
 1816              		@ frame_needed = 0, uses_anonymous_args = 0
 1817              		@ link register save eliminated.
1179:n32g430_std_periph_driver/src/n32g430_usart.c ****     uint16_t bit_position = 0x00, temp_value = 0x00;
 1818              		.loc 1 1179 5 view .LVU454
1180:n32g430_std_periph_driver/src/n32g430_usart.c **** 
1181:n32g430_std_periph_driver/src/n32g430_usart.c ****     bit_position      = USART_Interrupt >> USART_STS_INT_BIT_OFFSET;
 1819              		.loc 1 1181 5 view .LVU455
 1820              		.loc 1 1181 23 is_stmt 0 view .LVU456
 1821 0000 090A     		lsrs	r1, r1, #8
ARM GAS  C:\Users\Dawn\AppData\Local\Temp\ccSkpskc.s 			page 53


 1822              	.LVL159:
1182:n32g430_std_periph_driver/src/n32g430_usart.c ****     temp_value    = ((uint16_t)0x01 << (uint16_t)bit_position);
 1823              		.loc 1 1182 5 is_stmt 1 view .LVU457
 1824              		.loc 1 1182 37 is_stmt 0 view .LVU458
 1825 0002 0123     		movs	r3, #1
 1826 0004 8B40     		lsls	r3, r3, r1
 1827              		.loc 1 1182 19 view .LVU459
 1828 0006 9BB2     		uxth	r3, r3
 1829              	.LVL160:
1183:n32g430_std_periph_driver/src/n32g430_usart.c ****     USARTx->STS = (uint16_t)~temp_value;
 1830              		.loc 1 1183 5 is_stmt 1 view .LVU460
 1831              		.loc 1 1183 19 is_stmt 0 view .LVU461
 1832 0008 DB43     		mvns	r3, r3
 1833              	.LVL161:
 1834              		.loc 1 1183 19 view .LVU462
 1835 000a 9BB2     		uxth	r3, r3
 1836              	.LVL162:
 1837              		.loc 1 1183 17 view .LVU463
 1838 000c 0380     		strh	r3, [r0]	@ movhi
1184:n32g430_std_periph_driver/src/n32g430_usart.c **** }
 1839              		.loc 1 1184 1 view .LVU464
 1840 000e 7047     		bx	lr
 1841              		.cfi_endproc
 1842              	.LFE168:
 1844              		.text
 1845              	.Letext0:
 1846              		.file 2 "D:/Tools/arm-gnu-toolchain/arm-none-eabi/include/machine/_default_types.h"
 1847              		.file 3 "D:/Tools/arm-gnu-toolchain/arm-none-eabi/include/sys/_stdint.h"
 1848              		.file 4 "CMSIS/device/n32g430.h"
 1849              		.file 5 "n32g430_std_periph_driver/inc/n32g430_rcc.h"
 1850              		.file 6 "n32g430_std_periph_driver/inc/n32g430_usart.h"
ARM GAS  C:\Users\Dawn\AppData\Local\Temp\ccSkpskc.s 			page 54

