ARM GAS  C:\Users\Dawn\AppData\Local\Temp\ccmCgazd.s 			page 1


   1              		.cpu cortex-m4
   2              		.arch armv7e-m
   3              		.fpu fpv4-sp-d16
   4              		.eabi_attribute 27, 1
   5              		.eabi_attribute 28, 1
   6              		.eabi_attribute 23, 1
   7              		.eabi_attribute 24, 1
   8              		.eabi_attribute 25, 1
   9              		.eabi_attribute 26, 1
  10              		.eabi_attribute 30, 1
  11              		.eabi_attribute 34, 1
  12              		.eabi_attribute 18, 4
  13              		.file	"n32g430_gpio.c"
  14              		.text
  15              	.Ltext0:
  16              		.cfi_sections	.debug_frame
  17              		.file 1 "n32g430_std_periph_driver/src/n32g430_gpio.c"
  18              		.section	.text.GPIO_Reset,"ax",%progbits
  19              		.align	1
  20              		.global	GPIO_Reset
  21              		.syntax unified
  22              		.thumb
  23              		.thumb_func
  25              	GPIO_Reset:
  26              	.LVL0:
  27              	.LFB123:
   1:n32g430_std_periph_driver/src/n32g430_gpio.c **** /**
   2:n32g430_std_periph_driver/src/n32g430_gpio.c **** *     Copyright (c) 2022, Nations Technologies Inc.
   3:n32g430_std_periph_driver/src/n32g430_gpio.c **** * 
   4:n32g430_std_periph_driver/src/n32g430_gpio.c **** *     All rights reserved.
   5:n32g430_std_periph_driver/src/n32g430_gpio.c **** *
   6:n32g430_std_periph_driver/src/n32g430_gpio.c **** *     This software is the exclusive property of Nations Technologies Inc. (Hereinafter 
   7:n32g430_std_periph_driver/src/n32g430_gpio.c **** * referred to as NATIONS). This software, and the product of NATIONS described herein 
   8:n32g430_std_periph_driver/src/n32g430_gpio.c **** * (Hereinafter referred to as the Product) are owned by NATIONS under the laws and treaties
   9:n32g430_std_periph_driver/src/n32g430_gpio.c **** * of the People's Republic of China and other applicable jurisdictions worldwide.
  10:n32g430_std_periph_driver/src/n32g430_gpio.c **** *
  11:n32g430_std_periph_driver/src/n32g430_gpio.c **** *     NATIONS does not grant any license under its patents, copyrights, trademarks, or other 
  12:n32g430_std_periph_driver/src/n32g430_gpio.c **** * intellectual property rights. Names and brands of third party may be mentioned or referred 
  13:n32g430_std_periph_driver/src/n32g430_gpio.c **** * thereto (if any) for identification purposes only.
  14:n32g430_std_periph_driver/src/n32g430_gpio.c **** *
  15:n32g430_std_periph_driver/src/n32g430_gpio.c **** *     NATIONS reserves the right to make changes, corrections, enhancements, modifications, and 
  16:n32g430_std_periph_driver/src/n32g430_gpio.c **** * improvements to this software at any time without notice. Please contact NATIONS and obtain 
  17:n32g430_std_periph_driver/src/n32g430_gpio.c **** * the latest version of this software before placing orders.
  18:n32g430_std_periph_driver/src/n32g430_gpio.c **** 
  19:n32g430_std_periph_driver/src/n32g430_gpio.c **** *     Although NATIONS has attempted to provide accurate and reliable information, NATIONS assumes 
  20:n32g430_std_periph_driver/src/n32g430_gpio.c **** * no responsibility for the accuracy and reliability of this software.
  21:n32g430_std_periph_driver/src/n32g430_gpio.c **** * 
  22:n32g430_std_periph_driver/src/n32g430_gpio.c **** *     It is the responsibility of the user of this software to properly design, program, and test 
  23:n32g430_std_periph_driver/src/n32g430_gpio.c **** * the functionality and safety of any application made of this information and any resulting produc
  24:n32g430_std_periph_driver/src/n32g430_gpio.c **** * In no event shall NATIONS be liable for any direct, indirect, incidental, special,exemplary, or 
  25:n32g430_std_periph_driver/src/n32g430_gpio.c **** * consequential damages arising in any way out of the use of this software or the Product.
  26:n32g430_std_periph_driver/src/n32g430_gpio.c **** *
  27:n32g430_std_periph_driver/src/n32g430_gpio.c **** *     NATIONS Products are neither intended nor warranted for usage in systems or equipment, any
  28:n32g430_std_periph_driver/src/n32g430_gpio.c **** * malfunction or failure of which may cause loss of human life, bodily injury or severe property 
  29:n32g430_std_periph_driver/src/n32g430_gpio.c **** * damage. Such applications are deemed, "Insecure Usage".
  30:n32g430_std_periph_driver/src/n32g430_gpio.c **** *
  31:n32g430_std_periph_driver/src/n32g430_gpio.c **** *     All Insecure Usage shall be made at user's risk. User shall indemnify NATIONS and hold NATION
ARM GAS  C:\Users\Dawn\AppData\Local\Temp\ccmCgazd.s 			page 2


  32:n32g430_std_periph_driver/src/n32g430_gpio.c **** * harmless from and against all claims, costs, damages, and other liabilities, arising from or rela
  33:n32g430_std_periph_driver/src/n32g430_gpio.c **** * to any customer's Insecure Usage.
  34:n32g430_std_periph_driver/src/n32g430_gpio.c **** 
  35:n32g430_std_periph_driver/src/n32g430_gpio.c **** *     Any express or implied warranty with regard to this software or the Product, including,but no
  36:n32g430_std_periph_driver/src/n32g430_gpio.c **** * limited to, the warranties of merchantability, fitness for a particular purpose and non-infringem
  37:n32g430_std_periph_driver/src/n32g430_gpio.c **** * are disclaimed to the fullest extent permitted by law.
  38:n32g430_std_periph_driver/src/n32g430_gpio.c **** 
  39:n32g430_std_periph_driver/src/n32g430_gpio.c **** *     Unless otherwise explicitly permitted by NATIONS, anyone may not duplicate, modify, transcrib
  40:n32g430_std_periph_driver/src/n32g430_gpio.c **** * or otherwise distribute this software for any purposes, in whole or in part.
  41:n32g430_std_periph_driver/src/n32g430_gpio.c **** *
  42:n32g430_std_periph_driver/src/n32g430_gpio.c **** *     NATIONS products and technologies shall not be used for or incorporated into any products or 
  43:n32g430_std_periph_driver/src/n32g430_gpio.c **** * whose manufacture, use, or sale is prohibited under any applicable domestic or foreign laws or re
  44:n32g430_std_periph_driver/src/n32g430_gpio.c **** * User shall comply with any applicable export control laws and regulations promulgated and adminis
  45:n32g430_std_periph_driver/src/n32g430_gpio.c **** * the governments of any countries asserting jurisdiction over the parties or transactions.
  46:n32g430_std_periph_driver/src/n32g430_gpio.c **** **/
  47:n32g430_std_periph_driver/src/n32g430_gpio.c ****  
  48:n32g430_std_periph_driver/src/n32g430_gpio.c **** /**
  49:n32g430_std_periph_driver/src/n32g430_gpio.c **** *\*\file n32g430_gpio.c
  50:n32g430_std_periph_driver/src/n32g430_gpio.c **** *\*\author Nations
  51:n32g430_std_periph_driver/src/n32g430_gpio.c **** *\*\version v1.0.1
  52:n32g430_std_periph_driver/src/n32g430_gpio.c **** *\*\copyright Copyright (c) 2022, Nations Technologies Inc. All rights reserved.
  53:n32g430_std_periph_driver/src/n32g430_gpio.c **** **/
  54:n32g430_std_periph_driver/src/n32g430_gpio.c **** 
  55:n32g430_std_periph_driver/src/n32g430_gpio.c **** #include "n32g430_gpio.h"
  56:n32g430_std_periph_driver/src/n32g430_gpio.c **** 
  57:n32g430_std_periph_driver/src/n32g430_gpio.c **** 
  58:n32g430_std_periph_driver/src/n32g430_gpio.c **** /**
  59:n32g430_std_periph_driver/src/n32g430_gpio.c ****  *\*\name   GPIO_Reset.
  60:n32g430_std_periph_driver/src/n32g430_gpio.c ****  *\*\fun    Reset the GPIOx peripheral registers to their default reset values.
  61:n32g430_std_periph_driver/src/n32g430_gpio.c ****  *\*\param  GPIOx :
  62:n32g430_std_periph_driver/src/n32g430_gpio.c ****  *\*\          - GPIOA
  63:n32g430_std_periph_driver/src/n32g430_gpio.c ****  *\*\          - GPIOB
  64:n32g430_std_periph_driver/src/n32g430_gpio.c ****  *\*\          - GPIOC
  65:n32g430_std_periph_driver/src/n32g430_gpio.c ****  *\*\          - GPIOD
  66:n32g430_std_periph_driver/src/n32g430_gpio.c ****  *\*\return none
  67:n32g430_std_periph_driver/src/n32g430_gpio.c ****  */
  68:n32g430_std_periph_driver/src/n32g430_gpio.c **** void GPIO_Reset(GPIO_Module* GPIOx)
  69:n32g430_std_periph_driver/src/n32g430_gpio.c **** {
  28              		.loc 1 69 1 view -0
  29              		.cfi_startproc
  30              		@ args = 0, pretend = 0, frame = 0
  31              		@ frame_needed = 0, uses_anonymous_args = 0
  32              		.loc 1 69 1 is_stmt 0 view .LVU1
  33 0000 08B5     		push	{r3, lr}
  34              	.LCFI0:
  35              		.cfi_def_cfa_offset 8
  36              		.cfi_offset 3, -8
  37              		.cfi_offset 14, -4
  70:n32g430_std_periph_driver/src/n32g430_gpio.c ****     if (GPIOx == GPIOA)
  38              		.loc 1 70 5 is_stmt 1 view .LVU2
  39              		.loc 1 70 8 is_stmt 0 view .LVU3
  40 0002 104B     		ldr	r3, .L11
  41 0004 9842     		cmp	r0, r3
  42 0006 09D0     		beq	.L7
  71:n32g430_std_periph_driver/src/n32g430_gpio.c ****     {
  72:n32g430_std_periph_driver/src/n32g430_gpio.c ****         RCC_AHB_Peripheral_Reset(RCC_AHB_PERIPH_GPIOA);
  73:n32g430_std_periph_driver/src/n32g430_gpio.c ****     }
ARM GAS  C:\Users\Dawn\AppData\Local\Temp\ccmCgazd.s 			page 3


  74:n32g430_std_periph_driver/src/n32g430_gpio.c ****     else if (GPIOx == GPIOB)
  43              		.loc 1 74 10 is_stmt 1 view .LVU4
  44              		.loc 1 74 13 is_stmt 0 view .LVU5
  45 0008 0F4B     		ldr	r3, .L11+4
  46 000a 9842     		cmp	r0, r3
  47 000c 0AD0     		beq	.L8
  75:n32g430_std_periph_driver/src/n32g430_gpio.c ****     {
  76:n32g430_std_periph_driver/src/n32g430_gpio.c ****         RCC_AHB_Peripheral_Reset(RCC_AHB_PERIPH_GPIOB);
  77:n32g430_std_periph_driver/src/n32g430_gpio.c ****     }
  78:n32g430_std_periph_driver/src/n32g430_gpio.c ****     else if (GPIOx == GPIOC)
  48              		.loc 1 78 10 is_stmt 1 view .LVU6
  49              		.loc 1 78 13 is_stmt 0 view .LVU7
  50 000e 0F4B     		ldr	r3, .L11+8
  51 0010 9842     		cmp	r0, r3
  52 0012 0CD0     		beq	.L9
  79:n32g430_std_periph_driver/src/n32g430_gpio.c ****     {
  80:n32g430_std_periph_driver/src/n32g430_gpio.c ****         RCC_AHB_Peripheral_Reset(RCC_AHB_PERIPH_GPIOC);
  81:n32g430_std_periph_driver/src/n32g430_gpio.c ****     }
  82:n32g430_std_periph_driver/src/n32g430_gpio.c ****     else if (GPIOx == GPIOD)
  53              		.loc 1 82 10 is_stmt 1 view .LVU8
  54              		.loc 1 82 13 is_stmt 0 view .LVU9
  55 0014 0E4B     		ldr	r3, .L11+12
  56 0016 9842     		cmp	r0, r3
  57 0018 0ED0     		beq	.L10
  58              	.LVL1:
  59              	.L1:
  83:n32g430_std_periph_driver/src/n32g430_gpio.c ****     {
  84:n32g430_std_periph_driver/src/n32g430_gpio.c ****         RCC_AHB_Peripheral_Reset(RCC_AHB_PERIPH_GPIOD);
  85:n32g430_std_periph_driver/src/n32g430_gpio.c ****     }
  86:n32g430_std_periph_driver/src/n32g430_gpio.c ****     else
  87:n32g430_std_periph_driver/src/n32g430_gpio.c ****     {
  88:n32g430_std_periph_driver/src/n32g430_gpio.c ****         return;
  89:n32g430_std_periph_driver/src/n32g430_gpio.c ****     }
  90:n32g430_std_periph_driver/src/n32g430_gpio.c **** }
  60              		.loc 1 90 1 view .LVU10
  61 001a 08BD     		pop	{r3, pc}
  62              	.LVL2:
  63              	.L7:
  72:n32g430_std_periph_driver/src/n32g430_gpio.c ****     }
  64              		.loc 1 72 9 is_stmt 1 view .LVU11
  65 001c 8020     		movs	r0, #128
  66              	.LVL3:
  72:n32g430_std_periph_driver/src/n32g430_gpio.c ****     }
  67              		.loc 1 72 9 is_stmt 0 view .LVU12
  68 001e FFF7FEFF 		bl	RCC_AHB_Peripheral_Reset
  69              	.LVL4:
  70 0022 FAE7     		b	.L1
  71              	.LVL5:
  72              	.L8:
  76:n32g430_std_periph_driver/src/n32g430_gpio.c ****     }
  73              		.loc 1 76 9 is_stmt 1 view .LVU13
  74 0024 4FF48070 		mov	r0, #256
  75              	.LVL6:
  76:n32g430_std_periph_driver/src/n32g430_gpio.c ****     }
  76              		.loc 1 76 9 is_stmt 0 view .LVU14
  77 0028 FFF7FEFF 		bl	RCC_AHB_Peripheral_Reset
  78              	.LVL7:
ARM GAS  C:\Users\Dawn\AppData\Local\Temp\ccmCgazd.s 			page 4


  79 002c F5E7     		b	.L1
  80              	.LVL8:
  81              	.L9:
  80:n32g430_std_periph_driver/src/n32g430_gpio.c ****     }
  82              		.loc 1 80 9 is_stmt 1 view .LVU15
  83 002e 4FF40070 		mov	r0, #512
  84              	.LVL9:
  80:n32g430_std_periph_driver/src/n32g430_gpio.c ****     }
  85              		.loc 1 80 9 is_stmt 0 view .LVU16
  86 0032 FFF7FEFF 		bl	RCC_AHB_Peripheral_Reset
  87              	.LVL10:
  88 0036 F0E7     		b	.L1
  89              	.LVL11:
  90              	.L10:
  84:n32g430_std_periph_driver/src/n32g430_gpio.c ****     }
  91              		.loc 1 84 9 is_stmt 1 view .LVU17
  92 0038 4FF48060 		mov	r0, #1024
  93              	.LVL12:
  84:n32g430_std_periph_driver/src/n32g430_gpio.c ****     }
  94              		.loc 1 84 9 is_stmt 0 view .LVU18
  95 003c FFF7FEFF 		bl	RCC_AHB_Peripheral_Reset
  96              	.LVL13:
  97 0040 EBE7     		b	.L1
  98              	.L12:
  99 0042 00BF     		.align	2
 100              	.L11:
 101 0044 00340240 		.word	1073886208
 102 0048 00380240 		.word	1073887232
 103 004c 003C0240 		.word	1073888256
 104 0050 00400240 		.word	1073889280
 105              		.cfi_endproc
 106              	.LFE123:
 108              		.section	.text.GPIOA_Pin_Reset,"ax",%progbits
 109              		.align	1
 110              		.global	GPIOA_Pin_Reset
 111              		.syntax unified
 112              		.thumb
 113              		.thumb_func
 115              	GPIOA_Pin_Reset:
 116              	.LVL14:
 117              	.LFB124:
  91:n32g430_std_periph_driver/src/n32g430_gpio.c **** 
  92:n32g430_std_periph_driver/src/n32g430_gpio.c **** 
  93:n32g430_std_periph_driver/src/n32g430_gpio.c **** /**
  94:n32g430_std_periph_driver/src/n32g430_gpio.c ****  *\*\name   GPIOA_Pin_Reset.
  95:n32g430_std_periph_driver/src/n32g430_gpio.c ****  *\*\fun    Reset the GPIOA peripheral registers to it's default reset values.
  96:n32g430_std_periph_driver/src/n32g430_gpio.c ****  *\*\param  pin :
  97:n32g430_std_periph_driver/src/n32g430_gpio.c ****  *\*\          - GPIO_PIN_0
  98:n32g430_std_periph_driver/src/n32g430_gpio.c ****  *\*\          - GPIO_PIN_1
  99:n32g430_std_periph_driver/src/n32g430_gpio.c ****  *\*\          - GPIO_PIN_2
 100:n32g430_std_periph_driver/src/n32g430_gpio.c ****  *\*\          - GPIO_PIN_3
 101:n32g430_std_periph_driver/src/n32g430_gpio.c ****  *\*\          - GPIO_PIN_4
 102:n32g430_std_periph_driver/src/n32g430_gpio.c ****  *\*\          - GPIO_PIN_5
 103:n32g430_std_periph_driver/src/n32g430_gpio.c ****  *\*\          - GPIO_PIN_6
 104:n32g430_std_periph_driver/src/n32g430_gpio.c ****  *\*\          - GPIO_PIN_7
 105:n32g430_std_periph_driver/src/n32g430_gpio.c ****  *\*\          - GPIO_PIN_8
 106:n32g430_std_periph_driver/src/n32g430_gpio.c ****  *\*\          - GPIO_PIN_9
ARM GAS  C:\Users\Dawn\AppData\Local\Temp\ccmCgazd.s 			page 5


 107:n32g430_std_periph_driver/src/n32g430_gpio.c ****  *\*\          - GPIO_PIN_10
 108:n32g430_std_periph_driver/src/n32g430_gpio.c ****  *\*\          - GPIO_PIN_11
 109:n32g430_std_periph_driver/src/n32g430_gpio.c ****  *\*\          - GPIO_PIN_12
 110:n32g430_std_periph_driver/src/n32g430_gpio.c ****  *\*\          - GPIO_PIN_13
 111:n32g430_std_periph_driver/src/n32g430_gpio.c ****  *\*\          - GPIO_PIN_14
 112:n32g430_std_periph_driver/src/n32g430_gpio.c ****  *\*\          - GPIO_PIN_15
 113:n32g430_std_periph_driver/src/n32g430_gpio.c ****  *\*\          - GPIO_PIN_ALL
 114:n32g430_std_periph_driver/src/n32g430_gpio.c ****  *\*\return none
 115:n32g430_std_periph_driver/src/n32g430_gpio.c ****  */
 116:n32g430_std_periph_driver/src/n32g430_gpio.c **** void GPIOA_Pin_Reset(uint16_t pin)
 117:n32g430_std_periph_driver/src/n32g430_gpio.c **** {
 118              		.loc 1 117 1 is_stmt 1 view -0
 119              		.cfi_startproc
 120              		@ args = 0, pretend = 0, frame = 0
 121              		@ frame_needed = 0, uses_anonymous_args = 0
 118:n32g430_std_periph_driver/src/n32g430_gpio.c ****     uint32_t position = 0x00U;
 122              		.loc 1 118 5 view .LVU20
 119:n32g430_std_periph_driver/src/n32g430_gpio.c ****     uint32_t current_pin = 0x00U;
 123              		.loc 1 119 5 view .LVU21
 120:n32g430_std_periph_driver/src/n32g430_gpio.c **** 
 121:n32g430_std_periph_driver/src/n32g430_gpio.c ****     while((pin >> position) != 0)
 124              		.loc 1 121 5 view .LVU22
 118:n32g430_std_periph_driver/src/n32g430_gpio.c ****     uint32_t current_pin = 0x00U;
 125              		.loc 1 118 14 is_stmt 0 view .LVU23
 126 0000 0023     		movs	r3, #0
 127              		.loc 1 121 10 view .LVU24
 128 0002 89E0     		b	.L26
 129              	.LVL15:
 130              	.L16:
 131              	.LCFI1:
 132              		.cfi_def_cfa_offset 12
 133              		.cfi_offset 4, -12
 134              		.cfi_offset 5, -8
 135              		.cfi_offset 14, -4
 122:n32g430_std_periph_driver/src/n32g430_gpio.c ****     {
 123:n32g430_std_periph_driver/src/n32g430_gpio.c ****         /* Get the IO position */
 124:n32g430_std_periph_driver/src/n32g430_gpio.c ****         current_pin = (pin) & (IO_POSITION_MASK << position);
 125:n32g430_std_periph_driver/src/n32g430_gpio.c **** 
 126:n32g430_std_periph_driver/src/n32g430_gpio.c ****         if(current_pin)
 127:n32g430_std_periph_driver/src/n32g430_gpio.c ****         {
 128:n32g430_std_periph_driver/src/n32g430_gpio.c ****             if(position > GPIOA_MODE_POSITION)
 129:n32g430_std_periph_driver/src/n32g430_gpio.c ****             {
 130:n32g430_std_periph_driver/src/n32g430_gpio.c ****                 /* Configure IO Direction in alternate Mode */  
 131:n32g430_std_periph_driver/src/n32g430_gpio.c ****                 GPIOA->PMODE &= ~(GPIO_PMODE_MASK << (position * MULTIPLIER_FACTOR_2));
 132:n32g430_std_periph_driver/src/n32g430_gpio.c ****                 GPIOA->PMODE |= (GPIO_AF_MODE << (position * MULTIPLIER_FACTOR_2));
 133:n32g430_std_periph_driver/src/n32g430_gpio.c ****             }
 134:n32g430_std_periph_driver/src/n32g430_gpio.c ****             else
 135:n32g430_std_periph_driver/src/n32g430_gpio.c ****             {
 136:n32g430_std_periph_driver/src/n32g430_gpio.c ****                 /* Configure IO Direction in analog Mode */
 137:n32g430_std_periph_driver/src/n32g430_gpio.c ****                 GPIOA->PMODE |= (GPIO_ANALOG_MODE << (position * MULTIPLIER_FACTOR_2));
 136              		.loc 1 137 17 is_stmt 1 view .LVU25
 137              		.loc 1 137 22 is_stmt 0 view .LVU26
 138 0004 494C     		ldr	r4, .L35
 139 0006 2268     		ldr	r2, [r4]
 140              		.loc 1 137 64 view .LVU27
 141 0008 5D00     		lsls	r5, r3, #1
 142              		.loc 1 137 51 view .LVU28
ARM GAS  C:\Users\Dawn\AppData\Local\Temp\ccmCgazd.s 			page 6


 143 000a 0321     		movs	r1, #3
 144 000c A940     		lsls	r1, r1, r5
 145              		.loc 1 137 30 view .LVU29
 146 000e 0A43     		orrs	r2, r2, r1
 147 0010 2260     		str	r2, [r4]
 148 0012 49E0     		b	.L17
 149              	.L18:
 138:n32g430_std_periph_driver/src/n32g430_gpio.c ****             }
 139:n32g430_std_periph_driver/src/n32g430_gpio.c **** 
 140:n32g430_std_periph_driver/src/n32g430_gpio.c ****             /* Configure the default Alternate Function in current IO */
 141:n32g430_std_periph_driver/src/n32g430_gpio.c ****             if(position & AF_SELECTION_MASK)
 142:n32g430_std_periph_driver/src/n32g430_gpio.c ****             {
 143:n32g430_std_periph_driver/src/n32g430_gpio.c ****                 GPIOA->AFH &= ~(GPIO_AF_MASK << ((position & (uint32_t)AF_WRITE_POSITION_MASK) * MU
 144:n32g430_std_periph_driver/src/n32g430_gpio.c ****             }
 145:n32g430_std_periph_driver/src/n32g430_gpio.c ****             else
 146:n32g430_std_periph_driver/src/n32g430_gpio.c ****             {
 147:n32g430_std_periph_driver/src/n32g430_gpio.c ****                 GPIOA->AFL &= ~(GPIO_AF_MASK << ((position & (uint32_t)AF_WRITE_POSITION_MASK) * MU
 150              		.loc 1 147 17 is_stmt 1 view .LVU30
 151              		.loc 1 147 22 is_stmt 0 view .LVU31
 152 0014 454D     		ldr	r5, .L35
 153 0016 2A6A     		ldr	r2, [r5, #32]
 154              		.loc 1 147 60 view .LVU32
 155 0018 03F00704 		and	r4, r3, #7
 156              		.loc 1 147 96 view .LVU33
 157 001c A400     		lsls	r4, r4, #2
 158              		.loc 1 147 46 view .LVU34
 159 001e 0F21     		movs	r1, #15
 160 0020 A140     		lsls	r1, r1, r4
 161              		.loc 1 147 28 view .LVU35
 162 0022 22EA0102 		bic	r2, r2, r1
 163 0026 2A62     		str	r2, [r5, #32]
 164 0028 4BE0     		b	.L19
 165              	.L20:
 148:n32g430_std_periph_driver/src/n32g430_gpio.c ****             }
 149:n32g430_std_periph_driver/src/n32g430_gpio.c **** 
 150:n32g430_std_periph_driver/src/n32g430_gpio.c ****             /* Reset GPIO output type to push-pull output */
 151:n32g430_std_periph_driver/src/n32g430_gpio.c ****             GPIOA->POTYPE &= ~(GPIO_POTYPE_MASK << position);
 152:n32g430_std_periph_driver/src/n32g430_gpio.c **** 
 153:n32g430_std_periph_driver/src/n32g430_gpio.c ****             
 154:n32g430_std_periph_driver/src/n32g430_gpio.c ****             if(position == GPIOA_PUPD_POSITION1 || position == GPIOA_PUPD_POSITION2)
 155:n32g430_std_periph_driver/src/n32g430_gpio.c ****             {
 156:n32g430_std_periph_driver/src/n32g430_gpio.c ****                 /* Reset the GPIO pull mode to pull-up */
 157:n32g430_std_periph_driver/src/n32g430_gpio.c ****                 GPIOA->PUPD &= ~(GPIO_PUPD_MASK << (position * MULTIPLIER_FACTOR_2));  
 166              		.loc 1 157 17 is_stmt 1 view .LVU36
 167              		.loc 1 157 22 is_stmt 0 view .LVU37
 168 002a 404A     		ldr	r2, .L35
 169 002c D468     		ldr	r4, [r2, #12]
 170              		.loc 1 157 62 view .LVU38
 171 002e 4FEA430E 		lsl	lr, r3, #1
 172              		.loc 1 157 49 view .LVU39
 173 0032 4FF0030C 		mov	ip, #3
 174 0036 0CFA0EFC 		lsl	ip, ip, lr
 175              		.loc 1 157 29 view .LVU40
 176 003a 24EA0C04 		bic	r4, r4, ip
 177 003e D460     		str	r4, [r2, #12]
 158:n32g430_std_periph_driver/src/n32g430_gpio.c ****                 GPIOA->PUPD |= (GPIO_PU_MODE << (position * MULTIPLIER_FACTOR_2));  
 178              		.loc 1 158 17 is_stmt 1 view .LVU41
ARM GAS  C:\Users\Dawn\AppData\Local\Temp\ccmCgazd.s 			page 7


 179              		.loc 1 158 22 is_stmt 0 view .LVU42
 180 0040 D468     		ldr	r4, [r2, #12]
 181              		.loc 1 158 46 view .LVU43
 182 0042 4FF0010C 		mov	ip, #1
 183 0046 0CFA0EFC 		lsl	ip, ip, lr
 184              		.loc 1 158 29 view .LVU44
 185 004a 44EA0C04 		orr	r4, r4, ip
 186 004e D460     		str	r4, [r2, #12]
 187              	.L22:
 159:n32g430_std_periph_driver/src/n32g430_gpio.c ****             }
 160:n32g430_std_periph_driver/src/n32g430_gpio.c ****             else if(position == GPIOA_PUPD_POSITION3)
 161:n32g430_std_periph_driver/src/n32g430_gpio.c ****             {
 162:n32g430_std_periph_driver/src/n32g430_gpio.c ****                 /* Reset the GPIO pull mode to pull-down */
 163:n32g430_std_periph_driver/src/n32g430_gpio.c ****                 GPIOA->PUPD &= ~(GPIO_PUPD_MASK << (position * MULTIPLIER_FACTOR_2));  
 164:n32g430_std_periph_driver/src/n32g430_gpio.c ****                 GPIOA->PUPD |= (GPIO_PD_MODE << (position * MULTIPLIER_FACTOR_2));  
 165:n32g430_std_periph_driver/src/n32g430_gpio.c ****             }
 166:n32g430_std_periph_driver/src/n32g430_gpio.c ****             else
 167:n32g430_std_periph_driver/src/n32g430_gpio.c ****             {
 168:n32g430_std_periph_driver/src/n32g430_gpio.c ****                 /* Reset the GPIO pull mode to no-pull */
 169:n32g430_std_periph_driver/src/n32g430_gpio.c ****                 GPIOA->PUPD &= ~(GPIO_PUPD_MASK << (position * MULTIPLIER_FACTOR_2));  
 170:n32g430_std_periph_driver/src/n32g430_gpio.c ****             }
 171:n32g430_std_periph_driver/src/n32g430_gpio.c **** 
 172:n32g430_std_periph_driver/src/n32g430_gpio.c ****             /* Reset the GPIO slew rate to slow */
 173:n32g430_std_periph_driver/src/n32g430_gpio.c ****             GPIOA->SR |= (GPIO_SR_SLOW << position);  
 188              		.loc 1 173 13 is_stmt 1 view .LVU45
 189              		.loc 1 173 18 is_stmt 0 view .LVU46
 190 0050 364A     		ldr	r2, .L35
 191 0052 9468     		ldr	r4, [r2, #8]
 192              		.loc 1 173 23 view .LVU47
 193 0054 2143     		orrs	r1, r1, r4
 194 0056 9160     		str	r1, [r2, #8]
 174:n32g430_std_periph_driver/src/n32g430_gpio.c **** 
 175:n32g430_std_periph_driver/src/n32g430_gpio.c ****             /* Reset the GPIO driver strength to 8 mA */
 176:n32g430_std_periph_driver/src/n32g430_gpio.c ****             GPIOA->DS &= ~(GPIO_DRIVER_MASK << (position * MULTIPLIER_FACTOR_2));  
 195              		.loc 1 176 13 is_stmt 1 view .LVU48
 196              		.loc 1 176 18 is_stmt 0 view .LVU49
 197 0058 D16A     		ldr	r1, [r2, #44]
 198              		.loc 1 176 58 view .LVU50
 199 005a 5C00     		lsls	r4, r3, #1
 200              		.loc 1 176 45 view .LVU51
 201 005c 4FF0030C 		mov	ip, #3
 202 0060 0CFA04FC 		lsl	ip, ip, r4
 203              		.loc 1 176 23 view .LVU52
 204 0064 21EA0C01 		bic	r1, r1, ip
 205 0068 D162     		str	r1, [r2, #44]
 177:n32g430_std_periph_driver/src/n32g430_gpio.c ****             GPIOA->DS |= (GPIO_DRIVER_8MA << (position * MULTIPLIER_FACTOR_2));  
 206              		.loc 1 177 13 is_stmt 1 view .LVU53
 207              		.loc 1 177 18 is_stmt 0 view .LVU54
 208 006a D16A     		ldr	r1, [r2, #44]
 209              		.loc 1 177 43 view .LVU55
 210 006c 4FF0010C 		mov	ip, #1
 211 0070 0CFA04FC 		lsl	ip, ip, r4
 212              		.loc 1 177 23 view .LVU56
 213 0074 41EA0C01 		orr	r1, r1, ip
 214 0078 D162     		str	r1, [r2, #44]
 215              	.L15:
 178:n32g430_std_periph_driver/src/n32g430_gpio.c ****         }
ARM GAS  C:\Users\Dawn\AppData\Local\Temp\ccmCgazd.s 			page 8


 179:n32g430_std_periph_driver/src/n32g430_gpio.c ****         position++;
 216              		.loc 1 179 9 is_stmt 1 view .LVU57
 217              		.loc 1 179 17 is_stmt 0 view .LVU58
 218 007a 0133     		adds	r3, r3, #1
 219              	.LVL16:
 121:n32g430_std_periph_driver/src/n32g430_gpio.c ****     {
 220              		.loc 1 121 29 is_stmt 1 view .LVU59
 221 007c 50FA03F2 		asrs	r2, r0, r3
 222 0080 48D0     		beq	.L31
 124:n32g430_std_periph_driver/src/n32g430_gpio.c **** 
 223              		.loc 1 124 9 view .LVU60
 124:n32g430_std_periph_driver/src/n32g430_gpio.c **** 
 224              		.loc 1 124 49 is_stmt 0 view .LVU61
 225 0082 0122     		movs	r2, #1
 226 0084 9A40     		lsls	r2, r2, r3
 227              	.LVL17:
 126:n32g430_std_periph_driver/src/n32g430_gpio.c ****         {
 228              		.loc 1 126 9 is_stmt 1 view .LVU62
 126:n32g430_std_periph_driver/src/n32g430_gpio.c ****         {
 229              		.loc 1 126 11 is_stmt 0 view .LVU63
 230 0086 1042     		tst	r0, r2
 231 0088 F7D0     		beq	.L15
 232              	.LVL18:
 233              	.L27:
 128:n32g430_std_periph_driver/src/n32g430_gpio.c ****             {
 234              		.loc 1 128 13 is_stmt 1 view .LVU64
 128:n32g430_std_periph_driver/src/n32g430_gpio.c ****             {
 235              		.loc 1 128 15 is_stmt 0 view .LVU65
 236 008a 0C2B     		cmp	r3, #12
 237 008c BAD9     		bls	.L16
 131:n32g430_std_periph_driver/src/n32g430_gpio.c ****                 GPIOA->PMODE |= (GPIO_AF_MODE << (position * MULTIPLIER_FACTOR_2));
 238              		.loc 1 131 17 is_stmt 1 view .LVU66
 131:n32g430_std_periph_driver/src/n32g430_gpio.c ****                 GPIOA->PMODE |= (GPIO_AF_MODE << (position * MULTIPLIER_FACTOR_2));
 239              		.loc 1 131 22 is_stmt 0 view .LVU67
 240 008e 274A     		ldr	r2, .L35
 241 0090 1168     		ldr	r1, [r2]
 131:n32g430_std_periph_driver/src/n32g430_gpio.c ****                 GPIOA->PMODE |= (GPIO_AF_MODE << (position * MULTIPLIER_FACTOR_2));
 242              		.loc 1 131 64 view .LVU68
 243 0092 5D00     		lsls	r5, r3, #1
 131:n32g430_std_periph_driver/src/n32g430_gpio.c ****                 GPIOA->PMODE |= (GPIO_AF_MODE << (position * MULTIPLIER_FACTOR_2));
 244              		.loc 1 131 51 view .LVU69
 245 0094 0324     		movs	r4, #3
 246 0096 AC40     		lsls	r4, r4, r5
 131:n32g430_std_periph_driver/src/n32g430_gpio.c ****                 GPIOA->PMODE |= (GPIO_AF_MODE << (position * MULTIPLIER_FACTOR_2));
 247              		.loc 1 131 30 view .LVU70
 248 0098 21EA0401 		bic	r1, r1, r4
 249 009c 1160     		str	r1, [r2]
 132:n32g430_std_periph_driver/src/n32g430_gpio.c ****             }
 250              		.loc 1 132 17 is_stmt 1 view .LVU71
 132:n32g430_std_periph_driver/src/n32g430_gpio.c ****             }
 251              		.loc 1 132 22 is_stmt 0 view .LVU72
 252 009e 1168     		ldr	r1, [r2]
 132:n32g430_std_periph_driver/src/n32g430_gpio.c ****             }
 253              		.loc 1 132 47 view .LVU73
 254 00a0 0224     		movs	r4, #2
 255 00a2 AC40     		lsls	r4, r4, r5
 132:n32g430_std_periph_driver/src/n32g430_gpio.c ****             }
ARM GAS  C:\Users\Dawn\AppData\Local\Temp\ccmCgazd.s 			page 9


 256              		.loc 1 132 30 view .LVU74
 257 00a4 2143     		orrs	r1, r1, r4
 258 00a6 1160     		str	r1, [r2]
 259              	.L17:
 141:n32g430_std_periph_driver/src/n32g430_gpio.c ****             {
 260              		.loc 1 141 13 is_stmt 1 view .LVU75
 141:n32g430_std_periph_driver/src/n32g430_gpio.c ****             {
 261              		.loc 1 141 15 is_stmt 0 view .LVU76
 262 00a8 13F0080F 		tst	r3, #8
 263 00ac B2D0     		beq	.L18
 143:n32g430_std_periph_driver/src/n32g430_gpio.c ****             }
 264              		.loc 1 143 17 is_stmt 1 view .LVU77
 143:n32g430_std_periph_driver/src/n32g430_gpio.c ****             }
 265              		.loc 1 143 22 is_stmt 0 view .LVU78
 266 00ae 1F4D     		ldr	r5, .L35
 267 00b0 6A6A     		ldr	r2, [r5, #36]
 143:n32g430_std_periph_driver/src/n32g430_gpio.c ****             }
 268              		.loc 1 143 60 view .LVU79
 269 00b2 03F00704 		and	r4, r3, #7
 143:n32g430_std_periph_driver/src/n32g430_gpio.c ****             }
 270              		.loc 1 143 96 view .LVU80
 271 00b6 A400     		lsls	r4, r4, #2
 143:n32g430_std_periph_driver/src/n32g430_gpio.c ****             }
 272              		.loc 1 143 46 view .LVU81
 273 00b8 0F21     		movs	r1, #15
 274 00ba A140     		lsls	r1, r1, r4
 143:n32g430_std_periph_driver/src/n32g430_gpio.c ****             }
 275              		.loc 1 143 28 view .LVU82
 276 00bc 22EA0102 		bic	r2, r2, r1
 277 00c0 6A62     		str	r2, [r5, #36]
 278              	.L19:
 151:n32g430_std_periph_driver/src/n32g430_gpio.c **** 
 279              		.loc 1 151 13 is_stmt 1 view .LVU83
 151:n32g430_std_periph_driver/src/n32g430_gpio.c **** 
 280              		.loc 1 151 18 is_stmt 0 view .LVU84
 281 00c2 1A4C     		ldr	r4, .L35
 282 00c4 6268     		ldr	r2, [r4, #4]
 151:n32g430_std_periph_driver/src/n32g430_gpio.c **** 
 283              		.loc 1 151 49 view .LVU85
 284 00c6 0121     		movs	r1, #1
 285 00c8 9940     		lsls	r1, r1, r3
 151:n32g430_std_periph_driver/src/n32g430_gpio.c **** 
 286              		.loc 1 151 27 view .LVU86
 287 00ca 22EA0102 		bic	r2, r2, r1
 288 00ce 6260     		str	r2, [r4, #4]
 154:n32g430_std_periph_driver/src/n32g430_gpio.c ****             {
 289              		.loc 1 154 13 is_stmt 1 view .LVU87
 154:n32g430_std_periph_driver/src/n32g430_gpio.c ****             {
 290              		.loc 1 154 15 is_stmt 0 view .LVU88
 291 00d0 0F2B     		cmp	r3, #15
 292 00d2 AAD0     		beq	.L20
 154:n32g430_std_periph_driver/src/n32g430_gpio.c ****             {
 293              		.loc 1 154 49 discriminator 1 view .LVU89
 294 00d4 0D2B     		cmp	r3, #13
 295 00d6 A8D0     		beq	.L20
 160:n32g430_std_periph_driver/src/n32g430_gpio.c ****             {
 296              		.loc 1 160 18 is_stmt 1 view .LVU90
ARM GAS  C:\Users\Dawn\AppData\Local\Temp\ccmCgazd.s 			page 10


 160:n32g430_std_periph_driver/src/n32g430_gpio.c ****             {
 297              		.loc 1 160 20 is_stmt 0 view .LVU91
 298 00d8 0E2B     		cmp	r3, #14
 299 00da 0AD0     		beq	.L32
 169:n32g430_std_periph_driver/src/n32g430_gpio.c ****             }
 300              		.loc 1 169 17 is_stmt 1 view .LVU92
 169:n32g430_std_periph_driver/src/n32g430_gpio.c ****             }
 301              		.loc 1 169 22 is_stmt 0 view .LVU93
 302 00dc 134D     		ldr	r5, .L35
 303 00de EA68     		ldr	r2, [r5, #12]
 169:n32g430_std_periph_driver/src/n32g430_gpio.c ****             }
 304              		.loc 1 169 62 view .LVU94
 305 00e0 4FEA430C 		lsl	ip, r3, #1
 169:n32g430_std_periph_driver/src/n32g430_gpio.c ****             }
 306              		.loc 1 169 49 view .LVU95
 307 00e4 0324     		movs	r4, #3
 308 00e6 04FA0CF4 		lsl	r4, r4, ip
 169:n32g430_std_periph_driver/src/n32g430_gpio.c ****             }
 309              		.loc 1 169 29 view .LVU96
 310 00ea 22EA0402 		bic	r2, r2, r4
 311 00ee EA60     		str	r2, [r5, #12]
 312 00f0 AEE7     		b	.L22
 313              	.L32:
 163:n32g430_std_periph_driver/src/n32g430_gpio.c ****                 GPIOA->PUPD |= (GPIO_PD_MODE << (position * MULTIPLIER_FACTOR_2));  
 314              		.loc 1 163 17 is_stmt 1 view .LVU97
 163:n32g430_std_periph_driver/src/n32g430_gpio.c ****                 GPIOA->PUPD |= (GPIO_PD_MODE << (position * MULTIPLIER_FACTOR_2));  
 315              		.loc 1 163 22 is_stmt 0 view .LVU98
 316 00f2 0E4A     		ldr	r2, .L35
 317 00f4 D468     		ldr	r4, [r2, #12]
 163:n32g430_std_periph_driver/src/n32g430_gpio.c ****                 GPIOA->PUPD |= (GPIO_PD_MODE << (position * MULTIPLIER_FACTOR_2));  
 318              		.loc 1 163 62 view .LVU99
 319 00f6 4FEA430C 		lsl	ip, r3, #1
 163:n32g430_std_periph_driver/src/n32g430_gpio.c ****                 GPIOA->PUPD |= (GPIO_PD_MODE << (position * MULTIPLIER_FACTOR_2));  
 320              		.loc 1 163 49 view .LVU100
 321 00fa 0325     		movs	r5, #3
 322 00fc 05FA0CF5 		lsl	r5, r5, ip
 163:n32g430_std_periph_driver/src/n32g430_gpio.c ****                 GPIOA->PUPD |= (GPIO_PD_MODE << (position * MULTIPLIER_FACTOR_2));  
 323              		.loc 1 163 29 view .LVU101
 324 0100 24EA0504 		bic	r4, r4, r5
 325 0104 D460     		str	r4, [r2, #12]
 164:n32g430_std_periph_driver/src/n32g430_gpio.c ****             }
 326              		.loc 1 164 17 is_stmt 1 view .LVU102
 164:n32g430_std_periph_driver/src/n32g430_gpio.c ****             }
 327              		.loc 1 164 22 is_stmt 0 view .LVU103
 328 0106 D468     		ldr	r4, [r2, #12]
 164:n32g430_std_periph_driver/src/n32g430_gpio.c ****             }
 329              		.loc 1 164 46 view .LVU104
 330 0108 0225     		movs	r5, #2
 331 010a 05FA0CF5 		lsl	r5, r5, ip
 164:n32g430_std_periph_driver/src/n32g430_gpio.c ****             }
 332              		.loc 1 164 29 view .LVU105
 333 010e 2C43     		orrs	r4, r4, r5
 334 0110 D460     		str	r4, [r2, #12]
 335 0112 9DE7     		b	.L22
 336              	.L31:
 180:n32g430_std_periph_driver/src/n32g430_gpio.c ****     }
 181:n32g430_std_periph_driver/src/n32g430_gpio.c **** }
ARM GAS  C:\Users\Dawn\AppData\Local\Temp\ccmCgazd.s 			page 11


 337              		.loc 1 181 1 view .LVU106
 338 0114 30BD     		pop	{r4, r5, pc}
 339              	.LVL19:
 340              	.L34:
 341              	.LCFI2:
 342              		.cfi_def_cfa_offset 0
 343              		.cfi_restore 4
 344              		.cfi_restore 5
 345              		.cfi_restore 14
 179:n32g430_std_periph_driver/src/n32g430_gpio.c ****     }
 346              		.loc 1 179 9 is_stmt 1 view .LVU107
 179:n32g430_std_periph_driver/src/n32g430_gpio.c ****     }
 347              		.loc 1 179 17 is_stmt 0 view .LVU108
 348 0116 0133     		adds	r3, r3, #1
 349              	.LVL20:
 350              	.L26:
 121:n32g430_std_periph_driver/src/n32g430_gpio.c ****     {
 351              		.loc 1 121 29 is_stmt 1 view .LVU109
 352 0118 50FA03F2 		asrs	r2, r0, r3
 353 011c 05D0     		beq	.L33
 124:n32g430_std_periph_driver/src/n32g430_gpio.c **** 
 354              		.loc 1 124 9 view .LVU110
 124:n32g430_std_periph_driver/src/n32g430_gpio.c **** 
 355              		.loc 1 124 49 is_stmt 0 view .LVU111
 356 011e 0122     		movs	r2, #1
 357 0120 9A40     		lsls	r2, r2, r3
 358              	.LVL21:
 126:n32g430_std_periph_driver/src/n32g430_gpio.c ****         {
 359              		.loc 1 126 9 is_stmt 1 view .LVU112
 126:n32g430_std_periph_driver/src/n32g430_gpio.c ****         {
 360              		.loc 1 126 11 is_stmt 0 view .LVU113
 361 0122 1042     		tst	r0, r2
 362 0124 F7D0     		beq	.L34
 117:n32g430_std_periph_driver/src/n32g430_gpio.c ****     uint32_t position = 0x00U;
 363              		.loc 1 117 1 view .LVU114
 364 0126 30B5     		push	{r4, r5, lr}
 365              	.LCFI3:
 366              		.cfi_def_cfa_offset 12
 367              		.cfi_offset 4, -12
 368              		.cfi_offset 5, -8
 369              		.cfi_offset 14, -4
 370 0128 AFE7     		b	.L27
 371              	.LVL22:
 372              	.L33:
 373              	.LCFI4:
 374              		.cfi_def_cfa_offset 0
 375              		.cfi_restore 4
 376              		.cfi_restore 5
 377              		.cfi_restore 14
 117:n32g430_std_periph_driver/src/n32g430_gpio.c ****     uint32_t position = 0x00U;
 378              		.loc 1 117 1 view .LVU115
 379 012a 7047     		bx	lr
 380              	.L36:
 381              		.align	2
 382              	.L35:
 383 012c 00340240 		.word	1073886208
 384              		.cfi_endproc
ARM GAS  C:\Users\Dawn\AppData\Local\Temp\ccmCgazd.s 			page 12


 385              	.LFE124:
 387              		.section	.text.GPIOB_Pin_Reset,"ax",%progbits
 388              		.align	1
 389              		.global	GPIOB_Pin_Reset
 390              		.syntax unified
 391              		.thumb
 392              		.thumb_func
 394              	GPIOB_Pin_Reset:
 395              	.LVL23:
 396              	.LFB125:
 182:n32g430_std_periph_driver/src/n32g430_gpio.c **** 
 183:n32g430_std_periph_driver/src/n32g430_gpio.c **** /**
 184:n32g430_std_periph_driver/src/n32g430_gpio.c ****  *\*\name   GPIOB_Pin_Reset.
 185:n32g430_std_periph_driver/src/n32g430_gpio.c ****  *\*\fun    Reset the GPIOB peripheral registers to it's default reset values.
 186:n32g430_std_periph_driver/src/n32g430_gpio.c ****  *\*\param  pin :
 187:n32g430_std_periph_driver/src/n32g430_gpio.c ****  *\*\          - GPIO_PIN_0
 188:n32g430_std_periph_driver/src/n32g430_gpio.c ****  *\*\          - GPIO_PIN_1
 189:n32g430_std_periph_driver/src/n32g430_gpio.c ****  *\*\          - GPIO_PIN_2
 190:n32g430_std_periph_driver/src/n32g430_gpio.c ****  *\*\          - GPIO_PIN_3
 191:n32g430_std_periph_driver/src/n32g430_gpio.c ****  *\*\          - GPIO_PIN_4
 192:n32g430_std_periph_driver/src/n32g430_gpio.c ****  *\*\          - GPIO_PIN_5
 193:n32g430_std_periph_driver/src/n32g430_gpio.c ****  *\*\          - GPIO_PIN_6
 194:n32g430_std_periph_driver/src/n32g430_gpio.c ****  *\*\          - GPIO_PIN_7
 195:n32g430_std_periph_driver/src/n32g430_gpio.c ****  *\*\          - GPIO_PIN_8
 196:n32g430_std_periph_driver/src/n32g430_gpio.c ****  *\*\          - GPIO_PIN_9
 197:n32g430_std_periph_driver/src/n32g430_gpio.c ****  *\*\          - GPIO_PIN_10
 198:n32g430_std_periph_driver/src/n32g430_gpio.c ****  *\*\          - GPIO_PIN_11
 199:n32g430_std_periph_driver/src/n32g430_gpio.c ****  *\*\          - GPIO_PIN_12
 200:n32g430_std_periph_driver/src/n32g430_gpio.c ****  *\*\          - GPIO_PIN_13
 201:n32g430_std_periph_driver/src/n32g430_gpio.c ****  *\*\          - GPIO_PIN_14
 202:n32g430_std_periph_driver/src/n32g430_gpio.c ****  *\*\          - GPIO_PIN_15
 203:n32g430_std_periph_driver/src/n32g430_gpio.c ****  *\*\          - GPIO_PIN_ALL
 204:n32g430_std_periph_driver/src/n32g430_gpio.c ****  *\*\return none
 205:n32g430_std_periph_driver/src/n32g430_gpio.c ****  */
 206:n32g430_std_periph_driver/src/n32g430_gpio.c **** void GPIOB_Pin_Reset(uint16_t pin)
 207:n32g430_std_periph_driver/src/n32g430_gpio.c **** {
 397              		.loc 1 207 1 is_stmt 1 view -0
 398              		.cfi_startproc
 399              		@ args = 0, pretend = 0, frame = 0
 400              		@ frame_needed = 0, uses_anonymous_args = 0
 401              		@ link register save eliminated.
 208:n32g430_std_periph_driver/src/n32g430_gpio.c ****     uint32_t position = 0x00U;
 402              		.loc 1 208 5 view .LVU117
 209:n32g430_std_periph_driver/src/n32g430_gpio.c ****     uint32_t current_pin = 0x00U;
 403              		.loc 1 209 5 view .LVU118
 210:n32g430_std_periph_driver/src/n32g430_gpio.c **** 
 211:n32g430_std_periph_driver/src/n32g430_gpio.c ****     while((pin >> position) != 0)
 404              		.loc 1 211 5 view .LVU119
 208:n32g430_std_periph_driver/src/n32g430_gpio.c ****     uint32_t current_pin = 0x00U;
 405              		.loc 1 208 14 is_stmt 0 view .LVU120
 406 0000 0023     		movs	r3, #0
 407              		.loc 1 211 10 view .LVU121
 408 0002 73E0     		b	.L48
 409              	.LVL24:
 410              	.L55:
 411              	.LCFI5:
 412              		.cfi_def_cfa_offset 8
ARM GAS  C:\Users\Dawn\AppData\Local\Temp\ccmCgazd.s 			page 13


 413              		.cfi_offset 4, -8
 414              		.cfi_offset 5, -4
 212:n32g430_std_periph_driver/src/n32g430_gpio.c ****     {
 213:n32g430_std_periph_driver/src/n32g430_gpio.c ****         /* Get the IO position */
 214:n32g430_std_periph_driver/src/n32g430_gpio.c ****         current_pin = (pin) & (IO_POSITION_MASK << position);
 215:n32g430_std_periph_driver/src/n32g430_gpio.c **** 
 216:n32g430_std_periph_driver/src/n32g430_gpio.c ****         if(current_pin)
 217:n32g430_std_periph_driver/src/n32g430_gpio.c ****         {
 218:n32g430_std_periph_driver/src/n32g430_gpio.c ****             /** Reset GPIO pin mode **/
 219:n32g430_std_periph_driver/src/n32g430_gpio.c ****             if((position == GPIOB_MODE_POSITION1) || (position == GPIOB_MODE_POSITION2))
 220:n32g430_std_periph_driver/src/n32g430_gpio.c ****             {
 221:n32g430_std_periph_driver/src/n32g430_gpio.c ****                 /* Configure IO Direction in alternate Mode */
 222:n32g430_std_periph_driver/src/n32g430_gpio.c ****                 GPIOB->PMODE &= ~(GPIO_PMODE_MASK << (position * MULTIPLIER_FACTOR_2));
 415              		.loc 1 222 17 is_stmt 1 view .LVU122
 416              		.loc 1 222 22 is_stmt 0 view .LVU123
 417 0004 3E4A     		ldr	r2, .L58
 418 0006 1168     		ldr	r1, [r2]
 419              		.loc 1 222 64 view .LVU124
 420 0008 5D00     		lsls	r5, r3, #1
 421              		.loc 1 222 51 view .LVU125
 422 000a 0324     		movs	r4, #3
 423 000c AC40     		lsls	r4, r4, r5
 424              		.loc 1 222 30 view .LVU126
 425 000e 21EA0401 		bic	r1, r1, r4
 426 0012 1160     		str	r1, [r2]
 223:n32g430_std_periph_driver/src/n32g430_gpio.c ****                 GPIOB->PMODE |= (GPIO_AF_MODE << (position * MULTIPLIER_FACTOR_2));
 427              		.loc 1 223 17 is_stmt 1 view .LVU127
 428              		.loc 1 223 22 is_stmt 0 view .LVU128
 429 0014 1168     		ldr	r1, [r2]
 430              		.loc 1 223 47 view .LVU129
 431 0016 0224     		movs	r4, #2
 432 0018 AC40     		lsls	r4, r4, r5
 433              		.loc 1 223 30 view .LVU130
 434 001a 2143     		orrs	r1, r1, r4
 435 001c 1160     		str	r1, [r2]
 436 001e 43E0     		b	.L41
 437              	.L42:
 224:n32g430_std_periph_driver/src/n32g430_gpio.c ****             }
 225:n32g430_std_periph_driver/src/n32g430_gpio.c ****             else
 226:n32g430_std_periph_driver/src/n32g430_gpio.c ****             {
 227:n32g430_std_periph_driver/src/n32g430_gpio.c ****                 /* Configure IO Direction in analog Mode */
 228:n32g430_std_periph_driver/src/n32g430_gpio.c ****                 GPIOB->PMODE |= (GPIO_ANALOG_MODE << (position * MULTIPLIER_FACTOR_2));
 229:n32g430_std_periph_driver/src/n32g430_gpio.c ****             }
 230:n32g430_std_periph_driver/src/n32g430_gpio.c **** 
 231:n32g430_std_periph_driver/src/n32g430_gpio.c ****             /** Configure the default Alternate Function in current IO **/
 232:n32g430_std_periph_driver/src/n32g430_gpio.c ****             if(position & AF_SELECTION_MASK)
 233:n32g430_std_periph_driver/src/n32g430_gpio.c ****             {
 234:n32g430_std_periph_driver/src/n32g430_gpio.c ****                 GPIOB->AFH &= ~(GPIO_AF_MASK << ((position & (uint32_t)AF_WRITE_POSITION_MASK) * MU
 235:n32g430_std_periph_driver/src/n32g430_gpio.c ****             }
 236:n32g430_std_periph_driver/src/n32g430_gpio.c ****             else
 237:n32g430_std_periph_driver/src/n32g430_gpio.c ****             {
 238:n32g430_std_periph_driver/src/n32g430_gpio.c ****                 GPIOB->AFL &= ~(GPIO_AF_MASK << ((position & (uint32_t)AF_WRITE_POSITION_MASK) * MU
 438              		.loc 1 238 17 is_stmt 1 view .LVU131
 439              		.loc 1 238 22 is_stmt 0 view .LVU132
 440 0020 374D     		ldr	r5, .L58
 441 0022 2A6A     		ldr	r2, [r5, #32]
 442              		.loc 1 238 60 view .LVU133
ARM GAS  C:\Users\Dawn\AppData\Local\Temp\ccmCgazd.s 			page 14


 443 0024 03F00704 		and	r4, r3, #7
 444              		.loc 1 238 96 view .LVU134
 445 0028 A400     		lsls	r4, r4, #2
 446              		.loc 1 238 46 view .LVU135
 447 002a 0F21     		movs	r1, #15
 448 002c A140     		lsls	r1, r1, r4
 449              		.loc 1 238 28 view .LVU136
 450 002e 22EA0102 		bic	r2, r2, r1
 451 0032 2A62     		str	r2, [r5, #32]
 452              	.L43:
 239:n32g430_std_periph_driver/src/n32g430_gpio.c ****             }
 240:n32g430_std_periph_driver/src/n32g430_gpio.c ****             
 241:n32g430_std_periph_driver/src/n32g430_gpio.c ****             /* Reset GPIO output type to push-pull output */
 242:n32g430_std_periph_driver/src/n32g430_gpio.c ****             GPIOB->POTYPE &= ~(GPIO_POTYPE_MASK << position);
 453              		.loc 1 242 13 is_stmt 1 view .LVU137
 454              		.loc 1 242 18 is_stmt 0 view .LVU138
 455 0034 324C     		ldr	r4, .L58
 456 0036 6268     		ldr	r2, [r4, #4]
 457              		.loc 1 242 49 view .LVU139
 458 0038 0121     		movs	r1, #1
 459 003a 9940     		lsls	r1, r1, r3
 460              		.loc 1 242 27 view .LVU140
 461 003c 22EA0102 		bic	r2, r2, r1
 462 0040 6260     		str	r2, [r4, #4]
 243:n32g430_std_periph_driver/src/n32g430_gpio.c **** 
 244:n32g430_std_periph_driver/src/n32g430_gpio.c ****             if(position == GPIOB_PUPD_POSITION1)
 463              		.loc 1 244 13 is_stmt 1 view .LVU141
 464              		.loc 1 244 15 is_stmt 0 view .LVU142
 465 0042 042B     		cmp	r3, #4
 466 0044 3ED0     		beq	.L53
 245:n32g430_std_periph_driver/src/n32g430_gpio.c ****             {
 246:n32g430_std_periph_driver/src/n32g430_gpio.c ****                 /* Reset the GPIO pull mode to pull-up */
 247:n32g430_std_periph_driver/src/n32g430_gpio.c ****                 GPIOB->PUPD &= ~(GPIO_PUPD_MASK << (position * MULTIPLIER_FACTOR_2)); 
 248:n32g430_std_periph_driver/src/n32g430_gpio.c ****                 GPIOB->PUPD |= (GPIO_PU_MODE << (position * MULTIPLIER_FACTOR_2));  
 249:n32g430_std_periph_driver/src/n32g430_gpio.c ****             }
 250:n32g430_std_periph_driver/src/n32g430_gpio.c ****             else
 251:n32g430_std_periph_driver/src/n32g430_gpio.c ****             {
 252:n32g430_std_periph_driver/src/n32g430_gpio.c ****                 /* Reset the GPIO pull mode to no-pull */
 253:n32g430_std_periph_driver/src/n32g430_gpio.c ****                 GPIOB->PUPD &= ~(GPIO_PUPD_MASK << (position * MULTIPLIER_FACTOR_2));  
 467              		.loc 1 253 17 is_stmt 1 view .LVU143
 468              		.loc 1 253 22 is_stmt 0 view .LVU144
 469 0046 2E4D     		ldr	r5, .L58
 470 0048 EA68     		ldr	r2, [r5, #12]
 471              		.loc 1 253 62 view .LVU145
 472 004a 4FEA430C 		lsl	ip, r3, #1
 473              		.loc 1 253 49 view .LVU146
 474 004e 0324     		movs	r4, #3
 475 0050 04FA0CF4 		lsl	r4, r4, ip
 476              		.loc 1 253 29 view .LVU147
 477 0054 22EA0402 		bic	r2, r2, r4
 478 0058 EA60     		str	r2, [r5, #12]
 479              	.L45:
 254:n32g430_std_periph_driver/src/n32g430_gpio.c ****             }
 255:n32g430_std_periph_driver/src/n32g430_gpio.c **** 
 256:n32g430_std_periph_driver/src/n32g430_gpio.c ****             /* Reset the GPIO slew rate to slow */
 257:n32g430_std_periph_driver/src/n32g430_gpio.c ****             GPIOB->SR |= (GPIO_SR_SLOW << position);  
 480              		.loc 1 257 13 is_stmt 1 view .LVU148
ARM GAS  C:\Users\Dawn\AppData\Local\Temp\ccmCgazd.s 			page 15


 481              		.loc 1 257 18 is_stmt 0 view .LVU149
 482 005a 294A     		ldr	r2, .L58
 483 005c 9468     		ldr	r4, [r2, #8]
 484              		.loc 1 257 23 view .LVU150
 485 005e 2143     		orrs	r1, r1, r4
 486 0060 9160     		str	r1, [r2, #8]
 258:n32g430_std_periph_driver/src/n32g430_gpio.c **** 
 259:n32g430_std_periph_driver/src/n32g430_gpio.c ****             /* Reset the GPIO driver strength to 8 mA */
 260:n32g430_std_periph_driver/src/n32g430_gpio.c ****             GPIOB->DS &= ~(GPIO_DRIVER_MASK << (position * MULTIPLIER_FACTOR_2));  
 487              		.loc 1 260 13 is_stmt 1 view .LVU151
 488              		.loc 1 260 18 is_stmt 0 view .LVU152
 489 0062 D16A     		ldr	r1, [r2, #44]
 490              		.loc 1 260 58 view .LVU153
 491 0064 5C00     		lsls	r4, r3, #1
 492              		.loc 1 260 45 view .LVU154
 493 0066 4FF0030C 		mov	ip, #3
 494 006a 0CFA04FC 		lsl	ip, ip, r4
 495              		.loc 1 260 23 view .LVU155
 496 006e 21EA0C01 		bic	r1, r1, ip
 497 0072 D162     		str	r1, [r2, #44]
 261:n32g430_std_periph_driver/src/n32g430_gpio.c ****             GPIOB->DS |= (GPIO_DRIVER_8MA << (position * MULTIPLIER_FACTOR_2));  
 498              		.loc 1 261 13 is_stmt 1 view .LVU156
 499              		.loc 1 261 18 is_stmt 0 view .LVU157
 500 0074 D16A     		ldr	r1, [r2, #44]
 501              		.loc 1 261 43 view .LVU158
 502 0076 4FF0010C 		mov	ip, #1
 503 007a 0CFA04FC 		lsl	ip, ip, r4
 504              		.loc 1 261 23 view .LVU159
 505 007e 41EA0C01 		orr	r1, r1, ip
 506 0082 D162     		str	r1, [r2, #44]
 507              	.L39:
 262:n32g430_std_periph_driver/src/n32g430_gpio.c ****         }
 263:n32g430_std_periph_driver/src/n32g430_gpio.c ****         position++;
 508              		.loc 1 263 9 is_stmt 1 view .LVU160
 509              		.loc 1 263 17 is_stmt 0 view .LVU161
 510 0084 0133     		adds	r3, r3, #1
 511              	.LVL25:
 211:n32g430_std_periph_driver/src/n32g430_gpio.c ****     {
 512              		.loc 1 211 29 is_stmt 1 view .LVU162
 513 0086 50FA03F2 		asrs	r2, r0, r3
 514 008a 2CD0     		beq	.L54
 214:n32g430_std_periph_driver/src/n32g430_gpio.c **** 
 515              		.loc 1 214 9 view .LVU163
 214:n32g430_std_periph_driver/src/n32g430_gpio.c **** 
 516              		.loc 1 214 49 is_stmt 0 view .LVU164
 517 008c 0122     		movs	r2, #1
 518 008e 9A40     		lsls	r2, r2, r3
 519              	.LVL26:
 216:n32g430_std_periph_driver/src/n32g430_gpio.c ****         {
 520              		.loc 1 216 9 is_stmt 1 view .LVU165
 216:n32g430_std_periph_driver/src/n32g430_gpio.c ****         {
 521              		.loc 1 216 11 is_stmt 0 view .LVU166
 522 0090 1042     		tst	r0, r2
 523 0092 F7D0     		beq	.L39
 524              	.LVL27:
 525              	.L49:
 219:n32g430_std_periph_driver/src/n32g430_gpio.c ****             {
ARM GAS  C:\Users\Dawn\AppData\Local\Temp\ccmCgazd.s 			page 16


 526              		.loc 1 219 13 is_stmt 1 view .LVU167
 219:n32g430_std_periph_driver/src/n32g430_gpio.c ****             {
 527              		.loc 1 219 51 is_stmt 0 view .LVU168
 528 0094 DA1E     		subs	r2, r3, #3
 219:n32g430_std_periph_driver/src/n32g430_gpio.c ****             {
 529              		.loc 1 219 15 view .LVU169
 530 0096 012A     		cmp	r2, #1
 531 0098 B4D9     		bls	.L55
 228:n32g430_std_periph_driver/src/n32g430_gpio.c ****             }
 532              		.loc 1 228 17 is_stmt 1 view .LVU170
 228:n32g430_std_periph_driver/src/n32g430_gpio.c ****             }
 533              		.loc 1 228 22 is_stmt 0 view .LVU171
 534 009a 194C     		ldr	r4, .L58
 535 009c 2268     		ldr	r2, [r4]
 228:n32g430_std_periph_driver/src/n32g430_gpio.c ****             }
 536              		.loc 1 228 64 view .LVU172
 537 009e 5D00     		lsls	r5, r3, #1
 228:n32g430_std_periph_driver/src/n32g430_gpio.c ****             }
 538              		.loc 1 228 51 view .LVU173
 539 00a0 0321     		movs	r1, #3
 540 00a2 A940     		lsls	r1, r1, r5
 228:n32g430_std_periph_driver/src/n32g430_gpio.c ****             }
 541              		.loc 1 228 30 view .LVU174
 542 00a4 0A43     		orrs	r2, r2, r1
 543 00a6 2260     		str	r2, [r4]
 544              	.L41:
 232:n32g430_std_periph_driver/src/n32g430_gpio.c ****             {
 545              		.loc 1 232 13 is_stmt 1 view .LVU175
 232:n32g430_std_periph_driver/src/n32g430_gpio.c ****             {
 546              		.loc 1 232 15 is_stmt 0 view .LVU176
 547 00a8 13F0080F 		tst	r3, #8
 548 00ac B8D0     		beq	.L42
 234:n32g430_std_periph_driver/src/n32g430_gpio.c ****             }
 549              		.loc 1 234 17 is_stmt 1 view .LVU177
 234:n32g430_std_periph_driver/src/n32g430_gpio.c ****             }
 550              		.loc 1 234 22 is_stmt 0 view .LVU178
 551 00ae 144D     		ldr	r5, .L58
 552 00b0 6A6A     		ldr	r2, [r5, #36]
 234:n32g430_std_periph_driver/src/n32g430_gpio.c ****             }
 553              		.loc 1 234 60 view .LVU179
 554 00b2 03F00704 		and	r4, r3, #7
 234:n32g430_std_periph_driver/src/n32g430_gpio.c ****             }
 555              		.loc 1 234 96 view .LVU180
 556 00b6 A400     		lsls	r4, r4, #2
 234:n32g430_std_periph_driver/src/n32g430_gpio.c ****             }
 557              		.loc 1 234 46 view .LVU181
 558 00b8 0F21     		movs	r1, #15
 559 00ba A140     		lsls	r1, r1, r4
 234:n32g430_std_periph_driver/src/n32g430_gpio.c ****             }
 560              		.loc 1 234 28 view .LVU182
 561 00bc 22EA0102 		bic	r2, r2, r1
 562 00c0 6A62     		str	r2, [r5, #36]
 563 00c2 B7E7     		b	.L43
 564              	.L53:
 247:n32g430_std_periph_driver/src/n32g430_gpio.c ****                 GPIOB->PUPD |= (GPIO_PU_MODE << (position * MULTIPLIER_FACTOR_2));  
 565              		.loc 1 247 17 is_stmt 1 view .LVU183
 247:n32g430_std_periph_driver/src/n32g430_gpio.c ****                 GPIOB->PUPD |= (GPIO_PU_MODE << (position * MULTIPLIER_FACTOR_2));  
ARM GAS  C:\Users\Dawn\AppData\Local\Temp\ccmCgazd.s 			page 17


 566              		.loc 1 247 22 is_stmt 0 view .LVU184
 567 00c4 2246     		mov	r2, r4
 568 00c6 E468     		ldr	r4, [r4, #12]
 247:n32g430_std_periph_driver/src/n32g430_gpio.c ****                 GPIOB->PUPD |= (GPIO_PU_MODE << (position * MULTIPLIER_FACTOR_2));  
 569              		.loc 1 247 62 view .LVU185
 570 00c8 4FEA430C 		lsl	ip, r3, #1
 247:n32g430_std_periph_driver/src/n32g430_gpio.c ****                 GPIOB->PUPD |= (GPIO_PU_MODE << (position * MULTIPLIER_FACTOR_2));  
 571              		.loc 1 247 49 view .LVU186
 572 00cc 0325     		movs	r5, #3
 573 00ce 05FA0CF5 		lsl	r5, r5, ip
 247:n32g430_std_periph_driver/src/n32g430_gpio.c ****                 GPIOB->PUPD |= (GPIO_PU_MODE << (position * MULTIPLIER_FACTOR_2));  
 574              		.loc 1 247 29 view .LVU187
 575 00d2 24EA0504 		bic	r4, r4, r5
 576 00d6 D460     		str	r4, [r2, #12]
 248:n32g430_std_periph_driver/src/n32g430_gpio.c ****             }
 577              		.loc 1 248 17 is_stmt 1 view .LVU188
 248:n32g430_std_periph_driver/src/n32g430_gpio.c ****             }
 578              		.loc 1 248 22 is_stmt 0 view .LVU189
 579 00d8 D468     		ldr	r4, [r2, #12]
 248:n32g430_std_periph_driver/src/n32g430_gpio.c ****             }
 580              		.loc 1 248 46 view .LVU190
 581 00da 0125     		movs	r5, #1
 582 00dc 05FA0CF5 		lsl	r5, r5, ip
 248:n32g430_std_periph_driver/src/n32g430_gpio.c ****             }
 583              		.loc 1 248 29 view .LVU191
 584 00e0 2C43     		orrs	r4, r4, r5
 585 00e2 D460     		str	r4, [r2, #12]
 586 00e4 B9E7     		b	.L45
 587              	.L54:
 264:n32g430_std_periph_driver/src/n32g430_gpio.c ****     }
 265:n32g430_std_periph_driver/src/n32g430_gpio.c **** }
 588              		.loc 1 265 1 view .LVU192
 589 00e6 30BC     		pop	{r4, r5}
 590              	.LCFI6:
 591              		.cfi_restore 5
 592              		.cfi_restore 4
 593              		.cfi_def_cfa_offset 0
 594 00e8 7047     		bx	lr
 595              	.LVL28:
 596              	.L57:
 263:n32g430_std_periph_driver/src/n32g430_gpio.c ****     }
 597              		.loc 1 263 9 is_stmt 1 view .LVU193
 263:n32g430_std_periph_driver/src/n32g430_gpio.c ****     }
 598              		.loc 1 263 17 is_stmt 0 view .LVU194
 599 00ea 0133     		adds	r3, r3, #1
 600              	.LVL29:
 601              	.L48:
 211:n32g430_std_periph_driver/src/n32g430_gpio.c ****     {
 602              		.loc 1 211 29 is_stmt 1 view .LVU195
 603 00ec 50FA03F2 		asrs	r2, r0, r3
 604 00f0 05D0     		beq	.L56
 214:n32g430_std_periph_driver/src/n32g430_gpio.c **** 
 605              		.loc 1 214 9 view .LVU196
 214:n32g430_std_periph_driver/src/n32g430_gpio.c **** 
 606              		.loc 1 214 49 is_stmt 0 view .LVU197
 607 00f2 0122     		movs	r2, #1
 608 00f4 9A40     		lsls	r2, r2, r3
ARM GAS  C:\Users\Dawn\AppData\Local\Temp\ccmCgazd.s 			page 18


 609              	.LVL30:
 216:n32g430_std_periph_driver/src/n32g430_gpio.c ****         {
 610              		.loc 1 216 9 is_stmt 1 view .LVU198
 216:n32g430_std_periph_driver/src/n32g430_gpio.c ****         {
 611              		.loc 1 216 11 is_stmt 0 view .LVU199
 612 00f6 1042     		tst	r0, r2
 613 00f8 F7D0     		beq	.L57
 207:n32g430_std_periph_driver/src/n32g430_gpio.c ****     uint32_t position = 0x00U;
 614              		.loc 1 207 1 view .LVU200
 615 00fa 30B4     		push	{r4, r5}
 616              	.LCFI7:
 617              		.cfi_def_cfa_offset 8
 618              		.cfi_offset 4, -8
 619              		.cfi_offset 5, -4
 620 00fc CAE7     		b	.L49
 621              	.LVL31:
 622              	.L56:
 623              	.LCFI8:
 624              		.cfi_def_cfa_offset 0
 625              		.cfi_restore 4
 626              		.cfi_restore 5
 207:n32g430_std_periph_driver/src/n32g430_gpio.c ****     uint32_t position = 0x00U;
 627              		.loc 1 207 1 view .LVU201
 628 00fe 7047     		bx	lr
 629              	.L59:
 630              		.align	2
 631              	.L58:
 632 0100 00380240 		.word	1073887232
 633              		.cfi_endproc
 634              	.LFE125:
 636              		.section	.text.GPIOC_Pin_Reset,"ax",%progbits
 637              		.align	1
 638              		.global	GPIOC_Pin_Reset
 639              		.syntax unified
 640              		.thumb
 641              		.thumb_func
 643              	GPIOC_Pin_Reset:
 644              	.LVL32:
 645              	.LFB126:
 266:n32g430_std_periph_driver/src/n32g430_gpio.c **** 
 267:n32g430_std_periph_driver/src/n32g430_gpio.c **** /**
 268:n32g430_std_periph_driver/src/n32g430_gpio.c ****  *\*\name   GPIOC_Pin_Reset.
 269:n32g430_std_periph_driver/src/n32g430_gpio.c ****  *\*\fun    Reset the GPIOC peripheral registers to it's default reset values.
 270:n32g430_std_periph_driver/src/n32g430_gpio.c ****  *\*\param  pin :
 271:n32g430_std_periph_driver/src/n32g430_gpio.c ****  *\*\          - GPIO_PIN_13
 272:n32g430_std_periph_driver/src/n32g430_gpio.c ****  *\*\          - GPIO_PIN_14
 273:n32g430_std_periph_driver/src/n32g430_gpio.c ****  *\*\          - GPIO_PIN_15
 274:n32g430_std_periph_driver/src/n32g430_gpio.c ****  *\*\          - GPIO_PIN_ALL
 275:n32g430_std_periph_driver/src/n32g430_gpio.c ****  *\*\return none
 276:n32g430_std_periph_driver/src/n32g430_gpio.c ****  */
 277:n32g430_std_periph_driver/src/n32g430_gpio.c **** void GPIOC_Pin_Reset(uint16_t pin)
 278:n32g430_std_periph_driver/src/n32g430_gpio.c **** {
 646              		.loc 1 278 1 is_stmt 1 view -0
 647              		.cfi_startproc
 648              		@ args = 0, pretend = 0, frame = 0
 649              		@ frame_needed = 0, uses_anonymous_args = 0
 279:n32g430_std_periph_driver/src/n32g430_gpio.c ****     uint32_t position = 0x00U;
ARM GAS  C:\Users\Dawn\AppData\Local\Temp\ccmCgazd.s 			page 19


 650              		.loc 1 279 5 view .LVU203
 280:n32g430_std_periph_driver/src/n32g430_gpio.c ****     uint32_t current_pin = 0x00U;
 651              		.loc 1 280 5 view .LVU204
 281:n32g430_std_periph_driver/src/n32g430_gpio.c **** 
 282:n32g430_std_periph_driver/src/n32g430_gpio.c ****     while((pin >> position) != 0)
 652              		.loc 1 282 5 view .LVU205
 279:n32g430_std_periph_driver/src/n32g430_gpio.c ****     uint32_t current_pin = 0x00U;
 653              		.loc 1 279 14 is_stmt 0 view .LVU206
 654 0000 0022     		movs	r2, #0
 655              		.loc 1 282 10 view .LVU207
 656 0002 01E0     		b	.L65
 657              	.LVL33:
 658              	.L72:
 659              	.LCFI9:
 660              		.cfi_def_cfa_offset 12
 661              		.cfi_offset 4, -12
 662              		.cfi_offset 5, -8
 663              		.cfi_offset 14, -4
 283:n32g430_std_periph_driver/src/n32g430_gpio.c ****     {
 284:n32g430_std_periph_driver/src/n32g430_gpio.c ****         /* Get the IO position */
 285:n32g430_std_periph_driver/src/n32g430_gpio.c ****         current_pin = (pin) & (IO_POSITION_MASK << position);
 286:n32g430_std_periph_driver/src/n32g430_gpio.c **** 
 287:n32g430_std_periph_driver/src/n32g430_gpio.c ****         if(current_pin)
 288:n32g430_std_periph_driver/src/n32g430_gpio.c ****         {
 289:n32g430_std_periph_driver/src/n32g430_gpio.c ****             /* Configure IO Direction in analog Mode */
 290:n32g430_std_periph_driver/src/n32g430_gpio.c ****             GPIOC->PMODE |= (GPIO_ANALOG_MODE << (position * MULTIPLIER_FACTOR_2));
 291:n32g430_std_periph_driver/src/n32g430_gpio.c **** 
 292:n32g430_std_periph_driver/src/n32g430_gpio.c ****             /* Configure the default Alternate Function in current IO */
 293:n32g430_std_periph_driver/src/n32g430_gpio.c ****             GPIOC->AFH &= ~(GPIO_AF_MASK << ((position & (uint32_t)AF_WRITE_POSITION_MASK) * MULTIP
 294:n32g430_std_periph_driver/src/n32g430_gpio.c **** 
 295:n32g430_std_periph_driver/src/n32g430_gpio.c ****             /* Reset GPIO output type to push-pull output */
 296:n32g430_std_periph_driver/src/n32g430_gpio.c ****             GPIOC->POTYPE &= ~(GPIO_POTYPE_MASK << position);
 297:n32g430_std_periph_driver/src/n32g430_gpio.c **** 
 298:n32g430_std_periph_driver/src/n32g430_gpio.c ****             /* Reset the GPIO pull mode to no-pull */
 299:n32g430_std_periph_driver/src/n32g430_gpio.c ****             GPIOC->PUPD &= ~(GPIO_PUPD_MASK << (position * MULTIPLIER_FACTOR_2));  
 300:n32g430_std_periph_driver/src/n32g430_gpio.c **** 
 301:n32g430_std_periph_driver/src/n32g430_gpio.c ****             /* Reset the GPIO slew rate to slow */
 302:n32g430_std_periph_driver/src/n32g430_gpio.c ****             GPIOC->SR |= (GPIO_SR_SLOW << position);  
 303:n32g430_std_periph_driver/src/n32g430_gpio.c **** 
 304:n32g430_std_periph_driver/src/n32g430_gpio.c ****             /* Reset the GPIO driver strength to 8 mA */
 305:n32g430_std_periph_driver/src/n32g430_gpio.c ****             GPIOC->DS &= ~(GPIO_DRIVER_MASK << (position * MULTIPLIER_FACTOR_2)); 
 306:n32g430_std_periph_driver/src/n32g430_gpio.c ****             GPIOC->DS |= (GPIO_DRIVER_8MA << (position * MULTIPLIER_FACTOR_2));  
 307:n32g430_std_periph_driver/src/n32g430_gpio.c ****         }
 308:n32g430_std_periph_driver/src/n32g430_gpio.c ****         position++;
 309:n32g430_std_periph_driver/src/n32g430_gpio.c ****     }
 310:n32g430_std_periph_driver/src/n32g430_gpio.c **** }
 664              		.loc 1 310 1 view .LVU208
 665 0004 30BD     		pop	{r4, r5, pc}
 666              	.LVL34:
 667              	.L71:
 668              	.LCFI10:
 669              		.cfi_def_cfa_offset 0
 670              		.cfi_restore 4
 671              		.cfi_restore 5
 672              		.cfi_restore 14
 308:n32g430_std_periph_driver/src/n32g430_gpio.c ****     }
 673              		.loc 1 308 9 is_stmt 1 view .LVU209
ARM GAS  C:\Users\Dawn\AppData\Local\Temp\ccmCgazd.s 			page 20


 308:n32g430_std_periph_driver/src/n32g430_gpio.c ****     }
 674              		.loc 1 308 17 is_stmt 0 view .LVU210
 675 0006 0132     		adds	r2, r2, #1
 676              	.LVL35:
 677              	.L65:
 282:n32g430_std_periph_driver/src/n32g430_gpio.c ****     {
 678              		.loc 1 282 29 is_stmt 1 view .LVU211
 679 0008 50FA02F3 		asrs	r3, r0, r2
 680 000c 3AD0     		beq	.L70
 285:n32g430_std_periph_driver/src/n32g430_gpio.c **** 
 681              		.loc 1 285 9 view .LVU212
 285:n32g430_std_periph_driver/src/n32g430_gpio.c **** 
 682              		.loc 1 285 49 is_stmt 0 view .LVU213
 683 000e 0123     		movs	r3, #1
 684 0010 9340     		lsls	r3, r3, r2
 685              	.LVL36:
 287:n32g430_std_periph_driver/src/n32g430_gpio.c ****         {
 686              		.loc 1 287 9 is_stmt 1 view .LVU214
 287:n32g430_std_periph_driver/src/n32g430_gpio.c ****         {
 687              		.loc 1 287 11 is_stmt 0 view .LVU215
 688 0012 1842     		tst	r0, r3
 689 0014 F7D0     		beq	.L71
 278:n32g430_std_periph_driver/src/n32g430_gpio.c ****     uint32_t position = 0x00U;
 690              		.loc 1 278 1 view .LVU216
 691 0016 30B5     		push	{r4, r5, lr}
 692              	.LCFI11:
 693              		.cfi_def_cfa_offset 12
 694              		.cfi_offset 4, -12
 695              		.cfi_offset 5, -8
 696              		.cfi_offset 14, -4
 697              	.LVL37:
 698              	.L66:
 290:n32g430_std_periph_driver/src/n32g430_gpio.c **** 
 699              		.loc 1 290 13 is_stmt 1 view .LVU217
 290:n32g430_std_periph_driver/src/n32g430_gpio.c **** 
 700              		.loc 1 290 18 is_stmt 0 view .LVU218
 701 0018 1B4B     		ldr	r3, .L73
 702 001a 1C68     		ldr	r4, [r3]
 290:n32g430_std_periph_driver/src/n32g430_gpio.c **** 
 703              		.loc 1 290 60 view .LVU219
 704 001c 4FEA420E 		lsl	lr, r2, #1
 290:n32g430_std_periph_driver/src/n32g430_gpio.c **** 
 705              		.loc 1 290 47 view .LVU220
 706 0020 0321     		movs	r1, #3
 707 0022 01FA0EF1 		lsl	r1, r1, lr
 290:n32g430_std_periph_driver/src/n32g430_gpio.c **** 
 708              		.loc 1 290 26 view .LVU221
 709 0026 0C43     		orrs	r4, r4, r1
 710 0028 1C60     		str	r4, [r3]
 293:n32g430_std_periph_driver/src/n32g430_gpio.c **** 
 711              		.loc 1 293 13 is_stmt 1 view .LVU222
 293:n32g430_std_periph_driver/src/n32g430_gpio.c **** 
 712              		.loc 1 293 18 is_stmt 0 view .LVU223
 713 002a 5C6A     		ldr	r4, [r3, #36]
 293:n32g430_std_periph_driver/src/n32g430_gpio.c **** 
 714              		.loc 1 293 56 view .LVU224
 715 002c 02F00705 		and	r5, r2, #7
ARM GAS  C:\Users\Dawn\AppData\Local\Temp\ccmCgazd.s 			page 21


 293:n32g430_std_periph_driver/src/n32g430_gpio.c **** 
 716              		.loc 1 293 92 view .LVU225
 717 0030 AD00     		lsls	r5, r5, #2
 293:n32g430_std_periph_driver/src/n32g430_gpio.c **** 
 718              		.loc 1 293 42 view .LVU226
 719 0032 4FF00F0C 		mov	ip, #15
 720 0036 0CFA05FC 		lsl	ip, ip, r5
 293:n32g430_std_periph_driver/src/n32g430_gpio.c **** 
 721              		.loc 1 293 24 view .LVU227
 722 003a 24EA0C04 		bic	r4, r4, ip
 723 003e 5C62     		str	r4, [r3, #36]
 296:n32g430_std_periph_driver/src/n32g430_gpio.c **** 
 724              		.loc 1 296 13 is_stmt 1 view .LVU228
 296:n32g430_std_periph_driver/src/n32g430_gpio.c **** 
 725              		.loc 1 296 18 is_stmt 0 view .LVU229
 726 0040 5C68     		ldr	r4, [r3, #4]
 296:n32g430_std_periph_driver/src/n32g430_gpio.c **** 
 727              		.loc 1 296 49 view .LVU230
 728 0042 4FF0010C 		mov	ip, #1
 729 0046 0CFA02F5 		lsl	r5, ip, r2
 296:n32g430_std_periph_driver/src/n32g430_gpio.c **** 
 730              		.loc 1 296 27 view .LVU231
 731 004a 24EA0504 		bic	r4, r4, r5
 732 004e 5C60     		str	r4, [r3, #4]
 299:n32g430_std_periph_driver/src/n32g430_gpio.c **** 
 733              		.loc 1 299 13 is_stmt 1 view .LVU232
 299:n32g430_std_periph_driver/src/n32g430_gpio.c **** 
 734              		.loc 1 299 18 is_stmt 0 view .LVU233
 735 0050 DC68     		ldr	r4, [r3, #12]
 299:n32g430_std_periph_driver/src/n32g430_gpio.c **** 
 736              		.loc 1 299 25 view .LVU234
 737 0052 24EA0104 		bic	r4, r4, r1
 738 0056 DC60     		str	r4, [r3, #12]
 302:n32g430_std_periph_driver/src/n32g430_gpio.c **** 
 739              		.loc 1 302 13 is_stmt 1 view .LVU235
 302:n32g430_std_periph_driver/src/n32g430_gpio.c **** 
 740              		.loc 1 302 18 is_stmt 0 view .LVU236
 741 0058 9C68     		ldr	r4, [r3, #8]
 302:n32g430_std_periph_driver/src/n32g430_gpio.c **** 
 742              		.loc 1 302 23 view .LVU237
 743 005a 2C43     		orrs	r4, r4, r5
 744 005c 9C60     		str	r4, [r3, #8]
 305:n32g430_std_periph_driver/src/n32g430_gpio.c ****             GPIOC->DS |= (GPIO_DRIVER_8MA << (position * MULTIPLIER_FACTOR_2));  
 745              		.loc 1 305 13 is_stmt 1 view .LVU238
 305:n32g430_std_periph_driver/src/n32g430_gpio.c ****             GPIOC->DS |= (GPIO_DRIVER_8MA << (position * MULTIPLIER_FACTOR_2));  
 746              		.loc 1 305 18 is_stmt 0 view .LVU239
 747 005e DC6A     		ldr	r4, [r3, #44]
 305:n32g430_std_periph_driver/src/n32g430_gpio.c ****             GPIOC->DS |= (GPIO_DRIVER_8MA << (position * MULTIPLIER_FACTOR_2));  
 748              		.loc 1 305 23 view .LVU240
 749 0060 24EA0101 		bic	r1, r4, r1
 750 0064 D962     		str	r1, [r3, #44]
 306:n32g430_std_periph_driver/src/n32g430_gpio.c ****         }
 751              		.loc 1 306 13 is_stmt 1 view .LVU241
 306:n32g430_std_periph_driver/src/n32g430_gpio.c ****         }
 752              		.loc 1 306 18 is_stmt 0 view .LVU242
 753 0066 D96A     		ldr	r1, [r3, #44]
 306:n32g430_std_periph_driver/src/n32g430_gpio.c ****         }
ARM GAS  C:\Users\Dawn\AppData\Local\Temp\ccmCgazd.s 			page 22


 754              		.loc 1 306 43 view .LVU243
 755 0068 0CFA0EFC 		lsl	ip, ip, lr
 306:n32g430_std_periph_driver/src/n32g430_gpio.c ****         }
 756              		.loc 1 306 23 view .LVU244
 757 006c 41EA0C01 		orr	r1, r1, ip
 758 0070 D962     		str	r1, [r3, #44]
 759              	.L62:
 308:n32g430_std_periph_driver/src/n32g430_gpio.c ****     }
 760              		.loc 1 308 9 is_stmt 1 view .LVU245
 308:n32g430_std_periph_driver/src/n32g430_gpio.c ****     }
 761              		.loc 1 308 17 is_stmt 0 view .LVU246
 762 0072 0132     		adds	r2, r2, #1
 763              	.LVL38:
 282:n32g430_std_periph_driver/src/n32g430_gpio.c ****     {
 764              		.loc 1 282 29 is_stmt 1 view .LVU247
 765 0074 50FA02F3 		asrs	r3, r0, r2
 766 0078 C4D0     		beq	.L72
 285:n32g430_std_periph_driver/src/n32g430_gpio.c **** 
 767              		.loc 1 285 9 view .LVU248
 285:n32g430_std_periph_driver/src/n32g430_gpio.c **** 
 768              		.loc 1 285 49 is_stmt 0 view .LVU249
 769 007a 0123     		movs	r3, #1
 770 007c 9340     		lsls	r3, r3, r2
 771              	.LVL39:
 287:n32g430_std_periph_driver/src/n32g430_gpio.c ****         {
 772              		.loc 1 287 9 is_stmt 1 view .LVU250
 287:n32g430_std_periph_driver/src/n32g430_gpio.c ****         {
 773              		.loc 1 287 11 is_stmt 0 view .LVU251
 774 007e 1842     		tst	r0, r3
 775 0080 F7D0     		beq	.L62
 776 0082 C9E7     		b	.L66
 777              	.LVL40:
 778              	.L70:
 779              	.LCFI12:
 780              		.cfi_def_cfa_offset 0
 781              		.cfi_restore 4
 782              		.cfi_restore 5
 783              		.cfi_restore 14
 287:n32g430_std_periph_driver/src/n32g430_gpio.c ****         {
 784              		.loc 1 287 11 view .LVU252
 785 0084 7047     		bx	lr
 786              	.L74:
 787 0086 00BF     		.align	2
 788              	.L73:
 789 0088 003C0240 		.word	1073888256
 790              		.cfi_endproc
 791              	.LFE126:
 793              		.section	.text.GPIOD_Pin_Reset,"ax",%progbits
 794              		.align	1
 795              		.global	GPIOD_Pin_Reset
 796              		.syntax unified
 797              		.thumb
 798              		.thumb_func
 800              	GPIOD_Pin_Reset:
 801              	.LVL41:
 802              	.LFB127:
 311:n32g430_std_periph_driver/src/n32g430_gpio.c **** 
ARM GAS  C:\Users\Dawn\AppData\Local\Temp\ccmCgazd.s 			page 23


 312:n32g430_std_periph_driver/src/n32g430_gpio.c **** 
 313:n32g430_std_periph_driver/src/n32g430_gpio.c **** /**
 314:n32g430_std_periph_driver/src/n32g430_gpio.c ****  *\*\name   GPIOD_Pin_Reset.
 315:n32g430_std_periph_driver/src/n32g430_gpio.c ****  *\*\fun    Reset the GPIOD peripheral registers to it's default reset values.
 316:n32g430_std_periph_driver/src/n32g430_gpio.c ****  *\*\param  pin :
 317:n32g430_std_periph_driver/src/n32g430_gpio.c ****  *\*\          - GPIO_PIN_0
 318:n32g430_std_periph_driver/src/n32g430_gpio.c ****  *\*\          - GPIO_PIN_12
 319:n32g430_std_periph_driver/src/n32g430_gpio.c ****  *\*\          - GPIO_PIN_13
 320:n32g430_std_periph_driver/src/n32g430_gpio.c ****  *\*\          - GPIO_PIN_14
 321:n32g430_std_periph_driver/src/n32g430_gpio.c ****  *\*\          - GPIO_PIN_15
 322:n32g430_std_periph_driver/src/n32g430_gpio.c ****  *\*\          - GPIO_PIN_ALL
 323:n32g430_std_periph_driver/src/n32g430_gpio.c ****  *\*\return none
 324:n32g430_std_periph_driver/src/n32g430_gpio.c ****  */
 325:n32g430_std_periph_driver/src/n32g430_gpio.c **** void GPIOD_Pin_Reset(uint16_t pin)
 326:n32g430_std_periph_driver/src/n32g430_gpio.c **** {
 803              		.loc 1 326 1 is_stmt 1 view -0
 804              		.cfi_startproc
 805              		@ args = 0, pretend = 0, frame = 0
 806              		@ frame_needed = 0, uses_anonymous_args = 0
 327:n32g430_std_periph_driver/src/n32g430_gpio.c ****     uint32_t position = 0x00U;
 807              		.loc 1 327 5 view .LVU254
 328:n32g430_std_periph_driver/src/n32g430_gpio.c ****     uint32_t current_pin = 0x00U;
 808              		.loc 1 328 5 view .LVU255
 329:n32g430_std_periph_driver/src/n32g430_gpio.c **** 
 330:n32g430_std_periph_driver/src/n32g430_gpio.c ****     while((pin >> position) != 0)
 809              		.loc 1 330 5 view .LVU256
 327:n32g430_std_periph_driver/src/n32g430_gpio.c ****     uint32_t current_pin = 0x00U;
 810              		.loc 1 327 14 is_stmt 0 view .LVU257
 811 0000 0023     		movs	r3, #0
 812              		.loc 1 330 10 view .LVU258
 813 0002 73E0     		b	.L86
 814              	.LVL42:
 815              	.L78:
 816              	.LCFI13:
 817              		.cfi_def_cfa_offset 12
 818              		.cfi_offset 4, -12
 819              		.cfi_offset 5, -8
 820              		.cfi_offset 14, -4
 331:n32g430_std_periph_driver/src/n32g430_gpio.c ****     {
 332:n32g430_std_periph_driver/src/n32g430_gpio.c ****         /* Get the IO position */
 333:n32g430_std_periph_driver/src/n32g430_gpio.c ****         current_pin = (pin) & (IO_POSITION_MASK << position);
 334:n32g430_std_periph_driver/src/n32g430_gpio.c **** 
 335:n32g430_std_periph_driver/src/n32g430_gpio.c ****         if(current_pin)
 336:n32g430_std_periph_driver/src/n32g430_gpio.c ****         {
 337:n32g430_std_periph_driver/src/n32g430_gpio.c ****             if(position == GPIOD_MODE_POSITION)
 338:n32g430_std_periph_driver/src/n32g430_gpio.c ****             {
 339:n32g430_std_periph_driver/src/n32g430_gpio.c ****                 /* Configure IO Direction in input Mode */
 340:n32g430_std_periph_driver/src/n32g430_gpio.c ****                 GPIOD->PMODE &= ~(GPIO_PMODE_MASK << (position * MULTIPLIER_FACTOR_2));
 341:n32g430_std_periph_driver/src/n32g430_gpio.c ****                 GPIOD->PMODE |= (GPIO_INPUT_MODE << (position * MULTIPLIER_FACTOR_2));
 342:n32g430_std_periph_driver/src/n32g430_gpio.c ****             }
 343:n32g430_std_periph_driver/src/n32g430_gpio.c ****             else
 344:n32g430_std_periph_driver/src/n32g430_gpio.c ****             {
 345:n32g430_std_periph_driver/src/n32g430_gpio.c ****                 /* Configure IO Direction in analog Mode */
 346:n32g430_std_periph_driver/src/n32g430_gpio.c ****                 GPIOD->PMODE |= (GPIO_ANALOG_MODE << (position * MULTIPLIER_FACTOR_2));
 821              		.loc 1 346 17 is_stmt 1 view .LVU259
 822              		.loc 1 346 22 is_stmt 0 view .LVU260
 823 0004 3E4C     		ldr	r4, .L94
ARM GAS  C:\Users\Dawn\AppData\Local\Temp\ccmCgazd.s 			page 24


 824 0006 2268     		ldr	r2, [r4]
 825              		.loc 1 346 64 view .LVU261
 826 0008 5D00     		lsls	r5, r3, #1
 827              		.loc 1 346 51 view .LVU262
 828 000a 0321     		movs	r1, #3
 829 000c A940     		lsls	r1, r1, r5
 830              		.loc 1 346 30 view .LVU263
 831 000e 0A43     		orrs	r2, r2, r1
 832 0010 2260     		str	r2, [r4]
 833 0012 3FE0     		b	.L79
 834              	.L80:
 347:n32g430_std_periph_driver/src/n32g430_gpio.c ****             }
 348:n32g430_std_periph_driver/src/n32g430_gpio.c **** 
 349:n32g430_std_periph_driver/src/n32g430_gpio.c ****             /* Configure the default Alternate Function in current IO */
 350:n32g430_std_periph_driver/src/n32g430_gpio.c ****             if(position & AF_SELECTION_MASK)
 351:n32g430_std_periph_driver/src/n32g430_gpio.c ****             {
 352:n32g430_std_periph_driver/src/n32g430_gpio.c ****                 GPIOD->AFH &= ~(GPIO_AF_MASK << ((position & (uint32_t)AF_WRITE_POSITION_MASK) * MU
 353:n32g430_std_periph_driver/src/n32g430_gpio.c ****             }
 354:n32g430_std_periph_driver/src/n32g430_gpio.c ****             else
 355:n32g430_std_periph_driver/src/n32g430_gpio.c ****             {
 356:n32g430_std_periph_driver/src/n32g430_gpio.c ****                 GPIOD->AFL &= ~(GPIO_AF_MASK << ((position & (uint32_t)AF_WRITE_POSITION_MASK) * MU
 835              		.loc 1 356 17 is_stmt 1 view .LVU264
 836              		.loc 1 356 22 is_stmt 0 view .LVU265
 837 0014 3A4D     		ldr	r5, .L94
 838 0016 2A6A     		ldr	r2, [r5, #32]
 839              		.loc 1 356 60 view .LVU266
 840 0018 03F00704 		and	r4, r3, #7
 841              		.loc 1 356 96 view .LVU267
 842 001c A400     		lsls	r4, r4, #2
 843              		.loc 1 356 46 view .LVU268
 844 001e 0F21     		movs	r1, #15
 845 0020 A140     		lsls	r1, r1, r4
 846              		.loc 1 356 28 view .LVU269
 847 0022 22EA0102 		bic	r2, r2, r1
 848 0026 2A62     		str	r2, [r5, #32]
 849 0028 41E0     		b	.L81
 850              	.L82:
 357:n32g430_std_periph_driver/src/n32g430_gpio.c ****             }
 358:n32g430_std_periph_driver/src/n32g430_gpio.c **** 
 359:n32g430_std_periph_driver/src/n32g430_gpio.c ****             /* Reset GPIO output type to push-pull output */
 360:n32g430_std_periph_driver/src/n32g430_gpio.c ****             GPIOD->POTYPE &= ~(GPIO_POTYPE_MASK << position);
 361:n32g430_std_periph_driver/src/n32g430_gpio.c **** 
 362:n32g430_std_periph_driver/src/n32g430_gpio.c ****             if(position == GPIOD_PUPD_POSITION1)
 363:n32g430_std_periph_driver/src/n32g430_gpio.c ****             {
 364:n32g430_std_periph_driver/src/n32g430_gpio.c ****                 /* Reset the GPIO pull mode to pull-down */
 365:n32g430_std_periph_driver/src/n32g430_gpio.c ****                 GPIOD->PUPD &= ~(GPIO_PUPD_MASK << (position * MULTIPLIER_FACTOR_2));  
 366:n32g430_std_periph_driver/src/n32g430_gpio.c ****                 GPIOD->PUPD |= (GPIO_PD_MODE << (position * MULTIPLIER_FACTOR_2));  
 367:n32g430_std_periph_driver/src/n32g430_gpio.c ****             }
 368:n32g430_std_periph_driver/src/n32g430_gpio.c ****             else if(position >= GPIOD_PUPD_POSITION2)
 851              		.loc 1 368 18 is_stmt 1 view .LVU270
 852              		.loc 1 368 20 is_stmt 0 view .LVU271
 853 002a 0B2B     		cmp	r3, #11
 854 002c 09D9     		bls	.L83
 369:n32g430_std_periph_driver/src/n32g430_gpio.c ****             {
 370:n32g430_std_periph_driver/src/n32g430_gpio.c ****                 /* Reset the GPIO pull mode to no-pull */
 371:n32g430_std_periph_driver/src/n32g430_gpio.c ****                 GPIOD->PUPD &= ~(GPIO_PUPD_MASK << (position * MULTIPLIER_FACTOR_2));  
 855              		.loc 1 371 17 is_stmt 1 view .LVU272
ARM GAS  C:\Users\Dawn\AppData\Local\Temp\ccmCgazd.s 			page 25


 856              		.loc 1 371 22 is_stmt 0 view .LVU273
 857 002e 344D     		ldr	r5, .L94
 858 0030 EA68     		ldr	r2, [r5, #12]
 859              		.loc 1 371 62 view .LVU274
 860 0032 4FEA430C 		lsl	ip, r3, #1
 861              		.loc 1 371 49 view .LVU275
 862 0036 0324     		movs	r4, #3
 863 0038 04FA0CF4 		lsl	r4, r4, ip
 864              		.loc 1 371 29 view .LVU276
 865 003c 22EA0402 		bic	r2, r2, r4
 866 0040 EA60     		str	r2, [r5, #12]
 867              	.L83:
 372:n32g430_std_periph_driver/src/n32g430_gpio.c ****             }
 373:n32g430_std_periph_driver/src/n32g430_gpio.c ****             
 374:n32g430_std_periph_driver/src/n32g430_gpio.c ****             /* Reset the GPIO slew rate to slow */
 375:n32g430_std_periph_driver/src/n32g430_gpio.c ****             GPIOD->SR |= (GPIO_SR_SLOW << position);  
 868              		.loc 1 375 13 is_stmt 1 view .LVU277
 869              		.loc 1 375 18 is_stmt 0 view .LVU278
 870 0042 2F4A     		ldr	r2, .L94
 871 0044 9468     		ldr	r4, [r2, #8]
 872              		.loc 1 375 23 view .LVU279
 873 0046 2143     		orrs	r1, r1, r4
 874 0048 9160     		str	r1, [r2, #8]
 376:n32g430_std_periph_driver/src/n32g430_gpio.c **** 
 377:n32g430_std_periph_driver/src/n32g430_gpio.c ****             /* Reset the GPIO driver strength to 8 mA */
 378:n32g430_std_periph_driver/src/n32g430_gpio.c ****             GPIOD->DS &= ~(GPIO_DRIVER_MASK << (position * MULTIPLIER_FACTOR_2)); 
 875              		.loc 1 378 13 is_stmt 1 view .LVU280
 876              		.loc 1 378 18 is_stmt 0 view .LVU281
 877 004a D16A     		ldr	r1, [r2, #44]
 878              		.loc 1 378 58 view .LVU282
 879 004c 5C00     		lsls	r4, r3, #1
 880              		.loc 1 378 45 view .LVU283
 881 004e 4FF0030C 		mov	ip, #3
 882 0052 0CFA04FC 		lsl	ip, ip, r4
 883              		.loc 1 378 23 view .LVU284
 884 0056 21EA0C01 		bic	r1, r1, ip
 885 005a D162     		str	r1, [r2, #44]
 379:n32g430_std_periph_driver/src/n32g430_gpio.c ****             GPIOD->DS |= (GPIO_DRIVER_8MA << (position * MULTIPLIER_FACTOR_2)); 
 886              		.loc 1 379 13 is_stmt 1 view .LVU285
 887              		.loc 1 379 18 is_stmt 0 view .LVU286
 888 005c D16A     		ldr	r1, [r2, #44]
 889              		.loc 1 379 43 view .LVU287
 890 005e 4FF0010C 		mov	ip, #1
 891 0062 0CFA04FC 		lsl	ip, ip, r4
 892              		.loc 1 379 23 view .LVU288
 893 0066 41EA0C01 		orr	r1, r1, ip
 894 006a D162     		str	r1, [r2, #44]
 895              	.L77:
 380:n32g430_std_periph_driver/src/n32g430_gpio.c ****         }
 381:n32g430_std_periph_driver/src/n32g430_gpio.c ****         position++;
 896              		.loc 1 381 9 is_stmt 1 view .LVU289
 897              		.loc 1 381 17 is_stmt 0 view .LVU290
 898 006c 0133     		adds	r3, r3, #1
 899              	.LVL43:
 330:n32g430_std_periph_driver/src/n32g430_gpio.c ****     {
 900              		.loc 1 330 29 is_stmt 1 view .LVU291
 901 006e 50FA03F2 		asrs	r2, r0, r3
ARM GAS  C:\Users\Dawn\AppData\Local\Temp\ccmCgazd.s 			page 26


 902 0072 39D0     		beq	.L91
 333:n32g430_std_periph_driver/src/n32g430_gpio.c **** 
 903              		.loc 1 333 9 view .LVU292
 333:n32g430_std_periph_driver/src/n32g430_gpio.c **** 
 904              		.loc 1 333 49 is_stmt 0 view .LVU293
 905 0074 0122     		movs	r2, #1
 906 0076 9A40     		lsls	r2, r2, r3
 907              	.LVL44:
 335:n32g430_std_periph_driver/src/n32g430_gpio.c ****         {
 908              		.loc 1 335 9 is_stmt 1 view .LVU294
 335:n32g430_std_periph_driver/src/n32g430_gpio.c ****         {
 909              		.loc 1 335 11 is_stmt 0 view .LVU295
 910 0078 1042     		tst	r0, r2
 911 007a F7D0     		beq	.L77
 912              	.LVL45:
 913              	.L87:
 337:n32g430_std_periph_driver/src/n32g430_gpio.c ****             {
 914              		.loc 1 337 13 is_stmt 1 view .LVU296
 337:n32g430_std_periph_driver/src/n32g430_gpio.c ****             {
 915              		.loc 1 337 15 is_stmt 0 view .LVU297
 916 007c 002B     		cmp	r3, #0
 917 007e C1D1     		bne	.L78
 340:n32g430_std_periph_driver/src/n32g430_gpio.c ****                 GPIOD->PMODE |= (GPIO_INPUT_MODE << (position * MULTIPLIER_FACTOR_2));
 918              		.loc 1 340 17 is_stmt 1 view .LVU298
 340:n32g430_std_periph_driver/src/n32g430_gpio.c ****                 GPIOD->PMODE |= (GPIO_INPUT_MODE << (position * MULTIPLIER_FACTOR_2));
 919              		.loc 1 340 22 is_stmt 0 view .LVU299
 920 0080 1F4A     		ldr	r2, .L94
 921 0082 1168     		ldr	r1, [r2]
 340:n32g430_std_periph_driver/src/n32g430_gpio.c ****                 GPIOD->PMODE |= (GPIO_INPUT_MODE << (position * MULTIPLIER_FACTOR_2));
 922              		.loc 1 340 64 view .LVU300
 923 0084 5D00     		lsls	r5, r3, #1
 340:n32g430_std_periph_driver/src/n32g430_gpio.c ****                 GPIOD->PMODE |= (GPIO_INPUT_MODE << (position * MULTIPLIER_FACTOR_2));
 924              		.loc 1 340 51 view .LVU301
 925 0086 0324     		movs	r4, #3
 926 0088 AC40     		lsls	r4, r4, r5
 340:n32g430_std_periph_driver/src/n32g430_gpio.c ****                 GPIOD->PMODE |= (GPIO_INPUT_MODE << (position * MULTIPLIER_FACTOR_2));
 927              		.loc 1 340 30 view .LVU302
 928 008a 21EA0401 		bic	r1, r1, r4
 929 008e 1160     		str	r1, [r2]
 341:n32g430_std_periph_driver/src/n32g430_gpio.c ****             }
 930              		.loc 1 341 17 is_stmt 1 view .LVU303
 341:n32g430_std_periph_driver/src/n32g430_gpio.c ****             }
 931              		.loc 1 341 22 is_stmt 0 view .LVU304
 932 0090 1168     		ldr	r1, [r2]
 341:n32g430_std_periph_driver/src/n32g430_gpio.c ****             }
 933              		.loc 1 341 30 view .LVU305
 934 0092 1160     		str	r1, [r2]
 935              	.L79:
 350:n32g430_std_periph_driver/src/n32g430_gpio.c ****             {
 936              		.loc 1 350 13 is_stmt 1 view .LVU306
 350:n32g430_std_periph_driver/src/n32g430_gpio.c ****             {
 937              		.loc 1 350 15 is_stmt 0 view .LVU307
 938 0094 13F0080F 		tst	r3, #8
 939 0098 BCD0     		beq	.L80
 352:n32g430_std_periph_driver/src/n32g430_gpio.c ****             }
 940              		.loc 1 352 17 is_stmt 1 view .LVU308
 352:n32g430_std_periph_driver/src/n32g430_gpio.c ****             }
ARM GAS  C:\Users\Dawn\AppData\Local\Temp\ccmCgazd.s 			page 27


 941              		.loc 1 352 22 is_stmt 0 view .LVU309
 942 009a 194D     		ldr	r5, .L94
 943 009c 6A6A     		ldr	r2, [r5, #36]
 352:n32g430_std_periph_driver/src/n32g430_gpio.c ****             }
 944              		.loc 1 352 60 view .LVU310
 945 009e 03F00704 		and	r4, r3, #7
 352:n32g430_std_periph_driver/src/n32g430_gpio.c ****             }
 946              		.loc 1 352 96 view .LVU311
 947 00a2 A400     		lsls	r4, r4, #2
 352:n32g430_std_periph_driver/src/n32g430_gpio.c ****             }
 948              		.loc 1 352 46 view .LVU312
 949 00a4 0F21     		movs	r1, #15
 950 00a6 A140     		lsls	r1, r1, r4
 352:n32g430_std_periph_driver/src/n32g430_gpio.c ****             }
 951              		.loc 1 352 28 view .LVU313
 952 00a8 22EA0102 		bic	r2, r2, r1
 953 00ac 6A62     		str	r2, [r5, #36]
 954              	.L81:
 360:n32g430_std_periph_driver/src/n32g430_gpio.c **** 
 955              		.loc 1 360 13 is_stmt 1 view .LVU314
 360:n32g430_std_periph_driver/src/n32g430_gpio.c **** 
 956              		.loc 1 360 18 is_stmt 0 view .LVU315
 957 00ae 144C     		ldr	r4, .L94
 958 00b0 6268     		ldr	r2, [r4, #4]
 360:n32g430_std_periph_driver/src/n32g430_gpio.c **** 
 959              		.loc 1 360 49 view .LVU316
 960 00b2 0121     		movs	r1, #1
 961 00b4 9940     		lsls	r1, r1, r3
 360:n32g430_std_periph_driver/src/n32g430_gpio.c **** 
 962              		.loc 1 360 27 view .LVU317
 963 00b6 22EA0102 		bic	r2, r2, r1
 964 00ba 6260     		str	r2, [r4, #4]
 362:n32g430_std_periph_driver/src/n32g430_gpio.c ****             {
 965              		.loc 1 362 13 is_stmt 1 view .LVU318
 362:n32g430_std_periph_driver/src/n32g430_gpio.c ****             {
 966              		.loc 1 362 15 is_stmt 0 view .LVU319
 967 00bc 002B     		cmp	r3, #0
 968 00be B4D1     		bne	.L82
 365:n32g430_std_periph_driver/src/n32g430_gpio.c ****                 GPIOD->PUPD |= (GPIO_PD_MODE << (position * MULTIPLIER_FACTOR_2));  
 969              		.loc 1 365 17 is_stmt 1 view .LVU320
 365:n32g430_std_periph_driver/src/n32g430_gpio.c ****                 GPIOD->PUPD |= (GPIO_PD_MODE << (position * MULTIPLIER_FACTOR_2));  
 970              		.loc 1 365 22 is_stmt 0 view .LVU321
 971 00c0 2246     		mov	r2, r4
 972 00c2 E468     		ldr	r4, [r4, #12]
 365:n32g430_std_periph_driver/src/n32g430_gpio.c ****                 GPIOD->PUPD |= (GPIO_PD_MODE << (position * MULTIPLIER_FACTOR_2));  
 973              		.loc 1 365 62 view .LVU322
 974 00c4 4FEA430E 		lsl	lr, r3, #1
 365:n32g430_std_periph_driver/src/n32g430_gpio.c ****                 GPIOD->PUPD |= (GPIO_PD_MODE << (position * MULTIPLIER_FACTOR_2));  
 975              		.loc 1 365 49 view .LVU323
 976 00c8 4FF0030C 		mov	ip, #3
 977 00cc 0CFA0EFC 		lsl	ip, ip, lr
 365:n32g430_std_periph_driver/src/n32g430_gpio.c ****                 GPIOD->PUPD |= (GPIO_PD_MODE << (position * MULTIPLIER_FACTOR_2));  
 978              		.loc 1 365 29 view .LVU324
 979 00d0 24EA0C04 		bic	r4, r4, ip
 980 00d4 D460     		str	r4, [r2, #12]
 366:n32g430_std_periph_driver/src/n32g430_gpio.c ****             }
 981              		.loc 1 366 17 is_stmt 1 view .LVU325
ARM GAS  C:\Users\Dawn\AppData\Local\Temp\ccmCgazd.s 			page 28


 366:n32g430_std_periph_driver/src/n32g430_gpio.c ****             }
 982              		.loc 1 366 22 is_stmt 0 view .LVU326
 983 00d6 D468     		ldr	r4, [r2, #12]
 366:n32g430_std_periph_driver/src/n32g430_gpio.c ****             }
 984              		.loc 1 366 46 view .LVU327
 985 00d8 4FF0020C 		mov	ip, #2
 986 00dc 0CFA0EFC 		lsl	ip, ip, lr
 366:n32g430_std_periph_driver/src/n32g430_gpio.c ****             }
 987              		.loc 1 366 29 view .LVU328
 988 00e0 44EA0C04 		orr	r4, r4, ip
 989 00e4 D460     		str	r4, [r2, #12]
 990 00e6 ACE7     		b	.L83
 991              	.L91:
 382:n32g430_std_periph_driver/src/n32g430_gpio.c ****     } 
 383:n32g430_std_periph_driver/src/n32g430_gpio.c **** }
 992              		.loc 1 383 1 view .LVU329
 993 00e8 30BD     		pop	{r4, r5, pc}
 994              	.LVL46:
 995              	.L93:
 996              	.LCFI14:
 997              		.cfi_def_cfa_offset 0
 998              		.cfi_restore 4
 999              		.cfi_restore 5
 1000              		.cfi_restore 14
 381:n32g430_std_periph_driver/src/n32g430_gpio.c ****     } 
 1001              		.loc 1 381 9 is_stmt 1 view .LVU330
 381:n32g430_std_periph_driver/src/n32g430_gpio.c ****     } 
 1002              		.loc 1 381 17 is_stmt 0 view .LVU331
 1003 00ea 0133     		adds	r3, r3, #1
 1004              	.LVL47:
 1005              	.L86:
 330:n32g430_std_periph_driver/src/n32g430_gpio.c ****     {
 1006              		.loc 1 330 29 is_stmt 1 view .LVU332
 1007 00ec 50FA03F2 		asrs	r2, r0, r3
 1008 00f0 05D0     		beq	.L92
 333:n32g430_std_periph_driver/src/n32g430_gpio.c **** 
 1009              		.loc 1 333 9 view .LVU333
 333:n32g430_std_periph_driver/src/n32g430_gpio.c **** 
 1010              		.loc 1 333 49 is_stmt 0 view .LVU334
 1011 00f2 0122     		movs	r2, #1
 1012 00f4 9A40     		lsls	r2, r2, r3
 1013              	.LVL48:
 335:n32g430_std_periph_driver/src/n32g430_gpio.c ****         {
 1014              		.loc 1 335 9 is_stmt 1 view .LVU335
 335:n32g430_std_periph_driver/src/n32g430_gpio.c ****         {
 1015              		.loc 1 335 11 is_stmt 0 view .LVU336
 1016 00f6 1042     		tst	r0, r2
 1017 00f8 F7D0     		beq	.L93
 326:n32g430_std_periph_driver/src/n32g430_gpio.c ****     uint32_t position = 0x00U;
 1018              		.loc 1 326 1 view .LVU337
 1019 00fa 30B5     		push	{r4, r5, lr}
 1020              	.LCFI15:
 1021              		.cfi_def_cfa_offset 12
 1022              		.cfi_offset 4, -12
 1023              		.cfi_offset 5, -8
 1024              		.cfi_offset 14, -4
 1025 00fc BEE7     		b	.L87
ARM GAS  C:\Users\Dawn\AppData\Local\Temp\ccmCgazd.s 			page 29


 1026              	.LVL49:
 1027              	.L92:
 1028              	.LCFI16:
 1029              		.cfi_def_cfa_offset 0
 1030              		.cfi_restore 4
 1031              		.cfi_restore 5
 1032              		.cfi_restore 14
 326:n32g430_std_periph_driver/src/n32g430_gpio.c ****     uint32_t position = 0x00U;
 1033              		.loc 1 326 1 view .LVU338
 1034 00fe 7047     		bx	lr
 1035              	.L95:
 1036              		.align	2
 1037              	.L94:
 1038 0100 00400240 		.word	1073889280
 1039              		.cfi_endproc
 1040              	.LFE127:
 1042              		.section	.text.AFIO_EXTI_Reset,"ax",%progbits
 1043              		.align	1
 1044              		.global	AFIO_EXTI_Reset
 1045              		.syntax unified
 1046              		.thumb
 1047              		.thumb_func
 1049              	AFIO_EXTI_Reset:
 1050              	.LVL50:
 1051              	.LFB128:
 384:n32g430_std_periph_driver/src/n32g430_gpio.c **** 
 385:n32g430_std_periph_driver/src/n32g430_gpio.c **** /**
 386:n32g430_std_periph_driver/src/n32g430_gpio.c ****  *\*\name   AFIO_Mode_Reset.
 387:n32g430_std_periph_driver/src/n32g430_gpio.c ****  *\*\fun    Reset the AFIO mode.
 388:n32g430_std_periph_driver/src/n32g430_gpio.c ****  *\*\param  EXTI_line :
 389:n32g430_std_periph_driver/src/n32g430_gpio.c ****  *\*\          - EXTI_LINE_0   
 390:n32g430_std_periph_driver/src/n32g430_gpio.c ****  *\*\          - EXTI_LINE_1   
 391:n32g430_std_periph_driver/src/n32g430_gpio.c ****  *\*\          - EXTI_LINE_2   
 392:n32g430_std_periph_driver/src/n32g430_gpio.c ****  *\*\          - EXTI_LINE_3   
 393:n32g430_std_periph_driver/src/n32g430_gpio.c ****  *\*\          - EXTI_LINE_4   
 394:n32g430_std_periph_driver/src/n32g430_gpio.c ****  *\*\          - EXTI_LINE_5   
 395:n32g430_std_periph_driver/src/n32g430_gpio.c ****  *\*\          - EXTI_LINE_6   
 396:n32g430_std_periph_driver/src/n32g430_gpio.c ****  *\*\          - EXTI_LINE_7   
 397:n32g430_std_periph_driver/src/n32g430_gpio.c ****  *\*\          - EXTI_LINE_8   
 398:n32g430_std_periph_driver/src/n32g430_gpio.c ****  *\*\          - EXTI_LINE_9   
 399:n32g430_std_periph_driver/src/n32g430_gpio.c ****  *\*\          - EXTI_LINE_10  
 400:n32g430_std_periph_driver/src/n32g430_gpio.c ****  *\*\          - EXTI_LINE_11  
 401:n32g430_std_periph_driver/src/n32g430_gpio.c ****  *\*\          - EXTI_LINE_12  
 402:n32g430_std_periph_driver/src/n32g430_gpio.c ****  *\*\          - EXTI_LINE_13  
 403:n32g430_std_periph_driver/src/n32g430_gpio.c ****  *\*\          - EXTI_LINE_14  
 404:n32g430_std_periph_driver/src/n32g430_gpio.c ****  *\*\          - EXTI_LINE_15  
 405:n32g430_std_periph_driver/src/n32g430_gpio.c ****  *\*\          - EXTI_LINE_ALL 
 406:n32g430_std_periph_driver/src/n32g430_gpio.c ****  *\*\return none
 407:n32g430_std_periph_driver/src/n32g430_gpio.c ****  */
 408:n32g430_std_periph_driver/src/n32g430_gpio.c **** void AFIO_EXTI_Reset(uint16_t EXTI_line)
 409:n32g430_std_periph_driver/src/n32g430_gpio.c **** {
 1052              		.loc 1 409 1 is_stmt 1 view -0
 1053              		.cfi_startproc
 1054              		@ args = 0, pretend = 0, frame = 0
 1055              		@ frame_needed = 0, uses_anonymous_args = 0
 1056              		@ link register save eliminated.
 410:n32g430_std_periph_driver/src/n32g430_gpio.c ****     uint32_t temp_value = 0x00U;
ARM GAS  C:\Users\Dawn\AppData\Local\Temp\ccmCgazd.s 			page 30


 1057              		.loc 1 410 5 view .LVU340
 411:n32g430_std_periph_driver/src/n32g430_gpio.c ****     uint32_t position = 0x00U;
 1058              		.loc 1 411 5 view .LVU341
 412:n32g430_std_periph_driver/src/n32g430_gpio.c ****     uint32_t current_line = 0x00U;
 1059              		.loc 1 412 5 view .LVU342
 413:n32g430_std_periph_driver/src/n32g430_gpio.c **** 
 414:n32g430_std_periph_driver/src/n32g430_gpio.c ****     while((EXTI_line >> position) != 0)
 1060              		.loc 1 414 5 view .LVU343
 411:n32g430_std_periph_driver/src/n32g430_gpio.c ****     uint32_t current_line = 0x00U;
 1061              		.loc 1 411 14 is_stmt 0 view .LVU344
 1062 0000 0023     		movs	r3, #0
 1063              		.loc 1 414 10 view .LVU345
 1064 0002 00E0     		b	.L97
 1065              	.LVL51:
 1066              	.L98:
 415:n32g430_std_periph_driver/src/n32g430_gpio.c ****     {
 416:n32g430_std_periph_driver/src/n32g430_gpio.c ****         /* Get the IO position */
 417:n32g430_std_periph_driver/src/n32g430_gpio.c ****         current_line = (EXTI_line) & (IO_POSITION_MASK << position);
 418:n32g430_std_periph_driver/src/n32g430_gpio.c **** 
 419:n32g430_std_periph_driver/src/n32g430_gpio.c ****         if(current_line)
 420:n32g430_std_periph_driver/src/n32g430_gpio.c ****         {
 421:n32g430_std_periph_driver/src/n32g430_gpio.c ****             temp_value = (AFIO_EXTICFG_MASK << ((position & (uint32_t)AFIO_EXTI_POSITION_MASK) * MU
 422:n32g430_std_periph_driver/src/n32g430_gpio.c ****             AFIO->EXTI_CFG[position >> SHIFT_EXTI] &= ~temp_value;
 423:n32g430_std_periph_driver/src/n32g430_gpio.c ****         }
 424:n32g430_std_periph_driver/src/n32g430_gpio.c ****         position++;
 1067              		.loc 1 424 9 is_stmt 1 view .LVU346
 1068              		.loc 1 424 17 is_stmt 0 view .LVU347
 1069 0004 0133     		adds	r3, r3, #1
 1070              	.LVL52:
 1071              	.L97:
 414:n32g430_std_periph_driver/src/n32g430_gpio.c ****     {
 1072              		.loc 1 414 35 is_stmt 1 view .LVU348
 1073 0006 50FA03F2 		asrs	r2, r0, r3
 1074 000a 15D0     		beq	.L100
 417:n32g430_std_periph_driver/src/n32g430_gpio.c **** 
 1075              		.loc 1 417 9 view .LVU349
 417:n32g430_std_periph_driver/src/n32g430_gpio.c **** 
 1076              		.loc 1 417 56 is_stmt 0 view .LVU350
 1077 000c 0122     		movs	r2, #1
 1078 000e 9A40     		lsls	r2, r2, r3
 1079              	.LVL53:
 419:n32g430_std_periph_driver/src/n32g430_gpio.c ****         {
 1080              		.loc 1 419 9 is_stmt 1 view .LVU351
 419:n32g430_std_periph_driver/src/n32g430_gpio.c ****         {
 1081              		.loc 1 419 11 is_stmt 0 view .LVU352
 1082 0010 1042     		tst	r0, r2
 1083 0012 F7D0     		beq	.L98
 421:n32g430_std_periph_driver/src/n32g430_gpio.c ****             AFIO->EXTI_CFG[position >> SHIFT_EXTI] &= ~temp_value;
 1084              		.loc 1 421 13 is_stmt 1 view .LVU353
 421:n32g430_std_periph_driver/src/n32g430_gpio.c ****             AFIO->EXTI_CFG[position >> SHIFT_EXTI] &= ~temp_value;
 1085              		.loc 1 421 59 is_stmt 0 view .LVU354
 1086 0014 03F00302 		and	r2, r3, #3
 1087              	.LVL54:
 421:n32g430_std_periph_driver/src/n32g430_gpio.c ****             AFIO->EXTI_CFG[position >> SHIFT_EXTI] &= ~temp_value;
 1088              		.loc 1 421 96 view .LVU355
 1089 0018 D200     		lsls	r2, r2, #3
 421:n32g430_std_periph_driver/src/n32g430_gpio.c ****             AFIO->EXTI_CFG[position >> SHIFT_EXTI] &= ~temp_value;
ARM GAS  C:\Users\Dawn\AppData\Local\Temp\ccmCgazd.s 			page 31


 1090              		.loc 1 421 24 view .LVU356
 1091 001a 4FF0FF0C 		mov	ip, #255
 1092 001e 0CFA02FC 		lsl	ip, ip, r2
 1093              	.LVL55:
 422:n32g430_std_periph_driver/src/n32g430_gpio.c ****         }
 1094              		.loc 1 422 13 is_stmt 1 view .LVU357
 422:n32g430_std_periph_driver/src/n32g430_gpio.c ****         }
 1095              		.loc 1 422 27 is_stmt 0 view .LVU358
 1096 0022 23F00302 		bic	r2, r3, #3
 1097 0026 02F18042 		add	r2, r2, #1073741824
 1098 002a 02F58032 		add	r2, r2, #65536
 1099 002e 5168     		ldr	r1, [r2, #4]
 422:n32g430_std_periph_driver/src/n32g430_gpio.c ****         }
 1100              		.loc 1 422 52 view .LVU359
 1101 0030 21EA0C01 		bic	r1, r1, ip
 1102 0034 5160     		str	r1, [r2, #4]
 1103 0036 E5E7     		b	.L98
 1104              	.LVL56:
 1105              	.L100:
 425:n32g430_std_periph_driver/src/n32g430_gpio.c ****     }
 426:n32g430_std_periph_driver/src/n32g430_gpio.c **** }
 1106              		.loc 1 426 1 view .LVU360
 1107 0038 7047     		bx	lr
 1108              		.cfi_endproc
 1109              	.LFE128:
 1111              		.section	.text.GPIO_ALLPin_Reset,"ax",%progbits
 1112              		.align	1
 1113              		.global	GPIO_ALLPin_Reset
 1114              		.syntax unified
 1115              		.thumb
 1116              		.thumb_func
 1118              	GPIO_ALLPin_Reset:
 1119              	.LFB129:
 427:n32g430_std_periph_driver/src/n32g430_gpio.c **** 
 428:n32g430_std_periph_driver/src/n32g430_gpio.c **** 
 429:n32g430_std_periph_driver/src/n32g430_gpio.c **** 
 430:n32g430_std_periph_driver/src/n32g430_gpio.c **** /**
 431:n32g430_std_periph_driver/src/n32g430_gpio.c ****  *\*\name   GPIO_ALLPin_Reset.
 432:n32g430_std_periph_driver/src/n32g430_gpio.c ****  *\*\fun    Reset the GPIOx peripheral registers to their default reset values.
 433:n32g430_std_periph_driver/src/n32g430_gpio.c ****  *\*\param  none
 434:n32g430_std_periph_driver/src/n32g430_gpio.c ****  *\*\return none
 435:n32g430_std_periph_driver/src/n32g430_gpio.c ****  */
 436:n32g430_std_periph_driver/src/n32g430_gpio.c **** void GPIO_ALLPin_Reset(void) 
 437:n32g430_std_periph_driver/src/n32g430_gpio.c **** {
 1120              		.loc 1 437 1 is_stmt 1 view -0
 1121              		.cfi_startproc
 1122              		@ args = 0, pretend = 0, frame = 0
 1123              		@ frame_needed = 0, uses_anonymous_args = 0
 1124 0000 08B5     		push	{r3, lr}
 1125              	.LCFI17:
 1126              		.cfi_def_cfa_offset 8
 1127              		.cfi_offset 3, -8
 1128              		.cfi_offset 14, -4
 438:n32g430_std_periph_driver/src/n32g430_gpio.c ****     /* Reset all pins on the GPIOA peripheral */
 439:n32g430_std_periph_driver/src/n32g430_gpio.c ****     GPIOA_Pin_Reset(GPIO_PIN_ALL);
 1129              		.loc 1 439 5 view .LVU362
 1130 0002 4FF6FF70 		movw	r0, #65535
ARM GAS  C:\Users\Dawn\AppData\Local\Temp\ccmCgazd.s 			page 32


 1131 0006 FFF7FEFF 		bl	GPIOA_Pin_Reset
 1132              	.LVL57:
 440:n32g430_std_periph_driver/src/n32g430_gpio.c **** 
 441:n32g430_std_periph_driver/src/n32g430_gpio.c ****     /* Reset all pins on the GPIOB peripheral */
 442:n32g430_std_periph_driver/src/n32g430_gpio.c ****     GPIOB_Pin_Reset(GPIO_PIN_ALL);
 1133              		.loc 1 442 5 view .LVU363
 1134 000a 4FF6FF70 		movw	r0, #65535
 1135 000e FFF7FEFF 		bl	GPIOB_Pin_Reset
 1136              	.LVL58:
 443:n32g430_std_periph_driver/src/n32g430_gpio.c **** 
 444:n32g430_std_periph_driver/src/n32g430_gpio.c ****     /* Reset all pins on the GPIOC peripheral */
 445:n32g430_std_periph_driver/src/n32g430_gpio.c ****     GPIOC_Pin_Reset(GPIO_PIN_ALL);
 1137              		.loc 1 445 5 view .LVU364
 1138 0012 4FF6FF70 		movw	r0, #65535
 1139 0016 FFF7FEFF 		bl	GPIOC_Pin_Reset
 1140              	.LVL59:
 446:n32g430_std_periph_driver/src/n32g430_gpio.c **** 
 447:n32g430_std_periph_driver/src/n32g430_gpio.c ****     /* Reset all pins on the GPIOD peripheral */
 448:n32g430_std_periph_driver/src/n32g430_gpio.c ****     GPIOD_Pin_Reset(GPIO_PIN_ALL);
 1141              		.loc 1 448 5 view .LVU365
 1142 001a 4FF6FF70 		movw	r0, #65535
 1143 001e FFF7FEFF 		bl	GPIOD_Pin_Reset
 1144              	.LVL60:
 449:n32g430_std_periph_driver/src/n32g430_gpio.c **** }
 1145              		.loc 1 449 1 is_stmt 0 view .LVU366
 1146 0022 08BD     		pop	{r3, pc}
 1147              		.cfi_endproc
 1148              	.LFE129:
 1150              		.section	.text.GPIO_Alternate_Set,"ax",%progbits
 1151              		.align	1
 1152              		.global	GPIO_Alternate_Set
 1153              		.syntax unified
 1154              		.thumb
 1155              		.thumb_func
 1157              	GPIO_Alternate_Set:
 1158              	.LVL61:
 1159              	.LFB130:
 450:n32g430_std_periph_driver/src/n32g430_gpio.c **** 
 451:n32g430_std_periph_driver/src/n32g430_gpio.c **** 
 452:n32g430_std_periph_driver/src/n32g430_gpio.c **** /**
 453:n32g430_std_periph_driver/src/n32g430_gpio.c ****  *\*\name   GPIO_Alternate_Set.
 454:n32g430_std_periph_driver/src/n32g430_gpio.c ****  *\*\fun    Configure GPIO alternate function.
 455:n32g430_std_periph_driver/src/n32g430_gpio.c ****  *\*\param  GPIOx :
 456:n32g430_std_periph_driver/src/n32g430_gpio.c ****  *\*\          - GPIOA
 457:n32g430_std_periph_driver/src/n32g430_gpio.c ****  *\*\          - GPIOB
 458:n32g430_std_periph_driver/src/n32g430_gpio.c ****  *\*\          - GPIOC
 459:n32g430_std_periph_driver/src/n32g430_gpio.c ****  *\*\          - GPIOD
 460:n32g430_std_periph_driver/src/n32g430_gpio.c ****  *\*\param  alternate
 461:n32g430_std_periph_driver/src/n32g430_gpio.c ****  *\*\          - Refer to the "alternate_function" parameter 
 462:n32g430_std_periph_driver/src/n32g430_gpio.c ****  *\*\            list of the GPIO_Pin_Remap_Set() function
 463:n32g430_std_periph_driver/src/n32g430_gpio.c ****  *\*\param  position
 464:n32g430_std_periph_driver/src/n32g430_gpio.c ****  *\*\          - 0x00 ~ 0x0F    0x00 represents GPIO_PIN_0, 
 465:n32g430_std_periph_driver/src/n32g430_gpio.c ****  *\*\                           0x01 represents GPIO_PIN_1
 466:n32g430_std_periph_driver/src/n32g430_gpio.c ****  *\*\                           ...
 467:n32g430_std_periph_driver/src/n32g430_gpio.c ****  *\*\                           0x0F represents GPIO_PIN_15
 468:n32g430_std_periph_driver/src/n32g430_gpio.c ****  *\*\return none
 469:n32g430_std_periph_driver/src/n32g430_gpio.c ****  */
ARM GAS  C:\Users\Dawn\AppData\Local\Temp\ccmCgazd.s 			page 33


 470:n32g430_std_periph_driver/src/n32g430_gpio.c **** void GPIO_Alternate_Set(GPIO_Module* GPIOx, uint32_t alternate, uint32_t position)
 471:n32g430_std_periph_driver/src/n32g430_gpio.c **** {
 1160              		.loc 1 471 1 is_stmt 1 view -0
 1161              		.cfi_startproc
 1162              		@ args = 0, pretend = 0, frame = 0
 1163              		@ frame_needed = 0, uses_anonymous_args = 0
 1164              		@ link register save eliminated.
 472:n32g430_std_periph_driver/src/n32g430_gpio.c ****     uint32_t temp_value = 0x00U;
 1165              		.loc 1 472 5 view .LVU368
 473:n32g430_std_periph_driver/src/n32g430_gpio.c ****     
 474:n32g430_std_periph_driver/src/n32g430_gpio.c ****     /* Configure Alternate function mapped with the current IO */ 
 475:n32g430_std_periph_driver/src/n32g430_gpio.c ****     if(position & AF_SELECTION_MASK)
 1166              		.loc 1 475 5 view .LVU369
 1167              		.loc 1 475 7 is_stmt 0 view .LVU370
 1168 0000 12F0080F 		tst	r2, #8
 1169 0004 0ED0     		beq	.L104
 476:n32g430_std_periph_driver/src/n32g430_gpio.c ****     {
 477:n32g430_std_periph_driver/src/n32g430_gpio.c ****         temp_value = GPIOx->AFH;
 1170              		.loc 1 477 9 is_stmt 1 view .LVU371
 1171              		.loc 1 477 20 is_stmt 0 view .LVU372
 1172 0006 436A     		ldr	r3, [r0, #36]
 1173              	.LVL62:
 478:n32g430_std_periph_driver/src/n32g430_gpio.c ****         temp_value &= ~(GPIO_AF_MASK << ((uint32_t)(position & (uint32_t)AF_WRITE_POSITION_MASK) * 
 1174              		.loc 1 478 9 is_stmt 1 view .LVU373
 1175              		.loc 1 478 42 is_stmt 0 view .LVU374
 1176 0008 02F00702 		and	r2, r2, #7
 1177              	.LVL63:
 1178              		.loc 1 478 98 view .LVU375
 1179 000c 9200     		lsls	r2, r2, #2
 1180              		.loc 1 478 38 view .LVU376
 1181 000e 4FF00F0C 		mov	ip, #15
 1182 0012 0CFA02FC 		lsl	ip, ip, r2
 1183              		.loc 1 478 20 view .LVU377
 1184 0016 23EA0C03 		bic	r3, r3, ip
 1185              	.LVL64:
 479:n32g430_std_periph_driver/src/n32g430_gpio.c ****         temp_value |= ((uint32_t)alternate << ((uint32_t)(position & (uint32_t)AF_WRITE_POSITION_MA
 1186              		.loc 1 479 9 is_stmt 1 view .LVU378
 1187              		.loc 1 479 44 is_stmt 0 view .LVU379
 1188 001a 01FA02F2 		lsl	r2, r1, r2
 1189              		.loc 1 479 20 view .LVU380
 1190 001e 1A43     		orrs	r2, r2, r3
 1191              	.LVL65:
 480:n32g430_std_periph_driver/src/n32g430_gpio.c ****         GPIOx->AFH = temp_value;
 1192              		.loc 1 480 9 is_stmt 1 view .LVU381
 1193              		.loc 1 480 20 is_stmt 0 view .LVU382
 1194 0020 4262     		str	r2, [r0, #36]
 1195 0022 7047     		bx	lr
 1196              	.LVL66:
 1197              	.L104:
 481:n32g430_std_periph_driver/src/n32g430_gpio.c ****     }
 482:n32g430_std_periph_driver/src/n32g430_gpio.c ****     else
 483:n32g430_std_periph_driver/src/n32g430_gpio.c ****     {
 484:n32g430_std_periph_driver/src/n32g430_gpio.c ****         temp_value = GPIOx->AFL;
 1198              		.loc 1 484 9 is_stmt 1 view .LVU383
 1199              		.loc 1 484 20 is_stmt 0 view .LVU384
 1200 0024 036A     		ldr	r3, [r0, #32]
 1201              	.LVL67:
ARM GAS  C:\Users\Dawn\AppData\Local\Temp\ccmCgazd.s 			page 34


 485:n32g430_std_periph_driver/src/n32g430_gpio.c ****         temp_value &= ~(GPIO_AF_MASK << ((uint32_t)(position & (uint32_t)AF_WRITE_POSITION_MASK) * 
 1202              		.loc 1 485 9 is_stmt 1 view .LVU385
 1203              		.loc 1 485 42 is_stmt 0 view .LVU386
 1204 0026 02F00702 		and	r2, r2, #7
 1205              	.LVL68:
 1206              		.loc 1 485 98 view .LVU387
 1207 002a 9200     		lsls	r2, r2, #2
 1208              		.loc 1 485 38 view .LVU388
 1209 002c 4FF00F0C 		mov	ip, #15
 1210 0030 0CFA02FC 		lsl	ip, ip, r2
 1211              		.loc 1 485 20 view .LVU389
 1212 0034 23EA0C03 		bic	r3, r3, ip
 1213              	.LVL69:
 486:n32g430_std_periph_driver/src/n32g430_gpio.c ****         temp_value |= ((uint32_t)alternate << ((uint32_t)(position & (uint32_t)AF_WRITE_POSITION_MA
 1214              		.loc 1 486 9 is_stmt 1 view .LVU390
 1215              		.loc 1 486 44 is_stmt 0 view .LVU391
 1216 0038 9140     		lsls	r1, r1, r2
 1217              	.LVL70:
 1218              		.loc 1 486 20 view .LVU392
 1219 003a 1943     		orrs	r1, r1, r3
 1220              	.LVL71:
 487:n32g430_std_periph_driver/src/n32g430_gpio.c ****         GPIOx->AFL = temp_value;
 1221              		.loc 1 487 9 is_stmt 1 view .LVU393
 1222              		.loc 1 487 20 is_stmt 0 view .LVU394
 1223 003c 0162     		str	r1, [r0, #32]
 488:n32g430_std_periph_driver/src/n32g430_gpio.c ****     }
 489:n32g430_std_periph_driver/src/n32g430_gpio.c **** }
 1224              		.loc 1 489 1 view .LVU395
 1225 003e 7047     		bx	lr
 1226              		.cfi_endproc
 1227              	.LFE130:
 1229              		.section	.text.GPIO_Mode_Set,"ax",%progbits
 1230              		.align	1
 1231              		.global	GPIO_Mode_Set
 1232              		.syntax unified
 1233              		.thumb
 1234              		.thumb_func
 1236              	GPIO_Mode_Set:
 1237              	.LVL72:
 1238              	.LFB131:
 490:n32g430_std_periph_driver/src/n32g430_gpio.c **** 
 491:n32g430_std_periph_driver/src/n32g430_gpio.c **** 
 492:n32g430_std_periph_driver/src/n32g430_gpio.c **** /**
 493:n32g430_std_periph_driver/src/n32g430_gpio.c ****  *\*\name   GPIO_Mode_Set.
 494:n32g430_std_periph_driver/src/n32g430_gpio.c ****  *\*\fun    Configure GPIO mode.
 495:n32g430_std_periph_driver/src/n32g430_gpio.c ****  *\*\param  GPIOx :
 496:n32g430_std_periph_driver/src/n32g430_gpio.c ****  *\*\          - GPIOA
 497:n32g430_std_periph_driver/src/n32g430_gpio.c ****  *\*\          - GPIOB
 498:n32g430_std_periph_driver/src/n32g430_gpio.c ****  *\*\          - GPIOC
 499:n32g430_std_periph_driver/src/n32g430_gpio.c ****  *\*\          - GPIOD
 500:n32g430_std_periph_driver/src/n32g430_gpio.c ****  *\*\param  mode 
 501:n32g430_std_periph_driver/src/n32g430_gpio.c ****  *\*\          - GPIO_MODE_INPUT
 502:n32g430_std_periph_driver/src/n32g430_gpio.c ****  *\*\          - GPIO_MODE_OUT_PP
 503:n32g430_std_periph_driver/src/n32g430_gpio.c ****  *\*\          - GPIO_MODE_OUT_OD
 504:n32g430_std_periph_driver/src/n32g430_gpio.c ****  *\*\          - GPIO_MODE_AF_PP
 505:n32g430_std_periph_driver/src/n32g430_gpio.c ****  *\*\          - GPIO_MODE_AF_OD
 506:n32g430_std_periph_driver/src/n32g430_gpio.c ****  *\*\          - GPIO_MODE_ANALOG
ARM GAS  C:\Users\Dawn\AppData\Local\Temp\ccmCgazd.s 			page 35


 507:n32g430_std_periph_driver/src/n32g430_gpio.c ****  *\*\param  position
 508:n32g430_std_periph_driver/src/n32g430_gpio.c ****  *\*\          - 0x00 ~ 0x0F    0x00 represents GPIO_PIN_0, 
 509:n32g430_std_periph_driver/src/n32g430_gpio.c ****  *\*\                           0x01 represents GPIO_PIN_1
 510:n32g430_std_periph_driver/src/n32g430_gpio.c ****  *\*\                           ...
 511:n32g430_std_periph_driver/src/n32g430_gpio.c ****  *\*\                           0x0F represents GPIO_PIN_15
 512:n32g430_std_periph_driver/src/n32g430_gpio.c ****  *\*\return none
 513:n32g430_std_periph_driver/src/n32g430_gpio.c ****  */
 514:n32g430_std_periph_driver/src/n32g430_gpio.c **** void GPIO_Mode_Set(GPIO_Module* GPIOx, uint32_t mode, uint32_t position)
 515:n32g430_std_periph_driver/src/n32g430_gpio.c **** {
 1239              		.loc 1 515 1 is_stmt 1 view -0
 1240              		.cfi_startproc
 1241              		@ args = 0, pretend = 0, frame = 0
 1242              		@ frame_needed = 0, uses_anonymous_args = 0
 1243              		.loc 1 515 1 is_stmt 0 view .LVU397
 1244 0000 10B5     		push	{r4, lr}
 1245              	.LCFI18:
 1246              		.cfi_def_cfa_offset 8
 1247              		.cfi_offset 4, -8
 1248              		.cfi_offset 14, -4
 516:n32g430_std_periph_driver/src/n32g430_gpio.c ****     uint32_t temp_value = 0x00U;
 1249              		.loc 1 516 5 is_stmt 1 view .LVU398
 1250              	.LVL73:
 517:n32g430_std_periph_driver/src/n32g430_gpio.c ****     uint32_t temp = 0x00U;
 1251              		.loc 1 517 5 view .LVU399
 518:n32g430_std_periph_driver/src/n32g430_gpio.c **** 
 519:n32g430_std_periph_driver/src/n32g430_gpio.c ****     /* Configure IO Direction mode (Input, Output, Alternate or Analog) */
 520:n32g430_std_periph_driver/src/n32g430_gpio.c ****     temp_value = GPIOx->PMODE;
 1252              		.loc 1 520 5 view .LVU400
 1253              		.loc 1 520 16 is_stmt 0 view .LVU401
 1254 0002 0468     		ldr	r4, [r0]
 1255              	.LVL74:
 521:n32g430_std_periph_driver/src/n32g430_gpio.c ****     temp = (mode & GPIO_SET_PMODE_MASK);
 1256              		.loc 1 521 5 is_stmt 1 view .LVU402
 1257              		.loc 1 521 10 is_stmt 0 view .LVU403
 1258 0004 01F00303 		and	r3, r1, #3
 1259              	.LVL75:
 522:n32g430_std_periph_driver/src/n32g430_gpio.c ****     temp_value &= ~(GPIO_PMODE_MASK << (position * MULTIPLIER_FACTOR_2));
 1260              		.loc 1 522 5 is_stmt 1 view .LVU404
 1261              		.loc 1 522 50 is_stmt 0 view .LVU405
 1262 0008 4FEA420E 		lsl	lr, r2, #1
 1263              		.loc 1 522 37 view .LVU406
 1264 000c 4FF0030C 		mov	ip, #3
 1265 0010 0CFA0EFC 		lsl	ip, ip, lr
 1266              		.loc 1 522 16 view .LVU407
 1267 0014 24EA0C0C 		bic	ip, r4, ip
 1268              	.LVL76:
 523:n32g430_std_periph_driver/src/n32g430_gpio.c ****     temp_value |= (temp << (position * MULTIPLIER_FACTOR_2));
 1269              		.loc 1 523 5 is_stmt 1 view .LVU408
 1270              		.loc 1 523 25 is_stmt 0 view .LVU409
 1271 0018 03FA0EF3 		lsl	r3, r3, lr
 1272              	.LVL77:
 1273              		.loc 1 523 16 view .LVU410
 1274 001c 43EA0C03 		orr	r3, r3, ip
 1275              	.LVL78:
 524:n32g430_std_periph_driver/src/n32g430_gpio.c ****     GPIOx->PMODE = temp_value;
 1276              		.loc 1 524 5 is_stmt 1 view .LVU411
 1277              		.loc 1 524 18 is_stmt 0 view .LVU412
ARM GAS  C:\Users\Dawn\AppData\Local\Temp\ccmCgazd.s 			page 36


 1278 0020 0360     		str	r3, [r0]
 525:n32g430_std_periph_driver/src/n32g430_gpio.c **** 
 526:n32g430_std_periph_driver/src/n32g430_gpio.c ****     /* In case of Output or Alternate function mode selection */
 527:n32g430_std_periph_driver/src/n32g430_gpio.c ****     if((mode == GPIO_MODE_OUT_PP) || (mode == GPIO_MODE_OUT_OD) ||
 1279              		.loc 1 527 5 is_stmt 1 view .LVU413
 1280              		.loc 1 527 7 is_stmt 0 view .LVU414
 1281 0022 0129     		cmp	r1, #1
 1282 0024 05D0     		beq	.L107
 1283              		.loc 1 527 35 discriminator 1 view .LVU415
 1284 0026 1129     		cmp	r1, #17
 1285 0028 03D0     		beq	.L107
 1286              		.loc 1 527 65 discriminator 2 view .LVU416
 1287 002a 0229     		cmp	r1, #2
 1288 002c 01D0     		beq	.L107
 528:n32g430_std_periph_driver/src/n32g430_gpio.c ****        (mode == GPIO_MODE_AF_PP) || (mode == GPIO_MODE_AF_OD))
 1289              		.loc 1 528 34 view .LVU417
 1290 002e 1229     		cmp	r1, #18
 1291 0030 09D1     		bne	.L106
 1292              	.L107:
 529:n32g430_std_periph_driver/src/n32g430_gpio.c ****     {
 530:n32g430_std_periph_driver/src/n32g430_gpio.c ****         /* Configure the IO Output Type */
 531:n32g430_std_periph_driver/src/n32g430_gpio.c ****         temp_value = GPIOx->POTYPE;
 1293              		.loc 1 531 9 is_stmt 1 view .LVU418
 1294              		.loc 1 531 20 is_stmt 0 view .LVU419
 1295 0032 4368     		ldr	r3, [r0, #4]
 1296              	.LVL79:
 532:n32g430_std_periph_driver/src/n32g430_gpio.c ****         temp_value &= ~(GPIO_POTYPE_MASK << position);
 1297              		.loc 1 532 9 is_stmt 1 view .LVU420
 1298              		.loc 1 532 42 is_stmt 0 view .LVU421
 1299 0034 0124     		movs	r4, #1
 1300 0036 9440     		lsls	r4, r4, r2
 1301              		.loc 1 532 20 view .LVU422
 1302 0038 23EA0403 		bic	r3, r3, r4
 1303              	.LVL80:
 533:n32g430_std_periph_driver/src/n32g430_gpio.c ****         temp_value |= (((mode & GPIO_OUTPUT_TYPE_MASK) >> SHIFT_POTYPE) << position);
 1304              		.loc 1 533 9 is_stmt 1 view .LVU423
 1305              		.loc 1 533 56 is_stmt 0 view .LVU424
 1306 003c C1F30011 		ubfx	r1, r1, #4, #1
 1307              	.LVL81:
 1308              		.loc 1 533 73 view .LVU425
 1309 0040 9140     		lsls	r1, r1, r2
 1310              		.loc 1 533 20 view .LVU426
 1311 0042 1943     		orrs	r1, r1, r3
 1312              	.LVL82:
 534:n32g430_std_periph_driver/src/n32g430_gpio.c ****         GPIOx->POTYPE = temp_value;
 1313              		.loc 1 534 9 is_stmt 1 view .LVU427
 1314              		.loc 1 534 23 is_stmt 0 view .LVU428
 1315 0044 4160     		str	r1, [r0, #4]
 1316              	.LVL83:
 1317              	.L106:
 535:n32g430_std_periph_driver/src/n32g430_gpio.c ****     }
 536:n32g430_std_periph_driver/src/n32g430_gpio.c **** }
 1318              		.loc 1 536 1 view .LVU429
 1319 0046 10BD     		pop	{r4, pc}
 1320              		.cfi_endproc
 1321              	.LFE131:
 1323              		.section	.text.GPIO_Pull_Set,"ax",%progbits
ARM GAS  C:\Users\Dawn\AppData\Local\Temp\ccmCgazd.s 			page 37


 1324              		.align	1
 1325              		.global	GPIO_Pull_Set
 1326              		.syntax unified
 1327              		.thumb
 1328              		.thumb_func
 1330              	GPIO_Pull_Set:
 1331              	.LVL84:
 1332              	.LFB132:
 537:n32g430_std_periph_driver/src/n32g430_gpio.c **** 
 538:n32g430_std_periph_driver/src/n32g430_gpio.c **** 
 539:n32g430_std_periph_driver/src/n32g430_gpio.c **** /**
 540:n32g430_std_periph_driver/src/n32g430_gpio.c ****  *\*\name   GPIO_Pull_Set.
 541:n32g430_std_periph_driver/src/n32g430_gpio.c ****  *\*\fun    Configure pull mode.
 542:n32g430_std_periph_driver/src/n32g430_gpio.c ****  *\*\param  GPIOx :
 543:n32g430_std_periph_driver/src/n32g430_gpio.c ****  *\*\          - GPIOA
 544:n32g430_std_periph_driver/src/n32g430_gpio.c ****  *\*\          - GPIOB
 545:n32g430_std_periph_driver/src/n32g430_gpio.c ****  *\*\          - GPIOC
 546:n32g430_std_periph_driver/src/n32g430_gpio.c ****  *\*\          - GPIOD
 547:n32g430_std_periph_driver/src/n32g430_gpio.c ****  *\*\param  pull 
 548:n32g430_std_periph_driver/src/n32g430_gpio.c ****  *\*\          - GPIO_NO_PULL
 549:n32g430_std_periph_driver/src/n32g430_gpio.c ****  *\*\          - GPIO_PULL_UP
 550:n32g430_std_periph_driver/src/n32g430_gpio.c ****  *\*\          - GPIO_PULL_DOWN
 551:n32g430_std_periph_driver/src/n32g430_gpio.c ****  *\*\param  position
 552:n32g430_std_periph_driver/src/n32g430_gpio.c ****  *\*\          - 0x00 ~ 0x0F    0x00 represents GPIO_PIN_0, 
 553:n32g430_std_periph_driver/src/n32g430_gpio.c ****  *\*\                           0x01 represents GPIO_PIN_1
 554:n32g430_std_periph_driver/src/n32g430_gpio.c ****  *\*\                           ...
 555:n32g430_std_periph_driver/src/n32g430_gpio.c ****  *\*\                           0x0F represents GPIO_PIN_15
 556:n32g430_std_periph_driver/src/n32g430_gpio.c ****  *\*\return none
 557:n32g430_std_periph_driver/src/n32g430_gpio.c ****  */
 558:n32g430_std_periph_driver/src/n32g430_gpio.c **** void GPIO_Pull_Set(GPIO_Module* GPIOx, uint32_t pull, uint32_t position)
 559:n32g430_std_periph_driver/src/n32g430_gpio.c **** {
 1333              		.loc 1 559 1 is_stmt 1 view -0
 1334              		.cfi_startproc
 1335              		@ args = 0, pretend = 0, frame = 0
 1336              		@ frame_needed = 0, uses_anonymous_args = 0
 1337              		@ link register save eliminated.
 560:n32g430_std_periph_driver/src/n32g430_gpio.c ****     uint32_t temp_value = 0x00U;
 1338              		.loc 1 560 5 view .LVU431
 561:n32g430_std_periph_driver/src/n32g430_gpio.c **** 
 562:n32g430_std_periph_driver/src/n32g430_gpio.c ****     /* Configure pull-down mode */
 563:n32g430_std_periph_driver/src/n32g430_gpio.c ****     temp_value = GPIOx->PUPD;
 1339              		.loc 1 563 5 view .LVU432
 1340              		.loc 1 563 16 is_stmt 0 view .LVU433
 1341 0000 C368     		ldr	r3, [r0, #12]
 1342              	.LVL85:
 564:n32g430_std_periph_driver/src/n32g430_gpio.c ****     temp_value &= ~(GPIO_PUPD_MASK << (position * MULTIPLIER_FACTOR_2));
 1343              		.loc 1 564 5 is_stmt 1 view .LVU434
 1344              		.loc 1 564 49 is_stmt 0 view .LVU435
 1345 0002 5200     		lsls	r2, r2, #1
 1346              	.LVL86:
 1347              		.loc 1 564 36 view .LVU436
 1348 0004 4FF0030C 		mov	ip, #3
 1349 0008 0CFA02FC 		lsl	ip, ip, r2
 1350              		.loc 1 564 16 view .LVU437
 1351 000c 23EA0C03 		bic	r3, r3, ip
 1352              	.LVL87:
 565:n32g430_std_periph_driver/src/n32g430_gpio.c ****     temp_value |= (pull << (position * MULTIPLIER_FACTOR_2));
ARM GAS  C:\Users\Dawn\AppData\Local\Temp\ccmCgazd.s 			page 38


 1353              		.loc 1 565 5 is_stmt 1 view .LVU438
 1354              		.loc 1 565 25 is_stmt 0 view .LVU439
 1355 0010 9140     		lsls	r1, r1, r2
 1356              	.LVL88:
 1357              		.loc 1 565 16 view .LVU440
 1358 0012 1943     		orrs	r1, r1, r3
 1359              	.LVL89:
 566:n32g430_std_periph_driver/src/n32g430_gpio.c ****     GPIOx->PUPD = temp_value;
 1360              		.loc 1 566 5 is_stmt 1 view .LVU441
 1361              		.loc 1 566 17 is_stmt 0 view .LVU442
 1362 0014 C160     		str	r1, [r0, #12]
 567:n32g430_std_periph_driver/src/n32g430_gpio.c **** }
 1363              		.loc 1 567 1 view .LVU443
 1364 0016 7047     		bx	lr
 1365              		.cfi_endproc
 1366              	.LFE132:
 1368              		.section	.text.GPIO_SlewRate_Set,"ax",%progbits
 1369              		.align	1
 1370              		.global	GPIO_SlewRate_Set
 1371              		.syntax unified
 1372              		.thumb
 1373              		.thumb_func
 1375              	GPIO_SlewRate_Set:
 1376              	.LVL90:
 1377              	.LFB133:
 568:n32g430_std_periph_driver/src/n32g430_gpio.c **** 
 569:n32g430_std_periph_driver/src/n32g430_gpio.c **** 
 570:n32g430_std_periph_driver/src/n32g430_gpio.c **** /**
 571:n32g430_std_periph_driver/src/n32g430_gpio.c ****  *\*\name   GPIO_SlewRate_Set.
 572:n32g430_std_periph_driver/src/n32g430_gpio.c ****  *\*\fun    GPIO slew rate configuration.
 573:n32g430_std_periph_driver/src/n32g430_gpio.c ****  *\*\param  GPIOx :
 574:n32g430_std_periph_driver/src/n32g430_gpio.c ****  *\*\          - GPIOA
 575:n32g430_std_periph_driver/src/n32g430_gpio.c ****  *\*\          - GPIOB
 576:n32g430_std_periph_driver/src/n32g430_gpio.c ****  *\*\          - GPIOC
 577:n32g430_std_periph_driver/src/n32g430_gpio.c ****  *\*\          - GPIOD
 578:n32g430_std_periph_driver/src/n32g430_gpio.c ****  *\*\param  slew_rate
 579:n32g430_std_periph_driver/src/n32g430_gpio.c ****  *\*\          - GPIO_SLEW_RATE_FAST
 580:n32g430_std_periph_driver/src/n32g430_gpio.c ****  *\*\          - GPIO_SLEW_RATE_SLOW
 581:n32g430_std_periph_driver/src/n32g430_gpio.c ****  *\*\param  position
 582:n32g430_std_periph_driver/src/n32g430_gpio.c ****  *\*\          - 0x00 ~ 0x0F    0x00 represents GPIO_PIN_0, 
 583:n32g430_std_periph_driver/src/n32g430_gpio.c ****  *\*\                           0x01 represents GPIO_PIN_1
 584:n32g430_std_periph_driver/src/n32g430_gpio.c ****  *\*\                           ...
 585:n32g430_std_periph_driver/src/n32g430_gpio.c ****  *\*\                           0x0F represents GPIO_PIN_15
 586:n32g430_std_periph_driver/src/n32g430_gpio.c ****  *\*\return none
 587:n32g430_std_periph_driver/src/n32g430_gpio.c ****  */
 588:n32g430_std_periph_driver/src/n32g430_gpio.c **** void GPIO_SlewRate_Set(GPIO_Module* GPIOx, uint32_t slew_rate, uint32_t position)
 589:n32g430_std_periph_driver/src/n32g430_gpio.c **** {
 1378              		.loc 1 589 1 is_stmt 1 view -0
 1379              		.cfi_startproc
 1380              		@ args = 0, pretend = 0, frame = 0
 1381              		@ frame_needed = 0, uses_anonymous_args = 0
 1382              		@ link register save eliminated.
 590:n32g430_std_periph_driver/src/n32g430_gpio.c ****     uint32_t temp_value = 0x00U;
 1383              		.loc 1 590 5 view .LVU445
 591:n32g430_std_periph_driver/src/n32g430_gpio.c **** 
 592:n32g430_std_periph_driver/src/n32g430_gpio.c ****     /* Configure slew rate */
 593:n32g430_std_periph_driver/src/n32g430_gpio.c ****     temp_value = GPIOx->SR;
ARM GAS  C:\Users\Dawn\AppData\Local\Temp\ccmCgazd.s 			page 39


 1384              		.loc 1 593 5 view .LVU446
 1385              		.loc 1 593 16 is_stmt 0 view .LVU447
 1386 0000 8368     		ldr	r3, [r0, #8]
 1387              	.LVL91:
 594:n32g430_std_periph_driver/src/n32g430_gpio.c ****     temp_value &= ~(GPIO_SR_MASK << position);
 1388              		.loc 1 594 5 is_stmt 1 view .LVU448
 1389              		.loc 1 594 34 is_stmt 0 view .LVU449
 1390 0002 4FF0010C 		mov	ip, #1
 1391 0006 0CFA02FC 		lsl	ip, ip, r2
 1392              		.loc 1 594 16 view .LVU450
 1393 000a 23EA0C03 		bic	r3, r3, ip
 1394              	.LVL92:
 595:n32g430_std_periph_driver/src/n32g430_gpio.c ****     temp_value |= (slew_rate << position);
 1395              		.loc 1 595 5 is_stmt 1 view .LVU451
 1396              		.loc 1 595 30 is_stmt 0 view .LVU452
 1397 000e 9140     		lsls	r1, r1, r2
 1398              	.LVL93:
 1399              		.loc 1 595 16 view .LVU453
 1400 0010 1943     		orrs	r1, r1, r3
 1401              	.LVL94:
 596:n32g430_std_periph_driver/src/n32g430_gpio.c ****     GPIOx->SR = temp_value;
 1402              		.loc 1 596 5 is_stmt 1 view .LVU454
 1403              		.loc 1 596 15 is_stmt 0 view .LVU455
 1404 0012 8160     		str	r1, [r0, #8]
 597:n32g430_std_periph_driver/src/n32g430_gpio.c **** }
 1405              		.loc 1 597 1 view .LVU456
 1406 0014 7047     		bx	lr
 1407              		.cfi_endproc
 1408              	.LFE133:
 1410              		.section	.text.GPIO_Driver_Set,"ax",%progbits
 1411              		.align	1
 1412              		.global	GPIO_Driver_Set
 1413              		.syntax unified
 1414              		.thumb
 1415              		.thumb_func
 1417              	GPIO_Driver_Set:
 1418              	.LVL95:
 1419              	.LFB134:
 598:n32g430_std_periph_driver/src/n32g430_gpio.c **** 
 599:n32g430_std_periph_driver/src/n32g430_gpio.c **** 
 600:n32g430_std_periph_driver/src/n32g430_gpio.c **** /**
 601:n32g430_std_periph_driver/src/n32g430_gpio.c ****  *\*\name   GPIO_Driver_Set.
 602:n32g430_std_periph_driver/src/n32g430_gpio.c ****  *\*\fun    GPIO driver configuration.
 603:n32g430_std_periph_driver/src/n32g430_gpio.c ****  *\*\param  GPIOx :
 604:n32g430_std_periph_driver/src/n32g430_gpio.c ****  *\*\          - GPIOA
 605:n32g430_std_periph_driver/src/n32g430_gpio.c ****  *\*\          - GPIOB
 606:n32g430_std_periph_driver/src/n32g430_gpio.c ****  *\*\          - GPIOC
 607:n32g430_std_periph_driver/src/n32g430_gpio.c ****  *\*\          - GPIOD
 608:n32g430_std_periph_driver/src/n32g430_gpio.c ****  *\*\param  current 
 609:n32g430_std_periph_driver/src/n32g430_gpio.c ****  *\*\          - GPIO_DS_2MA
 610:n32g430_std_periph_driver/src/n32g430_gpio.c ****  *\*\          - GPIO_DS_8MA
 611:n32g430_std_periph_driver/src/n32g430_gpio.c ****  *\*\          - GPIO_DS_4MA
 612:n32g430_std_periph_driver/src/n32g430_gpio.c ****  *\*\          - GPIO_DS_12MA
 613:n32g430_std_periph_driver/src/n32g430_gpio.c ****  *\*\param  position
 614:n32g430_std_periph_driver/src/n32g430_gpio.c ****  *\*\          - 0x00 ~ 0x0F    0x00 represents GPIO_PIN_0, 
 615:n32g430_std_periph_driver/src/n32g430_gpio.c ****  *\*\                           0x01 represents GPIO_PIN_1
 616:n32g430_std_periph_driver/src/n32g430_gpio.c ****  *\*\                           ...
ARM GAS  C:\Users\Dawn\AppData\Local\Temp\ccmCgazd.s 			page 40


 617:n32g430_std_periph_driver/src/n32g430_gpio.c ****  *\*\                           0x0F represents GPIO_PIN_15
 618:n32g430_std_periph_driver/src/n32g430_gpio.c ****  *\*\return none
 619:n32g430_std_periph_driver/src/n32g430_gpio.c ****  */ 
 620:n32g430_std_periph_driver/src/n32g430_gpio.c **** void GPIO_Driver_Set(GPIO_Module* GPIOx, uint32_t current, uint32_t position)
 621:n32g430_std_periph_driver/src/n32g430_gpio.c **** {
 1420              		.loc 1 621 1 is_stmt 1 view -0
 1421              		.cfi_startproc
 1422              		@ args = 0, pretend = 0, frame = 0
 1423              		@ frame_needed = 0, uses_anonymous_args = 0
 1424              		@ link register save eliminated.
 622:n32g430_std_periph_driver/src/n32g430_gpio.c ****     uint32_t temp_value = 0x00U;
 1425              		.loc 1 622 5 view .LVU458
 623:n32g430_std_periph_driver/src/n32g430_gpio.c ****     
 624:n32g430_std_periph_driver/src/n32g430_gpio.c ****     temp_value = GPIOx->DS;
 1426              		.loc 1 624 5 view .LVU459
 1427              		.loc 1 624 16 is_stmt 0 view .LVU460
 1428 0000 C36A     		ldr	r3, [r0, #44]
 1429              	.LVL96:
 625:n32g430_std_periph_driver/src/n32g430_gpio.c ****     temp_value &= ~(GPIO_DRIVER_MASK << (position * MULTIPLIER_FACTOR_2));
 1430              		.loc 1 625 5 is_stmt 1 view .LVU461
 1431              		.loc 1 625 51 is_stmt 0 view .LVU462
 1432 0002 5200     		lsls	r2, r2, #1
 1433              	.LVL97:
 1434              		.loc 1 625 38 view .LVU463
 1435 0004 4FF0030C 		mov	ip, #3
 1436 0008 0CFA02FC 		lsl	ip, ip, r2
 1437              		.loc 1 625 16 view .LVU464
 1438 000c 23EA0C03 		bic	r3, r3, ip
 1439              	.LVL98:
 626:n32g430_std_periph_driver/src/n32g430_gpio.c ****     temp_value |= (current << (position * MULTIPLIER_FACTOR_2));
 1440              		.loc 1 626 5 is_stmt 1 view .LVU465
 1441              		.loc 1 626 28 is_stmt 0 view .LVU466
 1442 0010 9140     		lsls	r1, r1, r2
 1443              	.LVL99:
 1444              		.loc 1 626 16 view .LVU467
 1445 0012 1943     		orrs	r1, r1, r3
 1446              	.LVL100:
 627:n32g430_std_periph_driver/src/n32g430_gpio.c ****     GPIOx->DS = temp_value;
 1447              		.loc 1 627 5 is_stmt 1 view .LVU468
 1448              		.loc 1 627 15 is_stmt 0 view .LVU469
 1449 0014 C162     		str	r1, [r0, #44]
 628:n32g430_std_periph_driver/src/n32g430_gpio.c **** }
 1450              		.loc 1 628 1 view .LVU470
 1451 0016 7047     		bx	lr
 1452              		.cfi_endproc
 1453              	.LFE134:
 1455              		.section	.text.GPIO_Peripheral_Initialize,"ax",%progbits
 1456              		.align	1
 1457              		.global	GPIO_Peripheral_Initialize
 1458              		.syntax unified
 1459              		.thumb
 1460              		.thumb_func
 1462              	GPIO_Peripheral_Initialize:
 1463              	.LVL101:
 1464              	.LFB135:
 629:n32g430_std_periph_driver/src/n32g430_gpio.c **** 
 630:n32g430_std_periph_driver/src/n32g430_gpio.c **** 
ARM GAS  C:\Users\Dawn\AppData\Local\Temp\ccmCgazd.s 			page 41


 631:n32g430_std_periph_driver/src/n32g430_gpio.c **** 
 632:n32g430_std_periph_driver/src/n32g430_gpio.c **** /**
 633:n32g430_std_periph_driver/src/n32g430_gpio.c ****  *\*\name   GPIO_Peripheral_Initialization.
 634:n32g430_std_periph_driver/src/n32g430_gpio.c ****  *\*\fun    Initialize the GPIOx peripheral with the value of the GPIO_InitStruct structure.
 635:n32g430_std_periph_driver/src/n32g430_gpio.c ****  *\*\param  GPIOx :
 636:n32g430_std_periph_driver/src/n32g430_gpio.c ****  *\*\          - GPIOA
 637:n32g430_std_periph_driver/src/n32g430_gpio.c ****  *\*\          - GPIOB
 638:n32g430_std_periph_driver/src/n32g430_gpio.c ****  *\*\          - GPIOC
 639:n32g430_std_periph_driver/src/n32g430_gpio.c ****  *\*\          - GPIOD
 640:n32g430_std_periph_driver/src/n32g430_gpio.c ****  *\*\param  GPIO_InitStructure :
 641:n32g430_std_periph_driver/src/n32g430_gpio.c ****  *\*\           pointer to GPIO_InitType structure.
 642:n32g430_std_periph_driver/src/n32g430_gpio.c ****  *\*\return none
 643:n32g430_std_periph_driver/src/n32g430_gpio.c ****  */
 644:n32g430_std_periph_driver/src/n32g430_gpio.c **** void GPIO_Peripheral_Initialize(GPIO_Module* GPIOx, GPIO_InitType* GPIO_InitStructure)
 645:n32g430_std_periph_driver/src/n32g430_gpio.c **** {
 1465              		.loc 1 645 1 is_stmt 1 view -0
 1466              		.cfi_startproc
 1467              		@ args = 0, pretend = 0, frame = 0
 1468              		@ frame_needed = 0, uses_anonymous_args = 0
 1469              		.loc 1 645 1 is_stmt 0 view .LVU472
 1470 0000 70B5     		push	{r4, r5, r6, lr}
 1471              	.LCFI19:
 1472              		.cfi_def_cfa_offset 16
 1473              		.cfi_offset 4, -16
 1474              		.cfi_offset 5, -12
 1475              		.cfi_offset 6, -8
 1476              		.cfi_offset 14, -4
 1477 0002 0646     		mov	r6, r0
 1478 0004 0D46     		mov	r5, r1
 646:n32g430_std_periph_driver/src/n32g430_gpio.c ****     uint32_t position = 0x00U;
 1479              		.loc 1 646 5 is_stmt 1 view .LVU473
 1480              	.LVL102:
 647:n32g430_std_periph_driver/src/n32g430_gpio.c ****     uint32_t current_pin = 0x00U;
 1481              		.loc 1 647 5 view .LVU474
 648:n32g430_std_periph_driver/src/n32g430_gpio.c **** 
 649:n32g430_std_periph_driver/src/n32g430_gpio.c ****     while(((GPIO_InitStructure->Pin) >> position) != 0)
 1482              		.loc 1 649 5 view .LVU475
 646:n32g430_std_periph_driver/src/n32g430_gpio.c ****     uint32_t current_pin = 0x00U;
 1483              		.loc 1 646 14 is_stmt 0 view .LVU476
 1484 0006 0024     		movs	r4, #0
 1485              		.loc 1 649 10 view .LVU477
 1486 0008 00E0     		b	.L114
 1487              	.LVL103:
 1488              	.L115:
 650:n32g430_std_periph_driver/src/n32g430_gpio.c ****     {
 651:n32g430_std_periph_driver/src/n32g430_gpio.c ****         /* Get the IO position */
 652:n32g430_std_periph_driver/src/n32g430_gpio.c ****         current_pin = (GPIO_InitStructure->Pin) & (IO_POSITION_MASK << position);
 653:n32g430_std_periph_driver/src/n32g430_gpio.c ****         if(current_pin)
 654:n32g430_std_periph_driver/src/n32g430_gpio.c ****         {
 655:n32g430_std_periph_driver/src/n32g430_gpio.c ****             /* Configure GPIO alternate function */
 656:n32g430_std_periph_driver/src/n32g430_gpio.c ****             GPIO_Alternate_Set(GPIOx, GPIO_InitStructure->GPIO_Alternate, position);
 657:n32g430_std_periph_driver/src/n32g430_gpio.c **** 
 658:n32g430_std_periph_driver/src/n32g430_gpio.c ****             /* Configure GPIO mode */
 659:n32g430_std_periph_driver/src/n32g430_gpio.c ****             GPIO_Mode_Set(GPIOx, GPIO_InitStructure->GPIO_Mode, position);
 660:n32g430_std_periph_driver/src/n32g430_gpio.c **** 
 661:n32g430_std_periph_driver/src/n32g430_gpio.c ****             /* Configure pull-down or pull-up mode */
 662:n32g430_std_periph_driver/src/n32g430_gpio.c ****             GPIO_Pull_Set(GPIOx, GPIO_InitStructure->GPIO_Pull, position);
ARM GAS  C:\Users\Dawn\AppData\Local\Temp\ccmCgazd.s 			page 42


 663:n32g430_std_periph_driver/src/n32g430_gpio.c **** 
 664:n32g430_std_periph_driver/src/n32g430_gpio.c ****             /* Configure slew rate */
 665:n32g430_std_periph_driver/src/n32g430_gpio.c ****             GPIO_SlewRate_Set(GPIOx, GPIO_InitStructure->GPIO_Slew_Rate, position);
 666:n32g430_std_periph_driver/src/n32g430_gpio.c **** 
 667:n32g430_std_periph_driver/src/n32g430_gpio.c ****             /* Configuration drive capability */
 668:n32g430_std_periph_driver/src/n32g430_gpio.c ****             GPIO_Driver_Set(GPIOx, GPIO_InitStructure->GPIO_Current, position);
 669:n32g430_std_periph_driver/src/n32g430_gpio.c ****         }
 670:n32g430_std_periph_driver/src/n32g430_gpio.c ****         position++;
 1489              		.loc 1 670 9 is_stmt 1 view .LVU478
 1490              		.loc 1 670 17 is_stmt 0 view .LVU479
 1491 000a 0134     		adds	r4, r4, #1
 1492              	.LVL104:
 1493              	.L114:
 649:n32g430_std_periph_driver/src/n32g430_gpio.c ****     {
 1494              		.loc 1 649 51 is_stmt 1 view .LVU480
 649:n32g430_std_periph_driver/src/n32g430_gpio.c ****     {
 1495              		.loc 1 649 31 is_stmt 0 view .LVU481
 1496 000c 2A68     		ldr	r2, [r5]
 649:n32g430_std_periph_driver/src/n32g430_gpio.c ****     {
 1497              		.loc 1 649 51 view .LVU482
 1498 000e 32FA04F3 		lsrs	r3, r2, r4
 1499 0012 1DD0     		beq	.L118
 652:n32g430_std_periph_driver/src/n32g430_gpio.c ****         if(current_pin)
 1500              		.loc 1 652 9 is_stmt 1 view .LVU483
 652:n32g430_std_periph_driver/src/n32g430_gpio.c ****         if(current_pin)
 1501              		.loc 1 652 69 is_stmt 0 view .LVU484
 1502 0014 0123     		movs	r3, #1
 1503 0016 A340     		lsls	r3, r3, r4
 1504              	.LVL105:
 653:n32g430_std_periph_driver/src/n32g430_gpio.c ****         {
 1505              		.loc 1 653 9 is_stmt 1 view .LVU485
 653:n32g430_std_periph_driver/src/n32g430_gpio.c ****         {
 1506              		.loc 1 653 11 is_stmt 0 view .LVU486
 1507 0018 1342     		tst	r3, r2
 1508 001a F6D0     		beq	.L115
 656:n32g430_std_periph_driver/src/n32g430_gpio.c **** 
 1509              		.loc 1 656 13 is_stmt 1 view .LVU487
 1510 001c 2246     		mov	r2, r4
 1511              	.LVL106:
 656:n32g430_std_periph_driver/src/n32g430_gpio.c **** 
 1512              		.loc 1 656 13 is_stmt 0 view .LVU488
 1513 001e 6969     		ldr	r1, [r5, #20]
 1514 0020 3046     		mov	r0, r6
 1515 0022 FFF7FEFF 		bl	GPIO_Alternate_Set
 1516              	.LVL107:
 659:n32g430_std_periph_driver/src/n32g430_gpio.c **** 
 1517              		.loc 1 659 13 is_stmt 1 view .LVU489
 1518 0026 2246     		mov	r2, r4
 1519 0028 6968     		ldr	r1, [r5, #4]
 1520 002a 3046     		mov	r0, r6
 1521 002c FFF7FEFF 		bl	GPIO_Mode_Set
 1522              	.LVL108:
 662:n32g430_std_periph_driver/src/n32g430_gpio.c **** 
 1523              		.loc 1 662 13 view .LVU490
 1524 0030 2246     		mov	r2, r4
 1525 0032 A968     		ldr	r1, [r5, #8]
 1526 0034 3046     		mov	r0, r6
ARM GAS  C:\Users\Dawn\AppData\Local\Temp\ccmCgazd.s 			page 43


 1527 0036 FFF7FEFF 		bl	GPIO_Pull_Set
 1528              	.LVL109:
 665:n32g430_std_periph_driver/src/n32g430_gpio.c **** 
 1529              		.loc 1 665 13 view .LVU491
 1530 003a 2246     		mov	r2, r4
 1531 003c E968     		ldr	r1, [r5, #12]
 1532 003e 3046     		mov	r0, r6
 1533 0040 FFF7FEFF 		bl	GPIO_SlewRate_Set
 1534              	.LVL110:
 668:n32g430_std_periph_driver/src/n32g430_gpio.c ****         }
 1535              		.loc 1 668 13 view .LVU492
 1536 0044 2246     		mov	r2, r4
 1537 0046 2969     		ldr	r1, [r5, #16]
 1538 0048 3046     		mov	r0, r6
 1539 004a FFF7FEFF 		bl	GPIO_Driver_Set
 1540              	.LVL111:
 1541 004e DCE7     		b	.L115
 1542              	.LVL112:
 1543              	.L118:
 671:n32g430_std_periph_driver/src/n32g430_gpio.c ****     }
 672:n32g430_std_periph_driver/src/n32g430_gpio.c **** }
 1544              		.loc 1 672 1 is_stmt 0 view .LVU493
 1545 0050 70BD     		pop	{r4, r5, r6, pc}
 1546              		.loc 1 672 1 view .LVU494
 1547              		.cfi_endproc
 1548              	.LFE135:
 1550              		.section	.text.GPIO_Alternate_Function_Reset,"ax",%progbits
 1551              		.align	1
 1552              		.global	GPIO_Alternate_Function_Reset
 1553              		.syntax unified
 1554              		.thumb
 1555              		.thumb_func
 1557              	GPIO_Alternate_Function_Reset:
 1558              	.LFB136:
 673:n32g430_std_periph_driver/src/n32g430_gpio.c **** 
 674:n32g430_std_periph_driver/src/n32g430_gpio.c **** 
 675:n32g430_std_periph_driver/src/n32g430_gpio.c **** /**
 676:n32g430_std_periph_driver/src/n32g430_gpio.c ****  *\*\name   GPIO_Alternate_Function_Reset.
 677:n32g430_std_periph_driver/src/n32g430_gpio.c ****  *\*\fun    Reset the Alternate Function (remapping, event control, and EXTI configuration) 
 678:n32g430_std_periph_driver/src/n32g430_gpio.c ****  *\*\       registers to their default reset values.
 679:n32g430_std_periph_driver/src/n32g430_gpio.c ****  *\*\param  none
 680:n32g430_std_periph_driver/src/n32g430_gpio.c ****  *\*\return none
 681:n32g430_std_periph_driver/src/n32g430_gpio.c ****  */
 682:n32g430_std_periph_driver/src/n32g430_gpio.c **** void GPIO_Alternate_Function_Reset(void)
 683:n32g430_std_periph_driver/src/n32g430_gpio.c **** {
 1559              		.loc 1 683 1 is_stmt 1 view -0
 1560              		.cfi_startproc
 1561              		@ args = 0, pretend = 0, frame = 0
 1562              		@ frame_needed = 0, uses_anonymous_args = 0
 1563 0000 08B5     		push	{r3, lr}
 1564              	.LCFI20:
 1565              		.cfi_def_cfa_offset 8
 1566              		.cfi_offset 3, -8
 1567              		.cfi_offset 14, -4
 684:n32g430_std_periph_driver/src/n32g430_gpio.c ****     RCC_APB2_Peripheral_Reset(RCC_APB2_PERIPH_AFIO);
 1568              		.loc 1 684 5 view .LVU496
 1569 0002 0120     		movs	r0, #1
ARM GAS  C:\Users\Dawn\AppData\Local\Temp\ccmCgazd.s 			page 44


 1570 0004 FFF7FEFF 		bl	RCC_APB2_Peripheral_Reset
 1571              	.LVL113:
 685:n32g430_std_periph_driver/src/n32g430_gpio.c **** }
 1572              		.loc 1 685 1 is_stmt 0 view .LVU497
 1573 0008 08BD     		pop	{r3, pc}
 1574              		.cfi_endproc
 1575              	.LFE136:
 1577              		.section	.text.GPIO_Structure_Initialize,"ax",%progbits
 1578              		.align	1
 1579              		.global	GPIO_Structure_Initialize
 1580              		.syntax unified
 1581              		.thumb
 1582              		.thumb_func
 1584              	GPIO_Structure_Initialize:
 1585              	.LVL114:
 1586              	.LFB137:
 686:n32g430_std_periph_driver/src/n32g430_gpio.c **** 
 687:n32g430_std_periph_driver/src/n32g430_gpio.c **** 
 688:n32g430_std_periph_driver/src/n32g430_gpio.c **** /**
 689:n32g430_std_periph_driver/src/n32g430_gpio.c ****  *\*\name   GPIO_Struct_Initialization.
 690:n32g430_std_periph_driver/src/n32g430_gpio.c ****  *\*\fun    Assign default values to each GPIO_InitStruct member.
 691:n32g430_std_periph_driver/src/n32g430_gpio.c ****  *\*\param  GPIO_InitStructure :
 692:n32g430_std_periph_driver/src/n32g430_gpio.c ****  *\*\           pointer to GPIO_InitType structure.
 693:n32g430_std_periph_driver/src/n32g430_gpio.c ****  *\*\return none
 694:n32g430_std_periph_driver/src/n32g430_gpio.c ****  */
 695:n32g430_std_periph_driver/src/n32g430_gpio.c **** void GPIO_Structure_Initialize(GPIO_InitType* GPIO_InitStruct)
 696:n32g430_std_periph_driver/src/n32g430_gpio.c **** {
 1587              		.loc 1 696 1 is_stmt 1 view -0
 1588              		.cfi_startproc
 1589              		@ args = 0, pretend = 0, frame = 0
 1590              		@ frame_needed = 0, uses_anonymous_args = 0
 1591              		@ link register save eliminated.
 697:n32g430_std_periph_driver/src/n32g430_gpio.c ****     /* Reset GPIO structure member */
 698:n32g430_std_periph_driver/src/n32g430_gpio.c ****     GPIO_InitStruct->Pin            = GPIO_PIN_ALL;
 1592              		.loc 1 698 5 view .LVU499
 1593              		.loc 1 698 37 is_stmt 0 view .LVU500
 1594 0000 4FF6FF73 		movw	r3, #65535
 1595 0004 0360     		str	r3, [r0]
 699:n32g430_std_periph_driver/src/n32g430_gpio.c ****     GPIO_InitStruct->GPIO_Slew_Rate = GPIO_SLEW_RATE_FAST;
 1596              		.loc 1 699 5 is_stmt 1 view .LVU501
 1597              		.loc 1 699 37 is_stmt 0 view .LVU502
 1598 0006 0023     		movs	r3, #0
 1599 0008 C360     		str	r3, [r0, #12]
 700:n32g430_std_periph_driver/src/n32g430_gpio.c ****     GPIO_InitStruct->GPIO_Mode      = GPIO_MODE_INPUT;
 1600              		.loc 1 700 5 is_stmt 1 view .LVU503
 1601              		.loc 1 700 37 is_stmt 0 view .LVU504
 1602 000a 4360     		str	r3, [r0, #4]
 701:n32g430_std_periph_driver/src/n32g430_gpio.c ****     GPIO_InitStruct->GPIO_Alternate = GPIO_NO_AF;
 1603              		.loc 1 701 5 is_stmt 1 view .LVU505
 1604              		.loc 1 701 37 is_stmt 0 view .LVU506
 1605 000c 0F22     		movs	r2, #15
 1606 000e 4261     		str	r2, [r0, #20]
 702:n32g430_std_periph_driver/src/n32g430_gpio.c ****     GPIO_InitStruct->GPIO_Pull      = GPIO_NO_PULL;
 1607              		.loc 1 702 5 is_stmt 1 view .LVU507
 1608              		.loc 1 702 37 is_stmt 0 view .LVU508
 1609 0010 8360     		str	r3, [r0, #8]
 703:n32g430_std_periph_driver/src/n32g430_gpio.c ****     GPIO_InitStruct->GPIO_Current   = GPIO_DS_2MA;
ARM GAS  C:\Users\Dawn\AppData\Local\Temp\ccmCgazd.s 			page 45


 1610              		.loc 1 703 5 is_stmt 1 view .LVU509
 1611              		.loc 1 703 37 is_stmt 0 view .LVU510
 1612 0012 0361     		str	r3, [r0, #16]
 704:n32g430_std_periph_driver/src/n32g430_gpio.c **** }
 1613              		.loc 1 704 1 view .LVU511
 1614 0014 7047     		bx	lr
 1615              		.cfi_endproc
 1616              	.LFE137:
 1618              		.section	.text.GPIO_Input_Pin_Data_Get,"ax",%progbits
 1619              		.align	1
 1620              		.global	GPIO_Input_Pin_Data_Get
 1621              		.syntax unified
 1622              		.thumb
 1623              		.thumb_func
 1625              	GPIO_Input_Pin_Data_Get:
 1626              	.LVL115:
 1627              	.LFB138:
 705:n32g430_std_periph_driver/src/n32g430_gpio.c **** 
 706:n32g430_std_periph_driver/src/n32g430_gpio.c **** 
 707:n32g430_std_periph_driver/src/n32g430_gpio.c **** /**
 708:n32g430_std_periph_driver/src/n32g430_gpio.c ****  *\*\name   GPIO_Input_Pin_Data_Get.
 709:n32g430_std_periph_driver/src/n32g430_gpio.c ****  *\*\fun    Get the pin status on the specified input port.
 710:n32g430_std_periph_driver/src/n32g430_gpio.c ****  *\*\param  GPIOx :
 711:n32g430_std_periph_driver/src/n32g430_gpio.c ****  *\*\          - GPIOA
 712:n32g430_std_periph_driver/src/n32g430_gpio.c ****  *\*\          - GPIOB
 713:n32g430_std_periph_driver/src/n32g430_gpio.c ****  *\*\          - GPIOC
 714:n32g430_std_periph_driver/src/n32g430_gpio.c ****  *\*\          - GPIOD
 715:n32g430_std_periph_driver/src/n32g430_gpio.c ****  *\*\param  pin :
 716:n32g430_std_periph_driver/src/n32g430_gpio.c ****  *\*\          - GPIO_PIN_0
 717:n32g430_std_periph_driver/src/n32g430_gpio.c ****  *\*\          - GPIO_PIN_1
 718:n32g430_std_periph_driver/src/n32g430_gpio.c ****  *\*\          - GPIO_PIN_2
 719:n32g430_std_periph_driver/src/n32g430_gpio.c ****  *\*\          - GPIO_PIN_3
 720:n32g430_std_periph_driver/src/n32g430_gpio.c ****  *\*\          - GPIO_PIN_4
 721:n32g430_std_periph_driver/src/n32g430_gpio.c ****  *\*\          - GPIO_PIN_5
 722:n32g430_std_periph_driver/src/n32g430_gpio.c ****  *\*\          - GPIO_PIN_6
 723:n32g430_std_periph_driver/src/n32g430_gpio.c ****  *\*\          - GPIO_PIN_7
 724:n32g430_std_periph_driver/src/n32g430_gpio.c ****  *\*\          - GPIO_PIN_8
 725:n32g430_std_periph_driver/src/n32g430_gpio.c ****  *\*\          - GPIO_PIN_9
 726:n32g430_std_periph_driver/src/n32g430_gpio.c ****  *\*\          - GPIO_PIN_10
 727:n32g430_std_periph_driver/src/n32g430_gpio.c ****  *\*\          - GPIO_PIN_11
 728:n32g430_std_periph_driver/src/n32g430_gpio.c ****  *\*\          - GPIO_PIN_12
 729:n32g430_std_periph_driver/src/n32g430_gpio.c ****  *\*\          - GPIO_PIN_13
 730:n32g430_std_periph_driver/src/n32g430_gpio.c ****  *\*\          - GPIO_PIN_14
 731:n32g430_std_periph_driver/src/n32g430_gpio.c ****  *\*\          - GPIO_PIN_15
 732:n32g430_std_periph_driver/src/n32g430_gpio.c ****  *\*\return the pin state on the input port.
 733:n32g430_std_periph_driver/src/n32g430_gpio.c ****  */
 734:n32g430_std_periph_driver/src/n32g430_gpio.c **** uint8_t GPIO_Input_Pin_Data_Get(GPIO_Module* GPIOx, uint16_t pin)
 735:n32g430_std_periph_driver/src/n32g430_gpio.c **** {
 1628              		.loc 1 735 1 is_stmt 1 view -0
 1629              		.cfi_startproc
 1630              		@ args = 0, pretend = 0, frame = 0
 1631              		@ frame_needed = 0, uses_anonymous_args = 0
 1632              		@ link register save eliminated.
 736:n32g430_std_periph_driver/src/n32g430_gpio.c ****     if ((GPIOx->PID & pin) != (uint32_t)PIN_RESET)
 1633              		.loc 1 736 5 view .LVU513
 1634              		.loc 1 736 15 is_stmt 0 view .LVU514
 1635 0000 0369     		ldr	r3, [r0, #16]
ARM GAS  C:\Users\Dawn\AppData\Local\Temp\ccmCgazd.s 			page 46


 1636              		.loc 1 736 8 view .LVU515
 1637 0002 1942     		tst	r1, r3
 1638 0004 01D0     		beq	.L124
 737:n32g430_std_periph_driver/src/n32g430_gpio.c ****     {
 738:n32g430_std_periph_driver/src/n32g430_gpio.c ****         return (uint8_t)PIN_SET;
 1639              		.loc 1 738 16 view .LVU516
 1640 0006 0120     		movs	r0, #1
 1641              	.LVL116:
 1642              		.loc 1 738 16 view .LVU517
 1643 0008 7047     		bx	lr
 1644              	.LVL117:
 1645              	.L124:
 739:n32g430_std_periph_driver/src/n32g430_gpio.c ****     }
 740:n32g430_std_periph_driver/src/n32g430_gpio.c ****     else
 741:n32g430_std_periph_driver/src/n32g430_gpio.c ****     {
 742:n32g430_std_periph_driver/src/n32g430_gpio.c ****         return (uint8_t)PIN_RESET;
 1646              		.loc 1 742 16 view .LVU518
 1647 000a 0020     		movs	r0, #0
 1648              	.LVL118:
 743:n32g430_std_periph_driver/src/n32g430_gpio.c ****     }
 744:n32g430_std_periph_driver/src/n32g430_gpio.c **** }
 1649              		.loc 1 744 1 view .LVU519
 1650 000c 7047     		bx	lr
 1651              		.cfi_endproc
 1652              	.LFE138:
 1654              		.section	.text.GPIO_Input_Data_Get,"ax",%progbits
 1655              		.align	1
 1656              		.global	GPIO_Input_Data_Get
 1657              		.syntax unified
 1658              		.thumb
 1659              		.thumb_func
 1661              	GPIO_Input_Data_Get:
 1662              	.LVL119:
 1663              	.LFB139:
 745:n32g430_std_periph_driver/src/n32g430_gpio.c **** 
 746:n32g430_std_periph_driver/src/n32g430_gpio.c **** 
 747:n32g430_std_periph_driver/src/n32g430_gpio.c **** /**
 748:n32g430_std_periph_driver/src/n32g430_gpio.c ****  *\*\name   GPIO_Input_Data_Get.
 749:n32g430_std_periph_driver/src/n32g430_gpio.c ****  *\*\fun    Get the input data on the designated GPIO port.
 750:n32g430_std_periph_driver/src/n32g430_gpio.c ****  *\*\param  GPIOx :
 751:n32g430_std_periph_driver/src/n32g430_gpio.c ****  *\*\          - GPIOA
 752:n32g430_std_periph_driver/src/n32g430_gpio.c ****  *\*\          - GPIOB
 753:n32g430_std_periph_driver/src/n32g430_gpio.c ****  *\*\          - GPIOC
 754:n32g430_std_periph_driver/src/n32g430_gpio.c ****  *\*\          - GPIOD
 755:n32g430_std_periph_driver/src/n32g430_gpio.c ****  *\*\return the data value on the GPIO input port.
 756:n32g430_std_periph_driver/src/n32g430_gpio.c ****  */
 757:n32g430_std_periph_driver/src/n32g430_gpio.c **** uint16_t GPIO_Input_Data_Get(GPIO_Module* GPIOx)
 758:n32g430_std_periph_driver/src/n32g430_gpio.c **** {
 1664              		.loc 1 758 1 is_stmt 1 view -0
 1665              		.cfi_startproc
 1666              		@ args = 0, pretend = 0, frame = 0
 1667              		@ frame_needed = 0, uses_anonymous_args = 0
 1668              		@ link register save eliminated.
 759:n32g430_std_periph_driver/src/n32g430_gpio.c ****     return ((uint16_t)GPIOx->PID);
 1669              		.loc 1 759 5 view .LVU521
 1670              		.loc 1 759 28 is_stmt 0 view .LVU522
 1671 0000 0069     		ldr	r0, [r0, #16]
ARM GAS  C:\Users\Dawn\AppData\Local\Temp\ccmCgazd.s 			page 47


 1672              	.LVL120:
 760:n32g430_std_periph_driver/src/n32g430_gpio.c **** }
 1673              		.loc 1 760 1 view .LVU523
 1674 0002 80B2     		uxth	r0, r0
 1675 0004 7047     		bx	lr
 1676              		.cfi_endproc
 1677              	.LFE139:
 1679              		.section	.text.GPIO_Output_Pin_Data_Get,"ax",%progbits
 1680              		.align	1
 1681              		.global	GPIO_Output_Pin_Data_Get
 1682              		.syntax unified
 1683              		.thumb
 1684              		.thumb_func
 1686              	GPIO_Output_Pin_Data_Get:
 1687              	.LVL121:
 1688              	.LFB140:
 761:n32g430_std_periph_driver/src/n32g430_gpio.c **** 
 762:n32g430_std_periph_driver/src/n32g430_gpio.c **** 
 763:n32g430_std_periph_driver/src/n32g430_gpio.c **** /**
 764:n32g430_std_periph_driver/src/n32g430_gpio.c ****  *\*\name   GPIO_Output_Pin_Data_Get.
 765:n32g430_std_periph_driver/src/n32g430_gpio.c ****  *\*\fun    Get the pin status on the specified output port.
 766:n32g430_std_periph_driver/src/n32g430_gpio.c ****  *\*\param  GPIOx :
 767:n32g430_std_periph_driver/src/n32g430_gpio.c ****  *\*\          - GPIOA
 768:n32g430_std_periph_driver/src/n32g430_gpio.c ****  *\*\          - GPIOB
 769:n32g430_std_periph_driver/src/n32g430_gpio.c ****  *\*\          - GPIOC
 770:n32g430_std_periph_driver/src/n32g430_gpio.c ****  *\*\          - GPIOD
 771:n32g430_std_periph_driver/src/n32g430_gpio.c ****  *\*\param  pin :
 772:n32g430_std_periph_driver/src/n32g430_gpio.c ****  *\*\          - GPIO_PIN_0
 773:n32g430_std_periph_driver/src/n32g430_gpio.c ****  *\*\          - GPIO_PIN_1
 774:n32g430_std_periph_driver/src/n32g430_gpio.c ****  *\*\          - GPIO_PIN_2
 775:n32g430_std_periph_driver/src/n32g430_gpio.c ****  *\*\          - GPIO_PIN_3
 776:n32g430_std_periph_driver/src/n32g430_gpio.c ****  *\*\          - GPIO_PIN_4
 777:n32g430_std_periph_driver/src/n32g430_gpio.c ****  *\*\          - GPIO_PIN_5
 778:n32g430_std_periph_driver/src/n32g430_gpio.c ****  *\*\          - GPIO_PIN_6
 779:n32g430_std_periph_driver/src/n32g430_gpio.c ****  *\*\          - GPIO_PIN_7
 780:n32g430_std_periph_driver/src/n32g430_gpio.c ****  *\*\          - GPIO_PIN_8
 781:n32g430_std_periph_driver/src/n32g430_gpio.c ****  *\*\          - GPIO_PIN_9
 782:n32g430_std_periph_driver/src/n32g430_gpio.c ****  *\*\          - GPIO_PIN_10
 783:n32g430_std_periph_driver/src/n32g430_gpio.c ****  *\*\          - GPIO_PIN_11
 784:n32g430_std_periph_driver/src/n32g430_gpio.c ****  *\*\          - GPIO_PIN_12
 785:n32g430_std_periph_driver/src/n32g430_gpio.c ****  *\*\          - GPIO_PIN_13
 786:n32g430_std_periph_driver/src/n32g430_gpio.c ****  *\*\          - GPIO_PIN_14
 787:n32g430_std_periph_driver/src/n32g430_gpio.c ****  *\*\          - GPIO_PIN_15
 788:n32g430_std_periph_driver/src/n32g430_gpio.c ****  *\*\return the pin state on the output port.
 789:n32g430_std_periph_driver/src/n32g430_gpio.c ****  */
 790:n32g430_std_periph_driver/src/n32g430_gpio.c **** uint8_t GPIO_Output_Pin_Data_Get(GPIO_Module* GPIOx, uint16_t pin)
 791:n32g430_std_periph_driver/src/n32g430_gpio.c **** {
 1689              		.loc 1 791 1 is_stmt 1 view -0
 1690              		.cfi_startproc
 1691              		@ args = 0, pretend = 0, frame = 0
 1692              		@ frame_needed = 0, uses_anonymous_args = 0
 1693              		@ link register save eliminated.
 792:n32g430_std_periph_driver/src/n32g430_gpio.c ****     if ((GPIOx->POD & pin) != (uint32_t)PIN_RESET)
 1694              		.loc 1 792 5 view .LVU525
 1695              		.loc 1 792 15 is_stmt 0 view .LVU526
 1696 0000 4369     		ldr	r3, [r0, #20]
 1697              		.loc 1 792 8 view .LVU527
ARM GAS  C:\Users\Dawn\AppData\Local\Temp\ccmCgazd.s 			page 48


 1698 0002 1942     		tst	r1, r3
 1699 0004 01D0     		beq	.L128
 793:n32g430_std_periph_driver/src/n32g430_gpio.c ****     {
 794:n32g430_std_periph_driver/src/n32g430_gpio.c ****         return (uint8_t)PIN_SET;
 1700              		.loc 1 794 16 view .LVU528
 1701 0006 0120     		movs	r0, #1
 1702              	.LVL122:
 1703              		.loc 1 794 16 view .LVU529
 1704 0008 7047     		bx	lr
 1705              	.LVL123:
 1706              	.L128:
 795:n32g430_std_periph_driver/src/n32g430_gpio.c ****     }
 796:n32g430_std_periph_driver/src/n32g430_gpio.c ****     else
 797:n32g430_std_periph_driver/src/n32g430_gpio.c ****     {
 798:n32g430_std_periph_driver/src/n32g430_gpio.c ****         return (uint8_t)PIN_RESET;
 1707              		.loc 1 798 16 view .LVU530
 1708 000a 0020     		movs	r0, #0
 1709              	.LVL124:
 799:n32g430_std_periph_driver/src/n32g430_gpio.c ****     }
 800:n32g430_std_periph_driver/src/n32g430_gpio.c **** }
 1710              		.loc 1 800 1 view .LVU531
 1711 000c 7047     		bx	lr
 1712              		.cfi_endproc
 1713              	.LFE140:
 1715              		.section	.text.GPIO_Output_Data_Get,"ax",%progbits
 1716              		.align	1
 1717              		.global	GPIO_Output_Data_Get
 1718              		.syntax unified
 1719              		.thumb
 1720              		.thumb_func
 1722              	GPIO_Output_Data_Get:
 1723              	.LVL125:
 1724              	.LFB141:
 801:n32g430_std_periph_driver/src/n32g430_gpio.c **** 
 802:n32g430_std_periph_driver/src/n32g430_gpio.c **** 
 803:n32g430_std_periph_driver/src/n32g430_gpio.c **** /**
 804:n32g430_std_periph_driver/src/n32g430_gpio.c ****  *\*\name   GPIO_Output_Data_Get.
 805:n32g430_std_periph_driver/src/n32g430_gpio.c ****  *\*\fun    Get the output data on the designated GPIO port.
 806:n32g430_std_periph_driver/src/n32g430_gpio.c ****  *\*\param  GPIOx :
 807:n32g430_std_periph_driver/src/n32g430_gpio.c ****  *\*\          - GPIOA
 808:n32g430_std_periph_driver/src/n32g430_gpio.c ****  *\*\          - GPIOB
 809:n32g430_std_periph_driver/src/n32g430_gpio.c ****  *\*\          - GPIOC
 810:n32g430_std_periph_driver/src/n32g430_gpio.c ****  *\*\          - GPIOD
 811:n32g430_std_periph_driver/src/n32g430_gpio.c ****  *\*\return the data value on the GPIO output port.
 812:n32g430_std_periph_driver/src/n32g430_gpio.c ****  */
 813:n32g430_std_periph_driver/src/n32g430_gpio.c **** uint16_t GPIO_Output_Data_Get(GPIO_Module* GPIOx)
 814:n32g430_std_periph_driver/src/n32g430_gpio.c **** {
 1725              		.loc 1 814 1 is_stmt 1 view -0
 1726              		.cfi_startproc
 1727              		@ args = 0, pretend = 0, frame = 0
 1728              		@ frame_needed = 0, uses_anonymous_args = 0
 1729              		@ link register save eliminated.
 815:n32g430_std_periph_driver/src/n32g430_gpio.c ****     return ((uint16_t)GPIOx->POD);
 1730              		.loc 1 815 5 view .LVU533
 1731              		.loc 1 815 28 is_stmt 0 view .LVU534
 1732 0000 4069     		ldr	r0, [r0, #20]
 1733              	.LVL126:
ARM GAS  C:\Users\Dawn\AppData\Local\Temp\ccmCgazd.s 			page 49


 816:n32g430_std_periph_driver/src/n32g430_gpio.c **** }
 1734              		.loc 1 816 1 view .LVU535
 1735 0002 80B2     		uxth	r0, r0
 1736 0004 7047     		bx	lr
 1737              		.cfi_endproc
 1738              	.LFE141:
 1740              		.section	.text.GPIO_Pins_Set,"ax",%progbits
 1741              		.align	1
 1742              		.global	GPIO_Pins_Set
 1743              		.syntax unified
 1744              		.thumb
 1745              		.thumb_func
 1747              	GPIO_Pins_Set:
 1748              	.LVL127:
 1749              	.LFB142:
 817:n32g430_std_periph_driver/src/n32g430_gpio.c **** 
 818:n32g430_std_periph_driver/src/n32g430_gpio.c **** 
 819:n32g430_std_periph_driver/src/n32g430_gpio.c **** /**
 820:n32g430_std_periph_driver/src/n32g430_gpio.c ****  *\*\name   GPIO_Pins_Set.
 821:n32g430_std_periph_driver/src/n32g430_gpio.c ****  *\*\fun    Sets the selected data port bits.
 822:n32g430_std_periph_driver/src/n32g430_gpio.c ****  *\*\param  GPIOx :
 823:n32g430_std_periph_driver/src/n32g430_gpio.c ****  *\*\          - GPIOA
 824:n32g430_std_periph_driver/src/n32g430_gpio.c ****  *\*\          - GPIOB
 825:n32g430_std_periph_driver/src/n32g430_gpio.c ****  *\*\          - GPIOC
 826:n32g430_std_periph_driver/src/n32g430_gpio.c ****  *\*\          - GPIOD
 827:n32g430_std_periph_driver/src/n32g430_gpio.c ****  *\*\param  pin :
 828:n32g430_std_periph_driver/src/n32g430_gpio.c ****  *\*\          - GPIO_PIN_0
 829:n32g430_std_periph_driver/src/n32g430_gpio.c ****  *\*\          - GPIO_PIN_1
 830:n32g430_std_periph_driver/src/n32g430_gpio.c ****  *\*\          - GPIO_PIN_2
 831:n32g430_std_periph_driver/src/n32g430_gpio.c ****  *\*\          - GPIO_PIN_3
 832:n32g430_std_periph_driver/src/n32g430_gpio.c ****  *\*\          - GPIO_PIN_4
 833:n32g430_std_periph_driver/src/n32g430_gpio.c ****  *\*\          - GPIO_PIN_5
 834:n32g430_std_periph_driver/src/n32g430_gpio.c ****  *\*\          - GPIO_PIN_6
 835:n32g430_std_periph_driver/src/n32g430_gpio.c ****  *\*\          - GPIO_PIN_7
 836:n32g430_std_periph_driver/src/n32g430_gpio.c ****  *\*\          - GPIO_PIN_8
 837:n32g430_std_periph_driver/src/n32g430_gpio.c ****  *\*\          - GPIO_PIN_9
 838:n32g430_std_periph_driver/src/n32g430_gpio.c ****  *\*\          - GPIO_PIN_10
 839:n32g430_std_periph_driver/src/n32g430_gpio.c ****  *\*\          - GPIO_PIN_11
 840:n32g430_std_periph_driver/src/n32g430_gpio.c ****  *\*\          - GPIO_PIN_12
 841:n32g430_std_periph_driver/src/n32g430_gpio.c ****  *\*\          - GPIO_PIN_13
 842:n32g430_std_periph_driver/src/n32g430_gpio.c ****  *\*\          - GPIO_PIN_14
 843:n32g430_std_periph_driver/src/n32g430_gpio.c ****  *\*\          - GPIO_PIN_15
 844:n32g430_std_periph_driver/src/n32g430_gpio.c ****  *\*\return none
 845:n32g430_std_periph_driver/src/n32g430_gpio.c ****  */
 846:n32g430_std_periph_driver/src/n32g430_gpio.c **** void GPIO_Pins_Set(GPIO_Module* GPIOx, uint16_t pin)
 847:n32g430_std_periph_driver/src/n32g430_gpio.c **** {
 1750              		.loc 1 847 1 is_stmt 1 view -0
 1751              		.cfi_startproc
 1752              		@ args = 0, pretend = 0, frame = 0
 1753              		@ frame_needed = 0, uses_anonymous_args = 0
 1754              		@ link register save eliminated.
 848:n32g430_std_periph_driver/src/n32g430_gpio.c ****     GPIOx->PBSC = pin;
 1755              		.loc 1 848 5 view .LVU537
 1756              		.loc 1 848 17 is_stmt 0 view .LVU538
 1757 0000 8161     		str	r1, [r0, #24]
 849:n32g430_std_periph_driver/src/n32g430_gpio.c **** }
 1758              		.loc 1 849 1 view .LVU539
ARM GAS  C:\Users\Dawn\AppData\Local\Temp\ccmCgazd.s 			page 50


 1759 0002 7047     		bx	lr
 1760              		.cfi_endproc
 1761              	.LFE142:
 1763              		.section	.text.GPIO_Pins_Reset,"ax",%progbits
 1764              		.align	1
 1765              		.global	GPIO_Pins_Reset
 1766              		.syntax unified
 1767              		.thumb
 1768              		.thumb_func
 1770              	GPIO_Pins_Reset:
 1771              	.LVL128:
 1772              	.LFB143:
 850:n32g430_std_periph_driver/src/n32g430_gpio.c **** 
 851:n32g430_std_periph_driver/src/n32g430_gpio.c **** /**
 852:n32g430_std_periph_driver/src/n32g430_gpio.c ****  *\*\name   GPIO_Pins_Reset.
 853:n32g430_std_periph_driver/src/n32g430_gpio.c ****  *\*\fun    Reset the selected data port bits.
 854:n32g430_std_periph_driver/src/n32g430_gpio.c ****  *\*\param  GPIOx :
 855:n32g430_std_periph_driver/src/n32g430_gpio.c ****  *\*\          - GPIOA
 856:n32g430_std_periph_driver/src/n32g430_gpio.c ****  *\*\          - GPIOB
 857:n32g430_std_periph_driver/src/n32g430_gpio.c ****  *\*\          - GPIOC
 858:n32g430_std_periph_driver/src/n32g430_gpio.c ****  *\*\          - GPIOD
 859:n32g430_std_periph_driver/src/n32g430_gpio.c ****  *\*\param  pin :
 860:n32g430_std_periph_driver/src/n32g430_gpio.c ****  *\*\          - GPIO_PIN_0
 861:n32g430_std_periph_driver/src/n32g430_gpio.c ****  *\*\          - GPIO_PIN_1
 862:n32g430_std_periph_driver/src/n32g430_gpio.c ****  *\*\          - GPIO_PIN_2
 863:n32g430_std_periph_driver/src/n32g430_gpio.c ****  *\*\          - GPIO_PIN_3
 864:n32g430_std_periph_driver/src/n32g430_gpio.c ****  *\*\          - GPIO_PIN_4
 865:n32g430_std_periph_driver/src/n32g430_gpio.c ****  *\*\          - GPIO_PIN_5
 866:n32g430_std_periph_driver/src/n32g430_gpio.c ****  *\*\          - GPIO_PIN_6
 867:n32g430_std_periph_driver/src/n32g430_gpio.c ****  *\*\          - GPIO_PIN_7
 868:n32g430_std_periph_driver/src/n32g430_gpio.c ****  *\*\          - GPIO_PIN_8
 869:n32g430_std_periph_driver/src/n32g430_gpio.c ****  *\*\          - GPIO_PIN_9
 870:n32g430_std_periph_driver/src/n32g430_gpio.c ****  *\*\          - GPIO_PIN_10
 871:n32g430_std_periph_driver/src/n32g430_gpio.c ****  *\*\          - GPIO_PIN_11
 872:n32g430_std_periph_driver/src/n32g430_gpio.c ****  *\*\          - GPIO_PIN_12
 873:n32g430_std_periph_driver/src/n32g430_gpio.c ****  *\*\          - GPIO_PIN_13
 874:n32g430_std_periph_driver/src/n32g430_gpio.c ****  *\*\          - GPIO_PIN_14
 875:n32g430_std_periph_driver/src/n32g430_gpio.c ****  *\*\          - GPIO_PIN_15
 876:n32g430_std_periph_driver/src/n32g430_gpio.c ****  *\*\return none
 877:n32g430_std_periph_driver/src/n32g430_gpio.c ****  */
 878:n32g430_std_periph_driver/src/n32g430_gpio.c **** void GPIO_Pins_Reset(GPIO_Module* GPIOx, uint16_t pin)
 879:n32g430_std_periph_driver/src/n32g430_gpio.c **** {
 1773              		.loc 1 879 1 is_stmt 1 view -0
 1774              		.cfi_startproc
 1775              		@ args = 0, pretend = 0, frame = 0
 1776              		@ frame_needed = 0, uses_anonymous_args = 0
 1777              		@ link register save eliminated.
 880:n32g430_std_periph_driver/src/n32g430_gpio.c ****     GPIOx->PBC = pin;
 1778              		.loc 1 880 5 view .LVU541
 1779              		.loc 1 880 16 is_stmt 0 view .LVU542
 1780 0000 8162     		str	r1, [r0, #40]
 881:n32g430_std_periph_driver/src/n32g430_gpio.c **** }
 1781              		.loc 1 881 1 view .LVU543
 1782 0002 7047     		bx	lr
 1783              		.cfi_endproc
 1784              	.LFE143:
 1786              		.section	.text.GPIO_PBSC_Pins_Reset,"ax",%progbits
ARM GAS  C:\Users\Dawn\AppData\Local\Temp\ccmCgazd.s 			page 51


 1787              		.align	1
 1788              		.global	GPIO_PBSC_Pins_Reset
 1789              		.syntax unified
 1790              		.thumb
 1791              		.thumb_func
 1793              	GPIO_PBSC_Pins_Reset:
 1794              	.LVL129:
 1795              	.LFB144:
 882:n32g430_std_periph_driver/src/n32g430_gpio.c **** 
 883:n32g430_std_periph_driver/src/n32g430_gpio.c **** /**
 884:n32g430_std_periph_driver/src/n32g430_gpio.c ****  *\*\name   GPIO_PBSC_Pins_Reset.
 885:n32g430_std_periph_driver/src/n32g430_gpio.c ****  *\*\fun    Sets the selected data port bits.
 886:n32g430_std_periph_driver/src/n32g430_gpio.c ****  *\*\param  GPIOx :
 887:n32g430_std_periph_driver/src/n32g430_gpio.c ****  *\*\          - GPIOA
 888:n32g430_std_periph_driver/src/n32g430_gpio.c ****  *\*\          - GPIOB
 889:n32g430_std_periph_driver/src/n32g430_gpio.c ****  *\*\          - GPIOC
 890:n32g430_std_periph_driver/src/n32g430_gpio.c ****  *\*\          - GPIOD
 891:n32g430_std_periph_driver/src/n32g430_gpio.c ****  *\*\param  pin :
 892:n32g430_std_periph_driver/src/n32g430_gpio.c ****  *\*\          - GPIO_PIN_0
 893:n32g430_std_periph_driver/src/n32g430_gpio.c ****  *\*\          - GPIO_PIN_1
 894:n32g430_std_periph_driver/src/n32g430_gpio.c ****  *\*\          - GPIO_PIN_2
 895:n32g430_std_periph_driver/src/n32g430_gpio.c ****  *\*\          - GPIO_PIN_3
 896:n32g430_std_periph_driver/src/n32g430_gpio.c ****  *\*\          - GPIO_PIN_4
 897:n32g430_std_periph_driver/src/n32g430_gpio.c ****  *\*\          - GPIO_PIN_5
 898:n32g430_std_periph_driver/src/n32g430_gpio.c ****  *\*\          - GPIO_PIN_6
 899:n32g430_std_periph_driver/src/n32g430_gpio.c ****  *\*\          - GPIO_PIN_7
 900:n32g430_std_periph_driver/src/n32g430_gpio.c ****  *\*\          - GPIO_PIN_8
 901:n32g430_std_periph_driver/src/n32g430_gpio.c ****  *\*\          - GPIO_PIN_9
 902:n32g430_std_periph_driver/src/n32g430_gpio.c ****  *\*\          - GPIO_PIN_10
 903:n32g430_std_periph_driver/src/n32g430_gpio.c ****  *\*\          - GPIO_PIN_11
 904:n32g430_std_periph_driver/src/n32g430_gpio.c ****  *\*\          - GPIO_PIN_12
 905:n32g430_std_periph_driver/src/n32g430_gpio.c ****  *\*\          - GPIO_PIN_13
 906:n32g430_std_periph_driver/src/n32g430_gpio.c ****  *\*\          - GPIO_PIN_14
 907:n32g430_std_periph_driver/src/n32g430_gpio.c ****  *\*\          - GPIO_PIN_15
 908:n32g430_std_periph_driver/src/n32g430_gpio.c ****  *\*\return none
 909:n32g430_std_periph_driver/src/n32g430_gpio.c ****  */
 910:n32g430_std_periph_driver/src/n32g430_gpio.c **** void GPIO_PBSC_Pins_Reset(GPIO_Module* GPIOx, uint16_t pin)
 911:n32g430_std_periph_driver/src/n32g430_gpio.c **** {
 1796              		.loc 1 911 1 is_stmt 1 view -0
 1797              		.cfi_startproc
 1798              		@ args = 0, pretend = 0, frame = 0
 1799              		@ frame_needed = 0, uses_anonymous_args = 0
 1800              		@ link register save eliminated.
 912:n32g430_std_periph_driver/src/n32g430_gpio.c ****     uint32_t Pin = pin;
 1801              		.loc 1 912 5 view .LVU545
 913:n32g430_std_periph_driver/src/n32g430_gpio.c ****     GPIOx->PBSC = (Pin << SHIFT_PBSC_HIGH16);
 1802              		.loc 1 913 5 view .LVU546
 1803              		.loc 1 913 24 is_stmt 0 view .LVU547
 1804 0000 0904     		lsls	r1, r1, #16
 1805              	.LVL130:
 1806              		.loc 1 913 17 view .LVU548
 1807 0002 8161     		str	r1, [r0, #24]
 914:n32g430_std_periph_driver/src/n32g430_gpio.c **** }
 1808              		.loc 1 914 1 view .LVU549
 1809 0004 7047     		bx	lr
 1810              		.cfi_endproc
 1811              	.LFE144:
ARM GAS  C:\Users\Dawn\AppData\Local\Temp\ccmCgazd.s 			page 52


 1813              		.section	.text.GPIO_PBC_Pins_Reset,"ax",%progbits
 1814              		.align	1
 1815              		.global	GPIO_PBC_Pins_Reset
 1816              		.syntax unified
 1817              		.thumb
 1818              		.thumb_func
 1820              	GPIO_PBC_Pins_Reset:
 1821              	.LVL131:
 1822              	.LFB145:
 915:n32g430_std_periph_driver/src/n32g430_gpio.c **** 
 916:n32g430_std_periph_driver/src/n32g430_gpio.c **** 
 917:n32g430_std_periph_driver/src/n32g430_gpio.c **** /**
 918:n32g430_std_periph_driver/src/n32g430_gpio.c ****  *\*\name   GPIO_PBC_Pins_Reset.
 919:n32g430_std_periph_driver/src/n32g430_gpio.c ****  *\*\fun    Reset the selected data port bits.
 920:n32g430_std_periph_driver/src/n32g430_gpio.c ****  *\*\param  GPIOx :
 921:n32g430_std_periph_driver/src/n32g430_gpio.c ****  *\*\          - GPIOA
 922:n32g430_std_periph_driver/src/n32g430_gpio.c ****  *\*\          - GPIOB
 923:n32g430_std_periph_driver/src/n32g430_gpio.c ****  *\*\          - GPIOC
 924:n32g430_std_periph_driver/src/n32g430_gpio.c ****  *\*\          - GPIOD
 925:n32g430_std_periph_driver/src/n32g430_gpio.c ****  *\*\param  pin :
 926:n32g430_std_periph_driver/src/n32g430_gpio.c ****  *\*\          - GPIO_PIN_0
 927:n32g430_std_periph_driver/src/n32g430_gpio.c ****  *\*\          - GPIO_PIN_1
 928:n32g430_std_periph_driver/src/n32g430_gpio.c ****  *\*\          - GPIO_PIN_2
 929:n32g430_std_periph_driver/src/n32g430_gpio.c ****  *\*\          - GPIO_PIN_3
 930:n32g430_std_periph_driver/src/n32g430_gpio.c ****  *\*\          - GPIO_PIN_4
 931:n32g430_std_periph_driver/src/n32g430_gpio.c ****  *\*\          - GPIO_PIN_5
 932:n32g430_std_periph_driver/src/n32g430_gpio.c ****  *\*\          - GPIO_PIN_6
 933:n32g430_std_periph_driver/src/n32g430_gpio.c ****  *\*\          - GPIO_PIN_7
 934:n32g430_std_periph_driver/src/n32g430_gpio.c ****  *\*\          - GPIO_PIN_8
 935:n32g430_std_periph_driver/src/n32g430_gpio.c ****  *\*\          - GPIO_PIN_9
 936:n32g430_std_periph_driver/src/n32g430_gpio.c ****  *\*\          - GPIO_PIN_10
 937:n32g430_std_periph_driver/src/n32g430_gpio.c ****  *\*\          - GPIO_PIN_11
 938:n32g430_std_periph_driver/src/n32g430_gpio.c ****  *\*\          - GPIO_PIN_12
 939:n32g430_std_periph_driver/src/n32g430_gpio.c ****  *\*\          - GPIO_PIN_13
 940:n32g430_std_periph_driver/src/n32g430_gpio.c ****  *\*\          - GPIO_PIN_14
 941:n32g430_std_periph_driver/src/n32g430_gpio.c ****  *\*\          - GPIO_PIN_15
 942:n32g430_std_periph_driver/src/n32g430_gpio.c ****  *\*\return none
 943:n32g430_std_periph_driver/src/n32g430_gpio.c ****  */
 944:n32g430_std_periph_driver/src/n32g430_gpio.c **** void GPIO_PBC_Pins_Reset(GPIO_Module* GPIOx, uint16_t pin)
 945:n32g430_std_periph_driver/src/n32g430_gpio.c **** {
 1823              		.loc 1 945 1 is_stmt 1 view -0
 1824              		.cfi_startproc
 1825              		@ args = 0, pretend = 0, frame = 0
 1826              		@ frame_needed = 0, uses_anonymous_args = 0
 1827              		@ link register save eliminated.
 946:n32g430_std_periph_driver/src/n32g430_gpio.c ****     GPIOx->PBC = pin;
 1828              		.loc 1 946 5 view .LVU551
 1829              		.loc 1 946 16 is_stmt 0 view .LVU552
 1830 0000 8162     		str	r1, [r0, #40]
 947:n32g430_std_periph_driver/src/n32g430_gpio.c **** }
 1831              		.loc 1 947 1 view .LVU553
 1832 0002 7047     		bx	lr
 1833              		.cfi_endproc
 1834              	.LFE145:
 1836              		.section	.text.GPIO_Write,"ax",%progbits
 1837              		.align	1
 1838              		.global	GPIO_Write
ARM GAS  C:\Users\Dawn\AppData\Local\Temp\ccmCgazd.s 			page 53


 1839              		.syntax unified
 1840              		.thumb
 1841              		.thumb_func
 1843              	GPIO_Write:
 1844              	.LVL132:
 1845              	.LFB146:
 948:n32g430_std_periph_driver/src/n32g430_gpio.c **** 
 949:n32g430_std_periph_driver/src/n32g430_gpio.c **** 
 950:n32g430_std_periph_driver/src/n32g430_gpio.c **** /**
 951:n32g430_std_periph_driver/src/n32g430_gpio.c ****  *\*\name   GPIO_Write_Data.
 952:n32g430_std_periph_driver/src/n32g430_gpio.c ****  *\*\fun    Write data on the designated GPIO data port.
 953:n32g430_std_periph_driver/src/n32g430_gpio.c ****  *\*\param  GPIOx :
 954:n32g430_std_periph_driver/src/n32g430_gpio.c ****  *\*\          - GPIOA
 955:n32g430_std_periph_driver/src/n32g430_gpio.c ****  *\*\          - GPIOB
 956:n32g430_std_periph_driver/src/n32g430_gpio.c ****  *\*\          - GPIOC
 957:n32g430_std_periph_driver/src/n32g430_gpio.c ****  *\*\          - GPIOD
 958:n32g430_std_periph_driver/src/n32g430_gpio.c ****  *\*\param  data_value :
 959:n32g430_std_periph_driver/src/n32g430_gpio.c ****  *\*\          the value to be written to the port output data register.
 960:n32g430_std_periph_driver/src/n32g430_gpio.c ****  *\*\return none
 961:n32g430_std_periph_driver/src/n32g430_gpio.c ****  */
 962:n32g430_std_periph_driver/src/n32g430_gpio.c **** void GPIO_Write(GPIO_Module* GPIOx, uint16_t data_value)
 963:n32g430_std_periph_driver/src/n32g430_gpio.c **** {
 1846              		.loc 1 963 1 is_stmt 1 view -0
 1847              		.cfi_startproc
 1848              		@ args = 0, pretend = 0, frame = 0
 1849              		@ frame_needed = 0, uses_anonymous_args = 0
 1850              		@ link register save eliminated.
 964:n32g430_std_periph_driver/src/n32g430_gpio.c ****     GPIOx->POD = data_value;
 1851              		.loc 1 964 5 view .LVU555
 1852              		.loc 1 964 16 is_stmt 0 view .LVU556
 1853 0000 4161     		str	r1, [r0, #20]
 965:n32g430_std_periph_driver/src/n32g430_gpio.c **** }
 1854              		.loc 1 965 1 view .LVU557
 1855 0002 7047     		bx	lr
 1856              		.cfi_endproc
 1857              	.LFE146:
 1859              		.section	.text.GPIO_Pin_Toggle,"ax",%progbits
 1860              		.align	1
 1861              		.global	GPIO_Pin_Toggle
 1862              		.syntax unified
 1863              		.thumb
 1864              		.thumb_func
 1866              	GPIO_Pin_Toggle:
 1867              	.LVL133:
 1868              	.LFB147:
 966:n32g430_std_periph_driver/src/n32g430_gpio.c **** 
 967:n32g430_std_periph_driver/src/n32g430_gpio.c **** 
 968:n32g430_std_periph_driver/src/n32g430_gpio.c **** /**
 969:n32g430_std_periph_driver/src/n32g430_gpio.c ****  *\*\name   GPIO_Pin_Toggle.
 970:n32g430_std_periph_driver/src/n32g430_gpio.c ****  *\*\fun    Toggle the specified port pin level.
 971:n32g430_std_periph_driver/src/n32g430_gpio.c ****  *\*\param  GPIOx :
 972:n32g430_std_periph_driver/src/n32g430_gpio.c ****  *\*\          - GPIOA
 973:n32g430_std_periph_driver/src/n32g430_gpio.c ****  *\*\          - GPIOB
 974:n32g430_std_periph_driver/src/n32g430_gpio.c ****  *\*\          - GPIOC
 975:n32g430_std_periph_driver/src/n32g430_gpio.c ****  *\*\          - GPIOD
 976:n32g430_std_periph_driver/src/n32g430_gpio.c ****  *\*\param  pin :
 977:n32g430_std_periph_driver/src/n32g430_gpio.c ****  *\*\          - GPIO_PIN_0
ARM GAS  C:\Users\Dawn\AppData\Local\Temp\ccmCgazd.s 			page 54


 978:n32g430_std_periph_driver/src/n32g430_gpio.c ****  *\*\          - GPIO_PIN_1
 979:n32g430_std_periph_driver/src/n32g430_gpio.c ****  *\*\          - GPIO_PIN_2
 980:n32g430_std_periph_driver/src/n32g430_gpio.c ****  *\*\          - GPIO_PIN_3
 981:n32g430_std_periph_driver/src/n32g430_gpio.c ****  *\*\          - GPIO_PIN_4
 982:n32g430_std_periph_driver/src/n32g430_gpio.c ****  *\*\          - GPIO_PIN_5
 983:n32g430_std_periph_driver/src/n32g430_gpio.c ****  *\*\          - GPIO_PIN_6
 984:n32g430_std_periph_driver/src/n32g430_gpio.c ****  *\*\          - GPIO_PIN_7
 985:n32g430_std_periph_driver/src/n32g430_gpio.c ****  *\*\          - GPIO_PIN_8
 986:n32g430_std_periph_driver/src/n32g430_gpio.c ****  *\*\          - GPIO_PIN_9
 987:n32g430_std_periph_driver/src/n32g430_gpio.c ****  *\*\          - GPIO_PIN_10
 988:n32g430_std_periph_driver/src/n32g430_gpio.c ****  *\*\          - GPIO_PIN_11
 989:n32g430_std_periph_driver/src/n32g430_gpio.c ****  *\*\          - GPIO_PIN_12
 990:n32g430_std_periph_driver/src/n32g430_gpio.c ****  *\*\          - GPIO_PIN_13
 991:n32g430_std_periph_driver/src/n32g430_gpio.c ****  *\*\          - GPIO_PIN_14
 992:n32g430_std_periph_driver/src/n32g430_gpio.c ****  *\*\          - GPIO_PIN_15
 993:n32g430_std_periph_driver/src/n32g430_gpio.c ****  *\*\return none
 994:n32g430_std_periph_driver/src/n32g430_gpio.c ****  */
 995:n32g430_std_periph_driver/src/n32g430_gpio.c **** void GPIO_Pin_Toggle(GPIO_Module* GPIOx, uint16_t pin)
 996:n32g430_std_periph_driver/src/n32g430_gpio.c **** {
 1869              		.loc 1 996 1 is_stmt 1 view -0
 1870              		.cfi_startproc
 1871              		@ args = 0, pretend = 0, frame = 0
 1872              		@ frame_needed = 0, uses_anonymous_args = 0
 1873              		@ link register save eliminated.
 997:n32g430_std_periph_driver/src/n32g430_gpio.c ****     GPIOx->POD ^= pin;
 1874              		.loc 1 997 5 view .LVU559
 1875              		.loc 1 997 10 is_stmt 0 view .LVU560
 1876 0000 4369     		ldr	r3, [r0, #20]
 1877              		.loc 1 997 16 view .LVU561
 1878 0002 5940     		eors	r1, r1, r3
 1879              	.LVL134:
 1880              		.loc 1 997 16 view .LVU562
 1881 0004 4161     		str	r1, [r0, #20]
 998:n32g430_std_periph_driver/src/n32g430_gpio.c **** }
 1882              		.loc 1 998 1 view .LVU563
 1883 0006 7047     		bx	lr
 1884              		.cfi_endproc
 1885              	.LFE147:
 1887              		.section	.text.GPIO_Pin_Lock_Set,"ax",%progbits
 1888              		.align	1
 1889              		.global	GPIO_Pin_Lock_Set
 1890              		.syntax unified
 1891              		.thumb
 1892              		.thumb_func
 1894              	GPIO_Pin_Lock_Set:
 1895              	.LVL135:
 1896              	.LFB148:
 999:n32g430_std_periph_driver/src/n32g430_gpio.c **** 
1000:n32g430_std_periph_driver/src/n32g430_gpio.c **** 
1001:n32g430_std_periph_driver/src/n32g430_gpio.c **** /**
1002:n32g430_std_periph_driver/src/n32g430_gpio.c ****  *\*\name   GPIO_Pin_Lock_Set.
1003:n32g430_std_periph_driver/src/n32g430_gpio.c ****  *\*\fun    GPIO port lock register configuration.
1004:n32g430_std_periph_driver/src/n32g430_gpio.c ****  *\*\param  GPIOx :
1005:n32g430_std_periph_driver/src/n32g430_gpio.c ****  *\*\          - GPIOA
1006:n32g430_std_periph_driver/src/n32g430_gpio.c ****  *\*\          - GPIOB
1007:n32g430_std_periph_driver/src/n32g430_gpio.c ****  *\*\          - GPIOC
1008:n32g430_std_periph_driver/src/n32g430_gpio.c ****  *\*\          - GPIOD
ARM GAS  C:\Users\Dawn\AppData\Local\Temp\ccmCgazd.s 			page 55


1009:n32g430_std_periph_driver/src/n32g430_gpio.c ****  *\*\param  pin :
1010:n32g430_std_periph_driver/src/n32g430_gpio.c ****  *\*\          - GPIO_PIN_0
1011:n32g430_std_periph_driver/src/n32g430_gpio.c ****  *\*\          - GPIO_PIN_1
1012:n32g430_std_periph_driver/src/n32g430_gpio.c ****  *\*\          - GPIO_PIN_2
1013:n32g430_std_periph_driver/src/n32g430_gpio.c ****  *\*\          - GPIO_PIN_3
1014:n32g430_std_periph_driver/src/n32g430_gpio.c ****  *\*\          - GPIO_PIN_4
1015:n32g430_std_periph_driver/src/n32g430_gpio.c ****  *\*\          - GPIO_PIN_5
1016:n32g430_std_periph_driver/src/n32g430_gpio.c ****  *\*\          - GPIO_PIN_6
1017:n32g430_std_periph_driver/src/n32g430_gpio.c ****  *\*\          - GPIO_PIN_7
1018:n32g430_std_periph_driver/src/n32g430_gpio.c ****  *\*\          - GPIO_PIN_8
1019:n32g430_std_periph_driver/src/n32g430_gpio.c ****  *\*\          - GPIO_PIN_9
1020:n32g430_std_periph_driver/src/n32g430_gpio.c ****  *\*\          - GPIO_PIN_10
1021:n32g430_std_periph_driver/src/n32g430_gpio.c ****  *\*\          - GPIO_PIN_11
1022:n32g430_std_periph_driver/src/n32g430_gpio.c ****  *\*\          - GPIO_PIN_12
1023:n32g430_std_periph_driver/src/n32g430_gpio.c ****  *\*\          - GPIO_PIN_13
1024:n32g430_std_periph_driver/src/n32g430_gpio.c ****  *\*\          - GPIO_PIN_14
1025:n32g430_std_periph_driver/src/n32g430_gpio.c ****  *\*\          - GPIO_PIN_15
1026:n32g430_std_periph_driver/src/n32g430_gpio.c ****  *\*\return none
1027:n32g430_std_periph_driver/src/n32g430_gpio.c ****  */
1028:n32g430_std_periph_driver/src/n32g430_gpio.c **** void GPIO_Pin_Lock_Set(GPIO_Module* GPIOx, uint16_t pin)
1029:n32g430_std_periph_driver/src/n32g430_gpio.c **** {
 1897              		.loc 1 1029 1 is_stmt 1 view -0
 1898              		.cfi_startproc
 1899              		@ args = 0, pretend = 0, frame = 0
 1900              		@ frame_needed = 0, uses_anonymous_args = 0
 1901              		@ link register save eliminated.
1030:n32g430_std_periph_driver/src/n32g430_gpio.c ****     uint32_t temp_value = 0x00U;
 1902              		.loc 1 1030 5 view .LVU565
1031:n32g430_std_periph_driver/src/n32g430_gpio.c **** 
1032:n32g430_std_periph_driver/src/n32g430_gpio.c ****     temp_value = (GPIO_PLOCKK_MASK | pin);
 1903              		.loc 1 1032 5 view .LVU566
 1904              		.loc 1 1032 16 is_stmt 0 view .LVU567
 1905 0000 41F48033 		orr	r3, r1, #65536
 1906              	.LVL136:
1033:n32g430_std_periph_driver/src/n32g430_gpio.c **** 
1034:n32g430_std_periph_driver/src/n32g430_gpio.c ****     /* PLOCKK and PLOCKx write 1 */
1035:n32g430_std_periph_driver/src/n32g430_gpio.c ****     GPIOx->PLOCK = temp_value;
 1907              		.loc 1 1035 5 is_stmt 1 view .LVU568
 1908              		.loc 1 1035 18 is_stmt 0 view .LVU569
 1909 0004 C361     		str	r3, [r0, #28]
1036:n32g430_std_periph_driver/src/n32g430_gpio.c ****     
1037:n32g430_std_periph_driver/src/n32g430_gpio.c ****     /* PLOCKK write 0 */
1038:n32g430_std_periph_driver/src/n32g430_gpio.c ****     GPIOx->PLOCK = pin; 
 1910              		.loc 1 1038 5 is_stmt 1 view .LVU570
 1911              		.loc 1 1038 18 is_stmt 0 view .LVU571
 1912 0006 C161     		str	r1, [r0, #28]
1039:n32g430_std_periph_driver/src/n32g430_gpio.c ****     
1040:n32g430_std_periph_driver/src/n32g430_gpio.c ****     /* PLOCKK and PLOCKx write 1 */
1041:n32g430_std_periph_driver/src/n32g430_gpio.c ****     GPIOx->PLOCK = temp_value; 
 1913              		.loc 1 1041 5 is_stmt 1 view .LVU572
 1914              		.loc 1 1041 18 is_stmt 0 view .LVU573
 1915 0008 C361     		str	r3, [r0, #28]
1042:n32g430_std_periph_driver/src/n32g430_gpio.c **** 
1043:n32g430_std_periph_driver/src/n32g430_gpio.c ****     /* PLOCKK read 0 */
1044:n32g430_std_periph_driver/src/n32g430_gpio.c ****     temp_value = GPIOx->PLOCK;
 1916              		.loc 1 1044 5 is_stmt 1 view .LVU574
 1917              		.loc 1 1044 16 is_stmt 0 view .LVU575
ARM GAS  C:\Users\Dawn\AppData\Local\Temp\ccmCgazd.s 			page 56


 1918 000a C369     		ldr	r3, [r0, #28]
 1919              	.LVL137:
1045:n32g430_std_periph_driver/src/n32g430_gpio.c ****     
1046:n32g430_std_periph_driver/src/n32g430_gpio.c ****     /* PLOCKK read 1 */
1047:n32g430_std_periph_driver/src/n32g430_gpio.c ****     temp_value = GPIOx->PLOCK;
 1920              		.loc 1 1047 5 is_stmt 1 view .LVU576
 1921              		.loc 1 1047 16 is_stmt 0 view .LVU577
 1922 000c C369     		ldr	r3, [r0, #28]
1048:n32g430_std_periph_driver/src/n32g430_gpio.c **** }
 1923              		.loc 1 1048 1 view .LVU578
 1924 000e 7047     		bx	lr
 1925              		.cfi_endproc
 1926              	.LFE148:
 1928              		.section	.text.GPIO_Pin_Remap_Set,"ax",%progbits
 1929              		.align	1
 1930              		.global	GPIO_Pin_Remap_Set
 1931              		.syntax unified
 1932              		.thumb
 1933              		.thumb_func
 1935              	GPIO_Pin_Remap_Set:
 1936              	.LVL138:
 1937              	.LFB149:
1049:n32g430_std_periph_driver/src/n32g430_gpio.c **** 
1050:n32g430_std_periph_driver/src/n32g430_gpio.c **** 
1051:n32g430_std_periph_driver/src/n32g430_gpio.c **** /**
1052:n32g430_std_periph_driver/src/n32g430_gpio.c ****  *\*\name   GPIO_Pin_Remap_Set.
1053:n32g430_std_periph_driver/src/n32g430_gpio.c ****  *\*\fun    Pin remapping configuration.
1054:n32g430_std_periph_driver/src/n32g430_gpio.c ****  *\*\param  port_source :
1055:n32g430_std_periph_driver/src/n32g430_gpio.c ****  *\*\          - GPIOA_PORT_SOURCE
1056:n32g430_std_periph_driver/src/n32g430_gpio.c ****  *\*\          - GPIOB_PORT_SOURCE
1057:n32g430_std_periph_driver/src/n32g430_gpio.c ****  *\*\          - GPIOC_PORT_SOURCE
1058:n32g430_std_periph_driver/src/n32g430_gpio.c ****  *\*\          - GPIOD_PORT_SOURCE
1059:n32g430_std_periph_driver/src/n32g430_gpio.c ****  *\*\param  pin_source :
1060:n32g430_std_periph_driver/src/n32g430_gpio.c ****  *\*\          - GPIO_PIN_SOURCE0
1061:n32g430_std_periph_driver/src/n32g430_gpio.c ****  *\*\          - GPIO_PIN_SOURCE1
1062:n32g430_std_periph_driver/src/n32g430_gpio.c ****  *\*\          - GPIO_PIN_SOURCE2
1063:n32g430_std_periph_driver/src/n32g430_gpio.c ****  *\*\          - GPIO_PIN_SOURCE3
1064:n32g430_std_periph_driver/src/n32g430_gpio.c ****  *\*\          - GPIO_PIN_SOURCE4
1065:n32g430_std_periph_driver/src/n32g430_gpio.c ****  *\*\          - GPIO_PIN_SOURCE5
1066:n32g430_std_periph_driver/src/n32g430_gpio.c ****  *\*\          - GPIO_PIN_SOURCE6
1067:n32g430_std_periph_driver/src/n32g430_gpio.c ****  *\*\          - GPIO_PIN_SOURCE7
1068:n32g430_std_periph_driver/src/n32g430_gpio.c ****  *\*\          - GPIO_PIN_SOURCE8
1069:n32g430_std_periph_driver/src/n32g430_gpio.c ****  *\*\          - GPIO_PIN_SOURCE9
1070:n32g430_std_periph_driver/src/n32g430_gpio.c ****  *\*\          - GPIO_PIN_SOURCE10
1071:n32g430_std_periph_driver/src/n32g430_gpio.c ****  *\*\          - GPIO_PIN_SOURCE11
1072:n32g430_std_periph_driver/src/n32g430_gpio.c ****  *\*\          - GPIO_PIN_SOURCE12
1073:n32g430_std_periph_driver/src/n32g430_gpio.c ****  *\*\          - GPIO_PIN_SOURCE13
1074:n32g430_std_periph_driver/src/n32g430_gpio.c ****  *\*\          - GPIO_PIN_SOURCE14
1075:n32g430_std_periph_driver/src/n32g430_gpio.c ****  *\*\          - GPIO_PIN_SOURCE15
1076:n32g430_std_periph_driver/src/n32g430_gpio.c ****  *\*\param  alternate_function :
1077:n32g430_std_periph_driver/src/n32g430_gpio.c ****  *\*\          - GPIO_AF0_SWDIO_JTMS   SWDIO Alternate Function mapping   
1078:n32g430_std_periph_driver/src/n32g430_gpio.c ****  *\*\          - GPIO_AF0_SWCLK_JTCK   SWCLK Alternate Function mapping   
1079:n32g430_std_periph_driver/src/n32g430_gpio.c ****  *\*\          - GPIO_AF0_JTDI         JTDI  Alternate Function mapping   
1080:n32g430_std_periph_driver/src/n32g430_gpio.c ****  *\*\          - GPIO_AF0_JTDO         JTDO  Alternate Function mapping   
1081:n32g430_std_periph_driver/src/n32g430_gpio.c ****  *\*\          - GPIO_AF0_NJRST        NJRST Alternate Function mapping   
1082:n32g430_std_periph_driver/src/n32g430_gpio.c ****  *\*\
1083:n32g430_std_periph_driver/src/n32g430_gpio.c ****  *\*\          - GPIO_AF1_SPI1         SPI1 Alternate Function mapping    
ARM GAS  C:\Users\Dawn\AppData\Local\Temp\ccmCgazd.s 			page 57


1084:n32g430_std_periph_driver/src/n32g430_gpio.c ****  *\*\          - GPIO_AF1_SPI2         SPI2 Alternate Function mapping    
1085:n32g430_std_periph_driver/src/n32g430_gpio.c ****  *\*\          - GPIO_AF1_TIM8         TIM8 Alternate Function mapping    
1086:n32g430_std_periph_driver/src/n32g430_gpio.c ****  *\*\          - GPIO_AF1_USART1       USART1 Alternate Function mapping  
1087:n32g430_std_periph_driver/src/n32g430_gpio.c ****  *\*\
1088:n32g430_std_periph_driver/src/n32g430_gpio.c ****  *\*\          - GPIO_AF2_TIM5         TIM5 Alternate Function mapping    
1089:n32g430_std_periph_driver/src/n32g430_gpio.c ****  *\*\          - GPIO_AF2_TIM1         TIM1 Alternate Function mapping    
1090:n32g430_std_periph_driver/src/n32g430_gpio.c ****  *\*\          - GPIO_AF2_USART1       USART1 Alternate Function mapping  
1091:n32g430_std_periph_driver/src/n32g430_gpio.c ****  *\*\          - GPIO_AF2_I2C2         I2C2 Alternate Function mapping    
1092:n32g430_std_periph_driver/src/n32g430_gpio.c ****  *\*\          - GPIO_AF2_CAN          CAN Alternate Function mapping     
1093:n32g430_std_periph_driver/src/n32g430_gpio.c ****  *\*\          - GPIO_AF2_CAN1         CAN1 Alternate Function mapping    
1094:n32g430_std_periph_driver/src/n32g430_gpio.c ****  *\*\          - GPIO_AF2_SPI2         SPI2 Alternate Function mapping    
1095:n32g430_std_periph_driver/src/n32g430_gpio.c ****  *\*\          - GPIO_AF2_SPI1         SPI1 Alternate Function mapping    
1096:n32g430_std_periph_driver/src/n32g430_gpio.c ****  *\*\          - GPIO_AF2_I2C1         I2C1 Alternate Function mapping    
1097:n32g430_std_periph_driver/src/n32g430_gpio.c ****  *\*\
1098:n32g430_std_periph_driver/src/n32g430_gpio.c ****  *\*\          - GPIO_AF3_TIM2         TIM2 Alternate Function mapping    
1099:n32g430_std_periph_driver/src/n32g430_gpio.c ****  *\*\          - GPIO_AF3_SPI2         SPI2 Alternate Function mapping    
1100:n32g430_std_periph_driver/src/n32g430_gpio.c ****  *\*\          - GPIO_AF3_TIM3         TIM3 Alternate Function mapping    
1101:n32g430_std_periph_driver/src/n32g430_gpio.c ****  *\*\          - GPIO_AF3_TIM1         TIM1 Alternate Function mapping    
1102:n32g430_std_periph_driver/src/n32g430_gpio.c ****  *\*\          - GPIO_AF3_LPTIM        LPTIM Alternate Function mapping   
1103:n32g430_std_periph_driver/src/n32g430_gpio.c ****  *\*\          - GPIO_AF3_TIM4         TIM4 Alternate Function mapping    
1104:n32g430_std_periph_driver/src/n32g430_gpio.c ****  *\*\
1105:n32g430_std_periph_driver/src/n32g430_gpio.c ****  *\*\          - GPIO_AF4_EVENTOUT     EVENTOUT Alternate Function mapping
1106:n32g430_std_periph_driver/src/n32g430_gpio.c ****  *\*\          - GPIO_AF4_USART2       USART2 Alternate Function mapping  
1107:n32g430_std_periph_driver/src/n32g430_gpio.c ****  *\*\
1108:n32g430_std_periph_driver/src/n32g430_gpio.c ****  *\*\          - GPIO_AF5_USART2       USART2 Alternate Function mapping  
1109:n32g430_std_periph_driver/src/n32g430_gpio.c ****  *\*\          - GPIO_AF5_USART1       USART1 Alternate Function mapping  
1110:n32g430_std_periph_driver/src/n32g430_gpio.c ****  *\*\          - GPIO_AF5_SPI1         SPI1 Alternate Function mapping    
1111:n32g430_std_periph_driver/src/n32g430_gpio.c ****  *\*\          - GPIO_AF5_TIM3         TIM3 Alternate Function mapping    
1112:n32g430_std_periph_driver/src/n32g430_gpio.c ****  *\*\          - GPIO_AF5_SPI2         SPI2 Alternate Function mapping    
1113:n32g430_std_periph_driver/src/n32g430_gpio.c ****  *\*\          - GPIO_AF5_I2C1         I2C1 Alternate Function mapping    
1114:n32g430_std_periph_driver/src/n32g430_gpio.c ****  *\*\
1115:n32g430_std_periph_driver/src/n32g430_gpio.c ****  *\*\          - GPIO_AF6_TIM2         TIM2 Alternate Function mapping    
1116:n32g430_std_periph_driver/src/n32g430_gpio.c ****  *\*\          - GPIO_AF6_I2C2         I2C2 Alternate Function mapping    
1117:n32g430_std_periph_driver/src/n32g430_gpio.c ****  *\*\          - GPIO_AF6_TIM4         TIM4 Alternate Function mapping    
1118:n32g430_std_periph_driver/src/n32g430_gpio.c ****  *\*\          - GPIO_AF6_TIM1         TIM1 Alternate Function mapping    
1119:n32g430_std_periph_driver/src/n32g430_gpio.c ****  *\*\          - GPIO_AF6_SPI1         SPI1 Alternate Function mapping    
1120:n32g430_std_periph_driver/src/n32g430_gpio.c ****  *\*\          - GPIO_AF6_SPI2         SPI2 Alternate Function mapping    
1121:n32g430_std_periph_driver/src/n32g430_gpio.c ****  *\*\          - GPIO_AF6_LPTIM        LPTIM Alternate Function mapping   
1122:n32g430_std_periph_driver/src/n32g430_gpio.c ****  *\*\          - GPIO_AF6_CAN          CAN Alternate Function mapping     
1123:n32g430_std_periph_driver/src/n32g430_gpio.c ****  *\*\          - GPIO_AF6_UART4        UART4 Alternate Function mapping     
1124:n32g430_std_periph_driver/src/n32g430_gpio.c ****  *\*\
1125:n32g430_std_periph_driver/src/n32g430_gpio.c ****  *\*\          - GPIO_AF7_TIM5         TIM5 Alternate Function mapping     
1126:n32g430_std_periph_driver/src/n32g430_gpio.c ****  *\*\          - GPIO_AF7_TIM8         TIM8 Alternate Function mapping     
1127:n32g430_std_periph_driver/src/n32g430_gpio.c ****  *\*\          - GPIO_AF7_I2C2         I2C2 Alternate Function mapping     
1128:n32g430_std_periph_driver/src/n32g430_gpio.c ****  *\*\          - GPIO_AF7_USART2       USART2 Alternate Function mapping   
1129:n32g430_std_periph_driver/src/n32g430_gpio.c ****  *\*\          - GPIO_AF7_UART4        UART4 Alternate Function mapping    
1130:n32g430_std_periph_driver/src/n32g430_gpio.c ****  *\*\          - GPIO_AF7_UART3        UART3 Alternate Function mapping    
1131:n32g430_std_periph_driver/src/n32g430_gpio.c ****  *\*\          - GPIO_AF7_TIM1         TIM1 Alternate Function mapping     
1132:n32g430_std_periph_driver/src/n32g430_gpio.c ****  *\*\          - GPIO_AF7_I2C1         I2C1 Alternate Function mapping     
1133:n32g430_std_periph_driver/src/n32g430_gpio.c ****  *\*\
1134:n32g430_std_periph_driver/src/n32g430_gpio.c ****  *\*\          - GPIO_AF8_TIM8         TIM8 Alternate Function mapping     
1135:n32g430_std_periph_driver/src/n32g430_gpio.c ****  *\*\          - GPIO_AF8_TIM5         TIM5 Alternate Function mapping     
1136:n32g430_std_periph_driver/src/n32g430_gpio.c ****  *\*\          - GPIO_AF8_COMP2        COMP2 Alternate Function mapping    
1137:n32g430_std_periph_driver/src/n32g430_gpio.c ****  *\*\          - GPIO_AF8_I2C1         I2C1 Alternate Function mapping     
1138:n32g430_std_periph_driver/src/n32g430_gpio.c ****  *\*\          - GPIO_AF8_TIM1         TIM1 Alternate Function mapping     
1139:n32g430_std_periph_driver/src/n32g430_gpio.c ****  *\*\          - GPIO_AF8_COMP1        COMP1 Alternate Function mapping    
1140:n32g430_std_periph_driver/src/n32g430_gpio.c ****  *\*\          - GPIO_AF8_UART3        UART3 Alternate Function mapping    
ARM GAS  C:\Users\Dawn\AppData\Local\Temp\ccmCgazd.s 			page 58


1141:n32g430_std_periph_driver/src/n32g430_gpio.c ****  *\*\
1142:n32g430_std_periph_driver/src/n32g430_gpio.c ****  *\*\          - GPIO_AF9_COMP1        COMP1 Alternate Function mapping    
1143:n32g430_std_periph_driver/src/n32g430_gpio.c ****  *\*\          - GPIO_AF9_TIM8         TIM8 Alternate Function mapping     
1144:n32g430_std_periph_driver/src/n32g430_gpio.c ****  *\*\          - GPIO_AF9_TIM4         TIM4 Alternate Function mapping     
1145:n32g430_std_periph_driver/src/n32g430_gpio.c ****  *\*\          - GPIO_AF9_MCO          MCO Alternate Function mapping      
1146:n32g430_std_periph_driver/src/n32g430_gpio.c ****  *\*\          - GPIO_AF9_RTC          RTC Alternate Function mapping      
1147:n32g430_std_periph_driver/src/n32g430_gpio.c ****  *\*\          - GPIO_AF9_COMP2        COMP2 Alternate Function mapping    
1148:n32g430_std_periph_driver/src/n32g430_gpio.c ****  *\*\          - GPIO_AF9_LPTIM        LPTIM Alternate Function mapping    
1149:n32g430_std_periph_driver/src/n32g430_gpio.c ****  *\*\          - GPIO_AF9_I2C2         I2C2 Alternate Function mapping     
1150:n32g430_std_periph_driver/src/n32g430_gpio.c ****  *\*\          - GPIO_AF9_TIMESTAMP    TIMESTAMP Alternate Function mapping 
1151:n32g430_std_periph_driver/src/n32g430_gpio.c ****  *\*\
1152:n32g430_std_periph_driver/src/n32g430_gpio.c ****  *\*\          - GPIO_AF10_TIM1        TIM1 Alternate Function mapping     
1153:n32g430_std_periph_driver/src/n32g430_gpio.c ****  *\*\          - GPIO_AF10_TIM8        TIM8 Alternate Function mapping     
1154:n32g430_std_periph_driver/src/n32g430_gpio.c ****  *\*\          - GPIO_AF10_COMP3       COMP3 Alternate Function mapping    
1155:n32g430_std_periph_driver/src/n32g430_gpio.c ****  *\*\          - GPIO_AF10_TIM4        TIM4 Alternate Function mapping     
1156:n32g430_std_periph_driver/src/n32g430_gpio.c ****  *\*\          - GPIO_AF10_COMP1       COMP1 Alternate Function mapping    
1157:n32g430_std_periph_driver/src/n32g430_gpio.c ****  *\*\          - GPIO_AF10_UART3       UART3 Alternate Function mapping    
1158:n32g430_std_periph_driver/src/n32g430_gpio.c ****  *\*\
1159:n32g430_std_periph_driver/src/n32g430_gpio.c ****  *\*\          - GPIO_AF11_UART4       UART4 Alternate Function mapping    
1160:n32g430_std_periph_driver/src/n32g430_gpio.c ****  *\*\          - GPIO_AF11_CAN         CAN Alternate Function mapping      
1161:n32g430_std_periph_driver/src/n32g430_gpio.c ****  *\*\          - GPIO_AF11_USART2      USART2 Alternate Function mapping   
1162:n32g430_std_periph_driver/src/n32g430_gpio.c ****  *\*\          - GPIO_AF11_TIM8        TIM8 Alternate Function mapping     
1163:n32g430_std_periph_driver/src/n32g430_gpio.c ****  *\*\          - GPIO_AF11_COMP3       COMP3 Alternate Function mapping    
1164:n32g430_std_periph_driver/src/n32g430_gpio.c ****  *\*\
1165:n32g430_std_periph_driver/src/n32g430_gpio.c ****  *\*\          - GPIO_AF12_LPTIM       LPTIM Alternate Function mapping    
1166:n32g430_std_periph_driver/src/n32g430_gpio.c ****  *\*\          - GPIO_AF12_BEEPER      BEEPER Alternate Function mapping   
1167:n32g430_std_periph_driver/src/n32g430_gpio.c ****  *\*\
1168:n32g430_std_periph_driver/src/n32g430_gpio.c ****  *\*\          - GPIO_AF13_TIM3        TIM3 Alternate Function mapping     
1169:n32g430_std_periph_driver/src/n32g430_gpio.c ****  *\*\          - GPIO_AF13_TIM8        TIM8 Alternate Function mapping     
1170:n32g430_std_periph_driver/src/n32g430_gpio.c ****  *\*\          - GPIO_AF13_TIM4        TIM4 Alternate Function mapping     
1171:n32g430_std_periph_driver/src/n32g430_gpio.c ****  *\*\          - GPIO_AF13_TIM5        TIM5 Alternate Function mapping     
1172:n32g430_std_periph_driver/src/n32g430_gpio.c ****  *\*\return none
1173:n32g430_std_periph_driver/src/n32g430_gpio.c ****  */
1174:n32g430_std_periph_driver/src/n32g430_gpio.c **** void GPIO_Pin_Remap_Set(uint8_t port_source, uint8_t pin_source, uint32_t alternate_function)
1175:n32g430_std_periph_driver/src/n32g430_gpio.c **** {
 1938              		.loc 1 1175 1 is_stmt 1 view -0
 1939              		.cfi_startproc
 1940              		@ args = 0, pretend = 0, frame = 0
 1941              		@ frame_needed = 0, uses_anonymous_args = 0
 1942              		@ link register save eliminated.
1176:n32g430_std_periph_driver/src/n32g430_gpio.c ****     uint32_t position = 0x00, temp_value = 0x00;
 1943              		.loc 1 1176 5 view .LVU580
1177:n32g430_std_periph_driver/src/n32g430_gpio.c ****     GPIO_Module *GPIOx;
 1944              		.loc 1 1177 5 view .LVU581
1178:n32g430_std_periph_driver/src/n32g430_gpio.c **** 
1179:n32g430_std_periph_driver/src/n32g430_gpio.c ****     /* Get Peripheral index */
1180:n32g430_std_periph_driver/src/n32g430_gpio.c ****     GPIOx = GPIO_GET_PERIPH(port_source);
 1945              		.loc 1 1180 5 view .LVU582
 1946 0000 0128     		cmp	r0, #1
 1947 0002 04D0     		beq	.L141
 1948 0004 0228     		cmp	r0, #2
 1949 0006 04D0     		beq	.L142
 1950 0008 B0B9     		cbnz	r0, .L143
1175:n32g430_std_periph_driver/src/n32g430_gpio.c ****     uint32_t position = 0x00, temp_value = 0x00;
 1951              		.loc 1 1175 1 is_stmt 0 view .LVU583
 1952 000a 134B     		ldr	r3, .L144
 1953 000c 02E0     		b	.L138
ARM GAS  C:\Users\Dawn\AppData\Local\Temp\ccmCgazd.s 			page 59


 1954              	.L141:
 1955 000e 134B     		ldr	r3, .L144+4
 1956 0010 00E0     		b	.L138
 1957              	.L142:
 1958 0012 134B     		ldr	r3, .L144+8
 1959              	.L138:
 1960              	.LVL139:
1181:n32g430_std_periph_driver/src/n32g430_gpio.c **** 
1182:n32g430_std_periph_driver/src/n32g430_gpio.c ****     if(pin_source & (uint8_t)AF_SELECTION_MASK)
 1961              		.loc 1 1182 5 is_stmt 1 view .LVU584
 1962              		.loc 1 1182 7 is_stmt 0 view .LVU585
 1963 0014 11F0080F 		tst	r1, #8
 1964 0018 10D0     		beq	.L139
1183:n32g430_std_periph_driver/src/n32g430_gpio.c ****     {
1184:n32g430_std_periph_driver/src/n32g430_gpio.c ****         position = (uint32_t)(pin_source & (uint8_t)AF_WRITE_POSITION_MASK);
 1965              		.loc 1 1184 9 is_stmt 1 view .LVU586
 1966              		.loc 1 1184 18 is_stmt 0 view .LVU587
 1967 001a 01F00701 		and	r1, r1, #7
 1968              	.LVL140:
1185:n32g430_std_periph_driver/src/n32g430_gpio.c **** 
1186:n32g430_std_periph_driver/src/n32g430_gpio.c ****         /* Read GPIO_AFH register */
1187:n32g430_std_periph_driver/src/n32g430_gpio.c ****         temp_value = GPIOx->AFH;
 1969              		.loc 1 1187 9 is_stmt 1 view .LVU588
 1970              		.loc 1 1187 20 is_stmt 0 view .LVU589
 1971 001e 586A     		ldr	r0, [r3, #36]
 1972              	.LVL141:
1188:n32g430_std_periph_driver/src/n32g430_gpio.c **** 
1189:n32g430_std_periph_driver/src/n32g430_gpio.c ****         /* Reset corresponding bits */
1190:n32g430_std_periph_driver/src/n32g430_gpio.c ****         temp_value &= ~(GPIO_AF_MASK << (position * MULTIPLIER_FACTOR_4));
 1973              		.loc 1 1190 9 is_stmt 1 view .LVU590
 1974              		.loc 1 1190 51 is_stmt 0 view .LVU591
 1975 0020 8900     		lsls	r1, r1, #2
 1976              	.LVL142:
 1977              		.loc 1 1190 38 view .LVU592
 1978 0022 4FF00F0C 		mov	ip, #15
 1979 0026 0CFA01FC 		lsl	ip, ip, r1
 1980              		.loc 1 1190 20 view .LVU593
 1981 002a 20EA0C00 		bic	r0, r0, ip
 1982              	.LVL143:
1191:n32g430_std_periph_driver/src/n32g430_gpio.c **** 
1192:n32g430_std_periph_driver/src/n32g430_gpio.c ****         /* Set corresponding bits */
1193:n32g430_std_periph_driver/src/n32g430_gpio.c ****         temp_value |= (alternate_function << (position * MULTIPLIER_FACTOR_4));
 1983              		.loc 1 1193 9 is_stmt 1 view .LVU594
 1984              		.loc 1 1193 43 is_stmt 0 view .LVU595
 1985 002e 02FA01F1 		lsl	r1, r2, r1
 1986              		.loc 1 1193 20 view .LVU596
 1987 0032 0143     		orrs	r1, r1, r0
 1988              	.LVL144:
1194:n32g430_std_periph_driver/src/n32g430_gpio.c **** 
1195:n32g430_std_periph_driver/src/n32g430_gpio.c ****         /* Write to the GPIO_AFH register */
1196:n32g430_std_periph_driver/src/n32g430_gpio.c ****         GPIOx->AFH = temp_value;
 1989              		.loc 1 1196 9 is_stmt 1 view .LVU597
 1990              		.loc 1 1196 20 is_stmt 0 view .LVU598
 1991 0034 5962     		str	r1, [r3, #36]
 1992 0036 7047     		bx	lr
 1993              	.LVL145:
 1994              	.L143:
ARM GAS  C:\Users\Dawn\AppData\Local\Temp\ccmCgazd.s 			page 60


1175:n32g430_std_periph_driver/src/n32g430_gpio.c ****     uint32_t position = 0x00, temp_value = 0x00;
 1995              		.loc 1 1175 1 view .LVU599
 1996 0038 0A4B     		ldr	r3, .L144+12
 1997 003a EBE7     		b	.L138
 1998              	.LVL146:
 1999              	.L139:
1197:n32g430_std_periph_driver/src/n32g430_gpio.c ****     }
1198:n32g430_std_periph_driver/src/n32g430_gpio.c ****     else
1199:n32g430_std_periph_driver/src/n32g430_gpio.c ****     {
1200:n32g430_std_periph_driver/src/n32g430_gpio.c ****         position = (uint32_t)(pin_source & (uint8_t)AF_WRITE_POSITION_MASK);
 2000              		.loc 1 1200 9 is_stmt 1 view .LVU600
 2001              		.loc 1 1200 18 is_stmt 0 view .LVU601
 2002 003c 01F00701 		and	r1, r1, #7
 2003              	.LVL147:
1201:n32g430_std_periph_driver/src/n32g430_gpio.c **** 
1202:n32g430_std_periph_driver/src/n32g430_gpio.c ****         /* Read GPIO_AFL register */
1203:n32g430_std_periph_driver/src/n32g430_gpio.c ****         temp_value  = GPIOx->AFL;
 2004              		.loc 1 1203 9 is_stmt 1 view .LVU602
 2005              		.loc 1 1203 21 is_stmt 0 view .LVU603
 2006 0040 186A     		ldr	r0, [r3, #32]
 2007              	.LVL148:
1204:n32g430_std_periph_driver/src/n32g430_gpio.c **** 
1205:n32g430_std_periph_driver/src/n32g430_gpio.c ****         /* Reset corresponding bits */
1206:n32g430_std_periph_driver/src/n32g430_gpio.c ****         temp_value &= ~(GPIO_AF_MASK << (position * MULTIPLIER_FACTOR_4)); 
 2008              		.loc 1 1206 9 is_stmt 1 view .LVU604
 2009              		.loc 1 1206 51 is_stmt 0 view .LVU605
 2010 0042 8900     		lsls	r1, r1, #2
 2011              	.LVL149:
 2012              		.loc 1 1206 38 view .LVU606
 2013 0044 4FF00F0C 		mov	ip, #15
 2014 0048 0CFA01FC 		lsl	ip, ip, r1
 2015              		.loc 1 1206 20 view .LVU607
 2016 004c 20EA0C00 		bic	r0, r0, ip
 2017              	.LVL150:
1207:n32g430_std_periph_driver/src/n32g430_gpio.c **** 
1208:n32g430_std_periph_driver/src/n32g430_gpio.c ****         /* Set corresponding bits */
1209:n32g430_std_periph_driver/src/n32g430_gpio.c ****         temp_value |= (alternate_function << (position * MULTIPLIER_FACTOR_4));
 2018              		.loc 1 1209 9 is_stmt 1 view .LVU608
 2019              		.loc 1 1209 43 is_stmt 0 view .LVU609
 2020 0050 8A40     		lsls	r2, r2, r1
 2021              	.LVL151:
 2022              		.loc 1 1209 20 view .LVU610
 2023 0052 0243     		orrs	r2, r2, r0
 2024              	.LVL152:
1210:n32g430_std_periph_driver/src/n32g430_gpio.c **** 
1211:n32g430_std_periph_driver/src/n32g430_gpio.c ****         /* Write to the GPIO_AFL register */
1212:n32g430_std_periph_driver/src/n32g430_gpio.c ****         GPIOx->AFL = temp_value;
 2025              		.loc 1 1212 9 is_stmt 1 view .LVU611
 2026              		.loc 1 1212 20 is_stmt 0 view .LVU612
 2027 0054 1A62     		str	r2, [r3, #32]
1213:n32g430_std_periph_driver/src/n32g430_gpio.c ****     }
1214:n32g430_std_periph_driver/src/n32g430_gpio.c **** }
 2028              		.loc 1 1214 1 view .LVU613
 2029 0056 7047     		bx	lr
 2030              	.L145:
 2031              		.align	2
 2032              	.L144:
ARM GAS  C:\Users\Dawn\AppData\Local\Temp\ccmCgazd.s 			page 61


 2033 0058 00340240 		.word	1073886208
 2034 005c 00380240 		.word	1073887232
 2035 0060 003C0240 		.word	1073888256
 2036 0064 00400240 		.word	1073889280
 2037              		.cfi_endproc
 2038              	.LFE149:
 2040              		.section	.text.GPIO_EXTI_Line_Set,"ax",%progbits
 2041              		.align	1
 2042              		.global	GPIO_EXTI_Line_Set
 2043              		.syntax unified
 2044              		.thumb
 2045              		.thumb_func
 2047              	GPIO_EXTI_Line_Set:
 2048              	.LVL153:
 2049              	.LFB150:
1215:n32g430_std_periph_driver/src/n32g430_gpio.c **** 
1216:n32g430_std_periph_driver/src/n32g430_gpio.c **** /**
1217:n32g430_std_periph_driver/src/n32g430_gpio.c ****  *\*\name   GPIO_EXTI_Line_Set.
1218:n32g430_std_periph_driver/src/n32g430_gpio.c ****  *\*\fun    Selects the GPIO pin used as EXTI Line.
1219:n32g430_std_periph_driver/src/n32g430_gpio.c ****  *\*\param  EXTI_line :
1220:n32g430_std_periph_driver/src/n32g430_gpio.c ****  *\*\          - EXTI_LINE_SOURCE0
1221:n32g430_std_periph_driver/src/n32g430_gpio.c ****  *\*\          - EXTI_LINE_SOURCE1
1222:n32g430_std_periph_driver/src/n32g430_gpio.c ****  *\*\          - EXTI_LINE_SOURCE2
1223:n32g430_std_periph_driver/src/n32g430_gpio.c ****  *\*\          - EXTI_LINE_SOURCE3
1224:n32g430_std_periph_driver/src/n32g430_gpio.c ****  *\*\          - EXTI_LINE_SOURCE4
1225:n32g430_std_periph_driver/src/n32g430_gpio.c ****  *\*\          - EXTI_LINE_SOURCE5
1226:n32g430_std_periph_driver/src/n32g430_gpio.c ****  *\*\          - EXTI_LINE_SOURCE6
1227:n32g430_std_periph_driver/src/n32g430_gpio.c ****  *\*\          - EXTI_LINE_SOURCE7
1228:n32g430_std_periph_driver/src/n32g430_gpio.c ****  *\*\          - EXTI_LINE_SOURCE8
1229:n32g430_std_periph_driver/src/n32g430_gpio.c ****  *\*\          - EXTI_LINE_SOURCE9
1230:n32g430_std_periph_driver/src/n32g430_gpio.c ****  *\*\          - EXTI_LINE_SOURCE10
1231:n32g430_std_periph_driver/src/n32g430_gpio.c ****  *\*\          - EXTI_LINE_SOURCE11
1232:n32g430_std_periph_driver/src/n32g430_gpio.c ****  *\*\          - EXTI_LINE_SOURCE12
1233:n32g430_std_periph_driver/src/n32g430_gpio.c ****  *\*\          - EXTI_LINE_SOURCE13
1234:n32g430_std_periph_driver/src/n32g430_gpio.c ****  *\*\          - EXTI_LINE_SOURCE14
1235:n32g430_std_periph_driver/src/n32g430_gpio.c ****  *\*\          - EXTI_LINE_SOURCE15
1236:n32g430_std_periph_driver/src/n32g430_gpio.c ****  *\*\param  pin_source :
1237:n32g430_std_periph_driver/src/n32g430_gpio.c ****  *\*\          - AFIO_EXTI_PA0
1238:n32g430_std_periph_driver/src/n32g430_gpio.c ****  *\*\          - AFIO_EXTI_PB0
1239:n32g430_std_periph_driver/src/n32g430_gpio.c ****  *\*\          - AFIO_EXTI_PD0
1240:n32g430_std_periph_driver/src/n32g430_gpio.c ****  *\*\          - AFIO_EXTI_PA1
1241:n32g430_std_periph_driver/src/n32g430_gpio.c ****  *\*\          - AFIO_EXTI_PB1
1242:n32g430_std_periph_driver/src/n32g430_gpio.c ****  *\*\          - AFIO_EXTI_PA2
1243:n32g430_std_periph_driver/src/n32g430_gpio.c ****  *\*\          - AFIO_EXTI_PB2
1244:n32g430_std_periph_driver/src/n32g430_gpio.c ****  *\*\          - AFIO_EXTI_PA3
1245:n32g430_std_periph_driver/src/n32g430_gpio.c ****  *\*\          - AFIO_EXTI_PB3
1246:n32g430_std_periph_driver/src/n32g430_gpio.c ****  *\*\          - AFIO_EXTI_PA4
1247:n32g430_std_periph_driver/src/n32g430_gpio.c ****  *\*\          - AFIO_EXTI_PB4
1248:n32g430_std_periph_driver/src/n32g430_gpio.c ****  *\*\          - AFIO_EXTI_PA5
1249:n32g430_std_periph_driver/src/n32g430_gpio.c ****  *\*\          - AFIO_EXTI_PB5
1250:n32g430_std_periph_driver/src/n32g430_gpio.c ****  *\*\          - AFIO_EXTI_PA6
1251:n32g430_std_periph_driver/src/n32g430_gpio.c ****  *\*\          - AFIO_EXTI_PB6
1252:n32g430_std_periph_driver/src/n32g430_gpio.c ****  *\*\          - AFIO_EXTI_PA7
1253:n32g430_std_periph_driver/src/n32g430_gpio.c ****  *\*\          - AFIO_EXTI_PB7
1254:n32g430_std_periph_driver/src/n32g430_gpio.c ****  *\*\          - AFIO_EXTI_PA8
1255:n32g430_std_periph_driver/src/n32g430_gpio.c ****  *\*\          - AFIO_EXTI_PB8
1256:n32g430_std_periph_driver/src/n32g430_gpio.c ****  *\*\          - AFIO_EXTI_PA9
ARM GAS  C:\Users\Dawn\AppData\Local\Temp\ccmCgazd.s 			page 62


1257:n32g430_std_periph_driver/src/n32g430_gpio.c ****  *\*\          - AFIO_EXTI_PB9
1258:n32g430_std_periph_driver/src/n32g430_gpio.c ****  *\*\          - AFIO_EXTI_PA10
1259:n32g430_std_periph_driver/src/n32g430_gpio.c ****  *\*\          - AFIO_EXTI_PB10
1260:n32g430_std_periph_driver/src/n32g430_gpio.c ****  *\*\          - AFIO_EXTI_PA11
1261:n32g430_std_periph_driver/src/n32g430_gpio.c ****  *\*\          - AFIO_EXTI_PB11
1262:n32g430_std_periph_driver/src/n32g430_gpio.c ****  *\*\          - AFIO_EXTI_PA12
1263:n32g430_std_periph_driver/src/n32g430_gpio.c ****  *\*\          - AFIO_EXTI_PB12
1264:n32g430_std_periph_driver/src/n32g430_gpio.c ****  *\*\          - AFIO_EXTI_PD12
1265:n32g430_std_periph_driver/src/n32g430_gpio.c ****  *\*\          - AFIO_EXTI_PA13
1266:n32g430_std_periph_driver/src/n32g430_gpio.c ****  *\*\          - AFIO_EXTI_PB13
1267:n32g430_std_periph_driver/src/n32g430_gpio.c ****  *\*\          - AFIO_EXTI_PC13
1268:n32g430_std_periph_driver/src/n32g430_gpio.c ****  *\*\          - AFIO_EXTI_PD13
1269:n32g430_std_periph_driver/src/n32g430_gpio.c ****  *\*\          - AFIO_EXTI_PA14
1270:n32g430_std_periph_driver/src/n32g430_gpio.c ****  *\*\          - AFIO_EXTI_PB14
1271:n32g430_std_periph_driver/src/n32g430_gpio.c ****  *\*\          - AFIO_EXTI_PC14
1272:n32g430_std_periph_driver/src/n32g430_gpio.c ****  *\*\          - AFIO_EXTI_PD14
1273:n32g430_std_periph_driver/src/n32g430_gpio.c ****  *\*\          - AFIO_EXTI_PA15
1274:n32g430_std_periph_driver/src/n32g430_gpio.c ****  *\*\          - AFIO_EXTI_PB15
1275:n32g430_std_periph_driver/src/n32g430_gpio.c ****  *\*\          - AFIO_EXTI_PC15
1276:n32g430_std_periph_driver/src/n32g430_gpio.c ****  *\*\          - AFIO_EXTI_PD15
1277:n32g430_std_periph_driver/src/n32g430_gpio.c ****  *\*\return none
1278:n32g430_std_periph_driver/src/n32g430_gpio.c ****  */
1279:n32g430_std_periph_driver/src/n32g430_gpio.c **** void GPIO_EXTI_Line_Set(uint8_t EXTI_line, uint32_t pin_source)
1280:n32g430_std_periph_driver/src/n32g430_gpio.c **** {
 2050              		.loc 1 1280 1 is_stmt 1 view -0
 2051              		.cfi_startproc
 2052              		@ args = 0, pretend = 0, frame = 0
 2053              		@ frame_needed = 0, uses_anonymous_args = 0
 2054              		@ link register save eliminated.
1281:n32g430_std_periph_driver/src/n32g430_gpio.c ****     AFIO->EXTI_CFG[(EXTI_line >> SHIFT_EXTI)] &= ~(AFIO_EXTI_CFG_MASK << ((uint32_t)((EXTI_line & (
 2055              		.loc 1 1281 5 view .LVU615
 2056              		.loc 1 1281 19 is_stmt 0 view .LVU616
 2057 0000 00F0FC03 		and	r3, r0, #252
 2058 0004 03F18043 		add	r3, r3, #1073741824
 2059 0008 03F58033 		add	r3, r3, #65536
 2060 000c 5A68     		ldr	r2, [r3, #4]
 2061              		.loc 1 1281 97 view .LVU617
 2062 000e 00F00300 		and	r0, r0, #3
 2063              	.LVL154:
 2064              		.loc 1 1281 133 view .LVU618
 2065 0012 C000     		lsls	r0, r0, #3
 2066              		.loc 1 1281 71 view .LVU619
 2067 0014 4FF03F0C 		mov	ip, #63
 2068 0018 0CFA00FC 		lsl	ip, ip, r0
 2069              		.loc 1 1281 47 view .LVU620
 2070 001c 22EA0C02 		bic	r2, r2, ip
 2071 0020 5A60     		str	r2, [r3, #4]
1282:n32g430_std_periph_driver/src/n32g430_gpio.c ****     AFIO->EXTI_CFG[(EXTI_line >> SHIFT_EXTI)] |=  (pin_source << ((uint32_t)((EXTI_line & (uint8_t)
 2072              		.loc 1 1282 5 is_stmt 1 view .LVU621
 2073              		.loc 1 1282 19 is_stmt 0 view .LVU622
 2074 0022 5A68     		ldr	r2, [r3, #4]
 2075              		.loc 1 1282 63 view .LVU623
 2076 0024 8140     		lsls	r1, r1, r0
 2077              	.LVL155:
 2078              		.loc 1 1282 47 view .LVU624
 2079 0026 0A43     		orrs	r2, r2, r1
 2080 0028 5A60     		str	r2, [r3, #4]
ARM GAS  C:\Users\Dawn\AppData\Local\Temp\ccmCgazd.s 			page 63


1283:n32g430_std_periph_driver/src/n32g430_gpio.c **** }
 2081              		.loc 1 1283 1 view .LVU625
 2082 002a 7047     		bx	lr
 2083              		.cfi_endproc
 2084              	.LFE150:
 2086              		.section	.text.AFIO_SPI_NSS_Mode_Set,"ax",%progbits
 2087              		.align	1
 2088              		.global	AFIO_SPI_NSS_Mode_Set
 2089              		.syntax unified
 2090              		.thumb
 2091              		.thumb_func
 2093              	AFIO_SPI_NSS_Mode_Set:
 2094              	.LVL156:
 2095              	.LFB151:
1284:n32g430_std_periph_driver/src/n32g430_gpio.c **** 
1285:n32g430_std_periph_driver/src/n32g430_gpio.c **** 
1286:n32g430_std_periph_driver/src/n32g430_gpio.c **** /**
1287:n32g430_std_periph_driver/src/n32g430_gpio.c ****  *\*\name   AFIO_SPI_NSS_Mode_Set.
1288:n32g430_std_periph_driver/src/n32g430_gpio.c ****  *\*\fun    Selects the alternate function SPIx NSS mode.
1289:n32g430_std_periph_driver/src/n32g430_gpio.c ****  *\*\param  AFIO_SPIx_NSS : 
1290:n32g430_std_periph_driver/src/n32g430_gpio.c ****  *\*\          choose which SPI configuration.
1291:n32g430_std_periph_driver/src/n32g430_gpio.c ****  *\*\          - AFIO_SPI1_NSS
1292:n32g430_std_periph_driver/src/n32g430_gpio.c ****  *\*\          - AFIO_SPI2_NSS
1293:n32g430_std_periph_driver/src/n32g430_gpio.c ****  *\*\param  SPI_nss_mode : 
1294:n32g430_std_periph_driver/src/n32g430_gpio.c ****  *\*\          specifies the SPI_NSS mode to be configured.
1295:n32g430_std_periph_driver/src/n32g430_gpio.c ****  *\*\          - AFIO_SPI_NSS_HIGH_IMPEDANCE
1296:n32g430_std_periph_driver/src/n32g430_gpio.c ****  *\*\          - AFIO_SPI_NSS_High_LEVEL
1297:n32g430_std_periph_driver/src/n32g430_gpio.c ****  *\*\return none
1298:n32g430_std_periph_driver/src/n32g430_gpio.c ****  */
1299:n32g430_std_periph_driver/src/n32g430_gpio.c **** void AFIO_SPI_NSS_Mode_Set(uint32_t AFIO_SPIx_NSS, uint32_t SPI_NSS_mode)
1300:n32g430_std_periph_driver/src/n32g430_gpio.c **** {
 2096              		.loc 1 1300 1 is_stmt 1 view -0
 2097              		.cfi_startproc
 2098              		@ args = 0, pretend = 0, frame = 0
 2099              		@ frame_needed = 0, uses_anonymous_args = 0
 2100              		@ link register save eliminated.
1301:n32g430_std_periph_driver/src/n32g430_gpio.c ****     uint32_t temp_value = 0x00U;
 2101              		.loc 1 1301 5 view .LVU627
1302:n32g430_std_periph_driver/src/n32g430_gpio.c **** 
1303:n32g430_std_periph_driver/src/n32g430_gpio.c ****     temp_value = (AFIO->RMP_CFG & AFIO_RMP_CFG_MASK);
 2102              		.loc 1 1303 5 view .LVU628
 2103              		.loc 1 1303 23 is_stmt 0 view .LVU629
 2104 0000 054B     		ldr	r3, .L150
 2105 0002 1B68     		ldr	r3, [r3]
 2106              		.loc 1 1303 16 view .LVU630
 2107 0004 C3F30B03 		ubfx	r3, r3, #0, #12
 2108              	.LVL157:
1304:n32g430_std_periph_driver/src/n32g430_gpio.c **** 
1305:n32g430_std_periph_driver/src/n32g430_gpio.c ****     if(SPI_NSS_mode != AFIO_SPI_NSS_HIGH_IMPEDANCE)
 2109              		.loc 1 1305 5 is_stmt 1 view .LVU631
 2110              		.loc 1 1305 7 is_stmt 0 view .LVU632
 2111 0008 19B1     		cbz	r1, .L148
1306:n32g430_std_periph_driver/src/n32g430_gpio.c ****     {
1307:n32g430_std_periph_driver/src/n32g430_gpio.c ****         temp_value |= AFIO_SPIx_NSS;
 2112              		.loc 1 1307 9 is_stmt 1 view .LVU633
 2113              		.loc 1 1307 20 is_stmt 0 view .LVU634
 2114 000a 0343     		orrs	r3, r3, r0
ARM GAS  C:\Users\Dawn\AppData\Local\Temp\ccmCgazd.s 			page 64


 2115              	.LVL158:
 2116              	.L149:
1308:n32g430_std_periph_driver/src/n32g430_gpio.c ****     }
1309:n32g430_std_periph_driver/src/n32g430_gpio.c ****     else
1310:n32g430_std_periph_driver/src/n32g430_gpio.c ****     {
1311:n32g430_std_periph_driver/src/n32g430_gpio.c ****         temp_value &= ~AFIO_SPIx_NSS;
1312:n32g430_std_periph_driver/src/n32g430_gpio.c ****     }
1313:n32g430_std_periph_driver/src/n32g430_gpio.c **** 
1314:n32g430_std_periph_driver/src/n32g430_gpio.c ****     AFIO->RMP_CFG = temp_value;
 2117              		.loc 1 1314 5 is_stmt 1 view .LVU635
 2118              		.loc 1 1314 19 is_stmt 0 view .LVU636
 2119 000c 024A     		ldr	r2, .L150
 2120 000e 1360     		str	r3, [r2]
1315:n32g430_std_periph_driver/src/n32g430_gpio.c **** }
 2121              		.loc 1 1315 1 view .LVU637
 2122 0010 7047     		bx	lr
 2123              	.L148:
1311:n32g430_std_periph_driver/src/n32g430_gpio.c ****     }
 2124              		.loc 1 1311 9 is_stmt 1 view .LVU638
1311:n32g430_std_periph_driver/src/n32g430_gpio.c ****     }
 2125              		.loc 1 1311 20 is_stmt 0 view .LVU639
 2126 0012 23EA0003 		bic	r3, r3, r0
 2127              	.LVL159:
1311:n32g430_std_periph_driver/src/n32g430_gpio.c ****     }
 2128              		.loc 1 1311 20 view .LVU640
 2129 0016 F9E7     		b	.L149
 2130              	.L151:
 2131              		.align	2
 2132              	.L150:
 2133 0018 00000140 		.word	1073807360
 2134              		.cfi_endproc
 2135              	.LFE151:
 2137              		.section	.text.AFIO_ADC_External_Trigger_Remap_Set,"ax",%progbits
 2138              		.align	1
 2139              		.global	AFIO_ADC_External_Trigger_Remap_Set
 2140              		.syntax unified
 2141              		.thumb
 2142              		.thumb_func
 2144              	AFIO_ADC_External_Trigger_Remap_Set:
 2145              	.LVL160:
 2146              	.LFB152:
1316:n32g430_std_periph_driver/src/n32g430_gpio.c **** 
1317:n32g430_std_periph_driver/src/n32g430_gpio.c **** 
1318:n32g430_std_periph_driver/src/n32g430_gpio.c **** /**
1319:n32g430_std_periph_driver/src/n32g430_gpio.c ****  *\*\name   AFIO_ADC_External_Trigger_Remap_Set.
1320:n32g430_std_periph_driver/src/n32g430_gpio.c ****  *\*\fun    Configurate ADC external trigger.
1321:n32g430_std_periph_driver/src/n32g430_gpio.c ****  *\*\param  ADC_ETR_type : 
1322:n32g430_std_periph_driver/src/n32g430_gpio.c ****  *\*\          choose whether to configure rule conversion or injection conversion.
1323:n32g430_std_periph_driver/src/n32g430_gpio.c ****  *\*\          - AFIO_ADC_ETRI
1324:n32g430_std_periph_driver/src/n32g430_gpio.c ****  *\*\          - AFIO_ADC_ETRR
1325:n32g430_std_periph_driver/src/n32g430_gpio.c ****  *\*\param  ADC_trigger_remap : 
1326:n32g430_std_periph_driver/src/n32g430_gpio.c ****  *\*\          specifies the external trigger line be configured.
1327:n32g430_std_periph_driver/src/n32g430_gpio.c ****  *\*\          - AFIO_ADC_TRIG_EXTI_0
1328:n32g430_std_periph_driver/src/n32g430_gpio.c ****  *\*\          - AFIO_ADC_TRIG_EXTI_1
1329:n32g430_std_periph_driver/src/n32g430_gpio.c ****  *\*\          - AFIO_ADC_TRIG_EXTI_2
1330:n32g430_std_periph_driver/src/n32g430_gpio.c ****  *\*\          - AFIO_ADC_TRIG_EXTI_3
1331:n32g430_std_periph_driver/src/n32g430_gpio.c ****  *\*\          - AFIO_ADC_TRIG_EXTI_4
ARM GAS  C:\Users\Dawn\AppData\Local\Temp\ccmCgazd.s 			page 65


1332:n32g430_std_periph_driver/src/n32g430_gpio.c ****  *\*\          - AFIO_ADC_TRIG_EXTI_5
1333:n32g430_std_periph_driver/src/n32g430_gpio.c ****  *\*\          - AFIO_ADC_TRIG_EXTI_6
1334:n32g430_std_periph_driver/src/n32g430_gpio.c ****  *\*\          - AFIO_ADC_TRIG_EXTI_7
1335:n32g430_std_periph_driver/src/n32g430_gpio.c ****  *\*\          - AFIO_ADC_TRIG_EXTI_8
1336:n32g430_std_periph_driver/src/n32g430_gpio.c ****  *\*\          - AFIO_ADC_TRIG_EXTI_9
1337:n32g430_std_periph_driver/src/n32g430_gpio.c ****  *\*\          - AFIO_ADC_TRIG_EXTI_10
1338:n32g430_std_periph_driver/src/n32g430_gpio.c ****  *\*\          - AFIO_ADC_TRIG_EXTI_11
1339:n32g430_std_periph_driver/src/n32g430_gpio.c ****  *\*\          - AFIO_ADC_TRIG_EXTI_12
1340:n32g430_std_periph_driver/src/n32g430_gpio.c ****  *\*\          - AFIO_ADC_TRIG_EXTI_13
1341:n32g430_std_periph_driver/src/n32g430_gpio.c ****  *\*\          - AFIO_ADC_TRIG_EXTI_14
1342:n32g430_std_periph_driver/src/n32g430_gpio.c ****  *\*\          - AFIO_ADC_TRIG_EXTI_15
1343:n32g430_std_periph_driver/src/n32g430_gpio.c ****  *\*\          - AFIO_ADC_TRIG_TIM8_TRGO
1344:n32g430_std_periph_driver/src/n32g430_gpio.c ****  *\*\          - AFIO_ADC_TRIG_TIM8_CH4
1345:n32g430_std_periph_driver/src/n32g430_gpio.c ****  *\*\return none
1346:n32g430_std_periph_driver/src/n32g430_gpio.c ****  */
1347:n32g430_std_periph_driver/src/n32g430_gpio.c **** void AFIO_ADC_External_Trigger_Remap_Set(AFIO_ADC_ETRType ADC_ETR_type, AFIO_ADC_Trig_RemapType ADC
1348:n32g430_std_periph_driver/src/n32g430_gpio.c **** {
 2147              		.loc 1 1348 1 is_stmt 1 view -0
 2148              		.cfi_startproc
 2149              		@ args = 0, pretend = 0, frame = 0
 2150              		@ frame_needed = 0, uses_anonymous_args = 0
 2151              		@ link register save eliminated.
1349:n32g430_std_periph_driver/src/n32g430_gpio.c ****     uint32_t temp_value = 0x00U;
 2152              		.loc 1 1349 5 view .LVU642
1350:n32g430_std_periph_driver/src/n32g430_gpio.c **** 
1351:n32g430_std_periph_driver/src/n32g430_gpio.c ****     if(ADC_ETR_type == AFIO_ADC_ETRI)
 2153              		.loc 1 1351 5 view .LVU643
 2154              		.loc 1 1351 7 is_stmt 0 view .LVU644
 2155 0000 0928     		cmp	r0, #9
 2156 0002 02D0     		beq	.L159
1352:n32g430_std_periph_driver/src/n32g430_gpio.c ****     {
1353:n32g430_std_periph_driver/src/n32g430_gpio.c ****         temp_value = AFIO->RMP_CFG;
1354:n32g430_std_periph_driver/src/n32g430_gpio.c **** 
1355:n32g430_std_periph_driver/src/n32g430_gpio.c ****         /* clear AFIO_RMP_CFG register ETRI bit */
1356:n32g430_std_periph_driver/src/n32g430_gpio.c ****         temp_value &= (~(AFIO_RMPCFG_ADC_MASK << AFIO_ADC_ETRI));
1357:n32g430_std_periph_driver/src/n32g430_gpio.c **** 
1358:n32g430_std_periph_driver/src/n32g430_gpio.c ****         /* if ADC_ETR_type is AFIO_ADC_ETRI then ADC_trigger_remap cannot be AFIO_ADC_TRIG_TIM8_TRG
1359:n32g430_std_periph_driver/src/n32g430_gpio.c ****         if(ADC_trigger_remap == AFIO_ADC_TRIG_TIM8_CH4)
1360:n32g430_std_periph_driver/src/n32g430_gpio.c ****         {
1361:n32g430_std_periph_driver/src/n32g430_gpio.c ****             /* select TIM8_CH4 line to connect */
1362:n32g430_std_periph_driver/src/n32g430_gpio.c ****             temp_value |= (AFIO_RMPCFG_ADC_MASK << AFIO_ADC_ETRI);
1363:n32g430_std_periph_driver/src/n32g430_gpio.c ****         }
1364:n32g430_std_periph_driver/src/n32g430_gpio.c ****         else
1365:n32g430_std_periph_driver/src/n32g430_gpio.c ****         {
1366:n32g430_std_periph_driver/src/n32g430_gpio.c ****             /* select which external line is connected */
1367:n32g430_std_periph_driver/src/n32g430_gpio.c ****             temp_value &= (~(AFIO_RMPCFG_EXTI_MASK << SHIFT_EXTI_ETRI));
1368:n32g430_std_periph_driver/src/n32g430_gpio.c ****             temp_value |= (ADC_trigger_remap << SHIFT_EXTI_ETRI);
1369:n32g430_std_periph_driver/src/n32g430_gpio.c ****         }
1370:n32g430_std_periph_driver/src/n32g430_gpio.c ****         AFIO->RMP_CFG = temp_value;
1371:n32g430_std_periph_driver/src/n32g430_gpio.c ****     }
1372:n32g430_std_periph_driver/src/n32g430_gpio.c ****     else if(ADC_ETR_type == AFIO_ADC_ETRR)
 2157              		.loc 1 1372 10 is_stmt 1 view .LVU645
 2158              		.loc 1 1372 12 is_stmt 0 view .LVU646
 2159 0004 0828     		cmp	r0, #8
 2160 0006 0ED0     		beq	.L160
 2161              	.LVL161:
 2162              	.L152:
ARM GAS  C:\Users\Dawn\AppData\Local\Temp\ccmCgazd.s 			page 66


1373:n32g430_std_periph_driver/src/n32g430_gpio.c ****     {
1374:n32g430_std_periph_driver/src/n32g430_gpio.c ****         temp_value  = AFIO->RMP_CFG;
1375:n32g430_std_periph_driver/src/n32g430_gpio.c **** 
1376:n32g430_std_periph_driver/src/n32g430_gpio.c ****         /* clear AFIO_RMP_CFG register ETRR bit */
1377:n32g430_std_periph_driver/src/n32g430_gpio.c ****         temp_value &= (~(AFIO_RMPCFG_ADC_MASK << AFIO_ADC_ETRR));
1378:n32g430_std_periph_driver/src/n32g430_gpio.c **** 
1379:n32g430_std_periph_driver/src/n32g430_gpio.c ****         /* if ADC_ETR_type is AFIO_ADC_ETRR then ADC_trigger_remap cannot be AFIO_ADC_TRIG_TIM8_CH4
1380:n32g430_std_periph_driver/src/n32g430_gpio.c ****         if(ADC_trigger_remap == AFIO_ADC_TRIG_TIM8_TRGO)
1381:n32g430_std_periph_driver/src/n32g430_gpio.c ****         {
1382:n32g430_std_periph_driver/src/n32g430_gpio.c ****             /* select TIM8_TRGO line to connect */
1383:n32g430_std_periph_driver/src/n32g430_gpio.c ****             temp_value |= (AFIO_RMPCFG_ADC_MASK << AFIO_ADC_ETRR);
1384:n32g430_std_periph_driver/src/n32g430_gpio.c ****         }
1385:n32g430_std_periph_driver/src/n32g430_gpio.c ****         else
1386:n32g430_std_periph_driver/src/n32g430_gpio.c ****         {
1387:n32g430_std_periph_driver/src/n32g430_gpio.c ****             /* select which external line is connected */
1388:n32g430_std_periph_driver/src/n32g430_gpio.c ****             temp_value &= ~AFIO_RMPCFG_EXTI_MASK;
1389:n32g430_std_periph_driver/src/n32g430_gpio.c ****             temp_value |= ADC_trigger_remap;
1390:n32g430_std_periph_driver/src/n32g430_gpio.c ****         }
1391:n32g430_std_periph_driver/src/n32g430_gpio.c ****         AFIO->RMP_CFG = temp_value;
1392:n32g430_std_periph_driver/src/n32g430_gpio.c ****     }
1393:n32g430_std_periph_driver/src/n32g430_gpio.c **** }
 2163              		.loc 1 1393 1 view .LVU647
 2164 0008 7047     		bx	lr
 2165              	.LVL162:
 2166              	.L159:
1353:n32g430_std_periph_driver/src/n32g430_gpio.c **** 
 2167              		.loc 1 1353 9 is_stmt 1 view .LVU648
1353:n32g430_std_periph_driver/src/n32g430_gpio.c **** 
 2168              		.loc 1 1353 20 is_stmt 0 view .LVU649
 2169 000a 0E4B     		ldr	r3, .L163
 2170 000c 1B68     		ldr	r3, [r3]
 2171              	.LVL163:
1356:n32g430_std_periph_driver/src/n32g430_gpio.c **** 
 2172              		.loc 1 1356 9 is_stmt 1 view .LVU650
1359:n32g430_std_periph_driver/src/n32g430_gpio.c ****         {
 2173              		.loc 1 1359 9 view .LVU651
1359:n32g430_std_periph_driver/src/n32g430_gpio.c ****         {
 2174              		.loc 1 1359 11 is_stmt 0 view .LVU652
 2175 000e 1129     		cmp	r1, #17
 2176 0010 06D0     		beq	.L161
1367:n32g430_std_periph_driver/src/n32g430_gpio.c ****             temp_value |= (ADC_trigger_remap << SHIFT_EXTI_ETRI);
 2177              		.loc 1 1367 13 is_stmt 1 view .LVU653
1367:n32g430_std_periph_driver/src/n32g430_gpio.c ****             temp_value |= (ADC_trigger_remap << SHIFT_EXTI_ETRI);
 2178              		.loc 1 1367 24 is_stmt 0 view .LVU654
 2179 0012 23F43C73 		bic	r3, r3, #752
 2180              	.LVL164:
1368:n32g430_std_periph_driver/src/n32g430_gpio.c ****         }
 2181              		.loc 1 1368 13 is_stmt 1 view .LVU655
1368:n32g430_std_periph_driver/src/n32g430_gpio.c ****         }
 2182              		.loc 1 1368 24 is_stmt 0 view .LVU656
 2183 0016 43EA0113 		orr	r3, r3, r1, lsl #4
 2184              	.LVL165:
 2185              	.L155:
1370:n32g430_std_periph_driver/src/n32g430_gpio.c ****     }
 2186              		.loc 1 1370 9 is_stmt 1 view .LVU657
1370:n32g430_std_periph_driver/src/n32g430_gpio.c ****     }
 2187              		.loc 1 1370 23 is_stmt 0 view .LVU658
ARM GAS  C:\Users\Dawn\AppData\Local\Temp\ccmCgazd.s 			page 67


 2188 001a 0A4A     		ldr	r2, .L163
 2189 001c 1360     		str	r3, [r2]
 2190 001e 7047     		bx	lr
 2191              	.LVL166:
 2192              	.L161:
1362:n32g430_std_periph_driver/src/n32g430_gpio.c ****         }
 2193              		.loc 1 1362 13 is_stmt 1 view .LVU659
1362:n32g430_std_periph_driver/src/n32g430_gpio.c ****         }
 2194              		.loc 1 1362 24 is_stmt 0 view .LVU660
 2195 0020 43F40073 		orr	r3, r3, #512
 2196              	.LVL167:
1362:n32g430_std_periph_driver/src/n32g430_gpio.c ****         }
 2197              		.loc 1 1362 24 view .LVU661
 2198 0024 F9E7     		b	.L155
 2199              	.LVL168:
 2200              	.L160:
1374:n32g430_std_periph_driver/src/n32g430_gpio.c **** 
 2201              		.loc 1 1374 9 is_stmt 1 view .LVU662
1374:n32g430_std_periph_driver/src/n32g430_gpio.c **** 
 2202              		.loc 1 1374 21 is_stmt 0 view .LVU663
 2203 0026 074B     		ldr	r3, .L163
 2204 0028 1B68     		ldr	r3, [r3]
 2205              	.LVL169:
1377:n32g430_std_periph_driver/src/n32g430_gpio.c **** 
 2206              		.loc 1 1377 9 is_stmt 1 view .LVU664
1380:n32g430_std_periph_driver/src/n32g430_gpio.c ****         {
 2207              		.loc 1 1380 9 view .LVU665
1380:n32g430_std_periph_driver/src/n32g430_gpio.c ****         {
 2208              		.loc 1 1380 11 is_stmt 0 view .LVU666
 2209 002a 1029     		cmp	r1, #16
 2210 002c 07D0     		beq	.L162
1388:n32g430_std_periph_driver/src/n32g430_gpio.c ****             temp_value |= ADC_trigger_remap;
 2211              		.loc 1 1388 13 is_stmt 1 view .LVU667
1388:n32g430_std_periph_driver/src/n32g430_gpio.c ****             temp_value |= ADC_trigger_remap;
 2212              		.loc 1 1388 24 is_stmt 0 view .LVU668
 2213 002e 23F48773 		bic	r3, r3, #270
 2214              	.LVL170:
1388:n32g430_std_periph_driver/src/n32g430_gpio.c ****             temp_value |= ADC_trigger_remap;
 2215              		.loc 1 1388 24 view .LVU669
 2216 0032 23F00103 		bic	r3, r3, #1
 2217              	.LVL171:
1389:n32g430_std_periph_driver/src/n32g430_gpio.c ****         }
 2218              		.loc 1 1389 13 is_stmt 1 view .LVU670
1389:n32g430_std_periph_driver/src/n32g430_gpio.c ****         }
 2219              		.loc 1 1389 24 is_stmt 0 view .LVU671
 2220 0036 1943     		orrs	r1, r1, r3
 2221              	.LVL172:
 2222              	.L158:
1391:n32g430_std_periph_driver/src/n32g430_gpio.c ****     }
 2223              		.loc 1 1391 9 is_stmt 1 view .LVU672
1391:n32g430_std_periph_driver/src/n32g430_gpio.c ****     }
 2224              		.loc 1 1391 23 is_stmt 0 view .LVU673
 2225 0038 024B     		ldr	r3, .L163
 2226 003a 1960     		str	r1, [r3]
 2227              		.loc 1 1393 1 view .LVU674
 2228 003c E4E7     		b	.L152
 2229              	.LVL173:
ARM GAS  C:\Users\Dawn\AppData\Local\Temp\ccmCgazd.s 			page 68


 2230              	.L162:
1383:n32g430_std_periph_driver/src/n32g430_gpio.c ****         }
 2231              		.loc 1 1383 13 is_stmt 1 view .LVU675
1383:n32g430_std_periph_driver/src/n32g430_gpio.c ****         }
 2232              		.loc 1 1383 24 is_stmt 0 view .LVU676
 2233 003e 43F48071 		orr	r1, r3, #256
 2234              	.LVL174:
1383:n32g430_std_periph_driver/src/n32g430_gpio.c ****         }
 2235              		.loc 1 1383 24 view .LVU677
 2236 0042 F9E7     		b	.L158
 2237              	.L164:
 2238              		.align	2
 2239              	.L163:
 2240 0044 00000140 		.word	1073807360
 2241              		.cfi_endproc
 2242              	.LFE152:
 2244              		.section	.text.AFIO_5V_Tolerance_Enable,"ax",%progbits
 2245              		.align	1
 2246              		.global	AFIO_5V_Tolerance_Enable
 2247              		.syntax unified
 2248              		.thumb
 2249              		.thumb_func
 2251              	AFIO_5V_Tolerance_Enable:
 2252              	.LVL175:
 2253              	.LFB153:
1394:n32g430_std_periph_driver/src/n32g430_gpio.c **** 
1395:n32g430_std_periph_driver/src/n32g430_gpio.c **** 
1396:n32g430_std_periph_driver/src/n32g430_gpio.c **** /**
1397:n32g430_std_periph_driver/src/n32g430_gpio.c ****  *\*\name   AFIO_5V_Tolerance_Enable.
1398:n32g430_std_periph_driver/src/n32g430_gpio.c ****  *\*\fun    Enables 5V tolerance of GPIOA and GPIOB.
1399:n32g430_std_periph_driver/src/n32g430_gpio.c ****  *\*\param  tolerance_pin : 
1400:n32g430_std_periph_driver/src/n32g430_gpio.c ****  *\*\          - PA0_5V_TOLERANCE         
1401:n32g430_std_periph_driver/src/n32g430_gpio.c ****  *\*\          - PA1_5V_TOLERANCE         
1402:n32g430_std_periph_driver/src/n32g430_gpio.c ****  *\*\          - PA2_5V_TOLERANCE        
1403:n32g430_std_periph_driver/src/n32g430_gpio.c ****  *\*\          - PA3_5V_TOLERANCE         
1404:n32g430_std_periph_driver/src/n32g430_gpio.c ****  *\*\          - PA4_5V_TOLERANCE         
1405:n32g430_std_periph_driver/src/n32g430_gpio.c ****  *\*\          - PA5_5V_TOLERANCE         
1406:n32g430_std_periph_driver/src/n32g430_gpio.c ****  *\*\          - PA6_5V_TOLERANCE         
1407:n32g430_std_periph_driver/src/n32g430_gpio.c ****  *\*\          - PA7_5V_TOLERANCE        
1408:n32g430_std_periph_driver/src/n32g430_gpio.c ****  *\*\          - PA8_5V_TOLERANCE         
1409:n32g430_std_periph_driver/src/n32g430_gpio.c ****  *\*\          - PA11_5V_TOLERANCE        
1410:n32g430_std_periph_driver/src/n32g430_gpio.c ****  *\*\          - PA12_5V_TOLERANCE        
1411:n32g430_std_periph_driver/src/n32g430_gpio.c ****  *\*\          - PA15_5V_TOLERANCE        
1412:n32g430_std_periph_driver/src/n32g430_gpio.c ****  *\*\          - PB0_5V_TOLERANCE         
1413:n32g430_std_periph_driver/src/n32g430_gpio.c ****  *\*\          - PB1_5V_TOLERANCE         
1414:n32g430_std_periph_driver/src/n32g430_gpio.c ****  *\*\          - PB2_5V_TOLERANCE         
1415:n32g430_std_periph_driver/src/n32g430_gpio.c ****  *\*\          - PB3_5V_TOLERANCE        
1416:n32g430_std_periph_driver/src/n32g430_gpio.c ****  *\*\          - PB4_5V_TOLERANCE         
1417:n32g430_std_periph_driver/src/n32g430_gpio.c ****  *\*\          - PB5_5V_TOLERANCE         
1418:n32g430_std_periph_driver/src/n32g430_gpio.c ****  *\*\          - PB7_5V_TOLERANCE         
1419:n32g430_std_periph_driver/src/n32g430_gpio.c ****  *\*\          - PB10_5V_TOLERANCE       
1420:n32g430_std_periph_driver/src/n32g430_gpio.c ****  *\*\          - PB11_5V_TOLERANCE      
1421:n32g430_std_periph_driver/src/n32g430_gpio.c ****  *\*\          - PB12_5V_TOLERANCE        
1422:n32g430_std_periph_driver/src/n32g430_gpio.c ****  *\*\          - PB13_5V_TOLERANCE        
1423:n32g430_std_periph_driver/src/n32g430_gpio.c ****  *\*\          - PB14_5V_TOLERANCE        
1424:n32g430_std_periph_driver/src/n32g430_gpio.c ****  *\*\          - PB15_5V_TOLERANCE
1425:n32g430_std_periph_driver/src/n32g430_gpio.c ****  *\*\return none
ARM GAS  C:\Users\Dawn\AppData\Local\Temp\ccmCgazd.s 			page 69


1426:n32g430_std_periph_driver/src/n32g430_gpio.c ****  */
1427:n32g430_std_periph_driver/src/n32g430_gpio.c **** void AFIO_5V_Tolerance_Enable(uint32_t tolerance_pin)
1428:n32g430_std_periph_driver/src/n32g430_gpio.c **** {
 2254              		.loc 1 1428 1 is_stmt 1 view -0
 2255              		.cfi_startproc
 2256              		@ args = 0, pretend = 0, frame = 0
 2257              		@ frame_needed = 0, uses_anonymous_args = 0
 2258              		@ link register save eliminated.
1429:n32g430_std_periph_driver/src/n32g430_gpio.c ****     AFIO->TOL5V_CFG &= ~tolerance_pin;
 2259              		.loc 1 1429 5 view .LVU679
 2260              		.loc 1 1429 9 is_stmt 0 view .LVU680
 2261 0000 024A     		ldr	r2, .L166
 2262 0002 5369     		ldr	r3, [r2, #20]
 2263              		.loc 1 1429 21 view .LVU681
 2264 0004 23EA0003 		bic	r3, r3, r0
 2265 0008 5361     		str	r3, [r2, #20]
1430:n32g430_std_periph_driver/src/n32g430_gpio.c **** }
 2266              		.loc 1 1430 1 view .LVU682
 2267 000a 7047     		bx	lr
 2268              	.L167:
 2269              		.align	2
 2270              	.L166:
 2271 000c 00000140 		.word	1073807360
 2272              		.cfi_endproc
 2273              	.LFE153:
 2275              		.section	.text.AFIO_5V_Tolerance_Disable,"ax",%progbits
 2276              		.align	1
 2277              		.global	AFIO_5V_Tolerance_Disable
 2278              		.syntax unified
 2279              		.thumb
 2280              		.thumb_func
 2282              	AFIO_5V_Tolerance_Disable:
 2283              	.LVL176:
 2284              	.LFB154:
1431:n32g430_std_periph_driver/src/n32g430_gpio.c **** 
1432:n32g430_std_periph_driver/src/n32g430_gpio.c **** /**
1433:n32g430_std_periph_driver/src/n32g430_gpio.c ****  *\*\name   AFIO_5V_Tolerance_Disable.
1434:n32g430_std_periph_driver/src/n32g430_gpio.c ****  *\*\fun    Disables 5V tolerance of GPIOA and GPIOB.
1435:n32g430_std_periph_driver/src/n32g430_gpio.c ****  *\*\param  tolerance_pin : 
1436:n32g430_std_periph_driver/src/n32g430_gpio.c ****  *\*\          - PA0_5V_TOLERANCE         
1437:n32g430_std_periph_driver/src/n32g430_gpio.c ****  *\*\          - PA1_5V_TOLERANCE         
1438:n32g430_std_periph_driver/src/n32g430_gpio.c ****  *\*\          - PA2_5V_TOLERANCE        
1439:n32g430_std_periph_driver/src/n32g430_gpio.c ****  *\*\          - PA3_5V_TOLERANCE         
1440:n32g430_std_periph_driver/src/n32g430_gpio.c ****  *\*\          - PA4_5V_TOLERANCE         
1441:n32g430_std_periph_driver/src/n32g430_gpio.c ****  *\*\          - PA5_5V_TOLERANCE         
1442:n32g430_std_periph_driver/src/n32g430_gpio.c ****  *\*\          - PA6_5V_TOLERANCE         
1443:n32g430_std_periph_driver/src/n32g430_gpio.c ****  *\*\          - PA7_5V_TOLERANCE        
1444:n32g430_std_periph_driver/src/n32g430_gpio.c ****  *\*\          - PA8_5V_TOLERANCE         
1445:n32g430_std_periph_driver/src/n32g430_gpio.c ****  *\*\          - PA11_5V_TOLERANCE        
1446:n32g430_std_periph_driver/src/n32g430_gpio.c ****  *\*\          - PA12_5V_TOLERANCE        
1447:n32g430_std_periph_driver/src/n32g430_gpio.c ****  *\*\          - PA15_5V_TOLERANCE        
1448:n32g430_std_periph_driver/src/n32g430_gpio.c ****  *\*\          - PB0_5V_TOLERANCE         
1449:n32g430_std_periph_driver/src/n32g430_gpio.c ****  *\*\          - PB1_5V_TOLERANCE         
1450:n32g430_std_periph_driver/src/n32g430_gpio.c ****  *\*\          - PB2_5V_TOLERANCE         
1451:n32g430_std_periph_driver/src/n32g430_gpio.c ****  *\*\          - PB3_5V_TOLERANCE        
1452:n32g430_std_periph_driver/src/n32g430_gpio.c ****  *\*\          - PB4_5V_TOLERANCE         
1453:n32g430_std_periph_driver/src/n32g430_gpio.c ****  *\*\          - PB5_5V_TOLERANCE         
ARM GAS  C:\Users\Dawn\AppData\Local\Temp\ccmCgazd.s 			page 70


1454:n32g430_std_periph_driver/src/n32g430_gpio.c ****  *\*\          - PB7_5V_TOLERANCE         
1455:n32g430_std_periph_driver/src/n32g430_gpio.c ****  *\*\          - PB10_5V_TOLERANCE       
1456:n32g430_std_periph_driver/src/n32g430_gpio.c ****  *\*\          - PB11_5V_TOLERANCE      
1457:n32g430_std_periph_driver/src/n32g430_gpio.c ****  *\*\          - PB12_5V_TOLERANCE        
1458:n32g430_std_periph_driver/src/n32g430_gpio.c ****  *\*\          - PB13_5V_TOLERANCE        
1459:n32g430_std_periph_driver/src/n32g430_gpio.c ****  *\*\          - PB14_5V_TOLERANCE        
1460:n32g430_std_periph_driver/src/n32g430_gpio.c ****  *\*\          - PB15_5V_TOLERANCE
1461:n32g430_std_periph_driver/src/n32g430_gpio.c ****  *\*\return none
1462:n32g430_std_periph_driver/src/n32g430_gpio.c ****  */
1463:n32g430_std_periph_driver/src/n32g430_gpio.c **** void AFIO_5V_Tolerance_Disable(uint32_t tolerance_pin)
1464:n32g430_std_periph_driver/src/n32g430_gpio.c **** {
 2285              		.loc 1 1464 1 is_stmt 1 view -0
 2286              		.cfi_startproc
 2287              		@ args = 0, pretend = 0, frame = 0
 2288              		@ frame_needed = 0, uses_anonymous_args = 0
 2289              		@ link register save eliminated.
1465:n32g430_std_periph_driver/src/n32g430_gpio.c ****     AFIO->TOL5V_CFG |= tolerance_pin;
 2290              		.loc 1 1465 5 view .LVU684
 2291              		.loc 1 1465 9 is_stmt 0 view .LVU685
 2292 0000 024A     		ldr	r2, .L169
 2293 0002 5369     		ldr	r3, [r2, #20]
 2294              		.loc 1 1465 21 view .LVU686
 2295 0004 0343     		orrs	r3, r3, r0
 2296 0006 5361     		str	r3, [r2, #20]
1466:n32g430_std_periph_driver/src/n32g430_gpio.c **** }
 2297              		.loc 1 1466 1 view .LVU687
 2298 0008 7047     		bx	lr
 2299              	.L170:
 2300 000a 00BF     		.align	2
 2301              	.L169:
 2302 000c 00000140 		.word	1073807360
 2303              		.cfi_endproc
 2304              	.LFE154:
 2306              		.section	.text.AFIO_Filter_Stage_Ctrl,"ax",%progbits
 2307              		.align	1
 2308              		.global	AFIO_Filter_Stage_Ctrl
 2309              		.syntax unified
 2310              		.thumb
 2311              		.thumb_func
 2313              	AFIO_Filter_Stage_Ctrl:
 2314              	.LVL177:
 2315              	.LFB155:
1467:n32g430_std_periph_driver/src/n32g430_gpio.c **** 
1468:n32g430_std_periph_driver/src/n32g430_gpio.c **** 
1469:n32g430_std_periph_driver/src/n32g430_gpio.c **** /**
1470:n32g430_std_periph_driver/src/n32g430_gpio.c ****  *\*\name   AFIO_Filter_Stage_Ctrl.
1471:n32g430_std_periph_driver/src/n32g430_gpio.c ****  *\*\fun    Filtr stage control.
1472:n32g430_std_periph_driver/src/n32g430_gpio.c ****  *\*\param  filter : 
1473:n32g430_std_periph_driver/src/n32g430_gpio.c ****  *\*\          - AFIO_IOFITCFG     filter bypass       
1474:n32g430_std_periph_driver/src/n32g430_gpio.c ****  *\*\return none
1475:n32g430_std_periph_driver/src/n32g430_gpio.c ****  */
1476:n32g430_std_periph_driver/src/n32g430_gpio.c **** void AFIO_Filter_Stage_Ctrl(uint8_t filter)
1477:n32g430_std_periph_driver/src/n32g430_gpio.c **** {
 2316              		.loc 1 1477 1 is_stmt 1 view -0
 2317              		.cfi_startproc
 2318              		@ args = 0, pretend = 0, frame = 0
 2319              		@ frame_needed = 0, uses_anonymous_args = 0
ARM GAS  C:\Users\Dawn\AppData\Local\Temp\ccmCgazd.s 			page 71


 2320              		@ link register save eliminated.
1478:n32g430_std_periph_driver/src/n32g430_gpio.c ****     AFIO->FILT_CFG = (uint32_t)filter;
 2321              		.loc 1 1478 5 view .LVU689
 2322              		.loc 1 1478 20 is_stmt 0 view .LVU690
 2323 0000 014B     		ldr	r3, .L172
 2324 0002 1862     		str	r0, [r3, #32]
1479:n32g430_std_periph_driver/src/n32g430_gpio.c **** }
 2325              		.loc 1 1479 1 view .LVU691
 2326 0004 7047     		bx	lr
 2327              	.L173:
 2328 0006 00BF     		.align	2
 2329              	.L172:
 2330 0008 00000140 		.word	1073807360
 2331              		.cfi_endproc
 2332              	.LFE155:
 2334              		.section	.text.AFIO_EFT_Enable,"ax",%progbits
 2335              		.align	1
 2336              		.global	AFIO_EFT_Enable
 2337              		.syntax unified
 2338              		.thumb
 2339              		.thumb_func
 2341              	AFIO_EFT_Enable:
 2342              	.LVL178:
 2343              	.LFB156:
1480:n32g430_std_periph_driver/src/n32g430_gpio.c **** 
1481:n32g430_std_periph_driver/src/n32g430_gpio.c **** 
1482:n32g430_std_periph_driver/src/n32g430_gpio.c **** /**
1483:n32g430_std_periph_driver/src/n32g430_gpio.c ****  *\*\name   AFIO_EFT_Enable.
1484:n32g430_std_periph_driver/src/n32g430_gpio.c ****  *\*\fun    Enables EFT IE of port pins.
1485:n32g430_std_periph_driver/src/n32g430_gpio.c ****  *\*\param  GPIOx : 
1486:n32g430_std_periph_driver/src/n32g430_gpio.c ****  *\*\          - GPIOA         
1487:n32g430_std_periph_driver/src/n32g430_gpio.c ****  *\*\          - GPIOB         
1488:n32g430_std_periph_driver/src/n32g430_gpio.c ****  *\*\          - GPIOC         
1489:n32g430_std_periph_driver/src/n32g430_gpio.c ****  *\*\          - GPIOD  
1490:n32g430_std_periph_driver/src/n32g430_gpio.c ****  *\*\param  EFT_pin :       
1491:n32g430_std_periph_driver/src/n32g430_gpio.c ****  *\*\          - AFIO_PA0_EFT                 
1492:n32g430_std_periph_driver/src/n32g430_gpio.c ****  *\*\          - AFIO_PA1_EFT             
1493:n32g430_std_periph_driver/src/n32g430_gpio.c ****  *\*\          - AFIO_PA2_EFT              
1494:n32g430_std_periph_driver/src/n32g430_gpio.c ****  *\*\          - AFIO_PA3_EFT              
1495:n32g430_std_periph_driver/src/n32g430_gpio.c ****  *\*\          - AFIO_PA4_EFT               
1496:n32g430_std_periph_driver/src/n32g430_gpio.c ****  *\*\          - AFIO_PA5_EFT              
1497:n32g430_std_periph_driver/src/n32g430_gpio.c ****  *\*\          - AFIO_PA6_EFT               
1498:n32g430_std_periph_driver/src/n32g430_gpio.c ****  *\*\          - AFIO_PA7_EFT                
1499:n32g430_std_periph_driver/src/n32g430_gpio.c ****  *\*\          - AFIO_PA8_EFT              
1500:n32g430_std_periph_driver/src/n32g430_gpio.c ****  *\*\          - AFIO_PA9_EFT                
1501:n32g430_std_periph_driver/src/n32g430_gpio.c ****  *\*\          - AFIO_PA10_EFT             
1502:n32g430_std_periph_driver/src/n32g430_gpio.c ****  *\*\          - AFIO_PA11_EFT              
1503:n32g430_std_periph_driver/src/n32g430_gpio.c ****  *\*\          - AFIO_PA12_EFT             
1504:n32g430_std_periph_driver/src/n32g430_gpio.c ****  *\*\          - AFIO_PA13_EFT             
1505:n32g430_std_periph_driver/src/n32g430_gpio.c ****  *\*\          - AFIO_PA14_EFT             
1506:n32g430_std_periph_driver/src/n32g430_gpio.c ****  *\*\          - AFIO_PA15_EFT          
