ARM GAS  C:\Users\Dawn\AppData\Local\Temp\cc12bvwa.s 			page 1


   1              		.cpu cortex-m4
   2              		.arch armv7e-m
   3              		.fpu fpv4-sp-d16
   4              		.eabi_attribute 27, 1
   5              		.eabi_attribute 28, 1
   6              		.eabi_attribute 23, 1
   7              		.eabi_attribute 24, 1
   8              		.eabi_attribute 25, 1
   9              		.eabi_attribute 26, 1
  10              		.eabi_attribute 30, 1
  11              		.eabi_attribute 34, 1
  12              		.eabi_attribute 18, 4
  13              		.file	"n32g430_flash.c"
  14              		.text
  15              	.Ltext0:
  16              		.cfi_sections	.debug_frame
  17              		.file 1 "n32g430_std_periph_driver/src/n32g430_flash.c"
  18              		.section	.text.FLASH_Latency_Set,"ax",%progbits
  19              		.align	1
  20              		.global	FLASH_Latency_Set
  21              		.syntax unified
  22              		.thumb
  23              		.thumb_func
  25              	FLASH_Latency_Set:
  26              	.LVL0:
  27              	.LFB123:
   1:n32g430_std_periph_driver/src/n32g430_flash.c **** /**
   2:n32g430_std_periph_driver/src/n32g430_flash.c **** *     Copyright (c) 2022, Nations Technologies Inc.
   3:n32g430_std_periph_driver/src/n32g430_flash.c **** * 
   4:n32g430_std_periph_driver/src/n32g430_flash.c **** *     All rights reserved.
   5:n32g430_std_periph_driver/src/n32g430_flash.c **** *
   6:n32g430_std_periph_driver/src/n32g430_flash.c **** *     This software is the exclusive property of Nations Technologies Inc. (Hereinafter 
   7:n32g430_std_periph_driver/src/n32g430_flash.c **** * referred to as NATIONS). This software, and the product of NATIONS described herein 
   8:n32g430_std_periph_driver/src/n32g430_flash.c **** * (Hereinafter referred to as the Product) are owned by NATIONS under the laws and treaties
   9:n32g430_std_periph_driver/src/n32g430_flash.c **** * of the People's Republic of China and other applicable jurisdictions worldwide.
  10:n32g430_std_periph_driver/src/n32g430_flash.c **** *
  11:n32g430_std_periph_driver/src/n32g430_flash.c **** *     NATIONS does not grant any license under its patents, copyrights, trademarks, or other 
  12:n32g430_std_periph_driver/src/n32g430_flash.c **** * intellectual property rights. Names and brands of third party may be mentioned or referred 
  13:n32g430_std_periph_driver/src/n32g430_flash.c **** * thereto (if any) for identification purposes only.
  14:n32g430_std_periph_driver/src/n32g430_flash.c **** *
  15:n32g430_std_periph_driver/src/n32g430_flash.c **** *     NATIONS reserves the right to make changes, corrections, enhancements, modifications, and 
  16:n32g430_std_periph_driver/src/n32g430_flash.c **** * improvements to this software at any time without notice. Please contact NATIONS and obtain 
  17:n32g430_std_periph_driver/src/n32g430_flash.c **** * the latest version of this software before placing orders.
  18:n32g430_std_periph_driver/src/n32g430_flash.c **** 
  19:n32g430_std_periph_driver/src/n32g430_flash.c **** *     Although NATIONS has attempted to provide accurate and reliable information, NATIONS assumes 
  20:n32g430_std_periph_driver/src/n32g430_flash.c **** * no responsibility for the accuracy and reliability of this software.
  21:n32g430_std_periph_driver/src/n32g430_flash.c **** * 
  22:n32g430_std_periph_driver/src/n32g430_flash.c **** *     It is the responsibility of the user of this software to properly design, program, and test 
  23:n32g430_std_periph_driver/src/n32g430_flash.c **** * the functionality and safety of any application made of this information and any resulting produc
  24:n32g430_std_periph_driver/src/n32g430_flash.c **** * In no event shall NATIONS be liable for any direct, indirect, incidental, special,exemplary, or 
  25:n32g430_std_periph_driver/src/n32g430_flash.c **** * consequential damages arising in any way out of the use of this software or the Product.
  26:n32g430_std_periph_driver/src/n32g430_flash.c **** *
  27:n32g430_std_periph_driver/src/n32g430_flash.c **** *     NATIONS Products are neither intended nor warranted for usage in systems or equipment, any
  28:n32g430_std_periph_driver/src/n32g430_flash.c **** * malfunction or failure of which may cause loss of human life, bodily injury or severe property 
  29:n32g430_std_periph_driver/src/n32g430_flash.c **** * damage. Such applications are deemed, "Insecure Usage".
  30:n32g430_std_periph_driver/src/n32g430_flash.c **** *
  31:n32g430_std_periph_driver/src/n32g430_flash.c **** *     All Insecure Usage shall be made at user's risk. User shall indemnify NATIONS and hold NATION
ARM GAS  C:\Users\Dawn\AppData\Local\Temp\cc12bvwa.s 			page 2


  32:n32g430_std_periph_driver/src/n32g430_flash.c **** * harmless from and against all claims, costs, damages, and other liabilities, arising from or rela
  33:n32g430_std_periph_driver/src/n32g430_flash.c **** * to any customer's Insecure Usage.
  34:n32g430_std_periph_driver/src/n32g430_flash.c **** 
  35:n32g430_std_periph_driver/src/n32g430_flash.c **** *     Any express or implied warranty with regard to this software or the Product, including,but no
  36:n32g430_std_periph_driver/src/n32g430_flash.c **** * limited to, the warranties of merchantability, fitness for a particular purpose and non-infringem
  37:n32g430_std_periph_driver/src/n32g430_flash.c **** * are disclaimed to the fullest extent permitted by law.
  38:n32g430_std_periph_driver/src/n32g430_flash.c **** 
  39:n32g430_std_periph_driver/src/n32g430_flash.c **** *     Unless otherwise explicitly permitted by NATIONS, anyone may not duplicate, modify, transcrib
  40:n32g430_std_periph_driver/src/n32g430_flash.c **** * or otherwise distribute this software for any purposes, in whole or in part.
  41:n32g430_std_periph_driver/src/n32g430_flash.c **** *
  42:n32g430_std_periph_driver/src/n32g430_flash.c **** *     NATIONS products and technologies shall not be used for or incorporated into any products or 
  43:n32g430_std_periph_driver/src/n32g430_flash.c **** * whose manufacture, use, or sale is prohibited under any applicable domestic or foreign laws or re
  44:n32g430_std_periph_driver/src/n32g430_flash.c **** * User shall comply with any applicable export control laws and regulations promulgated and adminis
  45:n32g430_std_periph_driver/src/n32g430_flash.c **** * the governments of any countries asserting jurisdiction over the parties or transactions.
  46:n32g430_std_periph_driver/src/n32g430_flash.c **** **/
  47:n32g430_std_periph_driver/src/n32g430_flash.c **** 
  48:n32g430_std_periph_driver/src/n32g430_flash.c **** /**
  49:n32g430_std_periph_driver/src/n32g430_flash.c **** *\*\file n32g430_flash.c
  50:n32g430_std_periph_driver/src/n32g430_flash.c **** *\*\author Nations
  51:n32g430_std_periph_driver/src/n32g430_flash.c **** *\*\version v1.0.2
  52:n32g430_std_periph_driver/src/n32g430_flash.c **** *\*\copyright Copyright (c) 2022, Nations Technologies Inc. All rights reserved.
  53:n32g430_std_periph_driver/src/n32g430_flash.c **** **/
  54:n32g430_std_periph_driver/src/n32g430_flash.c **** #include "n32g430_flash.h"
  55:n32g430_std_periph_driver/src/n32g430_flash.c **** 
  56:n32g430_std_periph_driver/src/n32g430_flash.c **** /** FLASH Driving Functions Declaration **/
  57:n32g430_std_periph_driver/src/n32g430_flash.c **** 
  58:n32g430_std_periph_driver/src/n32g430_flash.c **** /**
  59:n32g430_std_periph_driver/src/n32g430_flash.c **** *\*\name    FLASH_Latency_Set
  60:n32g430_std_periph_driver/src/n32g430_flash.c **** *\*\fun     Sets the code latency value.
  61:n32g430_std_periph_driver/src/n32g430_flash.c **** *\*\note    This function can be used for N32G430 devices.
  62:n32g430_std_periph_driver/src/n32g430_flash.c **** *\*\param   flash_latency :
  63:n32g430_std_periph_driver/src/n32g430_flash.c **** *\*\            - FLASH_LATENCY_0    FLASH Zero Latency cycle, 0 < HCLK <= 32MHz      
  64:n32g430_std_periph_driver/src/n32g430_flash.c **** *\*\            - FLASH_LATENCY_1    FLASH One Latency cycle, 32MHz < HCLK<= 64MHz
  65:n32g430_std_periph_driver/src/n32g430_flash.c **** *\*\            - FLASH_LATENCY_2    FLASH Two Latency cycles, 64MHz < HCLK<= 96MHz
  66:n32g430_std_periph_driver/src/n32g430_flash.c **** *\*\            - FLASH_LATENCY_3    FLASH Three Latency cycles, 96MHz < HCLK
  67:n32g430_std_periph_driver/src/n32g430_flash.c **** *\*\return  none
  68:n32g430_std_periph_driver/src/n32g430_flash.c **** **/
  69:n32g430_std_periph_driver/src/n32g430_flash.c **** void FLASH_Latency_Set(uint32_t flash_latency)
  70:n32g430_std_periph_driver/src/n32g430_flash.c **** {
  28              		.loc 1 70 1 view -0
  29              		.cfi_startproc
  30              		@ args = 0, pretend = 0, frame = 0
  31              		@ frame_needed = 0, uses_anonymous_args = 0
  32              		@ link register save eliminated.
  71:n32g430_std_periph_driver/src/n32g430_flash.c ****     uint32_t temp_value = 0;
  33              		.loc 1 71 5 view .LVU1
  72:n32g430_std_periph_driver/src/n32g430_flash.c **** 
  73:n32g430_std_periph_driver/src/n32g430_flash.c ****     /* Read the AC register */
  74:n32g430_std_periph_driver/src/n32g430_flash.c ****     temp_value = FLASH->AC;
  34              		.loc 1 74 5 view .LVU2
  35              		.loc 1 74 16 is_stmt 0 view .LVU3
  36 0000 034A     		ldr	r2, .L2
  37 0002 1368     		ldr	r3, [r2]
  38              	.LVL1:
  75:n32g430_std_periph_driver/src/n32g430_flash.c **** 
  76:n32g430_std_periph_driver/src/n32g430_flash.c ****     /* Sets the Latency value */
  77:n32g430_std_periph_driver/src/n32g430_flash.c ****     temp_value &= (~FLASH_LATENCY_MASK);
ARM GAS  C:\Users\Dawn\AppData\Local\Temp\cc12bvwa.s 			page 3


  39              		.loc 1 77 5 is_stmt 1 view .LVU4
  40              		.loc 1 77 16 is_stmt 0 view .LVU5
  41 0004 23F00703 		bic	r3, r3, #7
  42              	.LVL2:
  78:n32g430_std_periph_driver/src/n32g430_flash.c ****     temp_value |= flash_latency;
  43              		.loc 1 78 5 is_stmt 1 view .LVU6
  44              		.loc 1 78 16 is_stmt 0 view .LVU7
  45 0008 0343     		orrs	r3, r3, r0
  46              	.LVL3:
  79:n32g430_std_periph_driver/src/n32g430_flash.c **** 
  80:n32g430_std_periph_driver/src/n32g430_flash.c ****     /* Write the AC register */
  81:n32g430_std_periph_driver/src/n32g430_flash.c ****     FLASH->AC = temp_value;
  47              		.loc 1 81 5 is_stmt 1 view .LVU8
  48              		.loc 1 81 15 is_stmt 0 view .LVU9
  49 000a 1360     		str	r3, [r2]
  82:n32g430_std_periph_driver/src/n32g430_flash.c **** }
  50              		.loc 1 82 1 view .LVU10
  51 000c 7047     		bx	lr
  52              	.L3:
  53 000e 00BF     		.align	2
  54              	.L2:
  55 0010 00200240 		.word	1073881088
  56              		.cfi_endproc
  57              	.LFE123:
  59              		.section	.text.FLASH_Latency_Get,"ax",%progbits
  60              		.align	1
  61              		.global	FLASH_Latency_Get
  62              		.syntax unified
  63              		.thumb
  64              		.thumb_func
  66              	FLASH_Latency_Get:
  67              	.LFB124:
  83:n32g430_std_periph_driver/src/n32g430_flash.c **** 
  84:n32g430_std_periph_driver/src/n32g430_flash.c **** /**
  85:n32g430_std_periph_driver/src/n32g430_flash.c **** *\*\name    FLASH_Latency_Get
  86:n32g430_std_periph_driver/src/n32g430_flash.c **** *\*\fun     Get the code latency value.
  87:n32g430_std_periph_driver/src/n32g430_flash.c **** *\*\note    This function can be used for N32G430 devices.
  88:n32g430_std_periph_driver/src/n32g430_flash.c **** *\*\param   none
  89:n32g430_std_periph_driver/src/n32g430_flash.c **** *\*\return  FLASH_LATENCY :
  90:n32g430_std_periph_driver/src/n32g430_flash.c **** *\*\            - FLASH_LATENCY_0    FLASH Zero Latency cycle, 0 < HCLK <= 32MHz      
  91:n32g430_std_periph_driver/src/n32g430_flash.c **** *\*\            - FLASH_LATENCY_1    FLASH One Latency cycle, 32MHz < HCLK<= 64MHz
  92:n32g430_std_periph_driver/src/n32g430_flash.c **** *\*\            - FLASH_LATENCY_2    FLASH Two Latency cycles, 64MHz < HCLK<= 96MHz
  93:n32g430_std_periph_driver/src/n32g430_flash.c **** *\*\            - FLASH_LATENCY_3    FLASH Three Latency cycles, 96MHz < HCLK
  94:n32g430_std_periph_driver/src/n32g430_flash.c **** **/
  95:n32g430_std_periph_driver/src/n32g430_flash.c **** uint8_t FLASH_Latency_Get(void)
  96:n32g430_std_periph_driver/src/n32g430_flash.c **** {
  68              		.loc 1 96 1 is_stmt 1 view -0
  69              		.cfi_startproc
  70              		@ args = 0, pretend = 0, frame = 0
  71              		@ frame_needed = 0, uses_anonymous_args = 0
  72              		@ link register save eliminated.
  97:n32g430_std_periph_driver/src/n32g430_flash.c ****     /* Read the AC register */
  98:n32g430_std_periph_driver/src/n32g430_flash.c ****     return (uint8_t)(FLASH->AC & FLASH_LATENCY_MASK);
  73              		.loc 1 98 5 view .LVU12
  74              		.loc 1 98 27 is_stmt 0 view .LVU13
  75 0000 024B     		ldr	r3, .L5
  76 0002 1868     		ldr	r0, [r3]
ARM GAS  C:\Users\Dawn\AppData\Local\Temp\cc12bvwa.s 			page 4


  99:n32g430_std_periph_driver/src/n32g430_flash.c **** }
  77              		.loc 1 99 1 view .LVU14
  78 0004 00F00700 		and	r0, r0, #7
  79 0008 7047     		bx	lr
  80              	.L6:
  81 000a 00BF     		.align	2
  82              	.L5:
  83 000c 00200240 		.word	1073881088
  84              		.cfi_endproc
  85              	.LFE124:
  87              		.section	.text.FLASH_Prefetch_Buffer_Enable,"ax",%progbits
  88              		.align	1
  89              		.global	FLASH_Prefetch_Buffer_Enable
  90              		.syntax unified
  91              		.thumb
  92              		.thumb_func
  94              	FLASH_Prefetch_Buffer_Enable:
  95              	.LFB125:
 100:n32g430_std_periph_driver/src/n32g430_flash.c **** 
 101:n32g430_std_periph_driver/src/n32g430_flash.c **** /**
 102:n32g430_std_periph_driver/src/n32g430_flash.c **** *\*\name    FLASH_Prefetch_Buffer_Enable
 103:n32g430_std_periph_driver/src/n32g430_flash.c **** *\*\fun     Enables the Prefetch Buffer.
 104:n32g430_std_periph_driver/src/n32g430_flash.c **** *\*\note    This function can be used for N32G430 devices. 
 105:n32g430_std_periph_driver/src/n32g430_flash.c **** *\*\param   none 
 106:n32g430_std_periph_driver/src/n32g430_flash.c **** *\*\return  none
 107:n32g430_std_periph_driver/src/n32g430_flash.c **** **/
 108:n32g430_std_periph_driver/src/n32g430_flash.c **** void FLASH_Prefetch_Buffer_Enable(void)
 109:n32g430_std_periph_driver/src/n32g430_flash.c **** {
  96              		.loc 1 109 1 is_stmt 1 view -0
  97              		.cfi_startproc
  98              		@ args = 0, pretend = 0, frame = 0
  99              		@ frame_needed = 0, uses_anonymous_args = 0
 100              		@ link register save eliminated.
 110:n32g430_std_periph_driver/src/n32g430_flash.c ****     /* Enable the Prefetch Buffer */
 111:n32g430_std_periph_driver/src/n32g430_flash.c ****     FLASH->AC |= FLASH_PREFETCHBUF_EN;
 101              		.loc 1 111 5 view .LVU16
 102              		.loc 1 111 10 is_stmt 0 view .LVU17
 103 0000 024A     		ldr	r2, .L8
 104 0002 1368     		ldr	r3, [r2]
 105              		.loc 1 111 15 view .LVU18
 106 0004 43F01003 		orr	r3, r3, #16
 107 0008 1360     		str	r3, [r2]
 112:n32g430_std_periph_driver/src/n32g430_flash.c **** }
 108              		.loc 1 112 1 view .LVU19
 109 000a 7047     		bx	lr
 110              	.L9:
 111              		.align	2
 112              	.L8:
 113 000c 00200240 		.word	1073881088
 114              		.cfi_endproc
 115              	.LFE125:
 117              		.section	.text.FLASH_Prefetch_Buffer_Disable,"ax",%progbits
 118              		.align	1
 119              		.global	FLASH_Prefetch_Buffer_Disable
 120              		.syntax unified
 121              		.thumb
 122              		.thumb_func
ARM GAS  C:\Users\Dawn\AppData\Local\Temp\cc12bvwa.s 			page 5


 124              	FLASH_Prefetch_Buffer_Disable:
 125              	.LFB126:
 113:n32g430_std_periph_driver/src/n32g430_flash.c **** 
 114:n32g430_std_periph_driver/src/n32g430_flash.c **** /**
 115:n32g430_std_periph_driver/src/n32g430_flash.c **** *\*\name    FLASH_Prefetch_Buffer_Disable
 116:n32g430_std_periph_driver/src/n32g430_flash.c **** *\*\fun     Disables the Prefetch Buffer.
 117:n32g430_std_periph_driver/src/n32g430_flash.c **** *\*\note    This function can be used for N32G430 devices.
 118:n32g430_std_periph_driver/src/n32g430_flash.c **** *\*\param   none
 119:n32g430_std_periph_driver/src/n32g430_flash.c **** *\*\return  none
 120:n32g430_std_periph_driver/src/n32g430_flash.c **** **/
 121:n32g430_std_periph_driver/src/n32g430_flash.c **** void FLASH_Prefetch_Buffer_Disable(void)
 122:n32g430_std_periph_driver/src/n32g430_flash.c **** {
 126              		.loc 1 122 1 is_stmt 1 view -0
 127              		.cfi_startproc
 128              		@ args = 0, pretend = 0, frame = 0
 129              		@ frame_needed = 0, uses_anonymous_args = 0
 130              		@ link register save eliminated.
 123:n32g430_std_periph_driver/src/n32g430_flash.c ****     /* Disable the Prefetch Buffer */
 124:n32g430_std_periph_driver/src/n32g430_flash.c ****     FLASH->AC &= FLASH_PREFETCHBUF_DIS;
 131              		.loc 1 124 5 view .LVU21
 132              		.loc 1 124 10 is_stmt 0 view .LVU22
 133 0000 024A     		ldr	r2, .L11
 134 0002 1368     		ldr	r3, [r2]
 135              		.loc 1 124 15 view .LVU23
 136 0004 23F01003 		bic	r3, r3, #16
 137 0008 1360     		str	r3, [r2]
 125:n32g430_std_periph_driver/src/n32g430_flash.c **** }
 138              		.loc 1 125 1 view .LVU24
 139 000a 7047     		bx	lr
 140              	.L12:
 141              		.align	2
 142              	.L11:
 143 000c 00200240 		.word	1073881088
 144              		.cfi_endproc
 145              	.LFE126:
 147              		.section	.text.FLASH_ICache_Reset,"ax",%progbits
 148              		.align	1
 149              		.global	FLASH_ICache_Reset
 150              		.syntax unified
 151              		.thumb
 152              		.thumb_func
 154              	FLASH_ICache_Reset:
 155              	.LFB127:
 126:n32g430_std_periph_driver/src/n32g430_flash.c **** 
 127:n32g430_std_periph_driver/src/n32g430_flash.c **** /**
 128:n32g430_std_periph_driver/src/n32g430_flash.c **** *\*\name    FLASH_ICache_Reset
 129:n32g430_std_periph_driver/src/n32g430_flash.c **** *\*\fun     ICache Reset.
 130:n32g430_std_periph_driver/src/n32g430_flash.c **** *\*\note    This function can be used for N32G430 devices.
 131:n32g430_std_periph_driver/src/n32g430_flash.c **** *\*\param   none
 132:n32g430_std_periph_driver/src/n32g430_flash.c **** *\*\return  none
 133:n32g430_std_periph_driver/src/n32g430_flash.c **** **/
 134:n32g430_std_periph_driver/src/n32g430_flash.c **** void FLASH_ICache_Reset(void)
 135:n32g430_std_periph_driver/src/n32g430_flash.c **** {
 156              		.loc 1 135 1 is_stmt 1 view -0
 157              		.cfi_startproc
 158              		@ args = 0, pretend = 0, frame = 0
 159              		@ frame_needed = 0, uses_anonymous_args = 0
ARM GAS  C:\Users\Dawn\AppData\Local\Temp\cc12bvwa.s 			page 6


 160              		@ link register save eliminated.
 136:n32g430_std_periph_driver/src/n32g430_flash.c ****     /* ICache Reset */
 137:n32g430_std_periph_driver/src/n32g430_flash.c ****     FLASH->AC |= FLASH_ICAHRST_MSK;
 161              		.loc 1 137 5 view .LVU26
 162              		.loc 1 137 10 is_stmt 0 view .LVU27
 163 0000 024A     		ldr	r2, .L14
 164 0002 1368     		ldr	r3, [r2]
 165              		.loc 1 137 15 view .LVU28
 166 0004 43F04003 		orr	r3, r3, #64
 167 0008 1360     		str	r3, [r2]
 138:n32g430_std_periph_driver/src/n32g430_flash.c **** }
 168              		.loc 1 138 1 view .LVU29
 169 000a 7047     		bx	lr
 170              	.L15:
 171              		.align	2
 172              	.L14:
 173 000c 00200240 		.word	1073881088
 174              		.cfi_endproc
 175              	.LFE127:
 177              		.section	.text.FLASH_ICache_Enable,"ax",%progbits
 178              		.align	1
 179              		.global	FLASH_ICache_Enable
 180              		.syntax unified
 181              		.thumb
 182              		.thumb_func
 184              	FLASH_ICache_Enable:
 185              	.LFB128:
 139:n32g430_std_periph_driver/src/n32g430_flash.c **** 
 140:n32g430_std_periph_driver/src/n32g430_flash.c **** /**
 141:n32g430_std_periph_driver/src/n32g430_flash.c **** *\*\name    FLASH_ICache_Enable
 142:n32g430_std_periph_driver/src/n32g430_flash.c **** *\*\fun     Enables the iCache.
 143:n32g430_std_periph_driver/src/n32g430_flash.c **** *\*\note    This function can be used for N32G430 devices.
 144:n32g430_std_periph_driver/src/n32g430_flash.c **** *\*\param   none
 145:n32g430_std_periph_driver/src/n32g430_flash.c **** *\*\return  none
 146:n32g430_std_periph_driver/src/n32g430_flash.c **** **/
 147:n32g430_std_periph_driver/src/n32g430_flash.c **** void FLASH_ICache_Enable(void)
 148:n32g430_std_periph_driver/src/n32g430_flash.c **** {
 186              		.loc 1 148 1 is_stmt 1 view -0
 187              		.cfi_startproc
 188              		@ args = 0, pretend = 0, frame = 0
 189              		@ frame_needed = 0, uses_anonymous_args = 0
 190              		@ link register save eliminated.
 149:n32g430_std_periph_driver/src/n32g430_flash.c ****     /* Enable the iCache */
 150:n32g430_std_periph_driver/src/n32g430_flash.c ****     FLASH->AC |= FLASH_ICACHE_EN;
 191              		.loc 1 150 5 view .LVU31
 192              		.loc 1 150 10 is_stmt 0 view .LVU32
 193 0000 024A     		ldr	r2, .L17
 194 0002 1368     		ldr	r3, [r2]
 195              		.loc 1 150 15 view .LVU33
 196 0004 43F08003 		orr	r3, r3, #128
 197 0008 1360     		str	r3, [r2]
 151:n32g430_std_periph_driver/src/n32g430_flash.c **** }
 198              		.loc 1 151 1 view .LVU34
 199 000a 7047     		bx	lr
 200              	.L18:
 201              		.align	2
 202              	.L17:
ARM GAS  C:\Users\Dawn\AppData\Local\Temp\cc12bvwa.s 			page 7


 203 000c 00200240 		.word	1073881088
 204              		.cfi_endproc
 205              	.LFE128:
 207              		.section	.text.FLASH_ICache_Disable,"ax",%progbits
 208              		.align	1
 209              		.global	FLASH_ICache_Disable
 210              		.syntax unified
 211              		.thumb
 212              		.thumb_func
 214              	FLASH_ICache_Disable:
 215              	.LFB129:
 152:n32g430_std_periph_driver/src/n32g430_flash.c **** 
 153:n32g430_std_periph_driver/src/n32g430_flash.c **** /**
 154:n32g430_std_periph_driver/src/n32g430_flash.c **** *\*\name    FLASH_ICache_Disable
 155:n32g430_std_periph_driver/src/n32g430_flash.c **** *\*\fun     Disables the iCache.
 156:n32g430_std_periph_driver/src/n32g430_flash.c **** *\*\note    This function can be used for N32G430 devices.
 157:n32g430_std_periph_driver/src/n32g430_flash.c **** *\*\param   none
 158:n32g430_std_periph_driver/src/n32g430_flash.c **** *\*\return  none
 159:n32g430_std_periph_driver/src/n32g430_flash.c **** **/
 160:n32g430_std_periph_driver/src/n32g430_flash.c **** void FLASH_ICache_Disable(void)
 161:n32g430_std_periph_driver/src/n32g430_flash.c **** {
 216              		.loc 1 161 1 is_stmt 1 view -0
 217              		.cfi_startproc
 218              		@ args = 0, pretend = 0, frame = 0
 219              		@ frame_needed = 0, uses_anonymous_args = 0
 220              		@ link register save eliminated.
 162:n32g430_std_periph_driver/src/n32g430_flash.c ****     /* Disable the iCache */
 163:n32g430_std_periph_driver/src/n32g430_flash.c ****     FLASH->AC &= FLASH_ICACHE_DIS;
 221              		.loc 1 163 5 view .LVU36
 222              		.loc 1 163 10 is_stmt 0 view .LVU37
 223 0000 024A     		ldr	r2, .L20
 224 0002 1368     		ldr	r3, [r2]
 225              		.loc 1 163 15 view .LVU38
 226 0004 23F08003 		bic	r3, r3, #128
 227 0008 1360     		str	r3, [r2]
 164:n32g430_std_periph_driver/src/n32g430_flash.c **** }
 228              		.loc 1 164 1 view .LVU39
 229 000a 7047     		bx	lr
 230              	.L21:
 231              		.align	2
 232              	.L20:
 233 000c 00200240 		.word	1073881088
 234              		.cfi_endproc
 235              	.LFE129:
 237              		.section	.text.FLASH_ICache_Status_Get,"ax",%progbits
 238              		.align	1
 239              		.global	FLASH_ICache_Status_Get
 240              		.syntax unified
 241              		.thumb
 242              		.thumb_func
 244              	FLASH_ICache_Status_Get:
 245              	.LFB130:
 165:n32g430_std_periph_driver/src/n32g430_flash.c **** 
 166:n32g430_std_periph_driver/src/n32g430_flash.c **** 
 167:n32g430_std_periph_driver/src/n32g430_flash.c **** /**
 168:n32g430_std_periph_driver/src/n32g430_flash.c **** *\*\name    FLASH_ICache_Status_Get
 169:n32g430_std_periph_driver/src/n32g430_flash.c **** *\*\fun     Get the iCache status.
ARM GAS  C:\Users\Dawn\AppData\Local\Temp\cc12bvwa.s 			page 8


 170:n32g430_std_periph_driver/src/n32g430_flash.c **** *\*\note    This function can be used for N32G430 devices.
 171:n32g430_std_periph_driver/src/n32g430_flash.c **** *\*\param   none
 172:n32g430_std_periph_driver/src/n32g430_flash.c **** *\*\return  FlagStatus :
 173:n32g430_std_periph_driver/src/n32g430_flash.c **** *\*\            - SET
 174:n32g430_std_periph_driver/src/n32g430_flash.c **** *\*\            - RESET
 175:n32g430_std_periph_driver/src/n32g430_flash.c **** **/
 176:n32g430_std_periph_driver/src/n32g430_flash.c **** FlagStatus FLASH_ICache_Status_Get(void)
 177:n32g430_std_periph_driver/src/n32g430_flash.c **** {
 246              		.loc 1 177 1 is_stmt 1 view -0
 247              		.cfi_startproc
 248              		@ args = 0, pretend = 0, frame = 0
 249              		@ frame_needed = 0, uses_anonymous_args = 0
 250              		@ link register save eliminated.
 178:n32g430_std_periph_driver/src/n32g430_flash.c ****     if ((FLASH->AC & FLASH_AC_ICAHEN) != (uint32_t)RESET)
 251              		.loc 1 178 5 view .LVU41
 252              		.loc 1 178 15 is_stmt 0 view .LVU42
 253 0000 044B     		ldr	r3, .L25
 254 0002 1B68     		ldr	r3, [r3]
 255              		.loc 1 178 8 view .LVU43
 256 0004 13F0800F 		tst	r3, #128
 257 0008 01D0     		beq	.L24
 179:n32g430_std_periph_driver/src/n32g430_flash.c ****     {
 180:n32g430_std_periph_driver/src/n32g430_flash.c ****         return SET;
 258              		.loc 1 180 16 view .LVU44
 259 000a 0120     		movs	r0, #1
 260 000c 7047     		bx	lr
 261              	.L24:
 181:n32g430_std_periph_driver/src/n32g430_flash.c ****     }
 182:n32g430_std_periph_driver/src/n32g430_flash.c ****     else
 183:n32g430_std_periph_driver/src/n32g430_flash.c ****     {
 184:n32g430_std_periph_driver/src/n32g430_flash.c ****         return RESET;
 262              		.loc 1 184 16 view .LVU45
 263 000e 0020     		movs	r0, #0
 185:n32g430_std_periph_driver/src/n32g430_flash.c ****     }
 186:n32g430_std_periph_driver/src/n32g430_flash.c **** }
 264              		.loc 1 186 1 view .LVU46
 265 0010 7047     		bx	lr
 266              	.L26:
 267 0012 00BF     		.align	2
 268              	.L25:
 269 0014 00200240 		.word	1073881088
 270              		.cfi_endproc
 271              	.LFE130:
 273              		.section	.text.FLASH_Cache_LOCK_Start,"ax",%progbits
 274              		.align	1
 275              		.global	FLASH_Cache_LOCK_Start
 276              		.syntax unified
 277              		.thumb
 278              		.thumb_func
 280              	FLASH_Cache_LOCK_Start:
 281              	.LVL4:
 282              	.LFB131:
 187:n32g430_std_periph_driver/src/n32g430_flash.c **** 
 188:n32g430_std_periph_driver/src/n32g430_flash.c **** 
 189:n32g430_std_periph_driver/src/n32g430_flash.c **** 
 190:n32g430_std_periph_driver/src/n32g430_flash.c **** /**
 191:n32g430_std_periph_driver/src/n32g430_flash.c **** *\*\name   FLASH_Cache_LOCK_Start
ARM GAS  C:\Users\Dawn\AppData\Local\Temp\cc12bvwa.s 			page 9


 192:n32g430_std_periph_driver/src/n32g430_flash.c **** *\*\fun    Start cache lock.
 193:n32g430_std_periph_driver/src/n32g430_flash.c **** *\*\note   This function can be used for N32G430 devices.
 194:n32g430_std_periph_driver/src/n32g430_flash.c **** *\*\param  lock_start_way :
 195:n32g430_std_periph_driver/src/n32g430_flash.c **** *\*\            - FLASH_CAHR_LOCKSTRT_WAY0
 196:n32g430_std_periph_driver/src/n32g430_flash.c **** *\*\            - FLASH_CAHR_LOCKSTRT_WAY1
 197:n32g430_std_periph_driver/src/n32g430_flash.c **** *\*\            - FLASH_CAHR_LOCKSTRT_WAY2
 198:n32g430_std_periph_driver/src/n32g430_flash.c **** *\*\            - FLASH_CAHR_LOCKSTRT_WAY3
 199:n32g430_std_periph_driver/src/n32g430_flash.c **** *\*\return none
 200:n32g430_std_periph_driver/src/n32g430_flash.c **** **/
 201:n32g430_std_periph_driver/src/n32g430_flash.c **** void FLASH_Cache_LOCK_Start(uint32_t lock_start_way)
 202:n32g430_std_periph_driver/src/n32g430_flash.c **** {
 283              		.loc 1 202 1 is_stmt 1 view -0
 284              		.cfi_startproc
 285              		@ args = 0, pretend = 0, frame = 0
 286              		@ frame_needed = 0, uses_anonymous_args = 0
 287              		@ link register save eliminated.
 203:n32g430_std_periph_driver/src/n32g430_flash.c ****     FLASH->CAHR &= (~(lock_start_way << FLASH_CAHR_LOCK_OFFSET));
 288              		.loc 1 203 5 view .LVU48
 289              		.loc 1 203 10 is_stmt 0 view .LVU49
 290 0000 044B     		ldr	r3, .L28
 291 0002 1A6B     		ldr	r2, [r3, #48]
 292              		.loc 1 203 17 view .LVU50
 293 0004 22EA0012 		bic	r2, r2, r0, lsl #4
 294 0008 1A63     		str	r2, [r3, #48]
 204:n32g430_std_periph_driver/src/n32g430_flash.c ****     FLASH->CAHR |= lock_start_way;
 295              		.loc 1 204 5 is_stmt 1 view .LVU51
 296              		.loc 1 204 10 is_stmt 0 view .LVU52
 297 000a 1A6B     		ldr	r2, [r3, #48]
 298              		.loc 1 204 17 view .LVU53
 299 000c 0243     		orrs	r2, r2, r0
 300 000e 1A63     		str	r2, [r3, #48]
 205:n32g430_std_periph_driver/src/n32g430_flash.c **** }
 301              		.loc 1 205 1 view .LVU54
 302 0010 7047     		bx	lr
 303              	.L29:
 304 0012 00BF     		.align	2
 305              	.L28:
 306 0014 00200240 		.word	1073881088
 307              		.cfi_endproc
 308              	.LFE131:
 310              		.section	.text.FLASH_Cache_LOCK_Stop,"ax",%progbits
 311              		.align	1
 312              		.global	FLASH_Cache_LOCK_Stop
 313              		.syntax unified
 314              		.thumb
 315              		.thumb_func
 317              	FLASH_Cache_LOCK_Stop:
 318              	.LVL5:
 319              	.LFB132:
 206:n32g430_std_periph_driver/src/n32g430_flash.c **** 
 207:n32g430_std_periph_driver/src/n32g430_flash.c **** /**
 208:n32g430_std_periph_driver/src/n32g430_flash.c **** *\*\name   FLASH_Cache_LOCK_Stop
 209:n32g430_std_periph_driver/src/n32g430_flash.c **** *\*\fun    Stop cache lock.
 210:n32g430_std_periph_driver/src/n32g430_flash.c **** *\*\note   This function can be used for N32G430 devices.
 211:n32g430_std_periph_driver/src/n32g430_flash.c **** *\*\param  lock_stop_way :
 212:n32g430_std_periph_driver/src/n32g430_flash.c **** *\*\            - FLASH_CAHR_LOCKSTOP_WAY0
 213:n32g430_std_periph_driver/src/n32g430_flash.c **** *\*\            - FLASH_CAHR_LOCKSTOP_WAY1
ARM GAS  C:\Users\Dawn\AppData\Local\Temp\cc12bvwa.s 			page 10


 214:n32g430_std_periph_driver/src/n32g430_flash.c **** *\*\            - FLASH_CAHR_LOCKSTOP_WAY2
 215:n32g430_std_periph_driver/src/n32g430_flash.c **** *\*\            - FLASH_CAHR_LOCKSTOP_WAY3
 216:n32g430_std_periph_driver/src/n32g430_flash.c **** *\*\return none
 217:n32g430_std_periph_driver/src/n32g430_flash.c **** **/
 218:n32g430_std_periph_driver/src/n32g430_flash.c **** void FLASH_Cache_LOCK_Stop(uint32_t lock_stop_way)
 219:n32g430_std_periph_driver/src/n32g430_flash.c **** {
 320              		.loc 1 219 1 is_stmt 1 view -0
 321              		.cfi_startproc
 322              		@ args = 0, pretend = 0, frame = 0
 323              		@ frame_needed = 0, uses_anonymous_args = 0
 324              		@ link register save eliminated.
 220:n32g430_std_periph_driver/src/n32g430_flash.c ****     FLASH->CAHR |= lock_stop_way;
 325              		.loc 1 220 5 view .LVU56
 326              		.loc 1 220 10 is_stmt 0 view .LVU57
 327 0000 024A     		ldr	r2, .L31
 328 0002 136B     		ldr	r3, [r2, #48]
 329              		.loc 1 220 17 view .LVU58
 330 0004 0343     		orrs	r3, r3, r0
 331 0006 1363     		str	r3, [r2, #48]
 221:n32g430_std_periph_driver/src/n32g430_flash.c **** }
 332              		.loc 1 221 1 view .LVU59
 333 0008 7047     		bx	lr
 334              	.L32:
 335 000a 00BF     		.align	2
 336              	.L31:
 337 000c 00200240 		.word	1073881088
 338              		.cfi_endproc
 339              	.LFE132:
 341              		.section	.text.FLASH_Cache_LOCK_Cancel,"ax",%progbits
 342              		.align	1
 343              		.global	FLASH_Cache_LOCK_Cancel
 344              		.syntax unified
 345              		.thumb
 346              		.thumb_func
 348              	FLASH_Cache_LOCK_Cancel:
 349              	.LVL6:
 350              	.LFB133:
 222:n32g430_std_periph_driver/src/n32g430_flash.c **** 
 223:n32g430_std_periph_driver/src/n32g430_flash.c **** 
 224:n32g430_std_periph_driver/src/n32g430_flash.c **** /**
 225:n32g430_std_periph_driver/src/n32g430_flash.c **** *\*\name   FLASH_Cache_LOCK_Cancel
 226:n32g430_std_periph_driver/src/n32g430_flash.c **** *\*\fun    Cancle cache lock.
 227:n32g430_std_periph_driver/src/n32g430_flash.c **** *\*\note   This function can be used for N32G430 devices.
 228:n32g430_std_periph_driver/src/n32g430_flash.c **** *\*\param  lock_stop_way :
 229:n32g430_std_periph_driver/src/n32g430_flash.c **** *\*\            - FLASH_CAHR_LOCKSTOP_WAY0
 230:n32g430_std_periph_driver/src/n32g430_flash.c **** *\*\            - FLASH_CAHR_LOCKSTOP_WAY1
 231:n32g430_std_periph_driver/src/n32g430_flash.c **** *\*\            - FLASH_CAHR_LOCKSTOP_WAY2
 232:n32g430_std_periph_driver/src/n32g430_flash.c **** *\*\            - FLASH_CAHR_LOCKSTOP_WAY3
 233:n32g430_std_periph_driver/src/n32g430_flash.c **** *\*\return none
 234:n32g430_std_periph_driver/src/n32g430_flash.c **** **/
 235:n32g430_std_periph_driver/src/n32g430_flash.c **** void FLASH_Cache_LOCK_Cancel(uint32_t lock_stop_way)
 236:n32g430_std_periph_driver/src/n32g430_flash.c **** {
 351              		.loc 1 236 1 is_stmt 1 view -0
 352              		.cfi_startproc
 353              		@ args = 0, pretend = 0, frame = 0
 354              		@ frame_needed = 0, uses_anonymous_args = 0
 355              		@ link register save eliminated.
ARM GAS  C:\Users\Dawn\AppData\Local\Temp\cc12bvwa.s 			page 11


 237:n32g430_std_periph_driver/src/n32g430_flash.c ****     FLASH->CAHR |= lock_stop_way;
 356              		.loc 1 237 5 view .LVU61
 357              		.loc 1 237 10 is_stmt 0 view .LVU62
 358 0000 044B     		ldr	r3, .L34
 359 0002 1A6B     		ldr	r2, [r3, #48]
 360              		.loc 1 237 17 view .LVU63
 361 0004 0243     		orrs	r2, r2, r0
 362 0006 1A63     		str	r2, [r3, #48]
 238:n32g430_std_periph_driver/src/n32g430_flash.c ****     FLASH->CAHR &= (~lock_stop_way);
 363              		.loc 1 238 5 is_stmt 1 view .LVU64
 364              		.loc 1 238 10 is_stmt 0 view .LVU65
 365 0008 1A6B     		ldr	r2, [r3, #48]
 366              		.loc 1 238 17 view .LVU66
 367 000a 22EA0002 		bic	r2, r2, r0
 368 000e 1A63     		str	r2, [r3, #48]
 239:n32g430_std_periph_driver/src/n32g430_flash.c **** }
 369              		.loc 1 239 1 view .LVU67
 370 0010 7047     		bx	lr
 371              	.L35:
 372 0012 00BF     		.align	2
 373              	.L34:
 374 0014 00200240 		.word	1073881088
 375              		.cfi_endproc
 376              	.LFE133:
 378              		.section	.text.FLASH_Cache_LOCK_Status_Get,"ax",%progbits
 379              		.align	1
 380              		.global	FLASH_Cache_LOCK_Status_Get
 381              		.syntax unified
 382              		.thumb
 383              		.thumb_func
 385              	FLASH_Cache_LOCK_Status_Get:
 386              	.LVL7:
 387              	.LFB134:
 240:n32g430_std_periph_driver/src/n32g430_flash.c **** 
 241:n32g430_std_periph_driver/src/n32g430_flash.c **** /**
 242:n32g430_std_periph_driver/src/n32g430_flash.c **** *\*\name   FLASH_Cache_LOCK_Status_Get
 243:n32g430_std_periph_driver/src/n32g430_flash.c **** *\*\fun    Get cache lock status.
 244:n32g430_std_periph_driver/src/n32g430_flash.c **** *\*\note   This function can be used for N32G430 devices.
 245:n32g430_std_periph_driver/src/n32g430_flash.c **** *\*\param  lock_way :
 246:n32g430_std_periph_driver/src/n32g430_flash.c **** *\*\            - FLASH_CAHR_LOCKSTRT_WAY0
 247:n32g430_std_periph_driver/src/n32g430_flash.c **** *\*\            - FLASH_CAHR_LOCKSTRT_WAY1
 248:n32g430_std_periph_driver/src/n32g430_flash.c **** *\*\            - FLASH_CAHR_LOCKSTRT_WAY2
 249:n32g430_std_periph_driver/src/n32g430_flash.c **** *\*\            - FLASH_CAHR_LOCKSTRT_WAY3
 250:n32g430_std_periph_driver/src/n32g430_flash.c **** *\*\            - FLASH_CAHR_LOCKSTOP_WAY0
 251:n32g430_std_periph_driver/src/n32g430_flash.c **** *\*\            - FLASH_CAHR_LOCKSTOP_WAY1
 252:n32g430_std_periph_driver/src/n32g430_flash.c **** *\*\            - FLASH_CAHR_LOCKSTOP_WAY2
 253:n32g430_std_periph_driver/src/n32g430_flash.c **** *\*\            - FLASH_CAHR_LOCKSTOP_WAY3
 254:n32g430_std_periph_driver/src/n32g430_flash.c **** *\*\return  FlagStatus :
 255:n32g430_std_periph_driver/src/n32g430_flash.c **** *\*\            - SET
 256:n32g430_std_periph_driver/src/n32g430_flash.c **** *\*\            - RESET
 257:n32g430_std_periph_driver/src/n32g430_flash.c **** **/
 258:n32g430_std_periph_driver/src/n32g430_flash.c **** FlagStatus FLASH_Cache_LOCK_Status_Get(uint32_t lock_way)
 259:n32g430_std_periph_driver/src/n32g430_flash.c **** {
 388              		.loc 1 259 1 is_stmt 1 view -0
 389              		.cfi_startproc
 390              		@ args = 0, pretend = 0, frame = 0
 391              		@ frame_needed = 0, uses_anonymous_args = 0
ARM GAS  C:\Users\Dawn\AppData\Local\Temp\cc12bvwa.s 			page 12


 392              		@ link register save eliminated.
 260:n32g430_std_periph_driver/src/n32g430_flash.c ****     if ((FLASH->CAHR & lock_way) != (uint32_t)RESET)
 393              		.loc 1 260 5 view .LVU69
 394              		.loc 1 260 15 is_stmt 0 view .LVU70
 395 0000 034B     		ldr	r3, .L39
 396 0002 1B6B     		ldr	r3, [r3, #48]
 397              		.loc 1 260 8 view .LVU71
 398 0004 0342     		tst	r3, r0
 399 0006 01D0     		beq	.L38
 261:n32g430_std_periph_driver/src/n32g430_flash.c ****     {
 262:n32g430_std_periph_driver/src/n32g430_flash.c ****         return SET;
 400              		.loc 1 262 16 view .LVU72
 401 0008 0120     		movs	r0, #1
 402              	.LVL8:
 403              		.loc 1 262 16 view .LVU73
 404 000a 7047     		bx	lr
 405              	.LVL9:
 406              	.L38:
 263:n32g430_std_periph_driver/src/n32g430_flash.c ****     }
 264:n32g430_std_periph_driver/src/n32g430_flash.c ****     else
 265:n32g430_std_periph_driver/src/n32g430_flash.c ****     {
 266:n32g430_std_periph_driver/src/n32g430_flash.c ****         return RESET;
 407              		.loc 1 266 16 view .LVU74
 408 000c 0020     		movs	r0, #0
 409              	.LVL10:
 267:n32g430_std_periph_driver/src/n32g430_flash.c ****     }
 268:n32g430_std_periph_driver/src/n32g430_flash.c **** }
 410              		.loc 1 268 1 view .LVU75
 411 000e 7047     		bx	lr
 412              	.L40:
 413              		.align	2
 414              	.L39:
 415 0010 00200240 		.word	1073881088
 416              		.cfi_endproc
 417              	.LFE134:
 419              		.section	.text.FLASH_Unlock,"ax",%progbits
 420              		.align	1
 421              		.global	FLASH_Unlock
 422              		.syntax unified
 423              		.thumb
 424              		.thumb_func
 426              	FLASH_Unlock:
 427              	.LFB135:
 269:n32g430_std_periph_driver/src/n32g430_flash.c **** 
 270:n32g430_std_periph_driver/src/n32g430_flash.c **** 
 271:n32g430_std_periph_driver/src/n32g430_flash.c **** 
 272:n32g430_std_periph_driver/src/n32g430_flash.c **** /**
 273:n32g430_std_periph_driver/src/n32g430_flash.c **** *\*\name   FLASH_Unlock
 274:n32g430_std_periph_driver/src/n32g430_flash.c **** *\*\fun    Unlocks the FLASH Program Erase Controller.
 275:n32g430_std_periph_driver/src/n32g430_flash.c **** *\*\note   This function can be used for N32G430 devices.
 276:n32g430_std_periph_driver/src/n32g430_flash.c **** *\*\param  none
 277:n32g430_std_periph_driver/src/n32g430_flash.c **** *\*\return none
 278:n32g430_std_periph_driver/src/n32g430_flash.c **** **/
 279:n32g430_std_periph_driver/src/n32g430_flash.c **** void FLASH_Unlock(void)
 280:n32g430_std_periph_driver/src/n32g430_flash.c **** {
 428              		.loc 1 280 1 is_stmt 1 view -0
 429              		.cfi_startproc
ARM GAS  C:\Users\Dawn\AppData\Local\Temp\cc12bvwa.s 			page 13


 430              		@ args = 0, pretend = 0, frame = 0
 431              		@ frame_needed = 0, uses_anonymous_args = 0
 432              		@ link register save eliminated.
 281:n32g430_std_periph_driver/src/n32g430_flash.c ****     FLASH->KEY = FLASH_KEY1;
 433              		.loc 1 281 5 view .LVU77
 434              		.loc 1 281 16 is_stmt 0 view .LVU78
 435 0000 034B     		ldr	r3, .L42
 436 0002 044A     		ldr	r2, .L42+4
 437 0004 5A60     		str	r2, [r3, #4]
 282:n32g430_std_periph_driver/src/n32g430_flash.c ****     FLASH->KEY = FLASH_KEY2;
 438              		.loc 1 282 5 is_stmt 1 view .LVU79
 439              		.loc 1 282 16 is_stmt 0 view .LVU80
 440 0006 02F18832 		add	r2, r2, #-2004318072
 441 000a 5A60     		str	r2, [r3, #4]
 283:n32g430_std_periph_driver/src/n32g430_flash.c **** }
 442              		.loc 1 283 1 view .LVU81
 443 000c 7047     		bx	lr
 444              	.L43:
 445 000e 00BF     		.align	2
 446              	.L42:
 447 0010 00200240 		.word	1073881088
 448 0014 23016745 		.word	1164378403
 449              		.cfi_endproc
 450              	.LFE135:
 452              		.section	.text.FLASH_Lock,"ax",%progbits
 453              		.align	1
 454              		.global	FLASH_Lock
 455              		.syntax unified
 456              		.thumb
 457              		.thumb_func
 459              	FLASH_Lock:
 460              	.LFB136:
 284:n32g430_std_periph_driver/src/n32g430_flash.c **** 
 285:n32g430_std_periph_driver/src/n32g430_flash.c **** /**
 286:n32g430_std_periph_driver/src/n32g430_flash.c **** *\*\name   FLASH_Lock
 287:n32g430_std_periph_driver/src/n32g430_flash.c **** *\*\fun    Locks the FLASH Program Erase Controller.
 288:n32g430_std_periph_driver/src/n32g430_flash.c **** *\*\note   This function can be used for N32G430 devices.
 289:n32g430_std_periph_driver/src/n32g430_flash.c **** *\*\param  none
 290:n32g430_std_periph_driver/src/n32g430_flash.c **** *\*\return none
 291:n32g430_std_periph_driver/src/n32g430_flash.c **** **/
 292:n32g430_std_periph_driver/src/n32g430_flash.c **** void FLASH_Lock(void)
 293:n32g430_std_periph_driver/src/n32g430_flash.c **** {
 461              		.loc 1 293 1 is_stmt 1 view -0
 462              		.cfi_startproc
 463              		@ args = 0, pretend = 0, frame = 0
 464              		@ frame_needed = 0, uses_anonymous_args = 0
 465              		@ link register save eliminated.
 294:n32g430_std_periph_driver/src/n32g430_flash.c ****     FLASH->CTRL |= FLASH_CTRL_SET_LOCK;
 466              		.loc 1 294 5 view .LVU83
 467              		.loc 1 294 10 is_stmt 0 view .LVU84
 468 0000 024A     		ldr	r2, .L45
 469 0002 1369     		ldr	r3, [r2, #16]
 470              		.loc 1 294 17 view .LVU85
 471 0004 43F08003 		orr	r3, r3, #128
 472 0008 1361     		str	r3, [r2, #16]
 295:n32g430_std_periph_driver/src/n32g430_flash.c **** }
 473              		.loc 1 295 1 view .LVU86
ARM GAS  C:\Users\Dawn\AppData\Local\Temp\cc12bvwa.s 			page 14


 474 000a 7047     		bx	lr
 475              	.L46:
 476              		.align	2
 477              	.L45:
 478 000c 00200240 		.word	1073881088
 479              		.cfi_endproc
 480              	.LFE136:
 482              		.section	.text.Option_Bytes_Unlock,"ax",%progbits
 483              		.align	1
 484              		.global	Option_Bytes_Unlock
 485              		.syntax unified
 486              		.thumb
 487              		.thumb_func
 489              	Option_Bytes_Unlock:
 490              	.LFB137:
 296:n32g430_std_periph_driver/src/n32g430_flash.c **** 
 297:n32g430_std_periph_driver/src/n32g430_flash.c **** 
 298:n32g430_std_periph_driver/src/n32g430_flash.c **** /**
 299:n32g430_std_periph_driver/src/n32g430_flash.c **** *\*\name   Option_Bytes_Unlock
 300:n32g430_std_periph_driver/src/n32g430_flash.c **** *\*\fun    Unlocks the Option_Bytes Program Erase Controller.
 301:n32g430_std_periph_driver/src/n32g430_flash.c **** *\*\note   This function can be used for N32G430 devices.
 302:n32g430_std_periph_driver/src/n32g430_flash.c **** *\*\param  none
 303:n32g430_std_periph_driver/src/n32g430_flash.c **** *\*\return none
 304:n32g430_std_periph_driver/src/n32g430_flash.c **** **/
 305:n32g430_std_periph_driver/src/n32g430_flash.c **** void Option_Bytes_Unlock(void)
 306:n32g430_std_periph_driver/src/n32g430_flash.c **** {
 491              		.loc 1 306 1 is_stmt 1 view -0
 492              		.cfi_startproc
 493              		@ args = 0, pretend = 0, frame = 0
 494              		@ frame_needed = 0, uses_anonymous_args = 0
 495              		@ link register save eliminated.
 307:n32g430_std_periph_driver/src/n32g430_flash.c ****     FLASH->OPTKEY = FLASH_KEY1;
 496              		.loc 1 307 5 view .LVU88
 497              		.loc 1 307 19 is_stmt 0 view .LVU89
 498 0000 034B     		ldr	r3, .L48
 499 0002 044A     		ldr	r2, .L48+4
 500 0004 9A60     		str	r2, [r3, #8]
 308:n32g430_std_periph_driver/src/n32g430_flash.c ****     FLASH->OPTKEY = FLASH_KEY2;
 501              		.loc 1 308 5 is_stmt 1 view .LVU90
 502              		.loc 1 308 19 is_stmt 0 view .LVU91
 503 0006 02F18832 		add	r2, r2, #-2004318072
 504 000a 9A60     		str	r2, [r3, #8]
 309:n32g430_std_periph_driver/src/n32g430_flash.c **** }
 505              		.loc 1 309 1 view .LVU92
 506 000c 7047     		bx	lr
 507              	.L49:
 508 000e 00BF     		.align	2
 509              	.L48:
 510 0010 00200240 		.word	1073881088
 511 0014 23016745 		.word	1164378403
 512              		.cfi_endproc
 513              	.LFE137:
 515              		.section	.text.Option_Bytes_Lock,"ax",%progbits
 516              		.align	1
 517              		.global	Option_Bytes_Lock
 518              		.syntax unified
 519              		.thumb
ARM GAS  C:\Users\Dawn\AppData\Local\Temp\cc12bvwa.s 			page 15


 520              		.thumb_func
 522              	Option_Bytes_Lock:
 523              	.LFB138:
 310:n32g430_std_periph_driver/src/n32g430_flash.c **** 
 311:n32g430_std_periph_driver/src/n32g430_flash.c **** 
 312:n32g430_std_periph_driver/src/n32g430_flash.c **** /**
 313:n32g430_std_periph_driver/src/n32g430_flash.c **** *\*\name   Option_Bytes_Lock
 314:n32g430_std_periph_driver/src/n32g430_flash.c **** *\*\fun    Locks the Option_Bytes Program Erase Controller.
 315:n32g430_std_periph_driver/src/n32g430_flash.c **** *\*\note   This function can be used for N32G430 devices.
 316:n32g430_std_periph_driver/src/n32g430_flash.c **** *\*\param  none
 317:n32g430_std_periph_driver/src/n32g430_flash.c **** *\*\return none
 318:n32g430_std_periph_driver/src/n32g430_flash.c **** **/
 319:n32g430_std_periph_driver/src/n32g430_flash.c **** void Option_Bytes_Lock(void)
 320:n32g430_std_periph_driver/src/n32g430_flash.c **** {
 524              		.loc 1 320 1 is_stmt 1 view -0
 525              		.cfi_startproc
 526              		@ args = 0, pretend = 0, frame = 0
 527              		@ frame_needed = 0, uses_anonymous_args = 0
 528              		@ link register save eliminated.
 321:n32g430_std_periph_driver/src/n32g430_flash.c ****     /* Set the FLASH_CTRL_SET_OPTWE Bit to lock */
 322:n32g430_std_periph_driver/src/n32g430_flash.c ****     FLASH->CTRL &= (~FLASH_CTRL_SET_OPTWE);
 529              		.loc 1 322 5 view .LVU94
 530              		.loc 1 322 10 is_stmt 0 view .LVU95
 531 0000 024A     		ldr	r2, .L51
 532 0002 1369     		ldr	r3, [r2, #16]
 533              		.loc 1 322 17 view .LVU96
 534 0004 23F40073 		bic	r3, r3, #512
 535 0008 1361     		str	r3, [r2, #16]
 323:n32g430_std_periph_driver/src/n32g430_flash.c **** }
 536              		.loc 1 323 1 view .LVU97
 537 000a 7047     		bx	lr
 538              	.L52:
 539              		.align	2
 540              	.L51:
 541 000c 00200240 		.word	1073881088
 542              		.cfi_endproc
 543              	.LFE138:
 545              		.section	.text.Option_Bytes_Lock_Status_Get,"ax",%progbits
 546              		.align	1
 547              		.global	Option_Bytes_Lock_Status_Get
 548              		.syntax unified
 549              		.thumb
 550              		.thumb_func
 552              	Option_Bytes_Lock_Status_Get:
 553              	.LFB139:
 324:n32g430_std_periph_driver/src/n32g430_flash.c **** 
 325:n32g430_std_periph_driver/src/n32g430_flash.c **** 
 326:n32g430_std_periph_driver/src/n32g430_flash.c **** /**
 327:n32g430_std_periph_driver/src/n32g430_flash.c **** *\*\name   Option_Bytes_Lock_Status_Get
 328:n32g430_std_periph_driver/src/n32g430_flash.c **** *\*\fun    Get the Option Bytes lock status.
 329:n32g430_std_periph_driver/src/n32g430_flash.c **** *\*\note   This function can be used for N32G430 devices.
 330:n32g430_std_periph_driver/src/n32g430_flash.c **** *\*\param  none
 331:n32g430_std_periph_driver/src/n32g430_flash.c **** *\*\return FlagStatus :
 332:n32g430_std_periph_driver/src/n32g430_flash.c **** *\*\            - SET
 333:n32g430_std_periph_driver/src/n32g430_flash.c **** *\*\            - RESET
 334:n32g430_std_periph_driver/src/n32g430_flash.c **** **/
 335:n32g430_std_periph_driver/src/n32g430_flash.c **** FlagStatus Option_Bytes_Lock_Status_Get(void)
ARM GAS  C:\Users\Dawn\AppData\Local\Temp\cc12bvwa.s 			page 16


 336:n32g430_std_periph_driver/src/n32g430_flash.c **** {
 554              		.loc 1 336 1 is_stmt 1 view -0
 555              		.cfi_startproc
 556              		@ args = 0, pretend = 0, frame = 0
 557              		@ frame_needed = 0, uses_anonymous_args = 0
 558              		@ link register save eliminated.
 337:n32g430_std_periph_driver/src/n32g430_flash.c ****     if ((FLASH->CTRL & FLASH_CTRL_SET_OPTWE) != (uint32_t)RESET)
 559              		.loc 1 337 5 view .LVU99
 560              		.loc 1 337 15 is_stmt 0 view .LVU100
 561 0000 044B     		ldr	r3, .L56
 562 0002 1B69     		ldr	r3, [r3, #16]
 563              		.loc 1 337 8 view .LVU101
 564 0004 13F4007F 		tst	r3, #512
 565 0008 01D0     		beq	.L55
 338:n32g430_std_periph_driver/src/n32g430_flash.c ****     {
 339:n32g430_std_periph_driver/src/n32g430_flash.c ****         return SET;
 566              		.loc 1 339 16 view .LVU102
 567 000a 0120     		movs	r0, #1
 568 000c 7047     		bx	lr
 569              	.L55:
 340:n32g430_std_periph_driver/src/n32g430_flash.c ****     }
 341:n32g430_std_periph_driver/src/n32g430_flash.c ****     else
 342:n32g430_std_periph_driver/src/n32g430_flash.c ****     {
 343:n32g430_std_periph_driver/src/n32g430_flash.c ****         return RESET;
 570              		.loc 1 343 16 view .LVU103
 571 000e 0020     		movs	r0, #0
 344:n32g430_std_periph_driver/src/n32g430_flash.c ****     }
 345:n32g430_std_periph_driver/src/n32g430_flash.c **** }
 572              		.loc 1 345 1 view .LVU104
 573 0010 7047     		bx	lr
 574              	.L57:
 575 0012 00BF     		.align	2
 576              	.L56:
 577 0014 00200240 		.word	1073881088
 578              		.cfi_endproc
 579              	.LFE139:
 581              		.section	.text.FLASH_Option_Bytes_User_Get,"ax",%progbits
 582              		.align	1
 583              		.global	FLASH_Option_Bytes_User_Get
 584              		.syntax unified
 585              		.thumb
 586              		.thumb_func
 588              	FLASH_Option_Bytes_User_Get:
 589              	.LVL11:
 590              	.LFB151:
 346:n32g430_std_periph_driver/src/n32g430_flash.c **** 
 347:n32g430_std_periph_driver/src/n32g430_flash.c **** 
 348:n32g430_std_periph_driver/src/n32g430_flash.c **** /**
 349:n32g430_std_periph_driver/src/n32g430_flash.c **** *\*\name   FLASH_One_Page_Erase
 350:n32g430_std_periph_driver/src/n32g430_flash.c **** *\*\fun    Erases a specified FLASH page.
 351:n32g430_std_periph_driver/src/n32g430_flash.c **** *\*\note   This function can be used for N32G430 devices.
 352:n32g430_std_periph_driver/src/n32g430_flash.c **** *\*\param  page_address :
 353:n32g430_std_periph_driver/src/n32g430_flash.c **** *\*\            - It ranges from 0x08000000 to 0x0800FFFF
 354:n32g430_std_periph_driver/src/n32g430_flash.c **** *\*\return FLASH_STS : 
 355:n32g430_std_periph_driver/src/n32g430_flash.c **** *\*\            - FLASH_BUSY
 356:n32g430_std_periph_driver/src/n32g430_flash.c **** *\*\            - FLASH_ERR_PG 
 357:n32g430_std_periph_driver/src/n32g430_flash.c **** *\*\            - FLASH_ERR_WRP
ARM GAS  C:\Users\Dawn\AppData\Local\Temp\cc12bvwa.s 			page 17


 358:n32g430_std_periph_driver/src/n32g430_flash.c **** *\*\            - FLASH_EOP
 359:n32g430_std_periph_driver/src/n32g430_flash.c **** *\*\            - FLASH_TIMEOUT
 360:n32g430_std_periph_driver/src/n32g430_flash.c **** **/
 361:n32g430_std_periph_driver/src/n32g430_flash.c **** FLASH_STS FLASH_One_Page_Erase(uint32_t page_address)
 362:n32g430_std_periph_driver/src/n32g430_flash.c **** {
 363:n32g430_std_periph_driver/src/n32g430_flash.c ****     FLASH_STS status_value = FLASH_EOP;
 364:n32g430_std_periph_driver/src/n32g430_flash.c **** 
 365:n32g430_std_periph_driver/src/n32g430_flash.c ****    /* Clears the FLASH's pending flags */
 366:n32g430_std_periph_driver/src/n32g430_flash.c ****     FLASH_Flag_Status_Clear(FLASH_STS_CLRFLAG);
 367:n32g430_std_periph_driver/src/n32g430_flash.c ****     /* Wait for last operation to be completed */
 368:n32g430_std_periph_driver/src/n32g430_flash.c ****     status_value = FLASH_Last_Operation_Wait(ERASE_TIMEOUT);
 369:n32g430_std_periph_driver/src/n32g430_flash.c **** 
 370:n32g430_std_periph_driver/src/n32g430_flash.c ****     if (status_value == FLASH_EOP)
 371:n32g430_std_periph_driver/src/n32g430_flash.c ****     {
 372:n32g430_std_periph_driver/src/n32g430_flash.c ****         /* if the previous operation is completed, proceed to erase the page */
 373:n32g430_std_periph_driver/src/n32g430_flash.c ****         FLASH->CTRL |= FLASH_CTRL_SET_PER;
 374:n32g430_std_periph_driver/src/n32g430_flash.c ****         FLASH->ADD = page_address;
 375:n32g430_std_periph_driver/src/n32g430_flash.c ****         FLASH->CTRL |= FLASH_CTRL_SET_START;
 376:n32g430_std_periph_driver/src/n32g430_flash.c **** 
 377:n32g430_std_periph_driver/src/n32g430_flash.c ****         /* Wait for last operation to be completed */
 378:n32g430_std_periph_driver/src/n32g430_flash.c ****         status_value = FLASH_Last_Operation_Wait(ERASE_TIMEOUT);
 379:n32g430_std_periph_driver/src/n32g430_flash.c **** 
 380:n32g430_std_periph_driver/src/n32g430_flash.c ****         /* Disable the PER Bit */
 381:n32g430_std_periph_driver/src/n32g430_flash.c ****         FLASH->CTRL &= FLASH_CTRL_RESET_PER;
 382:n32g430_std_periph_driver/src/n32g430_flash.c ****     }
 383:n32g430_std_periph_driver/src/n32g430_flash.c ****     else
 384:n32g430_std_periph_driver/src/n32g430_flash.c ****     {
 385:n32g430_std_periph_driver/src/n32g430_flash.c ****         /*No process*/
 386:n32g430_std_periph_driver/src/n32g430_flash.c ****     }
 387:n32g430_std_periph_driver/src/n32g430_flash.c **** 
 388:n32g430_std_periph_driver/src/n32g430_flash.c ****     /* Return the Erase status_value */
 389:n32g430_std_periph_driver/src/n32g430_flash.c ****     return status_value;
 390:n32g430_std_periph_driver/src/n32g430_flash.c **** }
 391:n32g430_std_periph_driver/src/n32g430_flash.c **** 
 392:n32g430_std_periph_driver/src/n32g430_flash.c **** /**
 393:n32g430_std_periph_driver/src/n32g430_flash.c **** *\*\name   FLASH_Mass_Erase
 394:n32g430_std_periph_driver/src/n32g430_flash.c **** *\*\fun    Erases all FLASH pages.
 395:n32g430_std_periph_driver/src/n32g430_flash.c **** *\*\note   This function can be used for all N32G430 devices.
 396:n32g430_std_periph_driver/src/n32g430_flash.c **** *\*\param  none
 397:n32g430_std_periph_driver/src/n32g430_flash.c **** *\*\return FLASH_STS : 
 398:n32g430_std_periph_driver/src/n32g430_flash.c **** *\*\            - FLASH_BUSY
 399:n32g430_std_periph_driver/src/n32g430_flash.c **** *\*\            - FLASH_ERR_PG 
 400:n32g430_std_periph_driver/src/n32g430_flash.c **** *\*\            - FLASH_ERR_WRP
 401:n32g430_std_periph_driver/src/n32g430_flash.c **** *\*\            - FLASH_EOP
 402:n32g430_std_periph_driver/src/n32g430_flash.c **** *\*\            - FLASH_TIMEOUT
 403:n32g430_std_periph_driver/src/n32g430_flash.c **** **/
 404:n32g430_std_periph_driver/src/n32g430_flash.c **** FLASH_STS FLASH_Mass_Erase(void)
 405:n32g430_std_periph_driver/src/n32g430_flash.c **** {
 406:n32g430_std_periph_driver/src/n32g430_flash.c ****     FLASH_STS status_value = FLASH_EOP;
 407:n32g430_std_periph_driver/src/n32g430_flash.c **** 
 408:n32g430_std_periph_driver/src/n32g430_flash.c ****     /* Clears the FLASH's pending flags */
 409:n32g430_std_periph_driver/src/n32g430_flash.c ****     FLASH_Flag_Status_Clear(FLASH_STS_CLRFLAG);
 410:n32g430_std_periph_driver/src/n32g430_flash.c ****     /* Wait for last operation to be completed */
 411:n32g430_std_periph_driver/src/n32g430_flash.c ****     status_value = FLASH_Last_Operation_Wait(ERASE_TIMEOUT);
 412:n32g430_std_periph_driver/src/n32g430_flash.c **** 
 413:n32g430_std_periph_driver/src/n32g430_flash.c ****     if (status_value == FLASH_EOP)
 414:n32g430_std_periph_driver/src/n32g430_flash.c ****     {
ARM GAS  C:\Users\Dawn\AppData\Local\Temp\cc12bvwa.s 			page 18


 415:n32g430_std_periph_driver/src/n32g430_flash.c ****         /* if the previous operation is completed, proceed to erase all pages */
 416:n32g430_std_periph_driver/src/n32g430_flash.c ****         FLASH->CTRL |= FLASH_CTRL_SET_MER;
 417:n32g430_std_periph_driver/src/n32g430_flash.c ****         FLASH->CTRL |= FLASH_CTRL_SET_START;
 418:n32g430_std_periph_driver/src/n32g430_flash.c **** 
 419:n32g430_std_periph_driver/src/n32g430_flash.c ****         /* Wait for last operation to be completed */
 420:n32g430_std_periph_driver/src/n32g430_flash.c ****         status_value = FLASH_Last_Operation_Wait(ERASE_TIMEOUT);
 421:n32g430_std_periph_driver/src/n32g430_flash.c **** 
 422:n32g430_std_periph_driver/src/n32g430_flash.c ****         /* Disable the MER Bit */
 423:n32g430_std_periph_driver/src/n32g430_flash.c ****         FLASH->CTRL &= FLASH_CTRL_RESET_MER;
 424:n32g430_std_periph_driver/src/n32g430_flash.c ****     }
 425:n32g430_std_periph_driver/src/n32g430_flash.c ****     else
 426:n32g430_std_periph_driver/src/n32g430_flash.c ****     {
 427:n32g430_std_periph_driver/src/n32g430_flash.c ****         /*No process*/
 428:n32g430_std_periph_driver/src/n32g430_flash.c ****     }
 429:n32g430_std_periph_driver/src/n32g430_flash.c **** 
 430:n32g430_std_periph_driver/src/n32g430_flash.c ****     /* Return the Erase status_value */
 431:n32g430_std_periph_driver/src/n32g430_flash.c ****     return status_value;
 432:n32g430_std_periph_driver/src/n32g430_flash.c **** }
 433:n32g430_std_periph_driver/src/n32g430_flash.c **** 
 434:n32g430_std_periph_driver/src/n32g430_flash.c **** /**
 435:n32g430_std_periph_driver/src/n32g430_flash.c **** *\*\name   FLASH_Word_Program
 436:n32g430_std_periph_driver/src/n32g430_flash.c **** *\*\fun    Programs a word at a specified address.
 437:n32g430_std_periph_driver/src/n32g430_flash.c **** *\*\note   This function can be used for N32G430 devices.
 438:n32g430_std_periph_driver/src/n32g430_flash.c **** *\*\param  address :
 439:n32g430_std_periph_driver/src/n32g430_flash.c **** *\*\            - It ranges from 0x08000000 to 0x0800FFFF
 440:n32g430_std_periph_driver/src/n32g430_flash.c **** *\*\param  data :
 441:n32g430_std_periph_driver/src/n32g430_flash.c **** *\*\            - It ranges from 0x00000000 to 0xFFFFFFFF
 442:n32g430_std_periph_driver/src/n32g430_flash.c **** *\*\return FLASH_STS : 
 443:n32g430_std_periph_driver/src/n32g430_flash.c **** *\*\            - FLASH_BUSY
 444:n32g430_std_periph_driver/src/n32g430_flash.c **** *\*\            - FLASH_ERR_PG
 445:n32g430_std_periph_driver/src/n32g430_flash.c **** *\*\            - FLASH_ERR_WRP
 446:n32g430_std_periph_driver/src/n32g430_flash.c **** *\*\            - FLASH_EOP
 447:n32g430_std_periph_driver/src/n32g430_flash.c **** *\*\            - FLASH_ERR_ADD
 448:n32g430_std_periph_driver/src/n32g430_flash.c **** *\*\            - FLASH_TIMEOUT
 449:n32g430_std_periph_driver/src/n32g430_flash.c **** **/
 450:n32g430_std_periph_driver/src/n32g430_flash.c **** FLASH_STS FLASH_Word_Program(uint32_t address, uint32_t data)
 451:n32g430_std_periph_driver/src/n32g430_flash.c **** {
 452:n32g430_std_periph_driver/src/n32g430_flash.c ****     FLASH_STS status_value  = FLASH_EOP;
 453:n32g430_std_periph_driver/src/n32g430_flash.c **** 
 454:n32g430_std_periph_driver/src/n32g430_flash.c ****     if((address & FLASH_WORD_LENGTH) != RESET)
 455:n32g430_std_periph_driver/src/n32g430_flash.c ****     {
 456:n32g430_std_periph_driver/src/n32g430_flash.c ****         /* The programming address is not a multiple of 4 */
 457:n32g430_std_periph_driver/src/n32g430_flash.c ****         return FLASH_ERR_ADD;
 458:n32g430_std_periph_driver/src/n32g430_flash.c ****     }
 459:n32g430_std_periph_driver/src/n32g430_flash.c ****     else
 460:n32g430_std_periph_driver/src/n32g430_flash.c ****     {
 461:n32g430_std_periph_driver/src/n32g430_flash.c ****         /*No process*/
 462:n32g430_std_periph_driver/src/n32g430_flash.c ****     }
 463:n32g430_std_periph_driver/src/n32g430_flash.c **** 
 464:n32g430_std_periph_driver/src/n32g430_flash.c ****     /* Clears the FLASH's pending flags */
 465:n32g430_std_periph_driver/src/n32g430_flash.c ****     FLASH_Flag_Status_Clear(FLASH_STS_CLRFLAG);
 466:n32g430_std_periph_driver/src/n32g430_flash.c ****     /* Wait for last operation to be completed */
 467:n32g430_std_periph_driver/src/n32g430_flash.c ****     status_value = FLASH_Last_Operation_Wait(PROGRAM_TIMEOUT);
 468:n32g430_std_periph_driver/src/n32g430_flash.c **** 
 469:n32g430_std_periph_driver/src/n32g430_flash.c ****     if (status_value == FLASH_EOP)
 470:n32g430_std_periph_driver/src/n32g430_flash.c ****     {
 471:n32g430_std_periph_driver/src/n32g430_flash.c ****         /* if the previous operation is completed, proceed to program the new word */
ARM GAS  C:\Users\Dawn\AppData\Local\Temp\cc12bvwa.s 			page 19


 472:n32g430_std_periph_driver/src/n32g430_flash.c ****         FLASH->CTRL |= FLASH_CTRL_SET_PG;
 473:n32g430_std_periph_driver/src/n32g430_flash.c **** 
 474:n32g430_std_periph_driver/src/n32g430_flash.c ****         *(__IO uint32_t*)address = (uint32_t)data;
 475:n32g430_std_periph_driver/src/n32g430_flash.c ****         /* Wait for last operation to be completed */
 476:n32g430_std_periph_driver/src/n32g430_flash.c ****         status_value = FLASH_Last_Operation_Wait(PROGRAM_TIMEOUT);
 477:n32g430_std_periph_driver/src/n32g430_flash.c **** 
 478:n32g430_std_periph_driver/src/n32g430_flash.c ****         /* Disable the PG Bit */
 479:n32g430_std_periph_driver/src/n32g430_flash.c ****         FLASH->CTRL &= FLASH_CTRL_RESET_PG;
 480:n32g430_std_periph_driver/src/n32g430_flash.c ****     }
 481:n32g430_std_periph_driver/src/n32g430_flash.c ****     else
 482:n32g430_std_periph_driver/src/n32g430_flash.c ****     {
 483:n32g430_std_periph_driver/src/n32g430_flash.c ****         /*No process*/
 484:n32g430_std_periph_driver/src/n32g430_flash.c ****     }
 485:n32g430_std_periph_driver/src/n32g430_flash.c **** 
 486:n32g430_std_periph_driver/src/n32g430_flash.c ****     /* Return the Program status_value */
 487:n32g430_std_periph_driver/src/n32g430_flash.c ****     return status_value;
 488:n32g430_std_periph_driver/src/n32g430_flash.c **** }
 489:n32g430_std_periph_driver/src/n32g430_flash.c **** 
 490:n32g430_std_periph_driver/src/n32g430_flash.c **** 
 491:n32g430_std_periph_driver/src/n32g430_flash.c **** /**
 492:n32g430_std_periph_driver/src/n32g430_flash.c **** *\*\name   FLASH_Option_Bytes_Erase
 493:n32g430_std_periph_driver/src/n32g430_flash.c **** *\*\fun    Erases the FLASH option bytes.
 494:n32g430_std_periph_driver/src/n32g430_flash.c **** *\*\note   This functions erases all option bytes except the Read protection (RDP).
 495:n32g430_std_periph_driver/src/n32g430_flash.c **** *\*\       This function can be used for N32G430 devices.
 496:n32g430_std_periph_driver/src/n32g430_flash.c **** *\*\param  none
 497:n32g430_std_periph_driver/src/n32g430_flash.c **** *\*\return FLASH_STS : 
 498:n32g430_std_periph_driver/src/n32g430_flash.c **** *\*\            - FLASH_BUSY
 499:n32g430_std_periph_driver/src/n32g430_flash.c **** *\*\            - FLASH_ERR_PG 
 500:n32g430_std_periph_driver/src/n32g430_flash.c **** *\*\            - FLASH_ERR_WRP
 501:n32g430_std_periph_driver/src/n32g430_flash.c **** *\*\            - FLASH_EOP
 502:n32g430_std_periph_driver/src/n32g430_flash.c **** *\*\            - FLASH_ERR_RDP2
 503:n32g430_std_periph_driver/src/n32g430_flash.c **** *\*\            - FLASH_ERR_ADD
 504:n32g430_std_periph_driver/src/n32g430_flash.c **** *\*\            - FLASH_TIMEOUT
 505:n32g430_std_periph_driver/src/n32g430_flash.c **** **/
 506:n32g430_std_periph_driver/src/n32g430_flash.c **** FLASH_STS FLASH_Option_Bytes_Erase(void)
 507:n32g430_std_periph_driver/src/n32g430_flash.c **** {
 508:n32g430_std_periph_driver/src/n32g430_flash.c ****     FLASH_STS status_value = FLASH_EOP;
 509:n32g430_std_periph_driver/src/n32g430_flash.c **** 
 510:n32g430_std_periph_driver/src/n32g430_flash.c ****     /* Get the actual read protection L2 Option Byte value */
 511:n32g430_std_periph_driver/src/n32g430_flash.c ****     if (FLASH_Read_Out_Protection_L2_Status_Get() != RESET)
 512:n32g430_std_periph_driver/src/n32g430_flash.c ****     {
 513:n32g430_std_periph_driver/src/n32g430_flash.c ****         return FLASH_ERR_RDP2;
 514:n32g430_std_periph_driver/src/n32g430_flash.c ****     }
 515:n32g430_std_periph_driver/src/n32g430_flash.c ****     else
 516:n32g430_std_periph_driver/src/n32g430_flash.c ****     {
 517:n32g430_std_periph_driver/src/n32g430_flash.c ****         /*No process*/
 518:n32g430_std_periph_driver/src/n32g430_flash.c ****     }
 519:n32g430_std_periph_driver/src/n32g430_flash.c **** 
 520:n32g430_std_periph_driver/src/n32g430_flash.c ****     /* Clears the FLASH's pending flags */
 521:n32g430_std_periph_driver/src/n32g430_flash.c ****     FLASH_Flag_Status_Clear(FLASH_STS_CLRFLAG);
 522:n32g430_std_periph_driver/src/n32g430_flash.c ****     /* Wait for last operation to be completed */
 523:n32g430_std_periph_driver/src/n32g430_flash.c ****     status_value = FLASH_Last_Operation_Wait(ERASE_TIMEOUT);
 524:n32g430_std_periph_driver/src/n32g430_flash.c **** 
 525:n32g430_std_periph_driver/src/n32g430_flash.c ****     if (status_value == FLASH_EOP)
 526:n32g430_std_periph_driver/src/n32g430_flash.c ****     {
 527:n32g430_std_periph_driver/src/n32g430_flash.c ****         Option_Bytes_Unlock();
 528:n32g430_std_periph_driver/src/n32g430_flash.c **** 
ARM GAS  C:\Users\Dawn\AppData\Local\Temp\cc12bvwa.s 			page 20


 529:n32g430_std_periph_driver/src/n32g430_flash.c ****         /* if the previous operation is completed, proceed to erase the option bytes */
 530:n32g430_std_periph_driver/src/n32g430_flash.c ****         FLASH->CTRL |= FLASH_CTRL_SET_OPTER;
 531:n32g430_std_periph_driver/src/n32g430_flash.c ****         FLASH->CTRL |= FLASH_CTRL_SET_START;
 532:n32g430_std_periph_driver/src/n32g430_flash.c ****         /* Wait for last operation to be completed */
 533:n32g430_std_periph_driver/src/n32g430_flash.c ****         status_value = FLASH_Last_Operation_Wait(ERASE_TIMEOUT);
 534:n32g430_std_periph_driver/src/n32g430_flash.c **** 
 535:n32g430_std_periph_driver/src/n32g430_flash.c ****         if (status_value == FLASH_EOP)
 536:n32g430_std_periph_driver/src/n32g430_flash.c ****         {
 537:n32g430_std_periph_driver/src/n32g430_flash.c ****             /* Clears the FLASH's pending flags */
 538:n32g430_std_periph_driver/src/n32g430_flash.c ****             FLASH_Flag_Status_Clear(FLASH_STS_CLRFLAG);
 539:n32g430_std_periph_driver/src/n32g430_flash.c **** 
 540:n32g430_std_periph_driver/src/n32g430_flash.c ****             /* if the erase operation is completed, disable the OPTER Bit */
 541:n32g430_std_periph_driver/src/n32g430_flash.c ****             FLASH->CTRL &= FLASH_CTRL_RESET_OPTER;
 542:n32g430_std_periph_driver/src/n32g430_flash.c ****         }
 543:n32g430_std_periph_driver/src/n32g430_flash.c ****         else
 544:n32g430_std_periph_driver/src/n32g430_flash.c ****         {
 545:n32g430_std_periph_driver/src/n32g430_flash.c ****             if (status_value != FLASH_TIMEOUT)
 546:n32g430_std_periph_driver/src/n32g430_flash.c ****             {
 547:n32g430_std_periph_driver/src/n32g430_flash.c ****                 /* Disable the OPTER Bit */
 548:n32g430_std_periph_driver/src/n32g430_flash.c ****                 FLASH->CTRL &= FLASH_CTRL_RESET_OPTER;
 549:n32g430_std_periph_driver/src/n32g430_flash.c ****             }
 550:n32g430_std_periph_driver/src/n32g430_flash.c ****             else
 551:n32g430_std_periph_driver/src/n32g430_flash.c ****             {
 552:n32g430_std_periph_driver/src/n32g430_flash.c ****                 /*No process*/
 553:n32g430_std_periph_driver/src/n32g430_flash.c ****             }
 554:n32g430_std_periph_driver/src/n32g430_flash.c ****         }
 555:n32g430_std_periph_driver/src/n32g430_flash.c ****     }
 556:n32g430_std_periph_driver/src/n32g430_flash.c ****     else
 557:n32g430_std_periph_driver/src/n32g430_flash.c ****     {
 558:n32g430_std_periph_driver/src/n32g430_flash.c ****         /*No process*/
 559:n32g430_std_periph_driver/src/n32g430_flash.c ****     }
 560:n32g430_std_periph_driver/src/n32g430_flash.c ****     /* Return the erase status_value */
 561:n32g430_std_periph_driver/src/n32g430_flash.c ****     return status_value;
 562:n32g430_std_periph_driver/src/n32g430_flash.c **** }
 563:n32g430_std_periph_driver/src/n32g430_flash.c **** 
 564:n32g430_std_periph_driver/src/n32g430_flash.c **** 
 565:n32g430_std_periph_driver/src/n32g430_flash.c **** /**
 566:n32g430_std_periph_driver/src/n32g430_flash.c **** *\*\name   FLASH_Option_Bytes_User_RDP1_Program
 567:n32g430_std_periph_driver/src/n32g430_flash.c **** *\*\fun    Programs the FLASH User Option Byte: IWDG_SW / RST_STOP / RST_STDBY / 
 568:n32g430_std_periph_driver/src/n32g430_flash.c **** *\*\       IWDG_STOP0_FRZ / IWDG_STOP2_FRZ / IWDG_STDBY_FRZ / IWDG_SLEEP_FRZ / RDP1.
 569:n32g430_std_periph_driver/src/n32g430_flash.c **** *\*\note   This function can be used for N32G430 devices.
 570:n32g430_std_periph_driver/src/n32g430_flash.c **** *\*\param  option_byte_rpd1 :
 571:n32g430_std_periph_driver/src/n32g430_flash.c **** *\*\        - FLASH_OB_RDP1_ENABLE
 572:n32g430_std_periph_driver/src/n32g430_flash.c **** *\*\        - FLASH_OB_RDP1_DISABLE
 573:n32g430_std_periph_driver/src/n32g430_flash.c **** *\*\param  option_byte_iwdg :
 574:n32g430_std_periph_driver/src/n32g430_flash.c **** *\*\        - FLASH_OB_IWDG_SW Software IWDG selected
 575:n32g430_std_periph_driver/src/n32g430_flash.c **** *\*\        - FLASH_OB_IWDG_HW Hardware IWDG selected
 576:n32g430_std_periph_driver/src/n32g430_flash.c **** *\*\param  option_byte_stop :
 577:n32g430_std_periph_driver/src/n32g430_flash.c **** *\*\        - FLASH_OB_STOP_NORST No reset generated when entering in STOP
 578:n32g430_std_periph_driver/src/n32g430_flash.c **** *\*\        - FLASH_OB_STOP_RST Reset generated when entering in STOP
 579:n32g430_std_periph_driver/src/n32g430_flash.c **** *\*\param  option_byte_stdby :
 580:n32g430_std_periph_driver/src/n32g430_flash.c **** *\*\        - FLASH_OB_STDBY_NORST No reset generated when entering in STANDBY
 581:n32g430_std_periph_driver/src/n32g430_flash.c **** *\*\        - FLASH_OB_STDBY_RST Reset generated when entering in STANDBY
 582:n32g430_std_periph_driver/src/n32g430_flash.c **** *\*\param  option_byte_iwdg_stop0 :
 583:n32g430_std_periph_driver/src/n32g430_flash.c **** *\*\        - FLASH_OB_IWDG_STOP0_FRZ IWDG freeze in stop0
 584:n32g430_std_periph_driver/src/n32g430_flash.c **** *\*\        - FLASH_OB_IWDG_STOP0_NOFRZ Default no freeze
 585:n32g430_std_periph_driver/src/n32g430_flash.c **** *\*\param  option_byte_iwdg_stop2 :
ARM GAS  C:\Users\Dawn\AppData\Local\Temp\cc12bvwa.s 			page 21


 586:n32g430_std_periph_driver/src/n32g430_flash.c **** *\*\        - FLASH_OB_IWDG_STOP2_FRZ IWDG freeze in stop2
 587:n32g430_std_periph_driver/src/n32g430_flash.c **** *\*\        - FLASH_OB_IWDG_STOP2_NOFRZ Default no freeze
 588:n32g430_std_periph_driver/src/n32g430_flash.c **** *\*\param  option_byte_iwdg_stdby :
 589:n32g430_std_periph_driver/src/n32g430_flash.c **** *\*\        - FLASH_OB_IWDG_STDBY_FRZ IWDG freeze in standby
 590:n32g430_std_periph_driver/src/n32g430_flash.c **** *\*\        - FLASH_OB_IWDG_STDBY_NOFRZ Default no freeze
 591:n32g430_std_periph_driver/src/n32g430_flash.c **** *\*\param  option_byte_iwdg_sleep :
 592:n32g430_std_periph_driver/src/n32g430_flash.c **** *\*\        - FLASH_OB_IWDG_SLEEP_FRZ IWDG freeze in sleep
 593:n32g430_std_periph_driver/src/n32g430_flash.c **** *\*\        - FLASH_OB_IWDG_SLEEP_NOFRZ Default no freeze
 594:n32g430_std_periph_driver/src/n32g430_flash.c **** *\*\return FLASH_STS : 
 595:n32g430_std_periph_driver/src/n32g430_flash.c **** *\*\        - FLASH_BUSY
 596:n32g430_std_periph_driver/src/n32g430_flash.c **** *\*\        - FLASH_ERR_PG 
 597:n32g430_std_periph_driver/src/n32g430_flash.c **** *\*\        - FLASH_ERR_WRP
 598:n32g430_std_periph_driver/src/n32g430_flash.c **** *\*\        - FLASH_EOP
 599:n32g430_std_periph_driver/src/n32g430_flash.c **** *\*\        - FLASH_ERR_RDP2
 600:n32g430_std_periph_driver/src/n32g430_flash.c **** *\*\        - FLASH_TIMEOUT
 601:n32g430_std_periph_driver/src/n32g430_flash.c **** **/
 602:n32g430_std_periph_driver/src/n32g430_flash.c **** FLASH_STS FLASH_Option_Bytes_User_RDP1_Program(uint8_t option_byte_rpd1, uint16_t option_byte_iwdg,
 603:n32g430_std_periph_driver/src/n32g430_flash.c ****                                                uint16_t option_byte_stop, uint16_t option_byte_stdb
 604:n32g430_std_periph_driver/src/n32g430_flash.c ****                                                uint16_t option_byte_iwdg_stop0, uint16_t option_byt
 605:n32g430_std_periph_driver/src/n32g430_flash.c ****                                                uint16_t option_byte_iwdg_stdby, uint16_t option_byt
 606:n32g430_std_periph_driver/src/n32g430_flash.c **** {
 607:n32g430_std_periph_driver/src/n32g430_flash.c ****     FLASH_STS status_value = FLASH_EOP;
 608:n32g430_std_periph_driver/src/n32g430_flash.c **** 
 609:n32g430_std_periph_driver/src/n32g430_flash.c ****     /* Get the actual read protection L2 Option Byte value */
 610:n32g430_std_periph_driver/src/n32g430_flash.c ****     if (FLASH_Read_Out_Protection_L2_Status_Get() != RESET)
 611:n32g430_std_periph_driver/src/n32g430_flash.c ****     {
 612:n32g430_std_periph_driver/src/n32g430_flash.c ****         return FLASH_ERR_RDP2;
 613:n32g430_std_periph_driver/src/n32g430_flash.c ****     }
 614:n32g430_std_periph_driver/src/n32g430_flash.c ****     else
 615:n32g430_std_periph_driver/src/n32g430_flash.c ****     {
 616:n32g430_std_periph_driver/src/n32g430_flash.c ****         /*No process*/
 617:n32g430_std_periph_driver/src/n32g430_flash.c ****     }
 618:n32g430_std_periph_driver/src/n32g430_flash.c **** 
 619:n32g430_std_periph_driver/src/n32g430_flash.c ****     Option_Bytes_Unlock();
 620:n32g430_std_periph_driver/src/n32g430_flash.c **** 
 621:n32g430_std_periph_driver/src/n32g430_flash.c ****     /* Clears the FLASH's pending flags */
 622:n32g430_std_periph_driver/src/n32g430_flash.c ****     FLASH_Flag_Status_Clear(FLASH_STS_CLRFLAG);
 623:n32g430_std_periph_driver/src/n32g430_flash.c ****     /* Wait for last operation to be completed */
 624:n32g430_std_periph_driver/src/n32g430_flash.c ****     status_value = FLASH_Last_Operation_Wait(ERASE_TIMEOUT);
 625:n32g430_std_periph_driver/src/n32g430_flash.c **** 
 626:n32g430_std_periph_driver/src/n32g430_flash.c ****     if (status_value == FLASH_EOP)
 627:n32g430_std_periph_driver/src/n32g430_flash.c ****     {
 628:n32g430_std_periph_driver/src/n32g430_flash.c ****         /* Enable the Option Bytes Programming operation */
 629:n32g430_std_periph_driver/src/n32g430_flash.c ****         FLASH->CTRL |= FLASH_CTRL_SET_OPTPG;
 630:n32g430_std_periph_driver/src/n32g430_flash.c ****         /* Restore the last read protection Option Byte value */
 631:n32g430_std_periph_driver/src/n32g430_flash.c ****         OBT->USER_RDP =
 632:n32g430_std_periph_driver/src/n32g430_flash.c ****             (uint32_t)option_byte_rpd1
 633:n32g430_std_periph_driver/src/n32g430_flash.c ****             | (((uint32_t)(option_byte_iwdg | option_byte_stop | option_byte_stdby | option_byte_iw
 634:n32g430_std_periph_driver/src/n32g430_flash.c ****             | option_byte_iwdg_stop2 | option_byte_iwdg_stdby | option_byte_iwdg_sleep)) << FLASH_U
 635:n32g430_std_periph_driver/src/n32g430_flash.c ****         
 636:n32g430_std_periph_driver/src/n32g430_flash.c ****         /* Wait for last operation to be completed */
 637:n32g430_std_periph_driver/src/n32g430_flash.c ****         status_value = FLASH_Last_Operation_Wait(PROGRAM_TIMEOUT);
 638:n32g430_std_periph_driver/src/n32g430_flash.c ****         if (status_value != FLASH_TIMEOUT)
 639:n32g430_std_periph_driver/src/n32g430_flash.c ****         {
 640:n32g430_std_periph_driver/src/n32g430_flash.c ****             /* if the program operation is completed, disable the OPTPG Bit */
 641:n32g430_std_periph_driver/src/n32g430_flash.c ****             FLASH->CTRL &= FLASH_CTRL_RESET_OPTPG;
 642:n32g430_std_periph_driver/src/n32g430_flash.c ****         }
ARM GAS  C:\Users\Dawn\AppData\Local\Temp\cc12bvwa.s 			page 22


 643:n32g430_std_periph_driver/src/n32g430_flash.c ****         else
 644:n32g430_std_periph_driver/src/n32g430_flash.c ****         {
 645:n32g430_std_periph_driver/src/n32g430_flash.c ****             /*No process*/
 646:n32g430_std_periph_driver/src/n32g430_flash.c ****         }
 647:n32g430_std_periph_driver/src/n32g430_flash.c ****     }
 648:n32g430_std_periph_driver/src/n32g430_flash.c ****     else
 649:n32g430_std_periph_driver/src/n32g430_flash.c ****     {
 650:n32g430_std_periph_driver/src/n32g430_flash.c ****         /*No process*/
 651:n32g430_std_periph_driver/src/n32g430_flash.c ****     }
 652:n32g430_std_periph_driver/src/n32g430_flash.c **** 
 653:n32g430_std_periph_driver/src/n32g430_flash.c ****     /* Return the Option Byte program status_value */
 654:n32g430_std_periph_driver/src/n32g430_flash.c ****     return status_value;
 655:n32g430_std_periph_driver/src/n32g430_flash.c **** }
 656:n32g430_std_periph_driver/src/n32g430_flash.c **** 
 657:n32g430_std_periph_driver/src/n32g430_flash.c **** 
 658:n32g430_std_periph_driver/src/n32g430_flash.c **** /**
 659:n32g430_std_periph_driver/src/n32g430_flash.c **** *\*\name   FLASH_Option_Bytes_DATA_Program
 660:n32g430_std_periph_driver/src/n32g430_flash.c **** *\*\fun    Programs a half word at a specified Option Byte Data0 and Data1.
 661:n32g430_std_periph_driver/src/n32g430_flash.c **** *\*\note   This function can be used for N32G430 devices.
 662:n32g430_std_periph_driver/src/n32g430_flash.c **** *\*\param  option_byte_data0:
 663:n32g430_std_periph_driver/src/n32g430_flash.c **** *\*\                - 0x00 to 0xFF
 664:n32g430_std_periph_driver/src/n32g430_flash.c **** *\*\param  option_byte_data1:
 665:n32g430_std_periph_driver/src/n32g430_flash.c **** *\*\                - 0x00 to 0xFF
 666:n32g430_std_periph_driver/src/n32g430_flash.c **** *\*\return FLASH_STS: The returned value can be: 
 667:n32g430_std_periph_driver/src/n32g430_flash.c **** *\*\                - FLASH_BUSY
 668:n32g430_std_periph_driver/src/n32g430_flash.c **** *\*\                - FLASH_ERR_PG
 669:n32g430_std_periph_driver/src/n32g430_flash.c **** *\*\                - FLASH_ERR_WRP
 670:n32g430_std_periph_driver/src/n32g430_flash.c **** *\*\                - FLASH_EOP
 671:n32g430_std_periph_driver/src/n32g430_flash.c **** *\*\                - FLASH_ERR_RDP2
 672:n32g430_std_periph_driver/src/n32g430_flash.c **** *\*\                - FLASH_TIMEOUT
 673:n32g430_std_periph_driver/src/n32g430_flash.c **** **/
 674:n32g430_std_periph_driver/src/n32g430_flash.c **** FLASH_STS FLASH_Option_Bytes_DATA_Program(uint8_t option_byte_data0,uint8_t option_byte_data1)
 675:n32g430_std_periph_driver/src/n32g430_flash.c **** {
 676:n32g430_std_periph_driver/src/n32g430_flash.c ****     FLASH_STS status_value = FLASH_EOP;
 677:n32g430_std_periph_driver/src/n32g430_flash.c ****  
 678:n32g430_std_periph_driver/src/n32g430_flash.c ****     /* Clears the FLASH's pending flags */
 679:n32g430_std_periph_driver/src/n32g430_flash.c ****     FLASH_Flag_Status_Clear(FLASH_STS_CLRFLAG);
 680:n32g430_std_periph_driver/src/n32g430_flash.c ****     /* Wait for last operation to be completed */
 681:n32g430_std_periph_driver/src/n32g430_flash.c ****     status_value = FLASH_Last_Operation_Wait(PROGRAM_TIMEOUT);
 682:n32g430_std_periph_driver/src/n32g430_flash.c **** 
 683:n32g430_std_periph_driver/src/n32g430_flash.c ****     /* Get the actual read protection L2 Option Byte value */
 684:n32g430_std_periph_driver/src/n32g430_flash.c ****     if (FLASH_Read_Out_Protection_L2_Status_Get() != RESET)
 685:n32g430_std_periph_driver/src/n32g430_flash.c ****     {
 686:n32g430_std_periph_driver/src/n32g430_flash.c ****         return FLASH_ERR_RDP2;
 687:n32g430_std_periph_driver/src/n32g430_flash.c ****     }
 688:n32g430_std_periph_driver/src/n32g430_flash.c ****     else
 689:n32g430_std_periph_driver/src/n32g430_flash.c ****     {
 690:n32g430_std_periph_driver/src/n32g430_flash.c ****         /*No process*/
 691:n32g430_std_periph_driver/src/n32g430_flash.c ****     }
 692:n32g430_std_periph_driver/src/n32g430_flash.c **** 
 693:n32g430_std_periph_driver/src/n32g430_flash.c ****     if (status_value == FLASH_EOP)
 694:n32g430_std_periph_driver/src/n32g430_flash.c ****     {
 695:n32g430_std_periph_driver/src/n32g430_flash.c ****         Option_Bytes_Unlock();
 696:n32g430_std_periph_driver/src/n32g430_flash.c ****         /* Enables the Option Bytes Programming operation */
 697:n32g430_std_periph_driver/src/n32g430_flash.c ****         FLASH->CTRL |= FLASH_CTRL_SET_OPTPG;
 698:n32g430_std_periph_driver/src/n32g430_flash.c ****         OBT->Data1_Data0 = (((uint32_t)option_byte_data1) << FLASH_DATA0_DATA1_OFFSET) \
 699:n32g430_std_periph_driver/src/n32g430_flash.c ****                           | ((uint32_t)option_byte_data0);
ARM GAS  C:\Users\Dawn\AppData\Local\Temp\cc12bvwa.s 			page 23


 700:n32g430_std_periph_driver/src/n32g430_flash.c **** 
 701:n32g430_std_periph_driver/src/n32g430_flash.c ****         /* Wait for last operation to be completed */
 702:n32g430_std_periph_driver/src/n32g430_flash.c ****         status_value = FLASH_Last_Operation_Wait(PROGRAM_TIMEOUT);
 703:n32g430_std_periph_driver/src/n32g430_flash.c ****         if (status_value != FLASH_TIMEOUT)
 704:n32g430_std_periph_driver/src/n32g430_flash.c ****         {
 705:n32g430_std_periph_driver/src/n32g430_flash.c ****             /* if the program operation is completed, disable the OPTPG Bit */
 706:n32g430_std_periph_driver/src/n32g430_flash.c ****             FLASH->CTRL &= FLASH_CTRL_RESET_OPTPG;
 707:n32g430_std_periph_driver/src/n32g430_flash.c ****         }
 708:n32g430_std_periph_driver/src/n32g430_flash.c ****         else
 709:n32g430_std_periph_driver/src/n32g430_flash.c ****         {
 710:n32g430_std_periph_driver/src/n32g430_flash.c ****             /*No process*/
 711:n32g430_std_periph_driver/src/n32g430_flash.c ****         }
 712:n32g430_std_periph_driver/src/n32g430_flash.c ****     }
 713:n32g430_std_periph_driver/src/n32g430_flash.c ****     else
 714:n32g430_std_periph_driver/src/n32g430_flash.c ****     {
 715:n32g430_std_periph_driver/src/n32g430_flash.c ****         /*No process*/
 716:n32g430_std_periph_driver/src/n32g430_flash.c ****     }
 717:n32g430_std_periph_driver/src/n32g430_flash.c ****     /* Return the Option Byte Data Program status_value */
 718:n32g430_std_periph_driver/src/n32g430_flash.c ****     return status_value;
 719:n32g430_std_periph_driver/src/n32g430_flash.c **** }
 720:n32g430_std_periph_driver/src/n32g430_flash.c **** 
 721:n32g430_std_periph_driver/src/n32g430_flash.c **** /**
 722:n32g430_std_periph_driver/src/n32g430_flash.c **** *\*\name   FLASH_Write_Protection_Enable
 723:n32g430_std_periph_driver/src/n32g430_flash.c **** *\*\fun    Write protects the desired pages
 724:n32g430_std_periph_driver/src/n32g430_flash.c **** *\*\note   This function can be used for N32G430 devices.
 725:n32g430_std_periph_driver/src/n32g430_flash.c **** *\*\param  flash_pages :
 726:n32g430_std_periph_driver/src/n32g430_flash.c **** *\*\        - FLASH_WRP_Pages0to1
 727:n32g430_std_periph_driver/src/n32g430_flash.c **** *\*\        - FLASH_WRP_Pages2to3
 728:n32g430_std_periph_driver/src/n32g430_flash.c **** *\*\        - FLASH_WRP_Pages4to5
 729:n32g430_std_periph_driver/src/n32g430_flash.c **** *\*\        - FLASH_WRP_Pages6to7
 730:n32g430_std_periph_driver/src/n32g430_flash.c **** *\*\        - FLASH_WRP_Pages8to9
 731:n32g430_std_periph_driver/src/n32g430_flash.c **** *\*\        - FLASH_WRP_Pages10to11
 732:n32g430_std_periph_driver/src/n32g430_flash.c **** *\*\        - FLASH_WRP_Pages12to13
 733:n32g430_std_periph_driver/src/n32g430_flash.c **** *\*\        - FLASH_WRP_Pages14to15
 734:n32g430_std_periph_driver/src/n32g430_flash.c **** *\*\        - FLASH_WRP_Pages16to17
 735:n32g430_std_periph_driver/src/n32g430_flash.c **** *\*\        - FLASH_WRP_Pages18to19
 736:n32g430_std_periph_driver/src/n32g430_flash.c **** *\*\        - FLASH_WRP_Pages20to21
 737:n32g430_std_periph_driver/src/n32g430_flash.c **** *\*\        - FLASH_WRP_Pages22to23
 738:n32g430_std_periph_driver/src/n32g430_flash.c **** *\*\        - FLASH_WRP_Pages24to25
 739:n32g430_std_periph_driver/src/n32g430_flash.c **** *\*\        - FLASH_WRP_Pages26to27
 740:n32g430_std_periph_driver/src/n32g430_flash.c **** *\*\        - FLASH_WRP_Pages28to29
 741:n32g430_std_periph_driver/src/n32g430_flash.c **** *\*\        - FLASH_WRP_Pages30to31
 742:n32g430_std_periph_driver/src/n32g430_flash.c **** *\*\        - FLASH_WRP_AllPages
 743:n32g430_std_periph_driver/src/n32g430_flash.c **** *\*\return FLASH_STS : 
 744:n32g430_std_periph_driver/src/n32g430_flash.c **** *\*\        - FLASH_BUSY
 745:n32g430_std_periph_driver/src/n32g430_flash.c **** *\*\        - FLASH_ERR_PG 
 746:n32g430_std_periph_driver/src/n32g430_flash.c **** *\*\        - FLASH_ERR_WRP
 747:n32g430_std_periph_driver/src/n32g430_flash.c **** *\*\        - FLASH_EOP
 748:n32g430_std_periph_driver/src/n32g430_flash.c **** *\*\        - FLASH_ERR_RDP2
 749:n32g430_std_periph_driver/src/n32g430_flash.c **** *\*\        - FLASH_TIMEOUT
 750:n32g430_std_periph_driver/src/n32g430_flash.c **** **/
 751:n32g430_std_periph_driver/src/n32g430_flash.c **** FLASH_STS FLASH_Write_Protection_Enable(uint32_t flash_pages)
 752:n32g430_std_periph_driver/src/n32g430_flash.c **** {
 753:n32g430_std_periph_driver/src/n32g430_flash.c ****     uint16_t WRP0_Data = 0xFFFF, WRP1_Data = 0xFFFF;
 754:n32g430_std_periph_driver/src/n32g430_flash.c **** 
 755:n32g430_std_periph_driver/src/n32g430_flash.c ****     FLASH_STS status_value = FLASH_EOP;
 756:n32g430_std_periph_driver/src/n32g430_flash.c **** 
ARM GAS  C:\Users\Dawn\AppData\Local\Temp\cc12bvwa.s 			page 24


 757:n32g430_std_periph_driver/src/n32g430_flash.c ****     /* Get the actual read protection L2 Option Byte value */
 758:n32g430_std_periph_driver/src/n32g430_flash.c ****     if (FLASH_Read_Out_Protection_L2_Status_Get() != RESET)
 759:n32g430_std_periph_driver/src/n32g430_flash.c ****     {
 760:n32g430_std_periph_driver/src/n32g430_flash.c ****         return FLASH_ERR_RDP2;
 761:n32g430_std_periph_driver/src/n32g430_flash.c ****     }
 762:n32g430_std_periph_driver/src/n32g430_flash.c ****     else
 763:n32g430_std_periph_driver/src/n32g430_flash.c ****     {
 764:n32g430_std_periph_driver/src/n32g430_flash.c ****         /*No process*/
 765:n32g430_std_periph_driver/src/n32g430_flash.c ****     }
 766:n32g430_std_periph_driver/src/n32g430_flash.c **** 
 767:n32g430_std_periph_driver/src/n32g430_flash.c ****     flash_pages = (uint32_t)(~flash_pages);
 768:n32g430_std_periph_driver/src/n32g430_flash.c ****     WRP0_Data   = (uint16_t)( flash_pages & FLASH_WRP0_MSK);
 769:n32g430_std_periph_driver/src/n32g430_flash.c ****     WRP1_Data   = (uint16_t)((flash_pages & FLASH_WRP1_MSK) >> FLASH_WRP_WRP1_OFFSET);
 770:n32g430_std_periph_driver/src/n32g430_flash.c **** 
 771:n32g430_std_periph_driver/src/n32g430_flash.c ****     /* Clears the FLASH's pending flags */
 772:n32g430_std_periph_driver/src/n32g430_flash.c ****     FLASH_Flag_Status_Clear(FLASH_STS_CLRFLAG);
 773:n32g430_std_periph_driver/src/n32g430_flash.c ****     /* Wait for last operation to be completed */
 774:n32g430_std_periph_driver/src/n32g430_flash.c ****     status_value = FLASH_Last_Operation_Wait(PROGRAM_TIMEOUT);
 775:n32g430_std_periph_driver/src/n32g430_flash.c **** 
 776:n32g430_std_periph_driver/src/n32g430_flash.c ****     if (status_value == FLASH_EOP)
 777:n32g430_std_periph_driver/src/n32g430_flash.c ****     {
 778:n32g430_std_periph_driver/src/n32g430_flash.c ****         Option_Bytes_Unlock();
 779:n32g430_std_periph_driver/src/n32g430_flash.c ****         FLASH->CTRL |= FLASH_CTRL_SET_OPTPG;
 780:n32g430_std_periph_driver/src/n32g430_flash.c **** 
 781:n32g430_std_periph_driver/src/n32g430_flash.c ****         if ((WRP0_Data != 0xFF) || (WRP1_Data != 0xFF))
 782:n32g430_std_periph_driver/src/n32g430_flash.c ****         {
 783:n32g430_std_periph_driver/src/n32g430_flash.c ****             OBT->WRP1_WRP0 = (((uint32_t)WRP0_Data) | (((uint32_t)WRP1_Data) << FLASH_WRP1_DATA_OFF
 784:n32g430_std_periph_driver/src/n32g430_flash.c **** 
 785:n32g430_std_periph_driver/src/n32g430_flash.c ****             /* Wait for last operation to be completed */
 786:n32g430_std_periph_driver/src/n32g430_flash.c ****             status_value = FLASH_Last_Operation_Wait(PROGRAM_TIMEOUT);
 787:n32g430_std_periph_driver/src/n32g430_flash.c ****         }
 788:n32g430_std_periph_driver/src/n32g430_flash.c ****         else
 789:n32g430_std_periph_driver/src/n32g430_flash.c ****         {
 790:n32g430_std_periph_driver/src/n32g430_flash.c ****             /*No process*/
 791:n32g430_std_periph_driver/src/n32g430_flash.c ****         }
 792:n32g430_std_periph_driver/src/n32g430_flash.c **** 
 793:n32g430_std_periph_driver/src/n32g430_flash.c ****         if (status_value != FLASH_TIMEOUT)
 794:n32g430_std_periph_driver/src/n32g430_flash.c ****         {
 795:n32g430_std_periph_driver/src/n32g430_flash.c ****             /* if the program operation is completed, disable the OPTPG Bit */
 796:n32g430_std_periph_driver/src/n32g430_flash.c ****             FLASH->CTRL &= FLASH_CTRL_RESET_OPTPG;
 797:n32g430_std_periph_driver/src/n32g430_flash.c ****         }
 798:n32g430_std_periph_driver/src/n32g430_flash.c ****         else
 799:n32g430_std_periph_driver/src/n32g430_flash.c ****         {
 800:n32g430_std_periph_driver/src/n32g430_flash.c ****             /*No process*/
 801:n32g430_std_periph_driver/src/n32g430_flash.c ****         }
 802:n32g430_std_periph_driver/src/n32g430_flash.c ****     }
 803:n32g430_std_periph_driver/src/n32g430_flash.c ****     else
 804:n32g430_std_periph_driver/src/n32g430_flash.c ****     {
 805:n32g430_std_periph_driver/src/n32g430_flash.c ****         /*No process*/
 806:n32g430_std_periph_driver/src/n32g430_flash.c ****     }
 807:n32g430_std_periph_driver/src/n32g430_flash.c ****     /* Return the write protection operation status_value */
 808:n32g430_std_periph_driver/src/n32g430_flash.c ****     return status_value;
 809:n32g430_std_periph_driver/src/n32g430_flash.c **** }
 810:n32g430_std_periph_driver/src/n32g430_flash.c **** 
 811:n32g430_std_periph_driver/src/n32g430_flash.c **** 
 812:n32g430_std_periph_driver/src/n32g430_flash.c **** /**
 813:n32g430_std_periph_driver/src/n32g430_flash.c **** *\*\name    FLASH_Option_Bytes_User2_RDP2_Program
ARM GAS  C:\Users\Dawn\AppData\Local\Temp\cc12bvwa.s 			page 25


 814:n32g430_std_periph_driver/src/n32g430_flash.c **** *\*\fun     Programs the FLASH User2_RDP2 Option Byte: nBOOT0 / nBOOT1 / nSWBOOT0 / RDP2 .
 815:n32g430_std_periph_driver/src/n32g430_flash.c **** *\*\note    This function can be used for N32G430 devices.
 816:n32g430_std_periph_driver/src/n32g430_flash.c **** *\*\param  option_byte_rpd2 :
 817:n32g430_std_periph_driver/src/n32g430_flash.c **** *\*\            - FLASH_OB_RDP2_ENABLE
 818:n32g430_std_periph_driver/src/n32g430_flash.c **** *\*\            - FLASH_OB_RDP2_DISABLE
 819:n32g430_std_periph_driver/src/n32g430_flash.c **** *\*\param   option_byte2_nBOOT0 :
 820:n32g430_std_periph_driver/src/n32g430_flash.c **** *\*\            - FLASH_OB2_NBOOT0_SET Set nBOOT0
 821:n32g430_std_periph_driver/src/n32g430_flash.c **** *\*\            - FLASH_OB2_NBOOT0_CLR Clear nBOOT0
 822:n32g430_std_periph_driver/src/n32g430_flash.c **** *\*\param   option_byte2_nBOOT1 :
 823:n32g430_std_periph_driver/src/n32g430_flash.c **** *\*\            - FLASH_OB2_NBOOT1_SET Set nBOOT1
 824:n32g430_std_periph_driver/src/n32g430_flash.c **** *\*\            - FLASH_OB2_NBOOT1_CLR Clear nBOOT1
 825:n32g430_std_periph_driver/src/n32g430_flash.c **** *\*\param   option_byte2_nSWBOOT0 :
 826:n32g430_std_periph_driver/src/n32g430_flash.c **** *\*\            - FLASH_OB2_NSWBOOT0_SET Set nSWBOOT0
 827:n32g430_std_periph_driver/src/n32g430_flash.c **** *\*\            - FLASH_OB2_NSWBOOT0_CLR Clear nSWBOOT0
 828:n32g430_std_periph_driver/src/n32g430_flash.c **** *\*\return  FLASH_STS : 
 829:n32g430_std_periph_driver/src/n32g430_flash.c **** *\*\            - FLASH_BUSY
 830:n32g430_std_periph_driver/src/n32g430_flash.c **** *\*\            - FLASH_ERR_PG 
 831:n32g430_std_periph_driver/src/n32g430_flash.c **** *\*\            - FLASH_ERR_WRP
 832:n32g430_std_periph_driver/src/n32g430_flash.c **** *\*\            - FLASH_EOP
 833:n32g430_std_periph_driver/src/n32g430_flash.c **** *\*\            - FLASH_ERR_RDP2
 834:n32g430_std_periph_driver/src/n32g430_flash.c **** *\*\            - FLASH_TIMEOUT
 835:n32g430_std_periph_driver/src/n32g430_flash.c **** **/
 836:n32g430_std_periph_driver/src/n32g430_flash.c **** FLASH_STS FLASH_Option_Bytes_User2_RDP2_Program(uint8_t option_byte_rpd2,uint8_t option_byte2_nBOOT
 837:n32g430_std_periph_driver/src/n32g430_flash.c ****                                                 uint8_t option_byte2_nBOOT1, uint8_t option_byte2_n
 838:n32g430_std_periph_driver/src/n32g430_flash.c **** {
 839:n32g430_std_periph_driver/src/n32g430_flash.c ****     FLASH_STS status_value = FLASH_EOP;
 840:n32g430_std_periph_driver/src/n32g430_flash.c **** 
 841:n32g430_std_periph_driver/src/n32g430_flash.c ****     /* Get the actual read protection L2 Option Byte value */
 842:n32g430_std_periph_driver/src/n32g430_flash.c ****     if (FLASH_Read_Out_Protection_L2_Status_Get() != RESET)
 843:n32g430_std_periph_driver/src/n32g430_flash.c ****     {
 844:n32g430_std_periph_driver/src/n32g430_flash.c ****         return FLASH_ERR_RDP2;
 845:n32g430_std_periph_driver/src/n32g430_flash.c ****     }
 846:n32g430_std_periph_driver/src/n32g430_flash.c ****     else
 847:n32g430_std_periph_driver/src/n32g430_flash.c ****     {
 848:n32g430_std_periph_driver/src/n32g430_flash.c ****         /*No process*/
 849:n32g430_std_periph_driver/src/n32g430_flash.c ****     }
 850:n32g430_std_periph_driver/src/n32g430_flash.c **** 
 851:n32g430_std_periph_driver/src/n32g430_flash.c ****     Option_Bytes_Unlock();
 852:n32g430_std_periph_driver/src/n32g430_flash.c **** 
 853:n32g430_std_periph_driver/src/n32g430_flash.c ****     /* Clears the FLASH's pending flags */
 854:n32g430_std_periph_driver/src/n32g430_flash.c ****     FLASH_Flag_Status_Clear(FLASH_STS_CLRFLAG);
 855:n32g430_std_periph_driver/src/n32g430_flash.c ****     /* Wait for last operation to be completed */
 856:n32g430_std_periph_driver/src/n32g430_flash.c ****     status_value = FLASH_Last_Operation_Wait(ERASE_TIMEOUT);
 857:n32g430_std_periph_driver/src/n32g430_flash.c **** 
 858:n32g430_std_periph_driver/src/n32g430_flash.c ****     if (status_value == FLASH_EOP)
 859:n32g430_std_periph_driver/src/n32g430_flash.c ****     {
 860:n32g430_std_periph_driver/src/n32g430_flash.c ****         /* Enable the Option Bytes Programming operation */
 861:n32g430_std_periph_driver/src/n32g430_flash.c ****         FLASH->CTRL |= FLASH_CTRL_SET_OPTPG;
 862:n32g430_std_periph_driver/src/n32g430_flash.c ****         /* Restore the last read protection Option Byte value */
 863:n32g430_std_periph_driver/src/n32g430_flash.c ****         OBT->USER2_RDP2 = (((uint32_t)option_byte_rpd2) | \
 864:n32g430_std_periph_driver/src/n32g430_flash.c ****         (((uint32_t)(option_byte2_nBOOT0 | option_byte2_nBOOT1 | option_byte2_nSWBOOT0)) << FLASH_O
 865:n32g430_std_periph_driver/src/n32g430_flash.c ****         
 866:n32g430_std_periph_driver/src/n32g430_flash.c ****         /* Wait for last operation to be completed */
 867:n32g430_std_periph_driver/src/n32g430_flash.c ****         status_value = FLASH_Last_Operation_Wait(PROGRAM_TIMEOUT);
 868:n32g430_std_periph_driver/src/n32g430_flash.c ****         if (status_value != FLASH_TIMEOUT)
 869:n32g430_std_periph_driver/src/n32g430_flash.c ****         {
 870:n32g430_std_periph_driver/src/n32g430_flash.c ****             /* If the program operation is completed, disable the OPTPG Bit */
ARM GAS  C:\Users\Dawn\AppData\Local\Temp\cc12bvwa.s 			page 26


 871:n32g430_std_periph_driver/src/n32g430_flash.c ****             FLASH->CTRL &= FLASH_CTRL_RESET_OPTPG;
 872:n32g430_std_periph_driver/src/n32g430_flash.c ****         }
 873:n32g430_std_periph_driver/src/n32g430_flash.c ****         else
 874:n32g430_std_periph_driver/src/n32g430_flash.c ****         {
 875:n32g430_std_periph_driver/src/n32g430_flash.c ****             /*No process*/
 876:n32g430_std_periph_driver/src/n32g430_flash.c ****         }
 877:n32g430_std_periph_driver/src/n32g430_flash.c ****     }
 878:n32g430_std_periph_driver/src/n32g430_flash.c ****     else
 879:n32g430_std_periph_driver/src/n32g430_flash.c ****     {
 880:n32g430_std_periph_driver/src/n32g430_flash.c ****         /*No process*/
 881:n32g430_std_periph_driver/src/n32g430_flash.c ****     }
 882:n32g430_std_periph_driver/src/n32g430_flash.c **** 
 883:n32g430_std_periph_driver/src/n32g430_flash.c ****     /* Return the Option Byte program status_value */
 884:n32g430_std_periph_driver/src/n32g430_flash.c ****     return status_value;
 885:n32g430_std_periph_driver/src/n32g430_flash.c **** }
 886:n32g430_std_periph_driver/src/n32g430_flash.c **** 
 887:n32g430_std_periph_driver/src/n32g430_flash.c **** /**
 888:n32g430_std_periph_driver/src/n32g430_flash.c **** *\*\name   FLASH_Read_Out_Protection_L1_Enable
 889:n32g430_std_periph_driver/src/n32g430_flash.c **** *\*\fun    Enables the read out protection L1.
 890:n32g430_std_periph_driver/src/n32g430_flash.c **** *\*\note   If the user has already programmed the other option bytes before calling
 891:n32g430_std_periph_driver/src/n32g430_flash.c **** *\*\       this function, he must re-program them since this function erases all option bytes.
 892:n32g430_std_periph_driver/src/n32g430_flash.c **** *\*\       This function can be used for N32G430 devices.
 893:n32g430_std_periph_driver/src/n32g430_flash.c **** *\*\param  none
 894:n32g430_std_periph_driver/src/n32g430_flash.c **** *\*\return FLASH_STS : 
 895:n32g430_std_periph_driver/src/n32g430_flash.c **** *\*\        - FLASH_BUSY
 896:n32g430_std_periph_driver/src/n32g430_flash.c **** *\*\        - FLASH_ERR_PG
 897:n32g430_std_periph_driver/src/n32g430_flash.c **** *\*\        - FLASH_ERR_WRP
 898:n32g430_std_periph_driver/src/n32g430_flash.c **** *\*\        - FLASH_EOP
 899:n32g430_std_periph_driver/src/n32g430_flash.c **** *\*\        - FLASH_ERR_RDP2
 900:n32g430_std_periph_driver/src/n32g430_flash.c **** *\*\        - FLASH_TIMEOUT
 901:n32g430_std_periph_driver/src/n32g430_flash.c **** **/
 902:n32g430_std_periph_driver/src/n32g430_flash.c **** FLASH_STS FLASH_Read_Out_Protection_L1_Enable(void)
 903:n32g430_std_periph_driver/src/n32g430_flash.c **** {
 904:n32g430_std_periph_driver/src/n32g430_flash.c ****     uint32_t user_temp;
 905:n32g430_std_periph_driver/src/n32g430_flash.c ****     FLASH_STS status_value = FLASH_EOP;
 906:n32g430_std_periph_driver/src/n32g430_flash.c **** 
 907:n32g430_std_periph_driver/src/n32g430_flash.c ****     user_temp = ((FLASH_OB_USER_MSK & FLASH->OB) << FLASH_OB_TO_USER_OFFSET);
 908:n32g430_std_periph_driver/src/n32g430_flash.c **** 
 909:n32g430_std_periph_driver/src/n32g430_flash.c ****     /* Get the actual read protection L2 Option Byte value */
 910:n32g430_std_periph_driver/src/n32g430_flash.c ****     if (FLASH_Read_Out_Protection_L2_Status_Get() != RESET)
 911:n32g430_std_periph_driver/src/n32g430_flash.c ****     {
 912:n32g430_std_periph_driver/src/n32g430_flash.c ****         return FLASH_ERR_RDP2;
 913:n32g430_std_periph_driver/src/n32g430_flash.c ****     }
 914:n32g430_std_periph_driver/src/n32g430_flash.c ****     else
 915:n32g430_std_periph_driver/src/n32g430_flash.c ****     {
 916:n32g430_std_periph_driver/src/n32g430_flash.c ****         /*No process*/
 917:n32g430_std_periph_driver/src/n32g430_flash.c ****     }
 918:n32g430_std_periph_driver/src/n32g430_flash.c **** 
 919:n32g430_std_periph_driver/src/n32g430_flash.c ****     /* Clears the FLASH's pending flags */
 920:n32g430_std_periph_driver/src/n32g430_flash.c ****     FLASH_Flag_Status_Clear(FLASH_STS_CLRFLAG);
 921:n32g430_std_periph_driver/src/n32g430_flash.c ****     /* Wait for last operation to be completed */
 922:n32g430_std_periph_driver/src/n32g430_flash.c ****     status_value = FLASH_Last_Operation_Wait(ERASE_TIMEOUT);
 923:n32g430_std_periph_driver/src/n32g430_flash.c **** 
 924:n32g430_std_periph_driver/src/n32g430_flash.c ****     if (status_value == FLASH_EOP)
 925:n32g430_std_periph_driver/src/n32g430_flash.c ****     {
 926:n32g430_std_periph_driver/src/n32g430_flash.c ****         Option_Bytes_Unlock();
 927:n32g430_std_periph_driver/src/n32g430_flash.c ****         FLASH->CTRL |= FLASH_CTRL_SET_OPTER;
ARM GAS  C:\Users\Dawn\AppData\Local\Temp\cc12bvwa.s 			page 27


 928:n32g430_std_periph_driver/src/n32g430_flash.c ****         FLASH->CTRL |= FLASH_CTRL_SET_START;
 929:n32g430_std_periph_driver/src/n32g430_flash.c ****         /* Wait for last operation to be completed */
 930:n32g430_std_periph_driver/src/n32g430_flash.c ****         status_value = FLASH_Last_Operation_Wait(ERASE_TIMEOUT);
 931:n32g430_std_periph_driver/src/n32g430_flash.c ****         if (status_value == FLASH_EOP)
 932:n32g430_std_periph_driver/src/n32g430_flash.c ****         {
 933:n32g430_std_periph_driver/src/n32g430_flash.c ****             /* Clears the FLASH's pending flags */
 934:n32g430_std_periph_driver/src/n32g430_flash.c ****             FLASH_Flag_Status_Clear(FLASH_STS_CLRFLAG);
 935:n32g430_std_periph_driver/src/n32g430_flash.c **** 
 936:n32g430_std_periph_driver/src/n32g430_flash.c ****             /* if the erase operation is completed, disable the OPTER Bit */
 937:n32g430_std_periph_driver/src/n32g430_flash.c ****             FLASH->CTRL &= FLASH_CTRL_RESET_OPTER;
 938:n32g430_std_periph_driver/src/n32g430_flash.c ****             /* Enable the Option Bytes Programming operation */
 939:n32g430_std_periph_driver/src/n32g430_flash.c ****             FLASH->CTRL |= FLASH_CTRL_SET_OPTPG;
 940:n32g430_std_periph_driver/src/n32g430_flash.c ****             /*enable new state of the ReadOut Protection*/
 941:n32g430_std_periph_driver/src/n32g430_flash.c ****             OBT->USER_RDP = (FLASH_USER_MASK & user_temp);
 942:n32g430_std_periph_driver/src/n32g430_flash.c ****             /* Wait for last operation to be completed */
 943:n32g430_std_periph_driver/src/n32g430_flash.c ****             status_value = FLASH_Last_Operation_Wait(ERASE_TIMEOUT);
 944:n32g430_std_periph_driver/src/n32g430_flash.c **** 
 945:n32g430_std_periph_driver/src/n32g430_flash.c ****             if (status_value != FLASH_TIMEOUT)
 946:n32g430_std_periph_driver/src/n32g430_flash.c ****             {
 947:n32g430_std_periph_driver/src/n32g430_flash.c ****                 /* if the program operation is completed, disable the OPTPG Bit */
 948:n32g430_std_periph_driver/src/n32g430_flash.c ****                 FLASH->CTRL &= FLASH_CTRL_RESET_OPTPG;
 949:n32g430_std_periph_driver/src/n32g430_flash.c ****             }
 950:n32g430_std_periph_driver/src/n32g430_flash.c ****             else
 951:n32g430_std_periph_driver/src/n32g430_flash.c ****             {
 952:n32g430_std_periph_driver/src/n32g430_flash.c ****                 /*No process*/
 953:n32g430_std_periph_driver/src/n32g430_flash.c ****             }
 954:n32g430_std_periph_driver/src/n32g430_flash.c ****         }
 955:n32g430_std_periph_driver/src/n32g430_flash.c ****         else
 956:n32g430_std_periph_driver/src/n32g430_flash.c ****         {
 957:n32g430_std_periph_driver/src/n32g430_flash.c ****             if (status_value != FLASH_TIMEOUT)
 958:n32g430_std_periph_driver/src/n32g430_flash.c ****             {
 959:n32g430_std_periph_driver/src/n32g430_flash.c ****                 /* Disable the OPTER Bit */
 960:n32g430_std_periph_driver/src/n32g430_flash.c ****                 FLASH->CTRL &= FLASH_CTRL_RESET_OPTER;
 961:n32g430_std_periph_driver/src/n32g430_flash.c ****             }
 962:n32g430_std_periph_driver/src/n32g430_flash.c ****             else
 963:n32g430_std_periph_driver/src/n32g430_flash.c ****             {
 964:n32g430_std_periph_driver/src/n32g430_flash.c ****                 /*No process*/
 965:n32g430_std_periph_driver/src/n32g430_flash.c ****             }
 966:n32g430_std_periph_driver/src/n32g430_flash.c ****         }
 967:n32g430_std_periph_driver/src/n32g430_flash.c ****     }
 968:n32g430_std_periph_driver/src/n32g430_flash.c ****     else
 969:n32g430_std_periph_driver/src/n32g430_flash.c ****     {
 970:n32g430_std_periph_driver/src/n32g430_flash.c ****         /*No process*/
 971:n32g430_std_periph_driver/src/n32g430_flash.c ****     }
 972:n32g430_std_periph_driver/src/n32g430_flash.c ****     /* Return the protection operation status_value */
 973:n32g430_std_periph_driver/src/n32g430_flash.c ****     return status_value;
 974:n32g430_std_periph_driver/src/n32g430_flash.c **** }
 975:n32g430_std_periph_driver/src/n32g430_flash.c **** 
 976:n32g430_std_periph_driver/src/n32g430_flash.c **** 
 977:n32g430_std_periph_driver/src/n32g430_flash.c **** /**
 978:n32g430_std_periph_driver/src/n32g430_flash.c **** *\*\name   FLASH_Read_Out_Protection_L1_Disable
 979:n32g430_std_periph_driver/src/n32g430_flash.c **** *\*\fun    Disables the read out protection L1.
 980:n32g430_std_periph_driver/src/n32g430_flash.c **** *\*\note   If the user has already programmed the other option bytes before calling
 981:n32g430_std_periph_driver/src/n32g430_flash.c **** *\*\       this function, he must re-program them since this function erases all option bytes.
 982:n32g430_std_periph_driver/src/n32g430_flash.c **** *\*\       This function can be used for N32G430 devices.
 983:n32g430_std_periph_driver/src/n32g430_flash.c **** *\*\param  none
 984:n32g430_std_periph_driver/src/n32g430_flash.c **** *\*\return FLASH_STS : 
ARM GAS  C:\Users\Dawn\AppData\Local\Temp\cc12bvwa.s 			page 28


 985:n32g430_std_periph_driver/src/n32g430_flash.c **** *\*\        - FLASH_BUSY
 986:n32g430_std_periph_driver/src/n32g430_flash.c **** *\*\        - FLASH_ERR_PG
 987:n32g430_std_periph_driver/src/n32g430_flash.c **** *\*\        - FLASH_ERR_WRP
 988:n32g430_std_periph_driver/src/n32g430_flash.c **** *\*\        - FLASH_EOP
 989:n32g430_std_periph_driver/src/n32g430_flash.c **** *\*\        - FLASH_ERR_RDP2
 990:n32g430_std_periph_driver/src/n32g430_flash.c **** *\*\        - FLASH_TIMEOUT
 991:n32g430_std_periph_driver/src/n32g430_flash.c **** **/
 992:n32g430_std_periph_driver/src/n32g430_flash.c **** FLASH_STS FLASH_Read_Out_Protection_L1_Disable(void)
 993:n32g430_std_periph_driver/src/n32g430_flash.c **** {
 994:n32g430_std_periph_driver/src/n32g430_flash.c ****     uint32_t user_temp;
 995:n32g430_std_periph_driver/src/n32g430_flash.c ****     FLASH_STS status_value = FLASH_EOP;
 996:n32g430_std_periph_driver/src/n32g430_flash.c **** 
 997:n32g430_std_periph_driver/src/n32g430_flash.c ****     user_temp = ((FLASH_OB_USER_MSK & FLASH->OB) << FLASH_OB_TO_USER_OFFSET);
 998:n32g430_std_periph_driver/src/n32g430_flash.c **** 
 999:n32g430_std_periph_driver/src/n32g430_flash.c ****     /* Get the actual read protection L2 Option Byte value */
1000:n32g430_std_periph_driver/src/n32g430_flash.c ****     if (FLASH_Read_Out_Protection_L2_Status_Get() != RESET)
1001:n32g430_std_periph_driver/src/n32g430_flash.c ****     {
1002:n32g430_std_periph_driver/src/n32g430_flash.c ****         return FLASH_ERR_RDP2;        
1003:n32g430_std_periph_driver/src/n32g430_flash.c ****     }
1004:n32g430_std_periph_driver/src/n32g430_flash.c ****     else
1005:n32g430_std_periph_driver/src/n32g430_flash.c ****     {
1006:n32g430_std_periph_driver/src/n32g430_flash.c ****         /*No process*/
1007:n32g430_std_periph_driver/src/n32g430_flash.c ****     }
1008:n32g430_std_periph_driver/src/n32g430_flash.c **** 
1009:n32g430_std_periph_driver/src/n32g430_flash.c ****     /* Clears the FLASH's pending flags */
1010:n32g430_std_periph_driver/src/n32g430_flash.c ****     FLASH_Flag_Status_Clear(FLASH_STS_CLRFLAG);
1011:n32g430_std_periph_driver/src/n32g430_flash.c ****     /* Wait for last operation to be completed */
1012:n32g430_std_periph_driver/src/n32g430_flash.c ****     status_value = FLASH_Last_Operation_Wait(ERASE_TIMEOUT);
1013:n32g430_std_periph_driver/src/n32g430_flash.c **** 
1014:n32g430_std_periph_driver/src/n32g430_flash.c ****     if (status_value == FLASH_EOP)
1015:n32g430_std_periph_driver/src/n32g430_flash.c ****     {
1016:n32g430_std_periph_driver/src/n32g430_flash.c ****         Option_Bytes_Unlock();
1017:n32g430_std_periph_driver/src/n32g430_flash.c ****         FLASH->CTRL |= FLASH_CTRL_SET_OPTER;
1018:n32g430_std_periph_driver/src/n32g430_flash.c ****         FLASH->CTRL |= FLASH_CTRL_SET_START;
1019:n32g430_std_periph_driver/src/n32g430_flash.c ****         /* Wait for last operation to be completed */
1020:n32g430_std_periph_driver/src/n32g430_flash.c ****         status_value = FLASH_Last_Operation_Wait(ERASE_TIMEOUT);
1021:n32g430_std_periph_driver/src/n32g430_flash.c ****         if (status_value == FLASH_EOP)
1022:n32g430_std_periph_driver/src/n32g430_flash.c ****         {
1023:n32g430_std_periph_driver/src/n32g430_flash.c ****             /* Clears the FLASH's pending flags */
1024:n32g430_std_periph_driver/src/n32g430_flash.c ****             FLASH_Flag_Status_Clear(FLASH_STS_CLRFLAG);
1025:n32g430_std_periph_driver/src/n32g430_flash.c **** 
1026:n32g430_std_periph_driver/src/n32g430_flash.c ****             /* if the erase operation is completed, disable the OPTER Bit */
1027:n32g430_std_periph_driver/src/n32g430_flash.c ****             FLASH->CTRL &= FLASH_CTRL_RESET_OPTER;
1028:n32g430_std_periph_driver/src/n32g430_flash.c ****             /* Enable the Option Bytes Programming operation */
1029:n32g430_std_periph_driver/src/n32g430_flash.c ****             FLASH->CTRL |= FLASH_CTRL_SET_OPTPG;
1030:n32g430_std_periph_driver/src/n32g430_flash.c ****             /* Disables the read out protection */
1031:n32g430_std_periph_driver/src/n32g430_flash.c ****             OBT->USER_RDP = ((FLASH_L1_RDP_KEY & FLASH_RDP1_MASK) | user_temp);
1032:n32g430_std_periph_driver/src/n32g430_flash.c ****             /* Wait for last operation to be completed */
1033:n32g430_std_periph_driver/src/n32g430_flash.c ****             status_value = FLASH_Last_Operation_Wait(ERASE_TIMEOUT);
1034:n32g430_std_periph_driver/src/n32g430_flash.c **** 
1035:n32g430_std_periph_driver/src/n32g430_flash.c ****             if (status_value != FLASH_TIMEOUT)
1036:n32g430_std_periph_driver/src/n32g430_flash.c ****             {
1037:n32g430_std_periph_driver/src/n32g430_flash.c ****                 /* if the program operation is completed, disable the OPTPG Bit */
1038:n32g430_std_periph_driver/src/n32g430_flash.c ****                 FLASH->CTRL &= FLASH_CTRL_RESET_OPTPG;
1039:n32g430_std_periph_driver/src/n32g430_flash.c ****             }
1040:n32g430_std_periph_driver/src/n32g430_flash.c ****             else
1041:n32g430_std_periph_driver/src/n32g430_flash.c ****             {
ARM GAS  C:\Users\Dawn\AppData\Local\Temp\cc12bvwa.s 			page 29


1042:n32g430_std_periph_driver/src/n32g430_flash.c ****                 /*No process*/
1043:n32g430_std_periph_driver/src/n32g430_flash.c ****             }
1044:n32g430_std_periph_driver/src/n32g430_flash.c ****         }
1045:n32g430_std_periph_driver/src/n32g430_flash.c ****         else
1046:n32g430_std_periph_driver/src/n32g430_flash.c ****         {
1047:n32g430_std_periph_driver/src/n32g430_flash.c ****             if (status_value != FLASH_TIMEOUT)
1048:n32g430_std_periph_driver/src/n32g430_flash.c ****             {
1049:n32g430_std_periph_driver/src/n32g430_flash.c ****                 /* Disable the OPTER Bit */
1050:n32g430_std_periph_driver/src/n32g430_flash.c ****                 FLASH->CTRL &= FLASH_CTRL_RESET_OPTER;
1051:n32g430_std_periph_driver/src/n32g430_flash.c ****             }
1052:n32g430_std_periph_driver/src/n32g430_flash.c ****             else
1053:n32g430_std_periph_driver/src/n32g430_flash.c ****             {
1054:n32g430_std_periph_driver/src/n32g430_flash.c ****                 /*No process*/
1055:n32g430_std_periph_driver/src/n32g430_flash.c ****             }
1056:n32g430_std_periph_driver/src/n32g430_flash.c ****         }
1057:n32g430_std_periph_driver/src/n32g430_flash.c ****     }
1058:n32g430_std_periph_driver/src/n32g430_flash.c ****     else
1059:n32g430_std_periph_driver/src/n32g430_flash.c ****     {
1060:n32g430_std_periph_driver/src/n32g430_flash.c ****         /*No process*/
1061:n32g430_std_periph_driver/src/n32g430_flash.c ****     }
1062:n32g430_std_periph_driver/src/n32g430_flash.c ****     /* Return the protection operation status_value */
1063:n32g430_std_periph_driver/src/n32g430_flash.c ****     return status_value;
1064:n32g430_std_periph_driver/src/n32g430_flash.c **** }
1065:n32g430_std_periph_driver/src/n32g430_flash.c **** 
1066:n32g430_std_periph_driver/src/n32g430_flash.c **** /**
1067:n32g430_std_periph_driver/src/n32g430_flash.c **** *\*\name   FLASH_Read_Out_Protection_L2_Enable
1068:n32g430_std_periph_driver/src/n32g430_flash.c **** *\*\fun    Enables or disables the read out protection L2.
1069:n32g430_std_periph_driver/src/n32g430_flash.c **** *\*\note   If the user has already programmed the other option bytes before calling
1070:n32g430_std_periph_driver/src/n32g430_flash.c **** *\*\       this function, he must re-program them since this function erases all option bytes.
1071:n32g430_std_periph_driver/src/n32g430_flash.c **** *\*\       This function can be used for N32G430 devices.
1072:n32g430_std_periph_driver/src/n32g430_flash.c **** *\*\param  none
1073:n32g430_std_periph_driver/src/n32g430_flash.c **** *\*\return FLASH_STS : 
1074:n32g430_std_periph_driver/src/n32g430_flash.c **** *\*\        - FLASH_BUSY
1075:n32g430_std_periph_driver/src/n32g430_flash.c **** *\*\        - FLASH_ERR_PG 
1076:n32g430_std_periph_driver/src/n32g430_flash.c **** *\*\        - FLASH_ERR_WRP
1077:n32g430_std_periph_driver/src/n32g430_flash.c **** *\*\        - FLASH_EOP
1078:n32g430_std_periph_driver/src/n32g430_flash.c **** *\*\        - FLASH_ERR_RDP2
1079:n32g430_std_periph_driver/src/n32g430_flash.c **** *\*\        - FLASH_TIMEOUT
1080:n32g430_std_periph_driver/src/n32g430_flash.c **** **/
1081:n32g430_std_periph_driver/src/n32g430_flash.c **** FLASH_STS FLASH_Read_Out_Protection_L2_Enable(void)
1082:n32g430_std_periph_driver/src/n32g430_flash.c **** {
1083:n32g430_std_periph_driver/src/n32g430_flash.c ****     uint32_t user_temp;
1084:n32g430_std_periph_driver/src/n32g430_flash.c ****     FLASH_STS status_value = FLASH_EOP;
1085:n32g430_std_periph_driver/src/n32g430_flash.c **** 
1086:n32g430_std_periph_driver/src/n32g430_flash.c ****     user_temp = ((FLASH_OB_USER_MSK & FLASH->OB) << FLASH_OB_TO_USER_OFFSET);
1087:n32g430_std_periph_driver/src/n32g430_flash.c ****   
1088:n32g430_std_periph_driver/src/n32g430_flash.c ****     /* Get the actual read protection L1 Option Byte value */
1089:n32g430_std_periph_driver/src/n32g430_flash.c ****     if (FLASH_Read_Out_Protection_Status_Get() == RESET)
1090:n32g430_std_periph_driver/src/n32g430_flash.c ****     {
1091:n32g430_std_periph_driver/src/n32g430_flash.c ****         user_temp |= (FLASH_L1_RDP_KEY & FLASH_RDP1_MASK);
1092:n32g430_std_periph_driver/src/n32g430_flash.c ****     }
1093:n32g430_std_periph_driver/src/n32g430_flash.c ****     else
1094:n32g430_std_periph_driver/src/n32g430_flash.c ****     {
1095:n32g430_std_periph_driver/src/n32g430_flash.c ****         /*No process*/
1096:n32g430_std_periph_driver/src/n32g430_flash.c ****     }
1097:n32g430_std_periph_driver/src/n32g430_flash.c ****     /* Get the actual read protection L2 Option Byte value */
1098:n32g430_std_periph_driver/src/n32g430_flash.c ****     if (FLASH_Read_Out_Protection_L2_Status_Get() != RESET)
ARM GAS  C:\Users\Dawn\AppData\Local\Temp\cc12bvwa.s 			page 30


1099:n32g430_std_periph_driver/src/n32g430_flash.c ****     {
1100:n32g430_std_periph_driver/src/n32g430_flash.c ****         return FLASH_ERR_RDP2;
1101:n32g430_std_periph_driver/src/n32g430_flash.c ****     }
1102:n32g430_std_periph_driver/src/n32g430_flash.c ****     else
1103:n32g430_std_periph_driver/src/n32g430_flash.c ****     {
1104:n32g430_std_periph_driver/src/n32g430_flash.c ****         /*No process*/
1105:n32g430_std_periph_driver/src/n32g430_flash.c ****     }
1106:n32g430_std_periph_driver/src/n32g430_flash.c **** 
1107:n32g430_std_periph_driver/src/n32g430_flash.c ****     /* Clears the FLASH's pending flags */
1108:n32g430_std_periph_driver/src/n32g430_flash.c ****     FLASH_Flag_Status_Clear(FLASH_STS_CLRFLAG);
1109:n32g430_std_periph_driver/src/n32g430_flash.c ****     /* Wait for last operation to be completed */
1110:n32g430_std_periph_driver/src/n32g430_flash.c ****     status_value = FLASH_Last_Operation_Wait(ERASE_TIMEOUT);
1111:n32g430_std_periph_driver/src/n32g430_flash.c **** 
1112:n32g430_std_periph_driver/src/n32g430_flash.c ****     if (status_value == FLASH_EOP)
1113:n32g430_std_periph_driver/src/n32g430_flash.c ****     {
1114:n32g430_std_periph_driver/src/n32g430_flash.c ****         Option_Bytes_Unlock();
1115:n32g430_std_periph_driver/src/n32g430_flash.c ****         FLASH->CTRL |= FLASH_CTRL_SET_OPTER;
1116:n32g430_std_periph_driver/src/n32g430_flash.c ****         FLASH->CTRL |= FLASH_CTRL_SET_START;
1117:n32g430_std_periph_driver/src/n32g430_flash.c ****         /* Wait for last operation to be completed */
1118:n32g430_std_periph_driver/src/n32g430_flash.c ****         status_value = FLASH_Last_Operation_Wait(ERASE_TIMEOUT);
1119:n32g430_std_periph_driver/src/n32g430_flash.c ****         if (status_value == FLASH_EOP)
1120:n32g430_std_periph_driver/src/n32g430_flash.c ****         {
1121:n32g430_std_periph_driver/src/n32g430_flash.c ****             /* Clears the FLASH's pending flags */
1122:n32g430_std_periph_driver/src/n32g430_flash.c ****             FLASH_Flag_Status_Clear(FLASH_STS_CLRFLAG); 
1123:n32g430_std_periph_driver/src/n32g430_flash.c **** 
1124:n32g430_std_periph_driver/src/n32g430_flash.c ****             /* if the erase operation is completed, disable the OPTER Bit */
1125:n32g430_std_periph_driver/src/n32g430_flash.c ****             FLASH->CTRL &= FLASH_CTRL_RESET_OPTER;
1126:n32g430_std_periph_driver/src/n32g430_flash.c ****             /* Enable the Option Bytes Programming operation */
1127:n32g430_std_periph_driver/src/n32g430_flash.c ****             FLASH->CTRL |= FLASH_CTRL_SET_OPTPG;
1128:n32g430_std_periph_driver/src/n32g430_flash.c **** 
1129:n32g430_std_periph_driver/src/n32g430_flash.c ****             OBT->USER_RDP = user_temp;
1130:n32g430_std_periph_driver/src/n32g430_flash.c ****             /* Wait for last operation to be completed */
1131:n32g430_std_periph_driver/src/n32g430_flash.c ****             status_value = FLASH_Last_Operation_Wait(ERASE_TIMEOUT);
1132:n32g430_std_periph_driver/src/n32g430_flash.c **** 
1133:n32g430_std_periph_driver/src/n32g430_flash.c ****             if (status_value == FLASH_EOP)
1134:n32g430_std_periph_driver/src/n32g430_flash.c ****             {
1135:n32g430_std_periph_driver/src/n32g430_flash.c ****                 /* Clears the FLASH's pending flags */
1136:n32g430_std_periph_driver/src/n32g430_flash.c ****                 FLASH_Flag_Status_Clear(FLASH_STS_CLRFLAG);
1137:n32g430_std_periph_driver/src/n32g430_flash.c **** 
1138:n32g430_std_periph_driver/src/n32g430_flash.c ****                 /* Enables the read out protection L2 */
1139:n32g430_std_periph_driver/src/n32g430_flash.c ****                 OBT->USER2_RDP2 = FLASH_L2_RDP_KEY;
1140:n32g430_std_periph_driver/src/n32g430_flash.c **** 
1141:n32g430_std_periph_driver/src/n32g430_flash.c ****                 /* Wait for last operation to be completed */
1142:n32g430_std_periph_driver/src/n32g430_flash.c ****                 status_value = FLASH_Last_Operation_Wait(ERASE_TIMEOUT);
1143:n32g430_std_periph_driver/src/n32g430_flash.c ****             }
1144:n32g430_std_periph_driver/src/n32g430_flash.c ****             else
1145:n32g430_std_periph_driver/src/n32g430_flash.c ****             {
1146:n32g430_std_periph_driver/src/n32g430_flash.c ****                 /*No process*/
1147:n32g430_std_periph_driver/src/n32g430_flash.c ****             }
1148:n32g430_std_periph_driver/src/n32g430_flash.c **** 
1149:n32g430_std_periph_driver/src/n32g430_flash.c ****             if (status_value != FLASH_TIMEOUT)
1150:n32g430_std_periph_driver/src/n32g430_flash.c ****             {
1151:n32g430_std_periph_driver/src/n32g430_flash.c ****                 /* if the program operation is completed, disable the OPTPG Bit */
1152:n32g430_std_periph_driver/src/n32g430_flash.c ****                 FLASH->CTRL &= FLASH_CTRL_RESET_OPTPG;
1153:n32g430_std_periph_driver/src/n32g430_flash.c ****             }
1154:n32g430_std_periph_driver/src/n32g430_flash.c ****             else
1155:n32g430_std_periph_driver/src/n32g430_flash.c ****             {
ARM GAS  C:\Users\Dawn\AppData\Local\Temp\cc12bvwa.s 			page 31


1156:n32g430_std_periph_driver/src/n32g430_flash.c ****                 /*No process*/
1157:n32g430_std_periph_driver/src/n32g430_flash.c ****             }
1158:n32g430_std_periph_driver/src/n32g430_flash.c ****         }
1159:n32g430_std_periph_driver/src/n32g430_flash.c ****         else
1160:n32g430_std_periph_driver/src/n32g430_flash.c ****         {
1161:n32g430_std_periph_driver/src/n32g430_flash.c ****             if (status_value != FLASH_TIMEOUT)
1162:n32g430_std_periph_driver/src/n32g430_flash.c ****             {
1163:n32g430_std_periph_driver/src/n32g430_flash.c ****                 /* Disable the OPTER Bit */
1164:n32g430_std_periph_driver/src/n32g430_flash.c ****                 FLASH->CTRL &= FLASH_CTRL_RESET_OPTER;
1165:n32g430_std_periph_driver/src/n32g430_flash.c ****             }
1166:n32g430_std_periph_driver/src/n32g430_flash.c ****             else
1167:n32g430_std_periph_driver/src/n32g430_flash.c ****             {
1168:n32g430_std_periph_driver/src/n32g430_flash.c ****                 /*No process*/
1169:n32g430_std_periph_driver/src/n32g430_flash.c ****             }
1170:n32g430_std_periph_driver/src/n32g430_flash.c ****         }
1171:n32g430_std_periph_driver/src/n32g430_flash.c ****     }
1172:n32g430_std_periph_driver/src/n32g430_flash.c ****     else
1173:n32g430_std_periph_driver/src/n32g430_flash.c ****     {
1174:n32g430_std_periph_driver/src/n32g430_flash.c ****         /*No process*/
1175:n32g430_std_periph_driver/src/n32g430_flash.c ****     }
1176:n32g430_std_periph_driver/src/n32g430_flash.c ****     /* Return the protection operation status_value */
1177:n32g430_std_periph_driver/src/n32g430_flash.c ****     return status_value;
1178:n32g430_std_periph_driver/src/n32g430_flash.c **** }
1179:n32g430_std_periph_driver/src/n32g430_flash.c **** 
1180:n32g430_std_periph_driver/src/n32g430_flash.c **** /**
1181:n32g430_std_periph_driver/src/n32g430_flash.c **** *\*\name   FLASH_Option_Bytes_User_Get
1182:n32g430_std_periph_driver/src/n32g430_flash.c **** *\*\fun    Returns the FLASH User Option Bytes values.
1183:n32g430_std_periph_driver/src/n32g430_flash.c **** *\*\note   This function can be used for N32G430 devices.
1184:n32g430_std_periph_driver/src/n32g430_flash.c **** *\*\param  option_byte_bit
1185:n32g430_std_periph_driver/src/n32g430_flash.c **** *\*\            - FLASH_OB_IWDG_SW
1186:n32g430_std_periph_driver/src/n32g430_flash.c **** *\*\            - FLASH_OB_STOP_NORST
1187:n32g430_std_periph_driver/src/n32g430_flash.c **** *\*\            - FLASH_OB_STDBY_NORST
1188:n32g430_std_periph_driver/src/n32g430_flash.c **** *\*\            - FLASH_OB_IWDG_STOP0_NOFRZ
1189:n32g430_std_periph_driver/src/n32g430_flash.c **** *\*\            - FLASH_OB_IWDG_STOP2_NOFRZ
1190:n32g430_std_periph_driver/src/n32g430_flash.c **** *\*\            - FLASH_OB_IWDG_STDBY_NOFRZ
1191:n32g430_std_periph_driver/src/n32g430_flash.c **** *\*\            - FLASH_OB_IWDG_SLEEP_NOFRZ
1192:n32g430_std_periph_driver/src/n32g430_flash.c **** *\*\return FlagStatus :
1193:n32g430_std_periph_driver/src/n32g430_flash.c **** *\*\            - SET
1194:n32g430_std_periph_driver/src/n32g430_flash.c **** *\*\            - RESET
1195:n32g430_std_periph_driver/src/n32g430_flash.c **** **/
1196:n32g430_std_periph_driver/src/n32g430_flash.c **** FlagStatus FLASH_Option_Bytes_User_Get(uint32_t option_byte_bit)
1197:n32g430_std_periph_driver/src/n32g430_flash.c **** {
 591              		.loc 1 1197 1 is_stmt 1 view -0
 592              		.cfi_startproc
 593              		@ args = 0, pretend = 0, frame = 0
 594              		@ frame_needed = 0, uses_anonymous_args = 0
 595              		@ link register save eliminated.
1198:n32g430_std_periph_driver/src/n32g430_flash.c ****     if(((FLASH->OB >> FLASH_OB_OFFSET) & option_byte_bit) != (uint32_t)RESET)
 596              		.loc 1 1198 5 view .LVU106
 597              		.loc 1 1198 15 is_stmt 0 view .LVU107
 598 0000 044B     		ldr	r3, .L61
 599 0002 DB69     		ldr	r3, [r3, #28]
 600              		.loc 1 1198 7 view .LVU108
 601 0004 10EA9300 		ands	r0, r0, r3, lsr #2
 602              	.LVL12:
 603              		.loc 1 1198 7 view .LVU109
 604 0008 01D0     		beq	.L60
ARM GAS  C:\Users\Dawn\AppData\Local\Temp\cc12bvwa.s 			page 32


1199:n32g430_std_periph_driver/src/n32g430_flash.c ****     {
1200:n32g430_std_periph_driver/src/n32g430_flash.c ****         return SET;
 605              		.loc 1 1200 16 view .LVU110
 606 000a 0120     		movs	r0, #1
 607 000c 7047     		bx	lr
 608              	.L60:
1201:n32g430_std_periph_driver/src/n32g430_flash.c ****     }
1202:n32g430_std_periph_driver/src/n32g430_flash.c ****     else
1203:n32g430_std_periph_driver/src/n32g430_flash.c ****     {
1204:n32g430_std_periph_driver/src/n32g430_flash.c ****         return RESET;
 609              		.loc 1 1204 16 view .LVU111
 610 000e 0020     		movs	r0, #0
1205:n32g430_std_periph_driver/src/n32g430_flash.c ****     }
1206:n32g430_std_periph_driver/src/n32g430_flash.c **** }
 611              		.loc 1 1206 1 view .LVU112
 612 0010 7047     		bx	lr
 613              	.L62:
 614 0012 00BF     		.align	2
 615              	.L61:
 616 0014 00200240 		.word	1073881088
 617              		.cfi_endproc
 618              	.LFE151:
 620              		.section	.text.FLASH_Option_Bytes2_User_Get,"ax",%progbits
 621              		.align	1
 622              		.global	FLASH_Option_Bytes2_User_Get
 623              		.syntax unified
 624              		.thumb
 625              		.thumb_func
 627              	FLASH_Option_Bytes2_User_Get:
 628              	.LVL13:
 629              	.LFB152:
1207:n32g430_std_periph_driver/src/n32g430_flash.c **** 
1208:n32g430_std_periph_driver/src/n32g430_flash.c **** 
1209:n32g430_std_periph_driver/src/n32g430_flash.c **** /**
1210:n32g430_std_periph_driver/src/n32g430_flash.c **** *\*\name   FLASH_Option_Bytes2_User_Get
1211:n32g430_std_periph_driver/src/n32g430_flash.c **** *\*\fun    Returns the FLASH User Option Bytes2 values.
1212:n32g430_std_periph_driver/src/n32g430_flash.c **** *\*\note   This function can be used for N32G430 devices.
1213:n32g430_std_periph_driver/src/n32g430_flash.c **** *\*\param  boot_bit :
1214:n32g430_std_periph_driver/src/n32g430_flash.c **** *\*\            - FLASH_OB2_nBOOT1_MASK
1215:n32g430_std_periph_driver/src/n32g430_flash.c **** *\*\            - FLASH_OB2_nSWBOOT0_MASK
1216:n32g430_std_periph_driver/src/n32g430_flash.c **** *\*\            - FLASH_OB2_nBOOT0_MASK
1217:n32g430_std_periph_driver/src/n32g430_flash.c **** *\*\return FlagStatus :
1218:n32g430_std_periph_driver/src/n32g430_flash.c **** *\*\            - SET
1219:n32g430_std_periph_driver/src/n32g430_flash.c **** *\*\            - RESET
1220:n32g430_std_periph_driver/src/n32g430_flash.c **** **/
1221:n32g430_std_periph_driver/src/n32g430_flash.c **** FlagStatus FLASH_Option_Bytes2_User_Get(uint32_t boot_bit)
1222:n32g430_std_periph_driver/src/n32g430_flash.c **** {
 630              		.loc 1 1222 1 is_stmt 1 view -0
 631              		.cfi_startproc
 632              		@ args = 0, pretend = 0, frame = 0
 633              		@ frame_needed = 0, uses_anonymous_args = 0
 634              		@ link register save eliminated.
1223:n32g430_std_periph_driver/src/n32g430_flash.c ****     if ((FLASH->OB2 & boot_bit) != (uint32_t)RESET)
 635              		.loc 1 1223 5 view .LVU114
 636              		.loc 1 1223 15 is_stmt 0 view .LVU115
 637 0000 034B     		ldr	r3, .L66
 638 0002 9B69     		ldr	r3, [r3, #24]
ARM GAS  C:\Users\Dawn\AppData\Local\Temp\cc12bvwa.s 			page 33


 639              		.loc 1 1223 8 view .LVU116
 640 0004 0342     		tst	r3, r0
 641 0006 01D0     		beq	.L65
1224:n32g430_std_periph_driver/src/n32g430_flash.c ****     {
1225:n32g430_std_periph_driver/src/n32g430_flash.c ****         return SET;
 642              		.loc 1 1225 16 view .LVU117
 643 0008 0120     		movs	r0, #1
 644              	.LVL14:
 645              		.loc 1 1225 16 view .LVU118
 646 000a 7047     		bx	lr
 647              	.LVL15:
 648              	.L65:
1226:n32g430_std_periph_driver/src/n32g430_flash.c ****     }
1227:n32g430_std_periph_driver/src/n32g430_flash.c ****     else
1228:n32g430_std_periph_driver/src/n32g430_flash.c ****     {
1229:n32g430_std_periph_driver/src/n32g430_flash.c ****         return RESET;
 649              		.loc 1 1229 16 view .LVU119
 650 000c 0020     		movs	r0, #0
 651              	.LVL16:
1230:n32g430_std_periph_driver/src/n32g430_flash.c ****     }
1231:n32g430_std_periph_driver/src/n32g430_flash.c **** }
 652              		.loc 1 1231 1 view .LVU120
 653 000e 7047     		bx	lr
 654              	.L67:
 655              		.align	2
 656              	.L66:
 657 0010 00200240 		.word	1073881088
 658              		.cfi_endproc
 659              	.LFE152:
 661              		.section	.text.FLASH_Option_Bytes_Data0_Get,"ax",%progbits
 662              		.align	1
 663              		.global	FLASH_Option_Bytes_Data0_Get
 664              		.syntax unified
 665              		.thumb
 666              		.thumb_func
 668              	FLASH_Option_Bytes_Data0_Get:
 669              	.LFB153:
1232:n32g430_std_periph_driver/src/n32g430_flash.c **** 
1233:n32g430_std_periph_driver/src/n32g430_flash.c **** /**
1234:n32g430_std_periph_driver/src/n32g430_flash.c **** *\*\name   FLASH_Option_Bytes_Data0_Get
1235:n32g430_std_periph_driver/src/n32g430_flash.c **** *\*\fun    Returns the FLASH User Option Bytes values.
1236:n32g430_std_periph_driver/src/n32g430_flash.c **** *\*\note   This function can be used for N32G430 devices.
1237:n32g430_std_periph_driver/src/n32g430_flash.c **** *\*\param  none
1238:n32g430_std_periph_driver/src/n32g430_flash.c **** *\*\return data0:
1239:n32g430_std_periph_driver/src/n32g430_flash.c **** *\*\            - 0x00 to 0xFF.
1240:n32g430_std_periph_driver/src/n32g430_flash.c **** **/
1241:n32g430_std_periph_driver/src/n32g430_flash.c **** uint32_t FLASH_Option_Bytes_Data0_Get(void)
1242:n32g430_std_periph_driver/src/n32g430_flash.c **** {
 670              		.loc 1 1242 1 is_stmt 1 view -0
 671              		.cfi_startproc
 672              		@ args = 0, pretend = 0, frame = 0
 673              		@ frame_needed = 0, uses_anonymous_args = 0
 674              		@ link register save eliminated.
1243:n32g430_std_periph_driver/src/n32g430_flash.c ****     /* Return the User Option Byte2 */
1244:n32g430_std_periph_driver/src/n32g430_flash.c ****     return (uint32_t)((FLASH->OB & FLASH_OB_DATA0_MASK) >> FLASH_OB_DATA0_OFFSET);
 675              		.loc 1 1244 5 view .LVU122
 676              		.loc 1 1244 29 is_stmt 0 view .LVU123
ARM GAS  C:\Users\Dawn\AppData\Local\Temp\cc12bvwa.s 			page 34


 677 0000 024B     		ldr	r3, .L69
 678 0002 D869     		ldr	r0, [r3, #28]
1245:n32g430_std_periph_driver/src/n32g430_flash.c **** }
 679              		.loc 1 1245 1 view .LVU124
 680 0004 C0F38720 		ubfx	r0, r0, #10, #8
 681 0008 7047     		bx	lr
 682              	.L70:
 683 000a 00BF     		.align	2
 684              	.L69:
 685 000c 00200240 		.word	1073881088
 686              		.cfi_endproc
 687              	.LFE153:
 689              		.section	.text.FLASH_Option_Bytes_Data1_Get,"ax",%progbits
 690              		.align	1
 691              		.global	FLASH_Option_Bytes_Data1_Get
 692              		.syntax unified
 693              		.thumb
 694              		.thumb_func
 696              	FLASH_Option_Bytes_Data1_Get:
 697              	.LFB154:
1246:n32g430_std_periph_driver/src/n32g430_flash.c **** 
1247:n32g430_std_periph_driver/src/n32g430_flash.c **** /**
1248:n32g430_std_periph_driver/src/n32g430_flash.c **** *\*\name   FLASH_Option_Bytes_Data1_Get
1249:n32g430_std_periph_driver/src/n32g430_flash.c **** *\*\fun    Returns the FLASH User Option Bytes values.
1250:n32g430_std_periph_driver/src/n32g430_flash.c **** *\*\note   This function can be used for N32G430 devices.
1251:n32g430_std_periph_driver/src/n32g430_flash.c **** *\*\param  none
1252:n32g430_std_periph_driver/src/n32g430_flash.c **** *\*\return data1:
1253:n32g430_std_periph_driver/src/n32g430_flash.c **** *\*\            - 0x00 to 0xFF.
1254:n32g430_std_periph_driver/src/n32g430_flash.c **** **/
1255:n32g430_std_periph_driver/src/n32g430_flash.c **** uint32_t FLASH_Option_Bytes_Data1_Get(void)
1256:n32g430_std_periph_driver/src/n32g430_flash.c **** {
 698              		.loc 1 1256 1 is_stmt 1 view -0
 699              		.cfi_startproc
 700              		@ args = 0, pretend = 0, frame = 0
 701              		@ frame_needed = 0, uses_anonymous_args = 0
 702              		@ link register save eliminated.
1257:n32g430_std_periph_driver/src/n32g430_flash.c ****     /* Return the User Option Byte2 */
1258:n32g430_std_periph_driver/src/n32g430_flash.c ****     return (uint32_t)((FLASH->OB & FLASH_OB_DATA1_MASK) >> FLASH_OB_DATA1_OFFSET);
 703              		.loc 1 1258 5 view .LVU126
 704              		.loc 1 1258 29 is_stmt 0 view .LVU127
 705 0000 024B     		ldr	r3, .L72
 706 0002 D869     		ldr	r0, [r3, #28]
1259:n32g430_std_periph_driver/src/n32g430_flash.c **** }
 707              		.loc 1 1259 1 view .LVU128
 708 0004 C0F38740 		ubfx	r0, r0, #18, #8
 709 0008 7047     		bx	lr
 710              	.L73:
 711 000a 00BF     		.align	2
 712              	.L72:
 713 000c 00200240 		.word	1073881088
 714              		.cfi_endproc
 715              	.LFE154:
 717              		.section	.text.FLASH_Option_Bytes_Write_Protection_Get,"ax",%progbits
 718              		.align	1
 719              		.global	FLASH_Option_Bytes_Write_Protection_Get
 720              		.syntax unified
 721              		.thumb
ARM GAS  C:\Users\Dawn\AppData\Local\Temp\cc12bvwa.s 			page 35


 722              		.thumb_func
 724              	FLASH_Option_Bytes_Write_Protection_Get:
 725              	.LFB155:
1260:n32g430_std_periph_driver/src/n32g430_flash.c **** 
1261:n32g430_std_periph_driver/src/n32g430_flash.c **** /**
1262:n32g430_std_periph_driver/src/n32g430_flash.c **** *\*\name   FLASH_Option_Bytes_Write_Protection_Get
1263:n32g430_std_periph_driver/src/n32g430_flash.c **** *\*\fun    Returns the FLASH Write Protection Option Bytes Register value.
1264:n32g430_std_periph_driver/src/n32g430_flash.c **** *\*\note   This function can be used for N32G430 devices.
1265:n32g430_std_periph_driver/src/n32g430_flash.c **** *\*\param  none
1266:n32g430_std_periph_driver/src/n32g430_flash.c **** *\*\return The FLASH Write Protection  Option Bytes Register value :
1267:n32g430_std_periph_driver/src/n32g430_flash.c **** *\*\            - Bit15 - Bit0 write-protects pages (31,30) - page (0,1) 
1268:n32g430_std_periph_driver/src/n32g430_flash.c **** **/
1269:n32g430_std_periph_driver/src/n32g430_flash.c **** uint32_t FLASH_Option_Bytes_Write_Protection_Get(void)
1270:n32g430_std_periph_driver/src/n32g430_flash.c **** {
 726              		.loc 1 1270 1 is_stmt 1 view -0
 727              		.cfi_startproc
 728              		@ args = 0, pretend = 0, frame = 0
 729              		@ frame_needed = 0, uses_anonymous_args = 0
 730              		@ link register save eliminated.
1271:n32g430_std_periph_driver/src/n32g430_flash.c ****     /* Return the Flash write protection Register value */
1272:n32g430_std_periph_driver/src/n32g430_flash.c ****     return (uint32_t)(FLASH->WRP);
 731              		.loc 1 1272 5 view .LVU130
 732              		.loc 1 1272 12 is_stmt 0 view .LVU131
 733 0000 014B     		ldr	r3, .L75
 734 0002 186A     		ldr	r0, [r3, #32]
1273:n32g430_std_periph_driver/src/n32g430_flash.c **** }
 735              		.loc 1 1273 1 view .LVU132
 736 0004 7047     		bx	lr
 737              	.L76:
 738 0006 00BF     		.align	2
 739              	.L75:
 740 0008 00200240 		.word	1073881088
 741              		.cfi_endproc
 742              	.LFE155:
 744              		.section	.text.FLASH_Read_Out_Protection_Status_Get,"ax",%progbits
 745              		.align	1
 746              		.global	FLASH_Read_Out_Protection_Status_Get
 747              		.syntax unified
 748              		.thumb
 749              		.thumb_func
 751              	FLASH_Read_Out_Protection_Status_Get:
 752              	.LFB156:
1274:n32g430_std_periph_driver/src/n32g430_flash.c **** 
1275:n32g430_std_periph_driver/src/n32g430_flash.c **** /**
1276:n32g430_std_periph_driver/src/n32g430_flash.c **** *\*\name   FLASH_Read_Out_Protection_Status_Get
1277:n32g430_std_periph_driver/src/n32g430_flash.c **** *\*\fun    Checks whether the FLASH Read Out Protection status_value is set or not.
1278:n32g430_std_periph_driver/src/n32g430_flash.c **** *\*\note   This function can be used for N32G430 devices.
1279:n32g430_std_periph_driver/src/n32g430_flash.c **** *\*\param  none
1280:n32g430_std_periph_driver/src/n32g430_flash.c **** *\*\return FlagStatus :
1281:n32g430_std_periph_driver/src/n32g430_flash.c **** *\*\        - SET
1282:n32g430_std_periph_driver/src/n32g430_flash.c **** *\*\        - RESET
1283:n32g430_std_periph_driver/src/n32g430_flash.c **** **/
1284:n32g430_std_periph_driver/src/n32g430_flash.c **** FlagStatus FLASH_Read_Out_Protection_Status_Get(void)
1285:n32g430_std_periph_driver/src/n32g430_flash.c **** {
 753              		.loc 1 1285 1 is_stmt 1 view -0
 754              		.cfi_startproc
 755              		@ args = 0, pretend = 0, frame = 0
ARM GAS  C:\Users\Dawn\AppData\Local\Temp\cc12bvwa.s 			page 36


 756              		@ frame_needed = 0, uses_anonymous_args = 0
 757              		@ link register save eliminated.
1286:n32g430_std_periph_driver/src/n32g430_flash.c ****     if ((FLASH->OB & FLASH_RDPRTL1_MSK) != (uint32_t)RESET)
 758              		.loc 1 1286 5 view .LVU134
 759              		.loc 1 1286 15 is_stmt 0 view .LVU135
 760 0000 044B     		ldr	r3, .L80
 761 0002 DB69     		ldr	r3, [r3, #28]
 762              		.loc 1 1286 8 view .LVU136
 763 0004 13F0020F 		tst	r3, #2
 764 0008 01D0     		beq	.L79
1287:n32g430_std_periph_driver/src/n32g430_flash.c ****     {
1288:n32g430_std_periph_driver/src/n32g430_flash.c ****         return SET;
 765              		.loc 1 1288 16 view .LVU137
 766 000a 0120     		movs	r0, #1
 767 000c 7047     		bx	lr
 768              	.L79:
1289:n32g430_std_periph_driver/src/n32g430_flash.c ****     }
1290:n32g430_std_periph_driver/src/n32g430_flash.c ****     else
1291:n32g430_std_periph_driver/src/n32g430_flash.c ****     {
1292:n32g430_std_periph_driver/src/n32g430_flash.c ****         return RESET;
 769              		.loc 1 1292 16 view .LVU138
 770 000e 0020     		movs	r0, #0
1293:n32g430_std_periph_driver/src/n32g430_flash.c ****     }
1294:n32g430_std_periph_driver/src/n32g430_flash.c **** }
 771              		.loc 1 1294 1 view .LVU139
 772 0010 7047     		bx	lr
 773              	.L81:
 774 0012 00BF     		.align	2
 775              	.L80:
 776 0014 00200240 		.word	1073881088
 777              		.cfi_endproc
 778              	.LFE156:
 780              		.section	.text.FLASH_Read_Out_Protection_L2_Status_Get,"ax",%progbits
 781              		.align	1
 782              		.global	FLASH_Read_Out_Protection_L2_Status_Get
 783              		.syntax unified
 784              		.thumb
 785              		.thumb_func
 787              	FLASH_Read_Out_Protection_L2_Status_Get:
 788              	.LFB157:
1295:n32g430_std_periph_driver/src/n32g430_flash.c **** 
1296:n32g430_std_periph_driver/src/n32g430_flash.c **** /**
1297:n32g430_std_periph_driver/src/n32g430_flash.c **** *\*\name   FLASH_Read_Out_Protection_L2_Status_Get
1298:n32g430_std_periph_driver/src/n32g430_flash.c **** *\*\fun    Checks whether the FLASH Read Out Protection L2 status_value is set or not.
1299:n32g430_std_periph_driver/src/n32g430_flash.c **** *\*\note   This function can be used for N32G430 devices.
1300:n32g430_std_periph_driver/src/n32g430_flash.c **** *\*\param  none
1301:n32g430_std_periph_driver/src/n32g430_flash.c **** *\*\return FlagStatus :
1302:n32g430_std_periph_driver/src/n32g430_flash.c **** *\*\        - SET
1303:n32g430_std_periph_driver/src/n32g430_flash.c **** *\*\        - RESET
1304:n32g430_std_periph_driver/src/n32g430_flash.c **** **/
1305:n32g430_std_periph_driver/src/n32g430_flash.c **** FlagStatus FLASH_Read_Out_Protection_L2_Status_Get(void)
1306:n32g430_std_periph_driver/src/n32g430_flash.c **** {
 789              		.loc 1 1306 1 is_stmt 1 view -0
 790              		.cfi_startproc
 791              		@ args = 0, pretend = 0, frame = 0
 792              		@ frame_needed = 0, uses_anonymous_args = 0
 793              		@ link register save eliminated.
ARM GAS  C:\Users\Dawn\AppData\Local\Temp\cc12bvwa.s 			page 37


1307:n32g430_std_periph_driver/src/n32g430_flash.c ****     if ((FLASH->OB & FLASH_RDPRTL2_MSK) != (uint32_t)RESET)
 794              		.loc 1 1307 5 view .LVU141
 795              		.loc 1 1307 15 is_stmt 0 view .LVU142
 796 0000 034B     		ldr	r3, .L86
 797 0002 DB69     		ldr	r3, [r3, #28]
 798              		.loc 1 1307 8 view .LVU143
 799 0004 002B     		cmp	r3, #0
 800 0006 01DB     		blt	.L85
1308:n32g430_std_periph_driver/src/n32g430_flash.c ****     {
1309:n32g430_std_periph_driver/src/n32g430_flash.c ****         return SET;
1310:n32g430_std_periph_driver/src/n32g430_flash.c ****     }
1311:n32g430_std_periph_driver/src/n32g430_flash.c ****     else
1312:n32g430_std_periph_driver/src/n32g430_flash.c ****     {
1313:n32g430_std_periph_driver/src/n32g430_flash.c ****         return RESET;
 801              		.loc 1 1313 16 view .LVU144
 802 0008 0020     		movs	r0, #0
1314:n32g430_std_periph_driver/src/n32g430_flash.c ****     }
1315:n32g430_std_periph_driver/src/n32g430_flash.c **** }
 803              		.loc 1 1315 1 view .LVU145
 804 000a 7047     		bx	lr
 805              	.L85:
1309:n32g430_std_periph_driver/src/n32g430_flash.c ****     }
 806              		.loc 1 1309 16 view .LVU146
 807 000c 0120     		movs	r0, #1
 808 000e 7047     		bx	lr
 809              	.L87:
 810              		.align	2
 811              	.L86:
 812 0010 00200240 		.word	1073881088
 813              		.cfi_endproc
 814              	.LFE157:
 816              		.section	.text.FLASH_Prefetch_Buffer_Status_Get,"ax",%progbits
 817              		.align	1
 818              		.global	FLASH_Prefetch_Buffer_Status_Get
 819              		.syntax unified
 820              		.thumb
 821              		.thumb_func
 823              	FLASH_Prefetch_Buffer_Status_Get:
 824              	.LFB158:
1316:n32g430_std_periph_driver/src/n32g430_flash.c **** 
1317:n32g430_std_periph_driver/src/n32g430_flash.c **** /**
1318:n32g430_std_periph_driver/src/n32g430_flash.c **** *\*\name   FLASH_Prefetch_Buffer_Status_Get
1319:n32g430_std_periph_driver/src/n32g430_flash.c **** *\*\fun    Checks whether the FLASH Prefetch Buffer status_value is set or not.
1320:n32g430_std_periph_driver/src/n32g430_flash.c **** *\*\note   This function can be used for N32G430 devices.
1321:n32g430_std_periph_driver/src/n32g430_flash.c **** *\*\param  none
1322:n32g430_std_periph_driver/src/n32g430_flash.c **** *\*\return FlagStatus :
1323:n32g430_std_periph_driver/src/n32g430_flash.c **** *\*\        - SET
1324:n32g430_std_periph_driver/src/n32g430_flash.c **** *\*\        - RESET
1325:n32g430_std_periph_driver/src/n32g430_flash.c **** **/
1326:n32g430_std_periph_driver/src/n32g430_flash.c **** FlagStatus FLASH_Prefetch_Buffer_Status_Get(void)
1327:n32g430_std_periph_driver/src/n32g430_flash.c **** {
 825              		.loc 1 1327 1 is_stmt 1 view -0
 826              		.cfi_startproc
 827              		@ args = 0, pretend = 0, frame = 0
 828              		@ frame_needed = 0, uses_anonymous_args = 0
 829              		@ link register save eliminated.
1328:n32g430_std_periph_driver/src/n32g430_flash.c ****     if ((FLASH->AC & FLASH_PRFTBS_MSK) != (uint32_t)RESET)
ARM GAS  C:\Users\Dawn\AppData\Local\Temp\cc12bvwa.s 			page 38


 830              		.loc 1 1328 5 view .LVU148
 831              		.loc 1 1328 15 is_stmt 0 view .LVU149
 832 0000 044B     		ldr	r3, .L91
 833 0002 1B68     		ldr	r3, [r3]
 834              		.loc 1 1328 8 view .LVU150
 835 0004 13F0200F 		tst	r3, #32
 836 0008 01D0     		beq	.L90
1329:n32g430_std_periph_driver/src/n32g430_flash.c ****     {
1330:n32g430_std_periph_driver/src/n32g430_flash.c ****         return SET;
 837              		.loc 1 1330 16 view .LVU151
 838 000a 0120     		movs	r0, #1
 839 000c 7047     		bx	lr
 840              	.L90:
1331:n32g430_std_periph_driver/src/n32g430_flash.c ****     }
1332:n32g430_std_periph_driver/src/n32g430_flash.c ****     else
1333:n32g430_std_periph_driver/src/n32g430_flash.c ****     {
1334:n32g430_std_periph_driver/src/n32g430_flash.c ****         return RESET;
 841              		.loc 1 1334 16 view .LVU152
 842 000e 0020     		movs	r0, #0
1335:n32g430_std_periph_driver/src/n32g430_flash.c ****     }
1336:n32g430_std_periph_driver/src/n32g430_flash.c **** }
 843              		.loc 1 1336 1 view .LVU153
 844 0010 7047     		bx	lr
 845              	.L92:
 846 0012 00BF     		.align	2
 847              	.L91:
 848 0014 00200240 		.word	1073881088
 849              		.cfi_endproc
 850              	.LFE158:
 852              		.section	.text.FLASH_Interrupt_Enable,"ax",%progbits
 853              		.align	1
 854              		.global	FLASH_Interrupt_Enable
 855              		.syntax unified
 856              		.thumb
 857              		.thumb_func
 859              	FLASH_Interrupt_Enable:
 860              	.LVL17:
 861              	.LFB159:
1337:n32g430_std_periph_driver/src/n32g430_flash.c **** 
1338:n32g430_std_periph_driver/src/n32g430_flash.c **** /**
1339:n32g430_std_periph_driver/src/n32g430_flash.c **** *\*\name   FLASH_Interrupt_Enable
1340:n32g430_std_periph_driver/src/n32g430_flash.c **** *\*\fun    Enables the specified FLASH interrupts.
1341:n32g430_std_periph_driver/src/n32g430_flash.c **** *\*\note   This function can be used for N32G430 devices.
1342:n32g430_std_periph_driver/src/n32g430_flash.c **** *\*\param  flash_interrupts :
1343:n32g430_std_periph_driver/src/n32g430_flash.c **** *\*\        - FLASH_INT_ERROR    FLASH Error Interrupt
1344:n32g430_std_periph_driver/src/n32g430_flash.c **** *\*\        - FLASH_INT_EOP      FLASH end of operation Interrupt
1345:n32g430_std_periph_driver/src/n32g430_flash.c **** *\*\return none
1346:n32g430_std_periph_driver/src/n32g430_flash.c **** **/
1347:n32g430_std_periph_driver/src/n32g430_flash.c **** void FLASH_Interrupt_Enable(uint32_t flash_interrupts)
1348:n32g430_std_periph_driver/src/n32g430_flash.c **** {
 862              		.loc 1 1348 1 is_stmt 1 view -0
 863              		.cfi_startproc
 864              		@ args = 0, pretend = 0, frame = 0
 865              		@ frame_needed = 0, uses_anonymous_args = 0
 866              		@ link register save eliminated.
1349:n32g430_std_periph_driver/src/n32g430_flash.c ****     /* Enable the interrupt sources */
1350:n32g430_std_periph_driver/src/n32g430_flash.c ****     FLASH->CTRL |= flash_interrupts;
ARM GAS  C:\Users\Dawn\AppData\Local\Temp\cc12bvwa.s 			page 39


 867              		.loc 1 1350 5 view .LVU155
 868              		.loc 1 1350 10 is_stmt 0 view .LVU156
 869 0000 024A     		ldr	r2, .L94
 870 0002 1369     		ldr	r3, [r2, #16]
 871              		.loc 1 1350 17 view .LVU157
 872 0004 0343     		orrs	r3, r3, r0
 873 0006 1361     		str	r3, [r2, #16]
1351:n32g430_std_periph_driver/src/n32g430_flash.c **** }
 874              		.loc 1 1351 1 view .LVU158
 875 0008 7047     		bx	lr
 876              	.L95:
 877 000a 00BF     		.align	2
 878              	.L94:
 879 000c 00200240 		.word	1073881088
 880              		.cfi_endproc
 881              	.LFE159:
 883              		.section	.text.FLASH_Interrupt_Disable,"ax",%progbits
 884              		.align	1
 885              		.global	FLASH_Interrupt_Disable
 886              		.syntax unified
 887              		.thumb
 888              		.thumb_func
 890              	FLASH_Interrupt_Disable:
 891              	.LVL18:
 892              	.LFB160:
1352:n32g430_std_periph_driver/src/n32g430_flash.c **** 
1353:n32g430_std_periph_driver/src/n32g430_flash.c **** /**
1354:n32g430_std_periph_driver/src/n32g430_flash.c **** *\*\name   FLASH_Interrupt_Disable
1355:n32g430_std_periph_driver/src/n32g430_flash.c **** *\*\fun    Disables the specified FLASH interrupts.
1356:n32g430_std_periph_driver/src/n32g430_flash.c **** *\*\note   This function can be used for N32G430 devices.
1357:n32g430_std_periph_driver/src/n32g430_flash.c **** *\*\param  flash_interrupts :
1358:n32g430_std_periph_driver/src/n32g430_flash.c **** *\*\        - FLASH_INT_ERROR    FLASH Error Interrupt
1359:n32g430_std_periph_driver/src/n32g430_flash.c **** *\*\        - FLASH_INT_EOP      FLASH end of operation Interrupt
1360:n32g430_std_periph_driver/src/n32g430_flash.c **** *\*\return none
1361:n32g430_std_periph_driver/src/n32g430_flash.c **** **/
1362:n32g430_std_periph_driver/src/n32g430_flash.c **** void FLASH_Interrupt_Disable(uint32_t flash_interrupts)
1363:n32g430_std_periph_driver/src/n32g430_flash.c **** {
 893              		.loc 1 1363 1 is_stmt 1 view -0
 894              		.cfi_startproc
 895              		@ args = 0, pretend = 0, frame = 0
 896              		@ frame_needed = 0, uses_anonymous_args = 0
 897              		@ link register save eliminated.
1364:n32g430_std_periph_driver/src/n32g430_flash.c ****     /* Disable the interrupt sources */
1365:n32g430_std_periph_driver/src/n32g430_flash.c ****     FLASH->CTRL &= ~(uint32_t)flash_interrupts;
 898              		.loc 1 1365 5 view .LVU160
 899              		.loc 1 1365 10 is_stmt 0 view .LVU161
 900 0000 024A     		ldr	r2, .L97
 901 0002 1369     		ldr	r3, [r2, #16]
 902              		.loc 1 1365 17 view .LVU162
 903 0004 23EA0003 		bic	r3, r3, r0
 904 0008 1361     		str	r3, [r2, #16]
1366:n32g430_std_periph_driver/src/n32g430_flash.c **** }
 905              		.loc 1 1366 1 view .LVU163
 906 000a 7047     		bx	lr
 907              	.L98:
 908              		.align	2
 909              	.L97:
ARM GAS  C:\Users\Dawn\AppData\Local\Temp\cc12bvwa.s 			page 40


 910 000c 00200240 		.word	1073881088
 911              		.cfi_endproc
 912              	.LFE160:
 914              		.section	.text.FLASH_Flag_Status_Get,"ax",%progbits
 915              		.align	1
 916              		.global	FLASH_Flag_Status_Get
 917              		.syntax unified
 918              		.thumb
 919              		.thumb_func
 921              	FLASH_Flag_Status_Get:
 922              	.LVL19:
 923              	.LFB161:
1367:n32g430_std_periph_driver/src/n32g430_flash.c **** 
1368:n32g430_std_periph_driver/src/n32g430_flash.c **** /**
1369:n32g430_std_periph_driver/src/n32g430_flash.c **** *\*\name   FLASH_Flag_Status_Get
1370:n32g430_std_periph_driver/src/n32g430_flash.c **** *\*\fun    Checks whether the specified FLASH flag is set or not.
1371:n32g430_std_periph_driver/src/n32g430_flash.c **** *\*\note   This function can be used for N32G430 devices.
1372:n32g430_std_periph_driver/src/n32g430_flash.c **** *\*\param  flash_flag :
1373:n32g430_std_periph_driver/src/n32g430_flash.c **** *\*\        - FLASH_FLAG_BUSY      FLASH Busy flag
1374:n32g430_std_periph_driver/src/n32g430_flash.c **** *\*\        - FLASH_FLAG_PGERR     FLASH Program error flag
1375:n32g430_std_periph_driver/src/n32g430_flash.c **** *\*\        - FLASH_FLAG_WRPERR    FLASH Write protected error flag
1376:n32g430_std_periph_driver/src/n32g430_flash.c **** *\*\        - FLASH_FLAG_EOP       FLASH End of Operation flag
1377:n32g430_std_periph_driver/src/n32g430_flash.c **** *\*\return FlagStatus :
1378:n32g430_std_periph_driver/src/n32g430_flash.c **** *\*\        - SET
1379:n32g430_std_periph_driver/src/n32g430_flash.c **** *\*\        - RESET
1380:n32g430_std_periph_driver/src/n32g430_flash.c **** **/
1381:n32g430_std_periph_driver/src/n32g430_flash.c **** FlagStatus FLASH_Flag_Status_Get(uint32_t flash_flag)
1382:n32g430_std_periph_driver/src/n32g430_flash.c **** {
 924              		.loc 1 1382 1 is_stmt 1 view -0
 925              		.cfi_startproc
 926              		@ args = 0, pretend = 0, frame = 0
 927              		@ frame_needed = 0, uses_anonymous_args = 0
 928              		@ link register save eliminated.
1383:n32g430_std_periph_driver/src/n32g430_flash.c ****     if ((FLASH->STS & flash_flag) != (uint32_t)RESET)
 929              		.loc 1 1383 5 view .LVU165
 930              		.loc 1 1383 15 is_stmt 0 view .LVU166
 931 0000 034B     		ldr	r3, .L102
 932 0002 DB68     		ldr	r3, [r3, #12]
 933              		.loc 1 1383 8 view .LVU167
 934 0004 0342     		tst	r3, r0
 935 0006 01D0     		beq	.L101
1384:n32g430_std_periph_driver/src/n32g430_flash.c ****     {
1385:n32g430_std_periph_driver/src/n32g430_flash.c ****         return SET;
 936              		.loc 1 1385 16 view .LVU168
 937 0008 0120     		movs	r0, #1
 938              	.LVL20:
 939              		.loc 1 1385 16 view .LVU169
 940 000a 7047     		bx	lr
 941              	.LVL21:
 942              	.L101:
1386:n32g430_std_periph_driver/src/n32g430_flash.c ****     }
1387:n32g430_std_periph_driver/src/n32g430_flash.c ****     else
1388:n32g430_std_periph_driver/src/n32g430_flash.c ****     {
1389:n32g430_std_periph_driver/src/n32g430_flash.c ****         return RESET;
 943              		.loc 1 1389 16 view .LVU170
 944 000c 0020     		movs	r0, #0
 945              	.LVL22:
ARM GAS  C:\Users\Dawn\AppData\Local\Temp\cc12bvwa.s 			page 41


1390:n32g430_std_periph_driver/src/n32g430_flash.c ****     }
1391:n32g430_std_periph_driver/src/n32g430_flash.c **** }
 946              		.loc 1 1391 1 view .LVU171
 947 000e 7047     		bx	lr
 948              	.L103:
 949              		.align	2
 950              	.L102:
 951 0010 00200240 		.word	1073881088
 952              		.cfi_endproc
 953              	.LFE161:
 955              		.section	.text.FLASH_Option_Bytes_Flag_Get,"ax",%progbits
 956              		.align	1
 957              		.global	FLASH_Option_Bytes_Flag_Get
 958              		.syntax unified
 959              		.thumb
 960              		.thumb_func
 962              	FLASH_Option_Bytes_Flag_Get:
 963              	.LVL23:
 964              	.LFB162:
1392:n32g430_std_periph_driver/src/n32g430_flash.c **** 
1393:n32g430_std_periph_driver/src/n32g430_flash.c **** /**
1394:n32g430_std_periph_driver/src/n32g430_flash.c **** *\*\name   FLASH_Option_Bytes_Flag_Get
1395:n32g430_std_periph_driver/src/n32g430_flash.c **** *\*\fun    Checks whether the specified FLASH flag is set or not.
1396:n32g430_std_periph_driver/src/n32g430_flash.c **** *\*\note   This function can be used for N32G430 devices.
1397:n32g430_std_periph_driver/src/n32g430_flash.c **** *\*\param  flash_flag :
1398:n32g430_std_periph_driver/src/n32g430_flash.c **** *\*\        - FLASH_FLAG_OBERR FLASH Option Byte error flag
1399:n32g430_std_periph_driver/src/n32g430_flash.c **** *\*\return FlagStatus :
1400:n32g430_std_periph_driver/src/n32g430_flash.c **** *\*\        - SET
1401:n32g430_std_periph_driver/src/n32g430_flash.c **** *\*\        - RESET
1402:n32g430_std_periph_driver/src/n32g430_flash.c **** **/
1403:n32g430_std_periph_driver/src/n32g430_flash.c **** FlagStatus FLASH_Option_Bytes_Flag_Get(uint32_t flash_flag)
1404:n32g430_std_periph_driver/src/n32g430_flash.c **** {
 965              		.loc 1 1404 1 is_stmt 1 view -0
 966              		.cfi_startproc
 967              		@ args = 0, pretend = 0, frame = 0
 968              		@ frame_needed = 0, uses_anonymous_args = 0
 969              		@ link register save eliminated.
1405:n32g430_std_periph_driver/src/n32g430_flash.c ****     if ((FLASH->OB & flash_flag) != (uint32_t)RESET)
 970              		.loc 1 1405 5 view .LVU173
 971              		.loc 1 1405 15 is_stmt 0 view .LVU174
 972 0000 034B     		ldr	r3, .L107
 973 0002 DB69     		ldr	r3, [r3, #28]
 974              		.loc 1 1405 8 view .LVU175
 975 0004 0342     		tst	r3, r0
 976 0006 01D0     		beq	.L106
1406:n32g430_std_periph_driver/src/n32g430_flash.c ****     {
1407:n32g430_std_periph_driver/src/n32g430_flash.c ****         return SET;
 977              		.loc 1 1407 16 view .LVU176
 978 0008 0120     		movs	r0, #1
 979              	.LVL24:
 980              		.loc 1 1407 16 view .LVU177
 981 000a 7047     		bx	lr
 982              	.LVL25:
 983              	.L106:
1408:n32g430_std_periph_driver/src/n32g430_flash.c ****     }
1409:n32g430_std_periph_driver/src/n32g430_flash.c ****     else
1410:n32g430_std_periph_driver/src/n32g430_flash.c ****     {
ARM GAS  C:\Users\Dawn\AppData\Local\Temp\cc12bvwa.s 			page 42


1411:n32g430_std_periph_driver/src/n32g430_flash.c ****         return RESET;
 984              		.loc 1 1411 16 view .LVU178
 985 000c 0020     		movs	r0, #0
 986              	.LVL26:
1412:n32g430_std_periph_driver/src/n32g430_flash.c ****     }
1413:n32g430_std_periph_driver/src/n32g430_flash.c **** }
 987              		.loc 1 1413 1 view .LVU179
 988 000e 7047     		bx	lr
 989              	.L108:
 990              		.align	2
 991              	.L107:
 992 0010 00200240 		.word	1073881088
 993              		.cfi_endproc
 994              	.LFE162:
 996              		.section	.text.FLASH_Flag_Status_Clear,"ax",%progbits
 997              		.align	1
 998              		.global	FLASH_Flag_Status_Clear
 999              		.syntax unified
 1000              		.thumb
 1001              		.thumb_func
 1003              	FLASH_Flag_Status_Clear:
 1004              	.LVL27:
 1005              	.LFB163:
1414:n32g430_std_periph_driver/src/n32g430_flash.c **** 
1415:n32g430_std_periph_driver/src/n32g430_flash.c **** /**
1416:n32g430_std_periph_driver/src/n32g430_flash.c **** *\*\name   FLASH_Flag_Status_Clear
1417:n32g430_std_periph_driver/src/n32g430_flash.c **** *\*\fun    Clears the FLASH's status flags.
1418:n32g430_std_periph_driver/src/n32g430_flash.c **** *\*\note   This function can be used for N32G430 devices.
1419:n32g430_std_periph_driver/src/n32g430_flash.c **** *\*\param  flash_flag :
1420:n32g430_std_periph_driver/src/n32g430_flash.c **** *\*\        - FLASH_FLAG_PGERR     FLASH Program error flag
1421:n32g430_std_periph_driver/src/n32g430_flash.c **** *\*\        - FLASH_FLAG_WRPERR    FLASH Write protected error flag
1422:n32g430_std_periph_driver/src/n32g430_flash.c **** *\*\        - FLASH_FLAG_EOP       FLASH End of Operation flag
1423:n32g430_std_periph_driver/src/n32g430_flash.c **** *\*\return none
1424:n32g430_std_periph_driver/src/n32g430_flash.c **** **/
1425:n32g430_std_periph_driver/src/n32g430_flash.c **** void FLASH_Flag_Status_Clear(uint32_t flash_flag)
1426:n32g430_std_periph_driver/src/n32g430_flash.c **** {
 1006              		.loc 1 1426 1 is_stmt 1 view -0
 1007              		.cfi_startproc
 1008              		@ args = 0, pretend = 0, frame = 0
 1009              		@ frame_needed = 0, uses_anonymous_args = 0
 1010              		@ link register save eliminated.
1427:n32g430_std_periph_driver/src/n32g430_flash.c ****     /* Clear the flags */
1428:n32g430_std_periph_driver/src/n32g430_flash.c ****     FLASH->STS |= flash_flag;
 1011              		.loc 1 1428 5 view .LVU181
 1012              		.loc 1 1428 10 is_stmt 0 view .LVU182
 1013 0000 024A     		ldr	r2, .L110
 1014 0002 D368     		ldr	r3, [r2, #12]
 1015              		.loc 1 1428 16 view .LVU183
 1016 0004 0343     		orrs	r3, r3, r0
 1017 0006 D360     		str	r3, [r2, #12]
1429:n32g430_std_periph_driver/src/n32g430_flash.c **** }
 1018              		.loc 1 1429 1 view .LVU184
 1019 0008 7047     		bx	lr
 1020              	.L111:
 1021 000a 00BF     		.align	2
 1022              	.L110:
 1023 000c 00200240 		.word	1073881088
ARM GAS  C:\Users\Dawn\AppData\Local\Temp\cc12bvwa.s 			page 43


 1024              		.cfi_endproc
 1025              	.LFE163:
 1027              		.section	.text.FLASH_Status_Get,"ax",%progbits
 1028              		.align	1
 1029              		.global	FLASH_Status_Get
 1030              		.syntax unified
 1031              		.thumb
 1032              		.thumb_func
 1034              	FLASH_Status_Get:
 1035              	.LFB164:
1430:n32g430_std_periph_driver/src/n32g430_flash.c **** 
1431:n32g430_std_periph_driver/src/n32g430_flash.c **** /**
1432:n32g430_std_periph_driver/src/n32g430_flash.c **** *\*\name   FLASH_Status_Get
1433:n32g430_std_periph_driver/src/n32g430_flash.c **** *\*\fun    Returns the FLASH_STS.
1434:n32g430_std_periph_driver/src/n32g430_flash.c **** *\*\note   This function can be used for N32G430 devices.
1435:n32g430_std_periph_driver/src/n32g430_flash.c **** *\*\param  none
1436:n32g430_std_periph_driver/src/n32g430_flash.c **** *\*\return FLASH_STS :
1437:n32g430_std_periph_driver/src/n32g430_flash.c **** *\*\        - FLASH_BUSY
1438:n32g430_std_periph_driver/src/n32g430_flash.c **** *\*\        - FLASH_ERR_PG 
1439:n32g430_std_periph_driver/src/n32g430_flash.c **** *\*\        - FLASH_ERR_WRP
1440:n32g430_std_periph_driver/src/n32g430_flash.c **** *\*\        - FLASH_EOP
1441:n32g430_std_periph_driver/src/n32g430_flash.c **** **/
1442:n32g430_std_periph_driver/src/n32g430_flash.c **** FLASH_STS FLASH_Status_Get(void)
1443:n32g430_std_periph_driver/src/n32g430_flash.c **** {
 1036              		.loc 1 1443 1 is_stmt 1 view -0
 1037              		.cfi_startproc
 1038              		@ args = 0, pretend = 0, frame = 0
 1039              		@ frame_needed = 0, uses_anonymous_args = 0
 1040              		@ link register save eliminated.
1444:n32g430_std_periph_driver/src/n32g430_flash.c ****     FLASH_STS status_value = FLASH_EOP;
 1041              		.loc 1 1444 5 view .LVU186
 1042              	.LVL28:
1445:n32g430_std_periph_driver/src/n32g430_flash.c **** 
1446:n32g430_std_periph_driver/src/n32g430_flash.c ****     if ((FLASH->STS & FLASH_FLAG_BUSY) == FLASH_FLAG_BUSY)
 1043              		.loc 1 1446 5 view .LVU187
 1044              		.loc 1 1446 15 is_stmt 0 view .LVU188
 1045 0000 0B4B     		ldr	r3, .L117
 1046 0002 DB68     		ldr	r3, [r3, #12]
 1047              		.loc 1 1446 8 view .LVU189
 1048 0004 13F0010F 		tst	r3, #1
 1049 0008 0BD1     		bne	.L114
1447:n32g430_std_periph_driver/src/n32g430_flash.c ****     {
1448:n32g430_std_periph_driver/src/n32g430_flash.c ****         status_value = FLASH_BUSY;
1449:n32g430_std_periph_driver/src/n32g430_flash.c ****     }
1450:n32g430_std_periph_driver/src/n32g430_flash.c ****     else
1451:n32g430_std_periph_driver/src/n32g430_flash.c ****     {
1452:n32g430_std_periph_driver/src/n32g430_flash.c ****         if ((FLASH->STS & FLASH_FLAG_PGERR) != RESET)
 1050              		.loc 1 1452 9 is_stmt 1 view .LVU190
 1051              		.loc 1 1452 19 is_stmt 0 view .LVU191
 1052 000a 094B     		ldr	r3, .L117
 1053 000c DB68     		ldr	r3, [r3, #12]
 1054              		.loc 1 1452 12 view .LVU192
 1055 000e 13F0040F 		tst	r3, #4
 1056 0012 08D1     		bne	.L115
1453:n32g430_std_periph_driver/src/n32g430_flash.c ****         {
1454:n32g430_std_periph_driver/src/n32g430_flash.c ****             status_value = FLASH_ERR_PG;
1455:n32g430_std_periph_driver/src/n32g430_flash.c ****         }
ARM GAS  C:\Users\Dawn\AppData\Local\Temp\cc12bvwa.s 			page 44


1456:n32g430_std_periph_driver/src/n32g430_flash.c ****         else
1457:n32g430_std_periph_driver/src/n32g430_flash.c ****         {
1458:n32g430_std_periph_driver/src/n32g430_flash.c ****             if ((FLASH->STS & FLASH_FLAG_WRPERR) != RESET)
 1057              		.loc 1 1458 13 is_stmt 1 view .LVU193
 1058              		.loc 1 1458 23 is_stmt 0 view .LVU194
 1059 0014 064B     		ldr	r3, .L117
 1060 0016 DB68     		ldr	r3, [r3, #12]
 1061              		.loc 1 1458 16 view .LVU195
 1062 0018 13F0100F 		tst	r3, #16
 1063 001c 05D0     		beq	.L116
1459:n32g430_std_periph_driver/src/n32g430_flash.c ****             {
1460:n32g430_std_periph_driver/src/n32g430_flash.c ****                 status_value = FLASH_ERR_WRP;
 1064              		.loc 1 1460 30 view .LVU196
 1065 001e 0320     		movs	r0, #3
 1066 0020 7047     		bx	lr
 1067              	.L114:
1448:n32g430_std_periph_driver/src/n32g430_flash.c ****     }
 1068              		.loc 1 1448 22 view .LVU197
 1069 0022 0120     		movs	r0, #1
 1070 0024 7047     		bx	lr
 1071              	.L115:
1454:n32g430_std_periph_driver/src/n32g430_flash.c ****         }
 1072              		.loc 1 1454 26 view .LVU198
 1073 0026 0220     		movs	r0, #2
 1074 0028 7047     		bx	lr
 1075              	.L116:
1461:n32g430_std_periph_driver/src/n32g430_flash.c ****             }
1462:n32g430_std_periph_driver/src/n32g430_flash.c ****             else
1463:n32g430_std_periph_driver/src/n32g430_flash.c ****             {
1464:n32g430_std_periph_driver/src/n32g430_flash.c ****                 status_value = FLASH_EOP;
 1076              		.loc 1 1464 30 view .LVU199
 1077 002a 0420     		movs	r0, #4
 1078              	.LVL29:
1465:n32g430_std_periph_driver/src/n32g430_flash.c ****             }
1466:n32g430_std_periph_driver/src/n32g430_flash.c ****         }
1467:n32g430_std_periph_driver/src/n32g430_flash.c ****     }
1468:n32g430_std_periph_driver/src/n32g430_flash.c **** 
1469:n32g430_std_periph_driver/src/n32g430_flash.c ****     /* Return the FLASH_STS */
1470:n32g430_std_periph_driver/src/n32g430_flash.c ****     return status_value;
 1079              		.loc 1 1470 5 is_stmt 1 view .LVU200
1471:n32g430_std_periph_driver/src/n32g430_flash.c **** }
 1080              		.loc 1 1471 1 is_stmt 0 view .LVU201
 1081 002c 7047     		bx	lr
 1082              	.L118:
 1083 002e 00BF     		.align	2
 1084              	.L117:
 1085 0030 00200240 		.word	1073881088
 1086              		.cfi_endproc
 1087              	.LFE164:
 1089              		.section	.text.FLASH_Last_Operation_Wait,"ax",%progbits
 1090              		.align	1
 1091              		.global	FLASH_Last_Operation_Wait
 1092              		.syntax unified
 1093              		.thumb
 1094              		.thumb_func
 1096              	FLASH_Last_Operation_Wait:
 1097              	.LVL30:
ARM GAS  C:\Users\Dawn\AppData\Local\Temp\cc12bvwa.s 			page 45


 1098              	.LFB165:
1472:n32g430_std_periph_driver/src/n32g430_flash.c **** 
1473:n32g430_std_periph_driver/src/n32g430_flash.c **** /**
1474:n32g430_std_periph_driver/src/n32g430_flash.c **** *\*\name   FLASH_Last_Operation_Wait
1475:n32g430_std_periph_driver/src/n32g430_flash.c **** *\*\fun    Waits for a Flash operation to complete or a timeout to occur.
1476:n32g430_std_periph_driver/src/n32g430_flash.c **** *\*\note   This function can be used for N32G430 devices.
1477:n32g430_std_periph_driver/src/n32g430_flash.c **** *\*\param  timeout :
1478:n32g430_std_periph_driver/src/n32g430_flash.c **** *\*\            - ERASE_TIMEOUT
1479:n32g430_std_periph_driver/src/n32g430_flash.c **** *\*\            - PROGRAM_TIMEOUT
1480:n32g430_std_periph_driver/src/n32g430_flash.c **** *\*\return FLASH_STS: The returned value can be: 
1481:n32g430_std_periph_driver/src/n32g430_flash.c **** *\*\            - FLASH_BUSY
1482:n32g430_std_periph_driver/src/n32g430_flash.c **** *\*\            - FLASH_ERR_PG 
1483:n32g430_std_periph_driver/src/n32g430_flash.c **** *\*\            - FLASH_ERR_WRP
1484:n32g430_std_periph_driver/src/n32g430_flash.c **** *\*\            - FLASH_EOP
1485:n32g430_std_periph_driver/src/n32g430_flash.c **** *\*\            - FLASH_TIMEOUT
1486:n32g430_std_periph_driver/src/n32g430_flash.c **** **/
1487:n32g430_std_periph_driver/src/n32g430_flash.c **** FLASH_STS FLASH_Last_Operation_Wait(uint32_t timeout)
1488:n32g430_std_periph_driver/src/n32g430_flash.c **** {
 1099              		.loc 1 1488 1 is_stmt 1 view -0
 1100              		.cfi_startproc
 1101              		@ args = 0, pretend = 0, frame = 0
 1102              		@ frame_needed = 0, uses_anonymous_args = 0
 1103              		.loc 1 1488 1 is_stmt 0 view .LVU203
 1104 0000 10B5     		push	{r4, lr}
 1105              	.LCFI0:
 1106              		.cfi_def_cfa_offset 8
 1107              		.cfi_offset 4, -8
 1108              		.cfi_offset 14, -4
 1109 0002 0446     		mov	r4, r0
1489:n32g430_std_periph_driver/src/n32g430_flash.c ****     FLASH_STS status_value = FLASH_EOP;
 1110              		.loc 1 1489 5 is_stmt 1 view .LVU204
 1111              	.LVL31:
1490:n32g430_std_periph_driver/src/n32g430_flash.c **** 
1491:n32g430_std_periph_driver/src/n32g430_flash.c ****     /* Check for the Flash status_value */
1492:n32g430_std_periph_driver/src/n32g430_flash.c ****     status_value = FLASH_Status_Get();
 1112              		.loc 1 1492 5 view .LVU205
 1113              		.loc 1 1492 20 is_stmt 0 view .LVU206
 1114 0004 FFF7FEFF 		bl	FLASH_Status_Get
 1115              	.LVL32:
1493:n32g430_std_periph_driver/src/n32g430_flash.c ****     /* Wait for a Flash operation to complete or a timeout to occur */
1494:n32g430_std_periph_driver/src/n32g430_flash.c ****     while ((status_value == FLASH_BUSY) && (timeout != 0x00))
 1116              		.loc 1 1494 5 is_stmt 1 view .LVU207
 1117              		.loc 1 1494 11 is_stmt 0 view .LVU208
 1118 0008 02E0     		b	.L120
 1119              	.L122:
1495:n32g430_std_periph_driver/src/n32g430_flash.c ****     {
1496:n32g430_std_periph_driver/src/n32g430_flash.c ****         status_value = FLASH_Status_Get();
 1120              		.loc 1 1496 9 is_stmt 1 view .LVU209
 1121              		.loc 1 1496 24 is_stmt 0 view .LVU210
 1122 000a FFF7FEFF 		bl	FLASH_Status_Get
 1123              	.LVL33:
1497:n32g430_std_periph_driver/src/n32g430_flash.c ****         timeout--;
 1124              		.loc 1 1497 9 is_stmt 1 view .LVU211
 1125              		.loc 1 1497 16 is_stmt 0 view .LVU212
 1126 000e 013C     		subs	r4, r4, #1
 1127              	.LVL34:
 1128              	.L120:
ARM GAS  C:\Users\Dawn\AppData\Local\Temp\cc12bvwa.s 			page 46


1494:n32g430_std_periph_driver/src/n32g430_flash.c ****     {
 1129              		.loc 1 1494 41 is_stmt 1 view .LVU213
 1130 0010 0128     		cmp	r0, #1
 1131 0012 01D1     		bne	.L121
1494:n32g430_std_periph_driver/src/n32g430_flash.c ****     {
 1132              		.loc 1 1494 41 is_stmt 0 discriminator 1 view .LVU214
 1133 0014 002C     		cmp	r4, #0
 1134 0016 F8D1     		bne	.L122
 1135              	.L121:
1498:n32g430_std_periph_driver/src/n32g430_flash.c ****     }
1499:n32g430_std_periph_driver/src/n32g430_flash.c ****     if (timeout == 0x00)
 1136              		.loc 1 1499 5 is_stmt 1 view .LVU215
 1137              		.loc 1 1499 8 is_stmt 0 view .LVU216
 1138 0018 04B1     		cbz	r4, .L126
 1139              	.LVL35:
 1140              	.L123:
1500:n32g430_std_periph_driver/src/n32g430_flash.c ****     {
1501:n32g430_std_periph_driver/src/n32g430_flash.c ****         status_value = FLASH_TIMEOUT;
1502:n32g430_std_periph_driver/src/n32g430_flash.c ****     }
1503:n32g430_std_periph_driver/src/n32g430_flash.c ****     /* Return the operation status_value */
1504:n32g430_std_periph_driver/src/n32g430_flash.c ****     return status_value;
 1141              		.loc 1 1504 5 is_stmt 1 view .LVU217
1505:n32g430_std_periph_driver/src/n32g430_flash.c **** }
 1142              		.loc 1 1505 1 is_stmt 0 view .LVU218
 1143 001a 10BD     		pop	{r4, pc}
 1144              	.LVL36:
 1145              	.L126:
1501:n32g430_std_periph_driver/src/n32g430_flash.c ****     }
 1146              		.loc 1 1501 22 view .LVU219
 1147 001c 0720     		movs	r0, #7
 1148              	.LVL37:
1501:n32g430_std_periph_driver/src/n32g430_flash.c ****     }
 1149              		.loc 1 1501 22 view .LVU220
 1150 001e FCE7     		b	.L123
 1151              		.cfi_endproc
 1152              	.LFE165:
 1154              		.section	.text.FLASH_One_Page_Erase,"ax",%progbits
 1155              		.align	1
 1156              		.global	FLASH_One_Page_Erase
 1157              		.syntax unified
 1158              		.thumb
 1159              		.thumb_func
 1161              	FLASH_One_Page_Erase:
 1162              	.LVL38:
 1163              	.LFB140:
 362:n32g430_std_periph_driver/src/n32g430_flash.c ****     FLASH_STS status_value = FLASH_EOP;
 1164              		.loc 1 362 1 is_stmt 1 view -0
 1165              		.cfi_startproc
 1166              		@ args = 0, pretend = 0, frame = 0
 1167              		@ frame_needed = 0, uses_anonymous_args = 0
 362:n32g430_std_periph_driver/src/n32g430_flash.c ****     FLASH_STS status_value = FLASH_EOP;
 1168              		.loc 1 362 1 is_stmt 0 view .LVU222
 1169 0000 38B5     		push	{r3, r4, r5, lr}
 1170              	.LCFI1:
 1171              		.cfi_def_cfa_offset 16
 1172              		.cfi_offset 3, -16
 1173              		.cfi_offset 4, -12
ARM GAS  C:\Users\Dawn\AppData\Local\Temp\cc12bvwa.s 			page 47


 1174              		.cfi_offset 5, -8
 1175              		.cfi_offset 14, -4
 1176 0002 0446     		mov	r4, r0
 363:n32g430_std_periph_driver/src/n32g430_flash.c **** 
 1177              		.loc 1 363 5 is_stmt 1 view .LVU223
 1178              	.LVL39:
 366:n32g430_std_periph_driver/src/n32g430_flash.c ****     /* Wait for last operation to be completed */
 1179              		.loc 1 366 5 view .LVU224
 1180 0004 3420     		movs	r0, #52
 1181              	.LVL40:
 366:n32g430_std_periph_driver/src/n32g430_flash.c ****     /* Wait for last operation to be completed */
 1182              		.loc 1 366 5 is_stmt 0 view .LVU225
 1183 0006 FFF7FEFF 		bl	FLASH_Flag_Status_Clear
 1184              	.LVL41:
 368:n32g430_std_periph_driver/src/n32g430_flash.c **** 
 1185              		.loc 1 368 5 is_stmt 1 view .LVU226
 368:n32g430_std_periph_driver/src/n32g430_flash.c **** 
 1186              		.loc 1 368 20 is_stmt 0 view .LVU227
 1187 000a 4FF43020 		mov	r0, #720896
 1188 000e FFF7FEFF 		bl	FLASH_Last_Operation_Wait
 1189              	.LVL42:
 370:n32g430_std_periph_driver/src/n32g430_flash.c ****     {
 1190              		.loc 1 370 5 is_stmt 1 view .LVU228
 370:n32g430_std_periph_driver/src/n32g430_flash.c ****     {
 1191              		.loc 1 370 8 is_stmt 0 view .LVU229
 1192 0012 0428     		cmp	r0, #4
 1193 0014 00D0     		beq	.L130
 1194              	.L128:
 386:n32g430_std_periph_driver/src/n32g430_flash.c **** 
 1195              		.loc 1 386 5 is_stmt 1 view .LVU230
 389:n32g430_std_periph_driver/src/n32g430_flash.c **** }
 1196              		.loc 1 389 5 view .LVU231
 390:n32g430_std_periph_driver/src/n32g430_flash.c **** 
 1197              		.loc 1 390 1 is_stmt 0 view .LVU232
 1198 0016 38BD     		pop	{r3, r4, r5, pc}
 1199              	.LVL43:
 1200              	.L130:
 373:n32g430_std_periph_driver/src/n32g430_flash.c ****         FLASH->ADD = page_address;
 1201              		.loc 1 373 9 is_stmt 1 view .LVU233
 373:n32g430_std_periph_driver/src/n32g430_flash.c ****         FLASH->ADD = page_address;
 1202              		.loc 1 373 14 is_stmt 0 view .LVU234
 1203 0018 094D     		ldr	r5, .L131
 1204 001a 2B69     		ldr	r3, [r5, #16]
 373:n32g430_std_periph_driver/src/n32g430_flash.c ****         FLASH->ADD = page_address;
 1205              		.loc 1 373 21 view .LVU235
 1206 001c 43F00203 		orr	r3, r3, #2
 1207 0020 2B61     		str	r3, [r5, #16]
 374:n32g430_std_periph_driver/src/n32g430_flash.c ****         FLASH->CTRL |= FLASH_CTRL_SET_START;
 1208              		.loc 1 374 9 is_stmt 1 view .LVU236
 374:n32g430_std_periph_driver/src/n32g430_flash.c ****         FLASH->CTRL |= FLASH_CTRL_SET_START;
 1209              		.loc 1 374 20 is_stmt 0 view .LVU237
 1210 0022 6C61     		str	r4, [r5, #20]
 375:n32g430_std_periph_driver/src/n32g430_flash.c **** 
 1211              		.loc 1 375 9 is_stmt 1 view .LVU238
 375:n32g430_std_periph_driver/src/n32g430_flash.c **** 
 1212              		.loc 1 375 14 is_stmt 0 view .LVU239
 1213 0024 2B69     		ldr	r3, [r5, #16]
ARM GAS  C:\Users\Dawn\AppData\Local\Temp\cc12bvwa.s 			page 48


 375:n32g430_std_periph_driver/src/n32g430_flash.c **** 
 1214              		.loc 1 375 21 view .LVU240
 1215 0026 43F04003 		orr	r3, r3, #64
 1216 002a 2B61     		str	r3, [r5, #16]
 378:n32g430_std_periph_driver/src/n32g430_flash.c **** 
 1217              		.loc 1 378 9 is_stmt 1 view .LVU241
 378:n32g430_std_periph_driver/src/n32g430_flash.c **** 
 1218              		.loc 1 378 24 is_stmt 0 view .LVU242
 1219 002c 4FF43020 		mov	r0, #720896
 1220              	.LVL44:
 378:n32g430_std_periph_driver/src/n32g430_flash.c **** 
 1221              		.loc 1 378 24 view .LVU243
 1222 0030 FFF7FEFF 		bl	FLASH_Last_Operation_Wait
 1223              	.LVL45:
 381:n32g430_std_periph_driver/src/n32g430_flash.c ****     }
 1224              		.loc 1 381 9 is_stmt 1 view .LVU244
 381:n32g430_std_periph_driver/src/n32g430_flash.c ****     }
 1225              		.loc 1 381 14 is_stmt 0 view .LVU245
 1226 0034 2B69     		ldr	r3, [r5, #16]
 381:n32g430_std_periph_driver/src/n32g430_flash.c ****     }
 1227              		.loc 1 381 21 view .LVU246
 1228 0036 23F00203 		bic	r3, r3, #2
 1229 003a 2B61     		str	r3, [r5, #16]
 1230 003c EBE7     		b	.L128
 1231              	.L132:
 1232 003e 00BF     		.align	2
 1233              	.L131:
 1234 0040 00200240 		.word	1073881088
 1235              		.cfi_endproc
 1236              	.LFE140:
 1238              		.section	.text.FLASH_Mass_Erase,"ax",%progbits
 1239              		.align	1
 1240              		.global	FLASH_Mass_Erase
 1241              		.syntax unified
 1242              		.thumb
 1243              		.thumb_func
 1245              	FLASH_Mass_Erase:
 1246              	.LFB141:
 405:n32g430_std_periph_driver/src/n32g430_flash.c ****     FLASH_STS status_value = FLASH_EOP;
 1247              		.loc 1 405 1 is_stmt 1 view -0
 1248              		.cfi_startproc
 1249              		@ args = 0, pretend = 0, frame = 0
 1250              		@ frame_needed = 0, uses_anonymous_args = 0
 1251 0000 10B5     		push	{r4, lr}
 1252              	.LCFI2:
 1253              		.cfi_def_cfa_offset 8
 1254              		.cfi_offset 4, -8
 1255              		.cfi_offset 14, -4
 406:n32g430_std_periph_driver/src/n32g430_flash.c **** 
 1256              		.loc 1 406 5 view .LVU248
 1257              	.LVL46:
 409:n32g430_std_periph_driver/src/n32g430_flash.c ****     /* Wait for last operation to be completed */
 1258              		.loc 1 409 5 view .LVU249
 1259 0002 3420     		movs	r0, #52
 1260 0004 FFF7FEFF 		bl	FLASH_Flag_Status_Clear
 1261              	.LVL47:
 411:n32g430_std_periph_driver/src/n32g430_flash.c **** 
ARM GAS  C:\Users\Dawn\AppData\Local\Temp\cc12bvwa.s 			page 49


 1262              		.loc 1 411 5 view .LVU250
 411:n32g430_std_periph_driver/src/n32g430_flash.c **** 
 1263              		.loc 1 411 20 is_stmt 0 view .LVU251
 1264 0008 4FF43020 		mov	r0, #720896
 1265 000c FFF7FEFF 		bl	FLASH_Last_Operation_Wait
 1266              	.LVL48:
 413:n32g430_std_periph_driver/src/n32g430_flash.c ****     {
 1267              		.loc 1 413 5 is_stmt 1 view .LVU252
 413:n32g430_std_periph_driver/src/n32g430_flash.c ****     {
 1268              		.loc 1 413 8 is_stmt 0 view .LVU253
 1269 0010 0428     		cmp	r0, #4
 1270 0012 00D0     		beq	.L136
 1271              	.L134:
 428:n32g430_std_periph_driver/src/n32g430_flash.c **** 
 1272              		.loc 1 428 5 is_stmt 1 view .LVU254
 431:n32g430_std_periph_driver/src/n32g430_flash.c **** }
 1273              		.loc 1 431 5 view .LVU255
 432:n32g430_std_periph_driver/src/n32g430_flash.c **** 
 1274              		.loc 1 432 1 is_stmt 0 view .LVU256
 1275 0014 10BD     		pop	{r4, pc}
 1276              	.L136:
 416:n32g430_std_periph_driver/src/n32g430_flash.c ****         FLASH->CTRL |= FLASH_CTRL_SET_START;
 1277              		.loc 1 416 9 is_stmt 1 view .LVU257
 416:n32g430_std_periph_driver/src/n32g430_flash.c ****         FLASH->CTRL |= FLASH_CTRL_SET_START;
 1278              		.loc 1 416 14 is_stmt 0 view .LVU258
 1279 0016 094C     		ldr	r4, .L137
 1280 0018 2369     		ldr	r3, [r4, #16]
 416:n32g430_std_periph_driver/src/n32g430_flash.c ****         FLASH->CTRL |= FLASH_CTRL_SET_START;
 1281              		.loc 1 416 21 view .LVU259
 1282 001a 43F00403 		orr	r3, r3, #4
 1283 001e 2361     		str	r3, [r4, #16]
 417:n32g430_std_periph_driver/src/n32g430_flash.c **** 
 1284              		.loc 1 417 9 is_stmt 1 view .LVU260
 417:n32g430_std_periph_driver/src/n32g430_flash.c **** 
 1285              		.loc 1 417 14 is_stmt 0 view .LVU261
 1286 0020 2369     		ldr	r3, [r4, #16]
 417:n32g430_std_periph_driver/src/n32g430_flash.c **** 
 1287              		.loc 1 417 21 view .LVU262
 1288 0022 43F04003 		orr	r3, r3, #64
 1289 0026 2361     		str	r3, [r4, #16]
 420:n32g430_std_periph_driver/src/n32g430_flash.c **** 
 1290              		.loc 1 420 9 is_stmt 1 view .LVU263
 420:n32g430_std_periph_driver/src/n32g430_flash.c **** 
 1291              		.loc 1 420 24 is_stmt 0 view .LVU264
 1292 0028 4FF43020 		mov	r0, #720896
 1293              	.LVL49:
 420:n32g430_std_periph_driver/src/n32g430_flash.c **** 
 1294              		.loc 1 420 24 view .LVU265
 1295 002c FFF7FEFF 		bl	FLASH_Last_Operation_Wait
 1296              	.LVL50:
 423:n32g430_std_periph_driver/src/n32g430_flash.c ****     }
 1297              		.loc 1 423 9 is_stmt 1 view .LVU266
 423:n32g430_std_periph_driver/src/n32g430_flash.c ****     }
 1298              		.loc 1 423 14 is_stmt 0 view .LVU267
 1299 0030 2369     		ldr	r3, [r4, #16]
 423:n32g430_std_periph_driver/src/n32g430_flash.c ****     }
 1300              		.loc 1 423 21 view .LVU268
ARM GAS  C:\Users\Dawn\AppData\Local\Temp\cc12bvwa.s 			page 50


 1301 0032 23F00403 		bic	r3, r3, #4
 1302 0036 2361     		str	r3, [r4, #16]
 1303 0038 ECE7     		b	.L134
 1304              	.L138:
 1305 003a 00BF     		.align	2
 1306              	.L137:
 1307 003c 00200240 		.word	1073881088
 1308              		.cfi_endproc
 1309              	.LFE141:
 1311              		.section	.text.FLASH_Word_Program,"ax",%progbits
 1312              		.align	1
 1313              		.global	FLASH_Word_Program
 1314              		.syntax unified
 1315              		.thumb
 1316              		.thumb_func
 1318              	FLASH_Word_Program:
 1319              	.LVL51:
 1320              	.LFB142:
 451:n32g430_std_periph_driver/src/n32g430_flash.c ****     FLASH_STS status_value  = FLASH_EOP;
 1321              		.loc 1 451 1 is_stmt 1 view -0
 1322              		.cfi_startproc
 1323              		@ args = 0, pretend = 0, frame = 0
 1324              		@ frame_needed = 0, uses_anonymous_args = 0
 452:n32g430_std_periph_driver/src/n32g430_flash.c **** 
 1325              		.loc 1 452 5 view .LVU270
 454:n32g430_std_periph_driver/src/n32g430_flash.c ****     {
 1326              		.loc 1 454 5 view .LVU271
 454:n32g430_std_periph_driver/src/n32g430_flash.c ****     {
 1327              		.loc 1 454 7 is_stmt 0 view .LVU272
 1328 0000 10F0030F 		tst	r0, #3
 1329 0004 1BD1     		bne	.L141
 451:n32g430_std_periph_driver/src/n32g430_flash.c ****     FLASH_STS status_value  = FLASH_EOP;
 1330              		.loc 1 451 1 view .LVU273
 1331 0006 70B5     		push	{r4, r5, r6, lr}
 1332              	.LCFI3:
 1333              		.cfi_def_cfa_offset 16
 1334              		.cfi_offset 4, -16
 1335              		.cfi_offset 5, -12
 1336              		.cfi_offset 6, -8
 1337              		.cfi_offset 14, -4
 1338 0008 0446     		mov	r4, r0
 1339 000a 0D46     		mov	r5, r1
 462:n32g430_std_periph_driver/src/n32g430_flash.c **** 
 1340              		.loc 1 462 5 is_stmt 1 view .LVU274
 465:n32g430_std_periph_driver/src/n32g430_flash.c ****     /* Wait for last operation to be completed */
 1341              		.loc 1 465 5 view .LVU275
 1342 000c 3420     		movs	r0, #52
 1343              	.LVL52:
 465:n32g430_std_periph_driver/src/n32g430_flash.c ****     /* Wait for last operation to be completed */
 1344              		.loc 1 465 5 is_stmt 0 view .LVU276
 1345 000e FFF7FEFF 		bl	FLASH_Flag_Status_Clear
 1346              	.LVL53:
 467:n32g430_std_periph_driver/src/n32g430_flash.c **** 
 1347              		.loc 1 467 5 is_stmt 1 view .LVU277
 467:n32g430_std_periph_driver/src/n32g430_flash.c **** 
 1348              		.loc 1 467 20 is_stmt 0 view .LVU278
 1349 0012 4FF40050 		mov	r0, #8192
ARM GAS  C:\Users\Dawn\AppData\Local\Temp\cc12bvwa.s 			page 51


 1350 0016 FFF7FEFF 		bl	FLASH_Last_Operation_Wait
 1351              	.LVL54:
 469:n32g430_std_periph_driver/src/n32g430_flash.c ****     {
 1352              		.loc 1 469 5 is_stmt 1 view .LVU279
 469:n32g430_std_periph_driver/src/n32g430_flash.c ****     {
 1353              		.loc 1 469 8 is_stmt 0 view .LVU280
 1354 001a 0428     		cmp	r0, #4
 1355 001c 00D0     		beq	.L146
 1356              	.L140:
 1357              	.LVL55:
 488:n32g430_std_periph_driver/src/n32g430_flash.c **** 
 1358              		.loc 1 488 1 view .LVU281
 1359 001e 70BD     		pop	{r4, r5, r6, pc}
 1360              	.LVL56:
 1361              	.L146:
 472:n32g430_std_periph_driver/src/n32g430_flash.c **** 
 1362              		.loc 1 472 9 is_stmt 1 view .LVU282
 472:n32g430_std_periph_driver/src/n32g430_flash.c **** 
 1363              		.loc 1 472 14 is_stmt 0 view .LVU283
 1364 0020 084E     		ldr	r6, .L147
 1365 0022 3369     		ldr	r3, [r6, #16]
 472:n32g430_std_periph_driver/src/n32g430_flash.c **** 
 1366              		.loc 1 472 21 view .LVU284
 1367 0024 43F00103 		orr	r3, r3, #1
 1368 0028 3361     		str	r3, [r6, #16]
 474:n32g430_std_periph_driver/src/n32g430_flash.c ****         /* Wait for last operation to be completed */
 1369              		.loc 1 474 9 is_stmt 1 view .LVU285
 474:n32g430_std_periph_driver/src/n32g430_flash.c ****         /* Wait for last operation to be completed */
 1370              		.loc 1 474 34 is_stmt 0 view .LVU286
 1371 002a 2560     		str	r5, [r4]
 476:n32g430_std_periph_driver/src/n32g430_flash.c **** 
 1372              		.loc 1 476 9 is_stmt 1 view .LVU287
 476:n32g430_std_periph_driver/src/n32g430_flash.c **** 
 1373              		.loc 1 476 24 is_stmt 0 view .LVU288
 1374 002c 4FF40050 		mov	r0, #8192
 1375              	.LVL57:
 476:n32g430_std_periph_driver/src/n32g430_flash.c **** 
 1376              		.loc 1 476 24 view .LVU289
 1377 0030 FFF7FEFF 		bl	FLASH_Last_Operation_Wait
 1378              	.LVL58:
 479:n32g430_std_periph_driver/src/n32g430_flash.c ****     }
 1379              		.loc 1 479 9 is_stmt 1 view .LVU290
 479:n32g430_std_periph_driver/src/n32g430_flash.c ****     }
 1380              		.loc 1 479 14 is_stmt 0 view .LVU291
 1381 0034 3369     		ldr	r3, [r6, #16]
 479:n32g430_std_periph_driver/src/n32g430_flash.c ****     }
 1382              		.loc 1 479 21 view .LVU292
 1383 0036 23F00103 		bic	r3, r3, #1
 1384 003a 3361     		str	r3, [r6, #16]
 1385 003c EFE7     		b	.L140
 1386              	.LVL59:
 1387              	.L141:
 1388              	.LCFI4:
 1389              		.cfi_def_cfa_offset 0
 1390              		.cfi_restore 4
 1391              		.cfi_restore 5
 1392              		.cfi_restore 6
ARM GAS  C:\Users\Dawn\AppData\Local\Temp\cc12bvwa.s 			page 52


 1393              		.cfi_restore 14
 457:n32g430_std_periph_driver/src/n32g430_flash.c ****     }
 1394              		.loc 1 457 16 view .LVU293
 1395 003e 0620     		movs	r0, #6
 1396              	.LVL60:
 488:n32g430_std_periph_driver/src/n32g430_flash.c **** 
 1397              		.loc 1 488 1 view .LVU294
 1398 0040 7047     		bx	lr
 1399              	.L148:
 1400 0042 00BF     		.align	2
 1401              	.L147:
 1402 0044 00200240 		.word	1073881088
 1403              		.cfi_endproc
 1404              	.LFE142:
 1406              		.section	.text.FLASH_Option_Bytes_Erase,"ax",%progbits
 1407              		.align	1
 1408              		.global	FLASH_Option_Bytes_Erase
 1409              		.syntax unified
 1410              		.thumb
 1411              		.thumb_func
 1413              	FLASH_Option_Bytes_Erase:
 1414              	.LFB143:
 507:n32g430_std_periph_driver/src/n32g430_flash.c ****     FLASH_STS status_value = FLASH_EOP;
 1415              		.loc 1 507 1 is_stmt 1 view -0
 1416              		.cfi_startproc
 1417              		@ args = 0, pretend = 0, frame = 0
 1418              		@ frame_needed = 0, uses_anonymous_args = 0
 1419 0000 10B5     		push	{r4, lr}
 1420              	.LCFI5:
 1421              		.cfi_def_cfa_offset 8
 1422              		.cfi_offset 4, -8
 1423              		.cfi_offset 14, -4
 508:n32g430_std_periph_driver/src/n32g430_flash.c **** 
 1424              		.loc 1 508 5 view .LVU296
 1425              	.LVL61:
 511:n32g430_std_periph_driver/src/n32g430_flash.c ****     {
 1426              		.loc 1 511 5 view .LVU297
 511:n32g430_std_periph_driver/src/n32g430_flash.c ****     {
 1427              		.loc 1 511 9 is_stmt 0 view .LVU298
 1428 0002 FFF7FEFF 		bl	FLASH_Read_Out_Protection_L2_Status_Get
 1429              	.LVL62:
 511:n32g430_std_periph_driver/src/n32g430_flash.c ****     {
 1430              		.loc 1 511 8 discriminator 1 view .LVU299
 1431 0006 70BB     		cbnz	r0, .L152
 518:n32g430_std_periph_driver/src/n32g430_flash.c **** 
 1432              		.loc 1 518 5 is_stmt 1 view .LVU300
 521:n32g430_std_periph_driver/src/n32g430_flash.c ****     /* Wait for last operation to be completed */
 1433              		.loc 1 521 5 view .LVU301
 1434 0008 3420     		movs	r0, #52
 1435 000a FFF7FEFF 		bl	FLASH_Flag_Status_Clear
 1436              	.LVL63:
 523:n32g430_std_periph_driver/src/n32g430_flash.c **** 
 1437              		.loc 1 523 5 view .LVU302
 523:n32g430_std_periph_driver/src/n32g430_flash.c **** 
 1438              		.loc 1 523 20 is_stmt 0 view .LVU303
 1439 000e 4FF43020 		mov	r0, #720896
 1440 0012 FFF7FEFF 		bl	FLASH_Last_Operation_Wait
ARM GAS  C:\Users\Dawn\AppData\Local\Temp\cc12bvwa.s 			page 53


 1441              	.LVL64:
 1442 0016 0446     		mov	r4, r0
 1443              	.LVL65:
 525:n32g430_std_periph_driver/src/n32g430_flash.c ****     {
 1444              		.loc 1 525 5 is_stmt 1 view .LVU304
 525:n32g430_std_periph_driver/src/n32g430_flash.c ****     {
 1445              		.loc 1 525 8 is_stmt 0 view .LVU305
 1446 0018 0428     		cmp	r0, #4
 1447 001a 01D0     		beq	.L154
 1448              	.LVL66:
 1449              	.L150:
 562:n32g430_std_periph_driver/src/n32g430_flash.c **** 
 1450              		.loc 1 562 1 view .LVU306
 1451 001c 2046     		mov	r0, r4
 1452 001e 10BD     		pop	{r4, pc}
 1453              	.LVL67:
 1454              	.L154:
 527:n32g430_std_periph_driver/src/n32g430_flash.c **** 
 1455              		.loc 1 527 9 is_stmt 1 view .LVU307
 1456 0020 FFF7FEFF 		bl	Option_Bytes_Unlock
 1457              	.LVL68:
 530:n32g430_std_periph_driver/src/n32g430_flash.c ****         FLASH->CTRL |= FLASH_CTRL_SET_START;
 1458              		.loc 1 530 9 view .LVU308
 530:n32g430_std_periph_driver/src/n32g430_flash.c ****         FLASH->CTRL |= FLASH_CTRL_SET_START;
 1459              		.loc 1 530 14 is_stmt 0 view .LVU309
 1460 0024 114B     		ldr	r3, .L156
 1461 0026 1A69     		ldr	r2, [r3, #16]
 530:n32g430_std_periph_driver/src/n32g430_flash.c ****         FLASH->CTRL |= FLASH_CTRL_SET_START;
 1462              		.loc 1 530 21 view .LVU310
 1463 0028 42F02002 		orr	r2, r2, #32
 1464 002c 1A61     		str	r2, [r3, #16]
 531:n32g430_std_periph_driver/src/n32g430_flash.c ****         /* Wait for last operation to be completed */
 1465              		.loc 1 531 9 is_stmt 1 view .LVU311
 531:n32g430_std_periph_driver/src/n32g430_flash.c ****         /* Wait for last operation to be completed */
 1466              		.loc 1 531 14 is_stmt 0 view .LVU312
 1467 002e 1A69     		ldr	r2, [r3, #16]
 531:n32g430_std_periph_driver/src/n32g430_flash.c ****         /* Wait for last operation to be completed */
 1468              		.loc 1 531 21 view .LVU313
 1469 0030 42F04002 		orr	r2, r2, #64
 1470 0034 1A61     		str	r2, [r3, #16]
 533:n32g430_std_periph_driver/src/n32g430_flash.c **** 
 1471              		.loc 1 533 9 is_stmt 1 view .LVU314
 533:n32g430_std_periph_driver/src/n32g430_flash.c **** 
 1472              		.loc 1 533 24 is_stmt 0 view .LVU315
 1473 0036 4FF43020 		mov	r0, #720896
 1474 003a FFF7FEFF 		bl	FLASH_Last_Operation_Wait
 1475              	.LVL69:
 1476 003e 0446     		mov	r4, r0
 1477              	.LVL70:
 535:n32g430_std_periph_driver/src/n32g430_flash.c ****         {
 1478              		.loc 1 535 9 is_stmt 1 view .LVU316
 535:n32g430_std_periph_driver/src/n32g430_flash.c ****         {
 1479              		.loc 1 535 12 is_stmt 0 view .LVU317
 1480 0040 0428     		cmp	r0, #4
 1481 0042 07D0     		beq	.L155
 545:n32g430_std_periph_driver/src/n32g430_flash.c ****             {
 1482              		.loc 1 545 13 is_stmt 1 view .LVU318
ARM GAS  C:\Users\Dawn\AppData\Local\Temp\cc12bvwa.s 			page 54


 545:n32g430_std_periph_driver/src/n32g430_flash.c ****             {
 1483              		.loc 1 545 16 is_stmt 0 view .LVU319
 1484 0044 0728     		cmp	r0, #7
 1485 0046 E9D0     		beq	.L150
 548:n32g430_std_periph_driver/src/n32g430_flash.c ****             }
 1486              		.loc 1 548 17 is_stmt 1 view .LVU320
 548:n32g430_std_periph_driver/src/n32g430_flash.c ****             }
 1487              		.loc 1 548 22 is_stmt 0 view .LVU321
 1488 0048 084A     		ldr	r2, .L156
 1489 004a 1369     		ldr	r3, [r2, #16]
 548:n32g430_std_periph_driver/src/n32g430_flash.c ****             }
 1490              		.loc 1 548 29 view .LVU322
 1491 004c 23F02003 		bic	r3, r3, #32
 1492 0050 1361     		str	r3, [r2, #16]
 1493 0052 E3E7     		b	.L150
 1494              	.L155:
 538:n32g430_std_periph_driver/src/n32g430_flash.c **** 
 1495              		.loc 1 538 13 is_stmt 1 view .LVU323
 1496 0054 3420     		movs	r0, #52
 1497              	.LVL71:
 538:n32g430_std_periph_driver/src/n32g430_flash.c **** 
 1498              		.loc 1 538 13 is_stmt 0 view .LVU324
 1499 0056 FFF7FEFF 		bl	FLASH_Flag_Status_Clear
 1500              	.LVL72:
 541:n32g430_std_periph_driver/src/n32g430_flash.c ****         }
 1501              		.loc 1 541 13 is_stmt 1 view .LVU325
 541:n32g430_std_periph_driver/src/n32g430_flash.c ****         }
 1502              		.loc 1 541 18 is_stmt 0 view .LVU326
 1503 005a 044A     		ldr	r2, .L156
 1504 005c 1369     		ldr	r3, [r2, #16]
 541:n32g430_std_periph_driver/src/n32g430_flash.c ****         }
 1505              		.loc 1 541 25 view .LVU327
 1506 005e 23F02003 		bic	r3, r3, #32
 1507 0062 1361     		str	r3, [r2, #16]
 1508 0064 DAE7     		b	.L150
 1509              	.LVL73:
 1510              	.L152:
 513:n32g430_std_periph_driver/src/n32g430_flash.c ****     }
 1511              		.loc 1 513 16 view .LVU328
 1512 0066 0524     		movs	r4, #5
 1513 0068 D8E7     		b	.L150
 1514              	.L157:
 1515 006a 00BF     		.align	2
 1516              	.L156:
 1517 006c 00200240 		.word	1073881088
 1518              		.cfi_endproc
 1519              	.LFE143:
 1521              		.section	.text.FLASH_Option_Bytes_User_RDP1_Program,"ax",%progbits
 1522              		.align	1
 1523              		.global	FLASH_Option_Bytes_User_RDP1_Program
 1524              		.syntax unified
 1525              		.thumb
 1526              		.thumb_func
 1528              	FLASH_Option_Bytes_User_RDP1_Program:
 1529              	.LVL74:
 1530              	.LFB144:
 606:n32g430_std_periph_driver/src/n32g430_flash.c ****     FLASH_STS status_value = FLASH_EOP;
ARM GAS  C:\Users\Dawn\AppData\Local\Temp\cc12bvwa.s 			page 55


 1531              		.loc 1 606 1 is_stmt 1 view -0
 1532              		.cfi_startproc
 1533              		@ args = 16, pretend = 0, frame = 0
 1534              		@ frame_needed = 0, uses_anonymous_args = 0
 606:n32g430_std_periph_driver/src/n32g430_flash.c ****     FLASH_STS status_value = FLASH_EOP;
 1535              		.loc 1 606 1 is_stmt 0 view .LVU330
 1536 0000 F8B5     		push	{r3, r4, r5, r6, r7, lr}
 1537              	.LCFI6:
 1538              		.cfi_def_cfa_offset 24
 1539              		.cfi_offset 3, -24
 1540              		.cfi_offset 4, -20
 1541              		.cfi_offset 5, -16
 1542              		.cfi_offset 6, -12
 1543              		.cfi_offset 7, -8
 1544              		.cfi_offset 14, -4
 1545 0002 0546     		mov	r5, r0
 1546 0004 0E46     		mov	r6, r1
 1547 0006 1746     		mov	r7, r2
 1548 0008 1C46     		mov	r4, r3
 607:n32g430_std_periph_driver/src/n32g430_flash.c **** 
 1549              		.loc 1 607 5 is_stmt 1 view .LVU331
 1550              	.LVL75:
 610:n32g430_std_periph_driver/src/n32g430_flash.c ****     {
 1551              		.loc 1 610 5 view .LVU332
 610:n32g430_std_periph_driver/src/n32g430_flash.c ****     {
 1552              		.loc 1 610 9 is_stmt 0 view .LVU333
 1553 000a FFF7FEFF 		bl	FLASH_Read_Out_Protection_L2_Status_Get
 1554              	.LVL76:
 610:n32g430_std_periph_driver/src/n32g430_flash.c ****     {
 1555              		.loc 1 610 8 discriminator 1 view .LVU334
 1556 000e 80BB     		cbnz	r0, .L160
 617:n32g430_std_periph_driver/src/n32g430_flash.c **** 
 1557              		.loc 1 617 5 is_stmt 1 view .LVU335
 619:n32g430_std_periph_driver/src/n32g430_flash.c **** 
 1558              		.loc 1 619 5 view .LVU336
 1559 0010 FFF7FEFF 		bl	Option_Bytes_Unlock
 1560              	.LVL77:
 622:n32g430_std_periph_driver/src/n32g430_flash.c ****     /* Wait for last operation to be completed */
 1561              		.loc 1 622 5 view .LVU337
 1562 0014 3420     		movs	r0, #52
 1563 0016 FFF7FEFF 		bl	FLASH_Flag_Status_Clear
 1564              	.LVL78:
 624:n32g430_std_periph_driver/src/n32g430_flash.c **** 
 1565              		.loc 1 624 5 view .LVU338
 624:n32g430_std_periph_driver/src/n32g430_flash.c **** 
 1566              		.loc 1 624 20 is_stmt 0 view .LVU339
 1567 001a 4FF43020 		mov	r0, #720896
 1568 001e FFF7FEFF 		bl	FLASH_Last_Operation_Wait
 1569              	.LVL79:
 626:n32g430_std_periph_driver/src/n32g430_flash.c ****     {
 1570              		.loc 1 626 5 is_stmt 1 view .LVU340
 626:n32g430_std_periph_driver/src/n32g430_flash.c ****     {
 1571              		.loc 1 626 8 is_stmt 0 view .LVU341
 1572 0022 0428     		cmp	r0, #4
 1573 0024 00D0     		beq	.L162
 1574              	.LVL80:
 1575              	.L159:
ARM GAS  C:\Users\Dawn\AppData\Local\Temp\cc12bvwa.s 			page 56


 655:n32g430_std_periph_driver/src/n32g430_flash.c **** 
 1576              		.loc 1 655 1 view .LVU342
 1577 0026 F8BD     		pop	{r3, r4, r5, r6, r7, pc}
 1578              	.LVL81:
 1579              	.L162:
 629:n32g430_std_periph_driver/src/n32g430_flash.c ****         /* Restore the last read protection Option Byte value */
 1580              		.loc 1 629 9 is_stmt 1 view .LVU343
 629:n32g430_std_periph_driver/src/n32g430_flash.c ****         /* Restore the last read protection Option Byte value */
 1581              		.loc 1 629 14 is_stmt 0 view .LVU344
 1582 0028 134A     		ldr	r2, .L163
 1583 002a 1369     		ldr	r3, [r2, #16]
 629:n32g430_std_periph_driver/src/n32g430_flash.c ****         /* Restore the last read protection Option Byte value */
 1584              		.loc 1 629 21 view .LVU345
 1585 002c 43F01003 		orr	r3, r3, #16
 1586 0030 1361     		str	r3, [r2, #16]
 1587              	.LVL82:
 631:n32g430_std_periph_driver/src/n32g430_flash.c ****             (uint32_t)option_byte_rpd1
 1588              		.loc 1 631 9 is_stmt 1 view .LVU346
 633:n32g430_std_periph_driver/src/n32g430_flash.c ****             | option_byte_iwdg_stop2 | option_byte_iwdg_stdby | option_byte_iwdg_sleep)) << FLASH_U
 1589              		.loc 1 633 17 is_stmt 0 view .LVU347
 1590 0032 46EA0701 		orr	r1, r6, r7
 1591 0036 44EA0103 		orr	r3, r4, r1
 1592 003a BDF81820 		ldrh	r2, [sp, #24]
 1593 003e 1A43     		orrs	r2, r2, r3
 1594 0040 BDF81C30 		ldrh	r3, [sp, #28]
 1595 0044 1343     		orrs	r3, r3, r2
 1596 0046 BDF82020 		ldrh	r2, [sp, #32]
 1597 004a 1A43     		orrs	r2, r2, r3
 1598 004c BDF82430 		ldrh	r3, [sp, #36]
 1599 0050 1343     		orrs	r3, r3, r2
 633:n32g430_std_periph_driver/src/n32g430_flash.c ****             | option_byte_iwdg_stop2 | option_byte_iwdg_stdby | option_byte_iwdg_sleep)) << FLASH_U
 1600              		.loc 1 633 13 view .LVU348
 1601 0052 45EA0345 		orr	r5, r5, r3, lsl #16
 631:n32g430_std_periph_driver/src/n32g430_flash.c ****             (uint32_t)option_byte_rpd1
 1602              		.loc 1 631 23 view .LVU349
 1603 0056 094B     		ldr	r3, .L163+4
 1604 0058 1D60     		str	r5, [r3]
 637:n32g430_std_periph_driver/src/n32g430_flash.c ****         if (status_value != FLASH_TIMEOUT)
 1605              		.loc 1 637 9 is_stmt 1 view .LVU350
 637:n32g430_std_periph_driver/src/n32g430_flash.c ****         if (status_value != FLASH_TIMEOUT)
 1606              		.loc 1 637 24 is_stmt 0 view .LVU351
 1607 005a 4FF40050 		mov	r0, #8192
 1608              	.LVL83:
 637:n32g430_std_periph_driver/src/n32g430_flash.c ****         if (status_value != FLASH_TIMEOUT)
 1609              		.loc 1 637 24 view .LVU352
 1610 005e FFF7FEFF 		bl	FLASH_Last_Operation_Wait
 1611              	.LVL84:
 638:n32g430_std_periph_driver/src/n32g430_flash.c ****         {
 1612              		.loc 1 638 9 is_stmt 1 view .LVU353
 638:n32g430_std_periph_driver/src/n32g430_flash.c ****         {
 1613              		.loc 1 638 12 is_stmt 0 view .LVU354
 1614 0062 0728     		cmp	r0, #7
 1615 0064 DFD0     		beq	.L159
 641:n32g430_std_periph_driver/src/n32g430_flash.c ****         }
 1616              		.loc 1 641 13 is_stmt 1 view .LVU355
 641:n32g430_std_periph_driver/src/n32g430_flash.c ****         }
 1617              		.loc 1 641 18 is_stmt 0 view .LVU356
ARM GAS  C:\Users\Dawn\AppData\Local\Temp\cc12bvwa.s 			page 57


 1618 0066 044A     		ldr	r2, .L163
 1619 0068 1369     		ldr	r3, [r2, #16]
 641:n32g430_std_periph_driver/src/n32g430_flash.c ****         }
 1620              		.loc 1 641 25 view .LVU357
 1621 006a 23F01003 		bic	r3, r3, #16
 1622 006e 1361     		str	r3, [r2, #16]
 1623 0070 D9E7     		b	.L159
 1624              	.LVL85:
 1625              	.L160:
 612:n32g430_std_periph_driver/src/n32g430_flash.c ****     }
 1626              		.loc 1 612 16 view .LVU358
 1627 0072 0520     		movs	r0, #5
 1628 0074 D7E7     		b	.L159
 1629              	.L164:
 1630 0076 00BF     		.align	2
 1631              	.L163:
 1632 0078 00200240 		.word	1073881088
 1633 007c 00F8FF1F 		.word	536868864
 1634              		.cfi_endproc
 1635              	.LFE144:
 1637              		.section	.text.FLASH_Option_Bytes_DATA_Program,"ax",%progbits
 1638              		.align	1
 1639              		.global	FLASH_Option_Bytes_DATA_Program
 1640              		.syntax unified
 1641              		.thumb
 1642              		.thumb_func
 1644              	FLASH_Option_Bytes_DATA_Program:
 1645              	.LVL86:
 1646              	.LFB145:
 675:n32g430_std_periph_driver/src/n32g430_flash.c ****     FLASH_STS status_value = FLASH_EOP;
 1647              		.loc 1 675 1 is_stmt 1 view -0
 1648              		.cfi_startproc
 1649              		@ args = 0, pretend = 0, frame = 0
 1650              		@ frame_needed = 0, uses_anonymous_args = 0
 675:n32g430_std_periph_driver/src/n32g430_flash.c ****     FLASH_STS status_value = FLASH_EOP;
 1651              		.loc 1 675 1 is_stmt 0 view .LVU360
 1652 0000 70B5     		push	{r4, r5, r6, lr}
 1653              	.LCFI7:
 1654              		.cfi_def_cfa_offset 16
 1655              		.cfi_offset 4, -16
 1656              		.cfi_offset 5, -12
 1657              		.cfi_offset 6, -8
 1658              		.cfi_offset 14, -4
 1659 0002 0646     		mov	r6, r0
 1660 0004 0D46     		mov	r5, r1
 676:n32g430_std_periph_driver/src/n32g430_flash.c ****  
 1661              		.loc 1 676 5 is_stmt 1 view .LVU361
 1662              	.LVL87:
 679:n32g430_std_periph_driver/src/n32g430_flash.c ****     /* Wait for last operation to be completed */
 1663              		.loc 1 679 5 view .LVU362
 1664 0006 3420     		movs	r0, #52
 1665              	.LVL88:
 679:n32g430_std_periph_driver/src/n32g430_flash.c ****     /* Wait for last operation to be completed */
 1666              		.loc 1 679 5 is_stmt 0 view .LVU363
 1667 0008 FFF7FEFF 		bl	FLASH_Flag_Status_Clear
 1668              	.LVL89:
 681:n32g430_std_periph_driver/src/n32g430_flash.c **** 
ARM GAS  C:\Users\Dawn\AppData\Local\Temp\cc12bvwa.s 			page 58


 1669              		.loc 1 681 5 is_stmt 1 view .LVU364
 681:n32g430_std_periph_driver/src/n32g430_flash.c **** 
 1670              		.loc 1 681 20 is_stmt 0 view .LVU365
 1671 000c 4FF40050 		mov	r0, #8192
 1672 0010 FFF7FEFF 		bl	FLASH_Last_Operation_Wait
 1673              	.LVL90:
 1674 0014 0446     		mov	r4, r0
 1675              	.LVL91:
 684:n32g430_std_periph_driver/src/n32g430_flash.c ****     {
 1676              		.loc 1 684 5 is_stmt 1 view .LVU366
 684:n32g430_std_periph_driver/src/n32g430_flash.c ****     {
 1677              		.loc 1 684 9 is_stmt 0 view .LVU367
 1678 0016 FFF7FEFF 		bl	FLASH_Read_Out_Protection_L2_Status_Get
 1679              	.LVL92:
 684:n32g430_std_periph_driver/src/n32g430_flash.c ****     {
 1680              		.loc 1 684 8 discriminator 1 view .LVU368
 1681 001a D8B9     		cbnz	r0, .L167
 691:n32g430_std_periph_driver/src/n32g430_flash.c **** 
 1682              		.loc 1 691 5 is_stmt 1 view .LVU369
 693:n32g430_std_periph_driver/src/n32g430_flash.c ****     {
 1683              		.loc 1 693 5 view .LVU370
 693:n32g430_std_periph_driver/src/n32g430_flash.c ****     {
 1684              		.loc 1 693 8 is_stmt 0 view .LVU371
 1685 001c 042C     		cmp	r4, #4
 1686 001e 01D0     		beq	.L169
 1687              	.LVL93:
 1688              	.L166:
 719:n32g430_std_periph_driver/src/n32g430_flash.c **** 
 1689              		.loc 1 719 1 view .LVU372
 1690 0020 2046     		mov	r0, r4
 1691 0022 70BD     		pop	{r4, r5, r6, pc}
 1692              	.LVL94:
 1693              	.L169:
 695:n32g430_std_periph_driver/src/n32g430_flash.c ****         /* Enables the Option Bytes Programming operation */
 1694              		.loc 1 695 9 is_stmt 1 view .LVU373
 1695 0024 FFF7FEFF 		bl	Option_Bytes_Unlock
 1696              	.LVL95:
 697:n32g430_std_periph_driver/src/n32g430_flash.c ****         OBT->Data1_Data0 = (((uint32_t)option_byte_data1) << FLASH_DATA0_DATA1_OFFSET) \
 1697              		.loc 1 697 9 view .LVU374
 697:n32g430_std_periph_driver/src/n32g430_flash.c ****         OBT->Data1_Data0 = (((uint32_t)option_byte_data1) << FLASH_DATA0_DATA1_OFFSET) \
 1698              		.loc 1 697 14 is_stmt 0 view .LVU375
 1699 0028 0B4A     		ldr	r2, .L170
 1700 002a 1369     		ldr	r3, [r2, #16]
 697:n32g430_std_periph_driver/src/n32g430_flash.c ****         OBT->Data1_Data0 = (((uint32_t)option_byte_data1) << FLASH_DATA0_DATA1_OFFSET) \
 1701              		.loc 1 697 21 view .LVU376
 1702 002c 43F01003 		orr	r3, r3, #16
 1703 0030 1361     		str	r3, [r2, #16]
 698:n32g430_std_periph_driver/src/n32g430_flash.c ****                           | ((uint32_t)option_byte_data0);
 1704              		.loc 1 698 9 is_stmt 1 view .LVU377
 699:n32g430_std_periph_driver/src/n32g430_flash.c **** 
 1705              		.loc 1 699 27 is_stmt 0 view .LVU378
 1706 0032 46EA0545 		orr	r5, r6, r5, lsl #16
 698:n32g430_std_periph_driver/src/n32g430_flash.c ****                           | ((uint32_t)option_byte_data0);
 1707              		.loc 1 698 26 view .LVU379
 1708 0036 094B     		ldr	r3, .L170+4
 1709 0038 5D60     		str	r5, [r3, #4]
 702:n32g430_std_periph_driver/src/n32g430_flash.c ****         if (status_value != FLASH_TIMEOUT)
ARM GAS  C:\Users\Dawn\AppData\Local\Temp\cc12bvwa.s 			page 59


 1710              		.loc 1 702 9 is_stmt 1 view .LVU380
 702:n32g430_std_periph_driver/src/n32g430_flash.c ****         if (status_value != FLASH_TIMEOUT)
 1711              		.loc 1 702 24 is_stmt 0 view .LVU381
 1712 003a 4FF40050 		mov	r0, #8192
 1713 003e FFF7FEFF 		bl	FLASH_Last_Operation_Wait
 1714              	.LVL96:
 1715 0042 0446     		mov	r4, r0
 1716              	.LVL97:
 703:n32g430_std_periph_driver/src/n32g430_flash.c ****         {
 1717              		.loc 1 703 9 is_stmt 1 view .LVU382
 703:n32g430_std_periph_driver/src/n32g430_flash.c ****         {
 1718              		.loc 1 703 12 is_stmt 0 view .LVU383
 1719 0044 0728     		cmp	r0, #7
 1720 0046 EBD0     		beq	.L166
 706:n32g430_std_periph_driver/src/n32g430_flash.c ****         }
 1721              		.loc 1 706 13 is_stmt 1 view .LVU384
 706:n32g430_std_periph_driver/src/n32g430_flash.c ****         }
 1722              		.loc 1 706 18 is_stmt 0 view .LVU385
 1723 0048 034A     		ldr	r2, .L170
 1724 004a 1369     		ldr	r3, [r2, #16]
 706:n32g430_std_periph_driver/src/n32g430_flash.c ****         }
 1725              		.loc 1 706 25 view .LVU386
 1726 004c 23F01003 		bic	r3, r3, #16
 1727 0050 1361     		str	r3, [r2, #16]
 1728 0052 E5E7     		b	.L166
 1729              	.LVL98:
 1730              	.L167:
 686:n32g430_std_periph_driver/src/n32g430_flash.c ****     }
 1731              		.loc 1 686 16 view .LVU387
 1732 0054 0524     		movs	r4, #5
 1733              	.LVL99:
 686:n32g430_std_periph_driver/src/n32g430_flash.c ****     }
 1734              		.loc 1 686 16 view .LVU388
 1735 0056 E3E7     		b	.L166
 1736              	.L171:
 1737              		.align	2
 1738              	.L170:
 1739 0058 00200240 		.word	1073881088
 1740 005c 00F8FF1F 		.word	536868864
 1741              		.cfi_endproc
 1742              	.LFE145:
 1744              		.section	.text.FLASH_Write_Protection_Enable,"ax",%progbits
 1745              		.align	1
 1746              		.global	FLASH_Write_Protection_Enable
 1747              		.syntax unified
 1748              		.thumb
 1749              		.thumb_func
 1751              	FLASH_Write_Protection_Enable:
 1752              	.LVL100:
 1753              	.LFB146:
 752:n32g430_std_periph_driver/src/n32g430_flash.c ****     uint16_t WRP0_Data = 0xFFFF, WRP1_Data = 0xFFFF;
 1754              		.loc 1 752 1 is_stmt 1 view -0
 1755              		.cfi_startproc
 1756              		@ args = 0, pretend = 0, frame = 0
 1757              		@ frame_needed = 0, uses_anonymous_args = 0
 752:n32g430_std_periph_driver/src/n32g430_flash.c ****     uint16_t WRP0_Data = 0xFFFF, WRP1_Data = 0xFFFF;
 1758              		.loc 1 752 1 is_stmt 0 view .LVU390
ARM GAS  C:\Users\Dawn\AppData\Local\Temp\cc12bvwa.s 			page 60


 1759 0000 70B5     		push	{r4, r5, r6, lr}
 1760              	.LCFI8:
 1761              		.cfi_def_cfa_offset 16
 1762              		.cfi_offset 4, -16
 1763              		.cfi_offset 5, -12
 1764              		.cfi_offset 6, -8
 1765              		.cfi_offset 14, -4
 1766 0002 0446     		mov	r4, r0
 753:n32g430_std_periph_driver/src/n32g430_flash.c **** 
 1767              		.loc 1 753 5 is_stmt 1 view .LVU391
 1768              	.LVL101:
 755:n32g430_std_periph_driver/src/n32g430_flash.c **** 
 1769              		.loc 1 755 5 view .LVU392
 758:n32g430_std_periph_driver/src/n32g430_flash.c ****     {
 1770              		.loc 1 758 5 view .LVU393
 758:n32g430_std_periph_driver/src/n32g430_flash.c ****     {
 1771              		.loc 1 758 9 is_stmt 0 view .LVU394
 1772 0004 FFF7FEFF 		bl	FLASH_Read_Out_Protection_L2_Status_Get
 1773              	.LVL102:
 758:n32g430_std_periph_driver/src/n32g430_flash.c ****     {
 1774              		.loc 1 758 8 discriminator 1 view .LVU395
 1775 0008 58BB     		cbnz	r0, .L176
 765:n32g430_std_periph_driver/src/n32g430_flash.c **** 
 1776              		.loc 1 765 5 is_stmt 1 view .LVU396
 767:n32g430_std_periph_driver/src/n32g430_flash.c ****     WRP0_Data   = (uint16_t)( flash_pages & FLASH_WRP0_MSK);
 1777              		.loc 1 767 5 view .LVU397
 767:n32g430_std_periph_driver/src/n32g430_flash.c ****     WRP0_Data   = (uint16_t)( flash_pages & FLASH_WRP0_MSK);
 1778              		.loc 1 767 17 is_stmt 0 view .LVU398
 1779 000a E043     		mvns	r0, r4
 1780              	.LVL103:
 768:n32g430_std_periph_driver/src/n32g430_flash.c ****     WRP1_Data   = (uint16_t)((flash_pages & FLASH_WRP1_MSK) >> FLASH_WRP_WRP1_OFFSET);
 1781              		.loc 1 768 5 is_stmt 1 view .LVU399
 768:n32g430_std_periph_driver/src/n32g430_flash.c ****     WRP1_Data   = (uint16_t)((flash_pages & FLASH_WRP1_MSK) >> FLASH_WRP_WRP1_OFFSET);
 1782              		.loc 1 768 17 is_stmt 0 view .LVU400
 1783 000c C6B2     		uxtb	r6, r0
 1784              	.LVL104:
 769:n32g430_std_periph_driver/src/n32g430_flash.c **** 
 1785              		.loc 1 769 5 is_stmt 1 view .LVU401
 769:n32g430_std_periph_driver/src/n32g430_flash.c **** 
 1786              		.loc 1 769 17 is_stmt 0 view .LVU402
 1787 000e C0F30724 		ubfx	r4, r0, #8, #8
 1788              	.LVL105:
 772:n32g430_std_periph_driver/src/n32g430_flash.c ****     /* Wait for last operation to be completed */
 1789              		.loc 1 772 5 is_stmt 1 view .LVU403
 1790 0012 3420     		movs	r0, #52
 1791              	.LVL106:
 772:n32g430_std_periph_driver/src/n32g430_flash.c ****     /* Wait for last operation to be completed */
 1792              		.loc 1 772 5 is_stmt 0 view .LVU404
 1793 0014 FFF7FEFF 		bl	FLASH_Flag_Status_Clear
 1794              	.LVL107:
 774:n32g430_std_periph_driver/src/n32g430_flash.c **** 
 1795              		.loc 1 774 5 is_stmt 1 view .LVU405
 774:n32g430_std_periph_driver/src/n32g430_flash.c **** 
 1796              		.loc 1 774 20 is_stmt 0 view .LVU406
 1797 0018 4FF40050 		mov	r0, #8192
 1798 001c FFF7FEFF 		bl	FLASH_Last_Operation_Wait
 1799              	.LVL108:
ARM GAS  C:\Users\Dawn\AppData\Local\Temp\cc12bvwa.s 			page 61


 1800 0020 0546     		mov	r5, r0
 1801              	.LVL109:
 776:n32g430_std_periph_driver/src/n32g430_flash.c ****     {
 1802              		.loc 1 776 5 is_stmt 1 view .LVU407
 776:n32g430_std_periph_driver/src/n32g430_flash.c ****     {
 1803              		.loc 1 776 8 is_stmt 0 view .LVU408
 1804 0022 0428     		cmp	r0, #4
 1805 0024 01D0     		beq	.L178
 1806              	.LVL110:
 1807              	.L173:
 809:n32g430_std_periph_driver/src/n32g430_flash.c **** 
 1808              		.loc 1 809 1 view .LVU409
 1809 0026 2846     		mov	r0, r5
 1810 0028 70BD     		pop	{r4, r5, r6, pc}
 1811              	.LVL111:
 1812              	.L178:
 778:n32g430_std_periph_driver/src/n32g430_flash.c ****         FLASH->CTRL |= FLASH_CTRL_SET_OPTPG;
 1813              		.loc 1 778 9 is_stmt 1 view .LVU410
 1814 002a FFF7FEFF 		bl	Option_Bytes_Unlock
 1815              	.LVL112:
 779:n32g430_std_periph_driver/src/n32g430_flash.c **** 
 1816              		.loc 1 779 9 view .LVU411
 779:n32g430_std_periph_driver/src/n32g430_flash.c **** 
 1817              		.loc 1 779 14 is_stmt 0 view .LVU412
 1818 002e 0E4A     		ldr	r2, .L179
 1819 0030 1369     		ldr	r3, [r2, #16]
 779:n32g430_std_periph_driver/src/n32g430_flash.c **** 
 1820              		.loc 1 779 21 view .LVU413
 1821 0032 43F01003 		orr	r3, r3, #16
 1822 0036 1361     		str	r3, [r2, #16]
 781:n32g430_std_periph_driver/src/n32g430_flash.c ****         {
 1823              		.loc 1 781 9 is_stmt 1 view .LVU414
 781:n32g430_std_periph_driver/src/n32g430_flash.c ****         {
 1824              		.loc 1 781 12 is_stmt 0 view .LVU415
 1825 0038 FF2E     		cmp	r6, #255
 1826 003a 01D1     		bne	.L174
 781:n32g430_std_periph_driver/src/n32g430_flash.c ****         {
 1827              		.loc 1 781 33 discriminator 1 view .LVU416
 1828 003c FF2C     		cmp	r4, #255
 1829 003e 08D0     		beq	.L175
 1830              	.L174:
 783:n32g430_std_periph_driver/src/n32g430_flash.c **** 
 1831              		.loc 1 783 13 is_stmt 1 view .LVU417
 783:n32g430_std_periph_driver/src/n32g430_flash.c **** 
 1832              		.loc 1 783 53 is_stmt 0 view .LVU418
 1833 0040 46EA0446 		orr	r6, r6, r4, lsl #16
 1834              	.LVL113:
 783:n32g430_std_periph_driver/src/n32g430_flash.c **** 
 1835              		.loc 1 783 28 view .LVU419
 1836 0044 094B     		ldr	r3, .L179+4
 1837 0046 9E60     		str	r6, [r3, #8]
 786:n32g430_std_periph_driver/src/n32g430_flash.c ****         }
 1838              		.loc 1 786 13 is_stmt 1 view .LVU420
 786:n32g430_std_periph_driver/src/n32g430_flash.c ****         }
 1839              		.loc 1 786 28 is_stmt 0 view .LVU421
 1840 0048 4FF40050 		mov	r0, #8192
 1841 004c FFF7FEFF 		bl	FLASH_Last_Operation_Wait
ARM GAS  C:\Users\Dawn\AppData\Local\Temp\cc12bvwa.s 			page 62


 1842              	.LVL114:
 1843 0050 0546     		mov	r5, r0
 1844              	.L175:
 1845              	.LVL115:
 793:n32g430_std_periph_driver/src/n32g430_flash.c ****         {
 1846              		.loc 1 793 9 is_stmt 1 view .LVU422
 793:n32g430_std_periph_driver/src/n32g430_flash.c ****         {
 1847              		.loc 1 793 12 is_stmt 0 view .LVU423
 1848 0052 072D     		cmp	r5, #7
 1849 0054 E7D0     		beq	.L173
 796:n32g430_std_periph_driver/src/n32g430_flash.c ****         }
 1850              		.loc 1 796 13 is_stmt 1 view .LVU424
 796:n32g430_std_periph_driver/src/n32g430_flash.c ****         }
 1851              		.loc 1 796 18 is_stmt 0 view .LVU425
 1852 0056 044A     		ldr	r2, .L179
 1853 0058 1369     		ldr	r3, [r2, #16]
 796:n32g430_std_periph_driver/src/n32g430_flash.c ****         }
 1854              		.loc 1 796 25 view .LVU426
 1855 005a 23F01003 		bic	r3, r3, #16
 1856 005e 1361     		str	r3, [r2, #16]
 1857 0060 E1E7     		b	.L173
 1858              	.LVL116:
 1859              	.L176:
 760:n32g430_std_periph_driver/src/n32g430_flash.c ****     }
 1860              		.loc 1 760 16 view .LVU427
 1861 0062 0525     		movs	r5, #5
 1862 0064 DFE7     		b	.L173
 1863              	.L180:
 1864 0066 00BF     		.align	2
 1865              	.L179:
 1866 0068 00200240 		.word	1073881088
 1867 006c 00F8FF1F 		.word	536868864
 1868              		.cfi_endproc
 1869              	.LFE146:
 1871              		.section	.text.FLASH_Option_Bytes_User2_RDP2_Program,"ax",%progbits
 1872              		.align	1
 1873              		.global	FLASH_Option_Bytes_User2_RDP2_Program
 1874              		.syntax unified
 1875              		.thumb
 1876              		.thumb_func
 1878              	FLASH_Option_Bytes_User2_RDP2_Program:
 1879              	.LVL117:
 1880              	.LFB147:
 838:n32g430_std_periph_driver/src/n32g430_flash.c ****     FLASH_STS status_value = FLASH_EOP;
 1881              		.loc 1 838 1 is_stmt 1 view -0
 1882              		.cfi_startproc
 1883              		@ args = 0, pretend = 0, frame = 0
 1884              		@ frame_needed = 0, uses_anonymous_args = 0
 838:n32g430_std_periph_driver/src/n32g430_flash.c ****     FLASH_STS status_value = FLASH_EOP;
 1885              		.loc 1 838 1 is_stmt 0 view .LVU429
 1886 0000 F8B5     		push	{r3, r4, r5, r6, r7, lr}
 1887              	.LCFI9:
 1888              		.cfi_def_cfa_offset 24
 1889              		.cfi_offset 3, -24
 1890              		.cfi_offset 4, -20
 1891              		.cfi_offset 5, -16
 1892              		.cfi_offset 6, -12
ARM GAS  C:\Users\Dawn\AppData\Local\Temp\cc12bvwa.s 			page 63


 1893              		.cfi_offset 7, -8
 1894              		.cfi_offset 14, -4
 1895 0002 0546     		mov	r5, r0
 1896 0004 0E46     		mov	r6, r1
 1897 0006 1746     		mov	r7, r2
 1898 0008 1C46     		mov	r4, r3
 839:n32g430_std_periph_driver/src/n32g430_flash.c **** 
 1899              		.loc 1 839 5 is_stmt 1 view .LVU430
 1900              	.LVL118:
 842:n32g430_std_periph_driver/src/n32g430_flash.c ****     {
 1901              		.loc 1 842 5 view .LVU431
 842:n32g430_std_periph_driver/src/n32g430_flash.c ****     {
 1902              		.loc 1 842 9 is_stmt 0 view .LVU432
 1903 000a FFF7FEFF 		bl	FLASH_Read_Out_Protection_L2_Status_Get
 1904              	.LVL119:
 842:n32g430_std_periph_driver/src/n32g430_flash.c ****     {
 1905              		.loc 1 842 8 discriminator 1 view .LVU433
 1906 000e 20BB     		cbnz	r0, .L183
 849:n32g430_std_periph_driver/src/n32g430_flash.c **** 
 1907              		.loc 1 849 5 is_stmt 1 view .LVU434
 851:n32g430_std_periph_driver/src/n32g430_flash.c **** 
 1908              		.loc 1 851 5 view .LVU435
 1909 0010 FFF7FEFF 		bl	Option_Bytes_Unlock
 1910              	.LVL120:
 854:n32g430_std_periph_driver/src/n32g430_flash.c ****     /* Wait for last operation to be completed */
 1911              		.loc 1 854 5 view .LVU436
 1912 0014 3420     		movs	r0, #52
 1913 0016 FFF7FEFF 		bl	FLASH_Flag_Status_Clear
 1914              	.LVL121:
 856:n32g430_std_periph_driver/src/n32g430_flash.c **** 
 1915              		.loc 1 856 5 view .LVU437
 856:n32g430_std_periph_driver/src/n32g430_flash.c **** 
 1916              		.loc 1 856 20 is_stmt 0 view .LVU438
 1917 001a 4FF43020 		mov	r0, #720896
 1918 001e FFF7FEFF 		bl	FLASH_Last_Operation_Wait
 1919              	.LVL122:
 858:n32g430_std_periph_driver/src/n32g430_flash.c ****     {
 1920              		.loc 1 858 5 is_stmt 1 view .LVU439
 858:n32g430_std_periph_driver/src/n32g430_flash.c ****     {
 1921              		.loc 1 858 8 is_stmt 0 view .LVU440
 1922 0022 0428     		cmp	r0, #4
 1923 0024 00D0     		beq	.L185
 1924              	.LVL123:
 1925              	.L182:
 885:n32g430_std_periph_driver/src/n32g430_flash.c **** 
 1926              		.loc 1 885 1 view .LVU441
 1927 0026 F8BD     		pop	{r3, r4, r5, r6, r7, pc}
 1928              	.LVL124:
 1929              	.L185:
 861:n32g430_std_periph_driver/src/n32g430_flash.c ****         /* Restore the last read protection Option Byte value */
 1930              		.loc 1 861 9 is_stmt 1 view .LVU442
 861:n32g430_std_periph_driver/src/n32g430_flash.c ****         /* Restore the last read protection Option Byte value */
 1931              		.loc 1 861 14 is_stmt 0 view .LVU443
 1932 0028 0D4A     		ldr	r2, .L186
 1933 002a 1369     		ldr	r3, [r2, #16]
 861:n32g430_std_periph_driver/src/n32g430_flash.c ****         /* Restore the last read protection Option Byte value */
 1934              		.loc 1 861 21 view .LVU444
ARM GAS  C:\Users\Dawn\AppData\Local\Temp\cc12bvwa.s 			page 64


 1935 002c 43F01003 		orr	r3, r3, #16
 1936 0030 1361     		str	r3, [r2, #16]
 863:n32g430_std_periph_driver/src/n32g430_flash.c ****         (((uint32_t)(option_byte2_nBOOT0 | option_byte2_nBOOT1 | option_byte2_nSWBOOT0)) << FLASH_O
 1937              		.loc 1 863 9 is_stmt 1 view .LVU445
 864:n32g430_std_periph_driver/src/n32g430_flash.c ****         
 1938              		.loc 1 864 11 is_stmt 0 view .LVU446
 1939 0032 46EA0701 		orr	r1, r6, r7
 1940 0036 44EA0103 		orr	r3, r4, r1
 863:n32g430_std_periph_driver/src/n32g430_flash.c ****         (((uint32_t)(option_byte2_nBOOT0 | option_byte2_nBOOT1 | option_byte2_nSWBOOT0)) << FLASH_O
 1941              		.loc 1 863 57 view .LVU447
 1942 003a 45EA0345 		orr	r5, r5, r3, lsl #16
 863:n32g430_std_periph_driver/src/n32g430_flash.c ****         (((uint32_t)(option_byte2_nBOOT0 | option_byte2_nBOOT1 | option_byte2_nSWBOOT0)) << FLASH_O
 1943              		.loc 1 863 25 view .LVU448
 1944 003e 094B     		ldr	r3, .L186+4
 1945 0040 DD60     		str	r5, [r3, #12]
 867:n32g430_std_periph_driver/src/n32g430_flash.c ****         if (status_value != FLASH_TIMEOUT)
 1946              		.loc 1 867 9 is_stmt 1 view .LVU449
 867:n32g430_std_periph_driver/src/n32g430_flash.c ****         if (status_value != FLASH_TIMEOUT)
 1947              		.loc 1 867 24 is_stmt 0 view .LVU450
 1948 0042 4FF40050 		mov	r0, #8192
 1949              	.LVL125:
 867:n32g430_std_periph_driver/src/n32g430_flash.c ****         if (status_value != FLASH_TIMEOUT)
 1950              		.loc 1 867 24 view .LVU451
 1951 0046 FFF7FEFF 		bl	FLASH_Last_Operation_Wait
 1952              	.LVL126:
 868:n32g430_std_periph_driver/src/n32g430_flash.c ****         {
 1953              		.loc 1 868 9 is_stmt 1 view .LVU452
 868:n32g430_std_periph_driver/src/n32g430_flash.c ****         {
 1954              		.loc 1 868 12 is_stmt 0 view .LVU453
 1955 004a 0728     		cmp	r0, #7
 1956 004c EBD0     		beq	.L182
 871:n32g430_std_periph_driver/src/n32g430_flash.c ****         }
 1957              		.loc 1 871 13 is_stmt 1 view .LVU454
 871:n32g430_std_periph_driver/src/n32g430_flash.c ****         }
 1958              		.loc 1 871 18 is_stmt 0 view .LVU455
 1959 004e 044A     		ldr	r2, .L186
 1960 0050 1369     		ldr	r3, [r2, #16]
 871:n32g430_std_periph_driver/src/n32g430_flash.c ****         }
 1961              		.loc 1 871 25 view .LVU456
 1962 0052 23F01003 		bic	r3, r3, #16
 1963 0056 1361     		str	r3, [r2, #16]
 1964 0058 E5E7     		b	.L182
 1965              	.LVL127:
 1966              	.L183:
 844:n32g430_std_periph_driver/src/n32g430_flash.c ****     }
 1967              		.loc 1 844 16 view .LVU457
 1968 005a 0520     		movs	r0, #5
 1969 005c E3E7     		b	.L182
 1970              	.L187:
 1971 005e 00BF     		.align	2
 1972              	.L186:
 1973 0060 00200240 		.word	1073881088
 1974 0064 00F8FF1F 		.word	536868864
 1975              		.cfi_endproc
 1976              	.LFE147:
 1978              		.section	.text.FLASH_Read_Out_Protection_L1_Enable,"ax",%progbits
 1979              		.align	1
ARM GAS  C:\Users\Dawn\AppData\Local\Temp\cc12bvwa.s 			page 65


 1980              		.global	FLASH_Read_Out_Protection_L1_Enable
 1981              		.syntax unified
 1982              		.thumb
 1983              		.thumb_func
 1985              	FLASH_Read_Out_Protection_L1_Enable:
 1986              	.LFB148:
 903:n32g430_std_periph_driver/src/n32g430_flash.c ****     uint32_t user_temp;
 1987              		.loc 1 903 1 is_stmt 1 view -0
 1988              		.cfi_startproc
 1989              		@ args = 0, pretend = 0, frame = 0
 1990              		@ frame_needed = 0, uses_anonymous_args = 0
 1991 0000 10B5     		push	{r4, lr}
 1992              	.LCFI10:
 1993              		.cfi_def_cfa_offset 8
 1994              		.cfi_offset 4, -8
 1995              		.cfi_offset 14, -4
 904:n32g430_std_periph_driver/src/n32g430_flash.c ****     FLASH_STS status_value = FLASH_EOP;
 1996              		.loc 1 904 5 view .LVU459
 905:n32g430_std_periph_driver/src/n32g430_flash.c **** 
 1997              		.loc 1 905 5 view .LVU460
 1998              	.LVL128:
 907:n32g430_std_periph_driver/src/n32g430_flash.c **** 
 1999              		.loc 1 907 5 view .LVU461
 907:n32g430_std_periph_driver/src/n32g430_flash.c **** 
 2000              		.loc 1 907 44 is_stmt 0 view .LVU462
 2001 0002 244B     		ldr	r3, .L195
 2002 0004 DC69     		ldr	r4, [r3, #28]
 2003              	.LVL129:
 910:n32g430_std_periph_driver/src/n32g430_flash.c ****     {
 2004              		.loc 1 910 5 is_stmt 1 view .LVU463
 910:n32g430_std_periph_driver/src/n32g430_flash.c ****     {
 2005              		.loc 1 910 9 is_stmt 0 view .LVU464
 2006 0006 FFF7FEFF 		bl	FLASH_Read_Out_Protection_L2_Status_Get
 2007              	.LVL130:
 910:n32g430_std_periph_driver/src/n32g430_flash.c ****     {
 2008              		.loc 1 910 8 discriminator 1 view .LVU465
 2009 000a 0028     		cmp	r0, #0
 2010 000c 3FD1     		bne	.L191
 2011 000e A403     		lsls	r4, r4, #14
 2012              	.LVL131:
 917:n32g430_std_periph_driver/src/n32g430_flash.c **** 
 2013              		.loc 1 917 5 is_stmt 1 view .LVU466
 920:n32g430_std_periph_driver/src/n32g430_flash.c ****     /* Wait for last operation to be completed */
 2014              		.loc 1 920 5 view .LVU467
 2015 0010 3420     		movs	r0, #52
 2016 0012 FFF7FEFF 		bl	FLASH_Flag_Status_Clear
 2017              	.LVL132:
 922:n32g430_std_periph_driver/src/n32g430_flash.c **** 
 2018              		.loc 1 922 5 view .LVU468
 922:n32g430_std_periph_driver/src/n32g430_flash.c **** 
 2019              		.loc 1 922 20 is_stmt 0 view .LVU469
 2020 0016 4FF43020 		mov	r0, #720896
 2021 001a FFF7FEFF 		bl	FLASH_Last_Operation_Wait
 2022              	.LVL133:
 924:n32g430_std_periph_driver/src/n32g430_flash.c ****     {
 2023              		.loc 1 924 5 is_stmt 1 view .LVU470
 924:n32g430_std_periph_driver/src/n32g430_flash.c ****     {
ARM GAS  C:\Users\Dawn\AppData\Local\Temp\cc12bvwa.s 			page 66


 2024              		.loc 1 924 8 is_stmt 0 view .LVU471
 2025 001e 0428     		cmp	r0, #4
 2026 0020 00D0     		beq	.L193
 2027              	.LVL134:
 2028              	.L189:
 974:n32g430_std_periph_driver/src/n32g430_flash.c **** 
 2029              		.loc 1 974 1 view .LVU472
 2030 0022 10BD     		pop	{r4, pc}
 2031              	.LVL135:
 2032              	.L193:
 926:n32g430_std_periph_driver/src/n32g430_flash.c ****         FLASH->CTRL |= FLASH_CTRL_SET_OPTER;
 2033              		.loc 1 926 9 is_stmt 1 view .LVU473
 2034 0024 FFF7FEFF 		bl	Option_Bytes_Unlock
 2035              	.LVL136:
 927:n32g430_std_periph_driver/src/n32g430_flash.c ****         FLASH->CTRL |= FLASH_CTRL_SET_START;
 2036              		.loc 1 927 9 view .LVU474
 927:n32g430_std_periph_driver/src/n32g430_flash.c ****         FLASH->CTRL |= FLASH_CTRL_SET_START;
 2037              		.loc 1 927 14 is_stmt 0 view .LVU475
 2038 0028 1A4B     		ldr	r3, .L195
 2039 002a 1A69     		ldr	r2, [r3, #16]
 927:n32g430_std_periph_driver/src/n32g430_flash.c ****         FLASH->CTRL |= FLASH_CTRL_SET_START;
 2040              		.loc 1 927 21 view .LVU476
 2041 002c 42F02002 		orr	r2, r2, #32
 2042 0030 1A61     		str	r2, [r3, #16]
 928:n32g430_std_periph_driver/src/n32g430_flash.c ****         /* Wait for last operation to be completed */
 2043              		.loc 1 928 9 is_stmt 1 view .LVU477
 928:n32g430_std_periph_driver/src/n32g430_flash.c ****         /* Wait for last operation to be completed */
 2044              		.loc 1 928 14 is_stmt 0 view .LVU478
 2045 0032 1A69     		ldr	r2, [r3, #16]
 928:n32g430_std_periph_driver/src/n32g430_flash.c ****         /* Wait for last operation to be completed */
 2046              		.loc 1 928 21 view .LVU479
 2047 0034 42F04002 		orr	r2, r2, #64
 2048 0038 1A61     		str	r2, [r3, #16]
 930:n32g430_std_periph_driver/src/n32g430_flash.c ****         if (status_value == FLASH_EOP)
 2049              		.loc 1 930 9 is_stmt 1 view .LVU480
 930:n32g430_std_periph_driver/src/n32g430_flash.c ****         if (status_value == FLASH_EOP)
 2050              		.loc 1 930 24 is_stmt 0 view .LVU481
 2051 003a 4FF43020 		mov	r0, #720896
 2052 003e FFF7FEFF 		bl	FLASH_Last_Operation_Wait
 2053              	.LVL137:
 931:n32g430_std_periph_driver/src/n32g430_flash.c ****         {
 2054              		.loc 1 931 9 is_stmt 1 view .LVU482
 931:n32g430_std_periph_driver/src/n32g430_flash.c ****         {
 2055              		.loc 1 931 12 is_stmt 0 view .LVU483
 2056 0042 0428     		cmp	r0, #4
 2057 0044 07D0     		beq	.L194
 957:n32g430_std_periph_driver/src/n32g430_flash.c ****             {
 2058              		.loc 1 957 13 is_stmt 1 view .LVU484
 957:n32g430_std_periph_driver/src/n32g430_flash.c ****             {
 2059              		.loc 1 957 16 is_stmt 0 view .LVU485
 2060 0046 0728     		cmp	r0, #7
 2061 0048 EBD0     		beq	.L189
 960:n32g430_std_periph_driver/src/n32g430_flash.c ****             }
 2062              		.loc 1 960 17 is_stmt 1 view .LVU486
 960:n32g430_std_periph_driver/src/n32g430_flash.c ****             }
 2063              		.loc 1 960 22 is_stmt 0 view .LVU487
 2064 004a 124A     		ldr	r2, .L195
ARM GAS  C:\Users\Dawn\AppData\Local\Temp\cc12bvwa.s 			page 67


 2065 004c 1369     		ldr	r3, [r2, #16]
 960:n32g430_std_periph_driver/src/n32g430_flash.c ****             }
 2066              		.loc 1 960 29 view .LVU488
 2067 004e 23F02003 		bic	r3, r3, #32
 2068 0052 1361     		str	r3, [r2, #16]
 2069 0054 E5E7     		b	.L189
 2070              	.L194:
 934:n32g430_std_periph_driver/src/n32g430_flash.c **** 
 2071              		.loc 1 934 13 is_stmt 1 view .LVU489
 2072 0056 3420     		movs	r0, #52
 2073              	.LVL138:
 934:n32g430_std_periph_driver/src/n32g430_flash.c **** 
 2074              		.loc 1 934 13 is_stmt 0 view .LVU490
 2075 0058 FFF7FEFF 		bl	FLASH_Flag_Status_Clear
 2076              	.LVL139:
 937:n32g430_std_periph_driver/src/n32g430_flash.c ****             /* Enable the Option Bytes Programming operation */
 2077              		.loc 1 937 13 is_stmt 1 view .LVU491
 937:n32g430_std_periph_driver/src/n32g430_flash.c ****             /* Enable the Option Bytes Programming operation */
 2078              		.loc 1 937 18 is_stmt 0 view .LVU492
 2079 005c 0D4B     		ldr	r3, .L195
 2080 005e 1A69     		ldr	r2, [r3, #16]
 937:n32g430_std_periph_driver/src/n32g430_flash.c ****             /* Enable the Option Bytes Programming operation */
 2081              		.loc 1 937 25 view .LVU493
 2082 0060 22F02002 		bic	r2, r2, #32
 2083 0064 1A61     		str	r2, [r3, #16]
 939:n32g430_std_periph_driver/src/n32g430_flash.c ****             /*enable new state of the ReadOut Protection*/
 2084              		.loc 1 939 13 is_stmt 1 view .LVU494
 939:n32g430_std_periph_driver/src/n32g430_flash.c ****             /*enable new state of the ReadOut Protection*/
 2085              		.loc 1 939 18 is_stmt 0 view .LVU495
 2086 0066 1A69     		ldr	r2, [r3, #16]
 939:n32g430_std_periph_driver/src/n32g430_flash.c ****             /*enable new state of the ReadOut Protection*/
 2087              		.loc 1 939 25 view .LVU496
 2088 0068 42F01002 		orr	r2, r2, #16
 2089 006c 1A61     		str	r2, [r3, #16]
 941:n32g430_std_periph_driver/src/n32g430_flash.c ****             /* Wait for last operation to be completed */
 2090              		.loc 1 941 13 is_stmt 1 view .LVU497
 941:n32g430_std_periph_driver/src/n32g430_flash.c ****             /* Wait for last operation to be completed */
 2091              		.loc 1 941 46 is_stmt 0 view .LVU498
 2092 006e 04F4FE04 		and	r4, r4, #8323072
 2093              	.LVL140:
 941:n32g430_std_periph_driver/src/n32g430_flash.c ****             /* Wait for last operation to be completed */
 2094              		.loc 1 941 27 view .LVU499
 2095 0072 094A     		ldr	r2, .L195+4
 2096 0074 1460     		str	r4, [r2]
 943:n32g430_std_periph_driver/src/n32g430_flash.c **** 
 2097              		.loc 1 943 13 is_stmt 1 view .LVU500
 943:n32g430_std_periph_driver/src/n32g430_flash.c **** 
 2098              		.loc 1 943 28 is_stmt 0 view .LVU501
 2099 0076 4FF43020 		mov	r0, #720896
 2100 007a FFF7FEFF 		bl	FLASH_Last_Operation_Wait
 2101              	.LVL141:
 945:n32g430_std_periph_driver/src/n32g430_flash.c ****             {
 2102              		.loc 1 945 13 is_stmt 1 view .LVU502
 945:n32g430_std_periph_driver/src/n32g430_flash.c ****             {
 2103              		.loc 1 945 16 is_stmt 0 view .LVU503
 2104 007e 0728     		cmp	r0, #7
 2105 0080 CFD0     		beq	.L189
ARM GAS  C:\Users\Dawn\AppData\Local\Temp\cc12bvwa.s 			page 68


 948:n32g430_std_periph_driver/src/n32g430_flash.c ****             }
 2106              		.loc 1 948 17 is_stmt 1 view .LVU504
 948:n32g430_std_periph_driver/src/n32g430_flash.c ****             }
 2107              		.loc 1 948 22 is_stmt 0 view .LVU505
 2108 0082 044A     		ldr	r2, .L195
 2109 0084 1369     		ldr	r3, [r2, #16]
 948:n32g430_std_periph_driver/src/n32g430_flash.c ****             }
 2110              		.loc 1 948 29 view .LVU506
 2111 0086 23F01003 		bic	r3, r3, #16
 2112 008a 1361     		str	r3, [r2, #16]
 2113 008c C9E7     		b	.L189
 2114              	.LVL142:
 2115              	.L191:
 912:n32g430_std_periph_driver/src/n32g430_flash.c ****     }
 2116              		.loc 1 912 16 view .LVU507
 2117 008e 0520     		movs	r0, #5
 2118 0090 C7E7     		b	.L189
 2119              	.L196:
 2120 0092 00BF     		.align	2
 2121              	.L195:
 2122 0094 00200240 		.word	1073881088
 2123 0098 00F8FF1F 		.word	536868864
 2124              		.cfi_endproc
 2125              	.LFE148:
 2127              		.section	.text.FLASH_Read_Out_Protection_L1_Disable,"ax",%progbits
 2128              		.align	1
 2129              		.global	FLASH_Read_Out_Protection_L1_Disable
 2130              		.syntax unified
 2131              		.thumb
 2132              		.thumb_func
 2134              	FLASH_Read_Out_Protection_L1_Disable:
 2135              	.LFB149:
 993:n32g430_std_periph_driver/src/n32g430_flash.c ****     uint32_t user_temp;
 2136              		.loc 1 993 1 is_stmt 1 view -0
 2137              		.cfi_startproc
 2138              		@ args = 0, pretend = 0, frame = 0
 2139              		@ frame_needed = 0, uses_anonymous_args = 0
 2140 0000 10B5     		push	{r4, lr}
 2141              	.LCFI11:
 2142              		.cfi_def_cfa_offset 8
 2143              		.cfi_offset 4, -8
 2144              		.cfi_offset 14, -4
 994:n32g430_std_periph_driver/src/n32g430_flash.c ****     FLASH_STS status_value = FLASH_EOP;
 2145              		.loc 1 994 5 view .LVU509
 995:n32g430_std_periph_driver/src/n32g430_flash.c **** 
 2146              		.loc 1 995 5 view .LVU510
 2147              	.LVL143:
 997:n32g430_std_periph_driver/src/n32g430_flash.c **** 
 2148              		.loc 1 997 5 view .LVU511
 997:n32g430_std_periph_driver/src/n32g430_flash.c **** 
 2149              		.loc 1 997 44 is_stmt 0 view .LVU512
 2150 0002 254B     		ldr	r3, .L204
 2151 0004 DB69     		ldr	r3, [r3, #28]
 997:n32g430_std_periph_driver/src/n32g430_flash.c **** 
 2152              		.loc 1 997 50 view .LVU513
 2153 0006 9B03     		lsls	r3, r3, #14
 997:n32g430_std_periph_driver/src/n32g430_flash.c **** 
ARM GAS  C:\Users\Dawn\AppData\Local\Temp\cc12bvwa.s 			page 69


 2154              		.loc 1 997 15 view .LVU514
 2155 0008 03F4FE04 		and	r4, r3, #8323072
 2156              	.LVL144:
1000:n32g430_std_periph_driver/src/n32g430_flash.c ****     {
 2157              		.loc 1 1000 5 is_stmt 1 view .LVU515
1000:n32g430_std_periph_driver/src/n32g430_flash.c ****     {
 2158              		.loc 1 1000 9 is_stmt 0 view .LVU516
 2159 000c FFF7FEFF 		bl	FLASH_Read_Out_Protection_L2_Status_Get
 2160              	.LVL145:
1000:n32g430_std_periph_driver/src/n32g430_flash.c ****     {
 2161              		.loc 1 1000 8 discriminator 1 view .LVU517
 2162 0010 0028     		cmp	r0, #0
 2163 0012 3ED1     		bne	.L200
1007:n32g430_std_periph_driver/src/n32g430_flash.c **** 
 2164              		.loc 1 1007 5 is_stmt 1 view .LVU518
1010:n32g430_std_periph_driver/src/n32g430_flash.c ****     /* Wait for last operation to be completed */
 2165              		.loc 1 1010 5 view .LVU519
 2166 0014 3420     		movs	r0, #52
 2167 0016 FFF7FEFF 		bl	FLASH_Flag_Status_Clear
 2168              	.LVL146:
1012:n32g430_std_periph_driver/src/n32g430_flash.c **** 
 2169              		.loc 1 1012 5 view .LVU520
1012:n32g430_std_periph_driver/src/n32g430_flash.c **** 
 2170              		.loc 1 1012 20 is_stmt 0 view .LVU521
 2171 001a 4FF43020 		mov	r0, #720896
 2172 001e FFF7FEFF 		bl	FLASH_Last_Operation_Wait
 2173              	.LVL147:
1014:n32g430_std_periph_driver/src/n32g430_flash.c ****     {
 2174              		.loc 1 1014 5 is_stmt 1 view .LVU522
1014:n32g430_std_periph_driver/src/n32g430_flash.c ****     {
 2175              		.loc 1 1014 8 is_stmt 0 view .LVU523
 2176 0022 0428     		cmp	r0, #4
 2177 0024 00D0     		beq	.L202
 2178              	.LVL148:
 2179              	.L198:
1064:n32g430_std_periph_driver/src/n32g430_flash.c **** 
 2180              		.loc 1 1064 1 view .LVU524
 2181 0026 10BD     		pop	{r4, pc}
 2182              	.LVL149:
 2183              	.L202:
1016:n32g430_std_periph_driver/src/n32g430_flash.c ****         FLASH->CTRL |= FLASH_CTRL_SET_OPTER;
 2184              		.loc 1 1016 9 is_stmt 1 view .LVU525
 2185 0028 FFF7FEFF 		bl	Option_Bytes_Unlock
 2186              	.LVL150:
1017:n32g430_std_periph_driver/src/n32g430_flash.c ****         FLASH->CTRL |= FLASH_CTRL_SET_START;
 2187              		.loc 1 1017 9 view .LVU526
1017:n32g430_std_periph_driver/src/n32g430_flash.c ****         FLASH->CTRL |= FLASH_CTRL_SET_START;
 2188              		.loc 1 1017 14 is_stmt 0 view .LVU527
 2189 002c 1A4B     		ldr	r3, .L204
 2190 002e 1A69     		ldr	r2, [r3, #16]
1017:n32g430_std_periph_driver/src/n32g430_flash.c ****         FLASH->CTRL |= FLASH_CTRL_SET_START;
 2191              		.loc 1 1017 21 view .LVU528
 2192 0030 42F02002 		orr	r2, r2, #32
 2193 0034 1A61     		str	r2, [r3, #16]
1018:n32g430_std_periph_driver/src/n32g430_flash.c ****         /* Wait for last operation to be completed */
 2194              		.loc 1 1018 9 is_stmt 1 view .LVU529
1018:n32g430_std_periph_driver/src/n32g430_flash.c ****         /* Wait for last operation to be completed */
ARM GAS  C:\Users\Dawn\AppData\Local\Temp\cc12bvwa.s 			page 70


 2195              		.loc 1 1018 14 is_stmt 0 view .LVU530
 2196 0036 1A69     		ldr	r2, [r3, #16]
1018:n32g430_std_periph_driver/src/n32g430_flash.c ****         /* Wait for last operation to be completed */
 2197              		.loc 1 1018 21 view .LVU531
 2198 0038 42F04002 		orr	r2, r2, #64
 2199 003c 1A61     		str	r2, [r3, #16]
1020:n32g430_std_periph_driver/src/n32g430_flash.c ****         if (status_value == FLASH_EOP)
 2200              		.loc 1 1020 9 is_stmt 1 view .LVU532
1020:n32g430_std_periph_driver/src/n32g430_flash.c ****         if (status_value == FLASH_EOP)
 2201              		.loc 1 1020 24 is_stmt 0 view .LVU533
 2202 003e 4FF43020 		mov	r0, #720896
 2203 0042 FFF7FEFF 		bl	FLASH_Last_Operation_Wait
 2204              	.LVL151:
1021:n32g430_std_periph_driver/src/n32g430_flash.c ****         {
 2205              		.loc 1 1021 9 is_stmt 1 view .LVU534
1021:n32g430_std_periph_driver/src/n32g430_flash.c ****         {
 2206              		.loc 1 1021 12 is_stmt 0 view .LVU535
 2207 0046 0428     		cmp	r0, #4
 2208 0048 07D0     		beq	.L203
1047:n32g430_std_periph_driver/src/n32g430_flash.c ****             {
 2209              		.loc 1 1047 13 is_stmt 1 view .LVU536
1047:n32g430_std_periph_driver/src/n32g430_flash.c ****             {
 2210              		.loc 1 1047 16 is_stmt 0 view .LVU537
 2211 004a 0728     		cmp	r0, #7
 2212 004c EBD0     		beq	.L198
1050:n32g430_std_periph_driver/src/n32g430_flash.c ****             }
 2213              		.loc 1 1050 17 is_stmt 1 view .LVU538
1050:n32g430_std_periph_driver/src/n32g430_flash.c ****             }
 2214              		.loc 1 1050 22 is_stmt 0 view .LVU539
 2215 004e 124A     		ldr	r2, .L204
 2216 0050 1369     		ldr	r3, [r2, #16]
1050:n32g430_std_periph_driver/src/n32g430_flash.c ****             }
 2217              		.loc 1 1050 29 view .LVU540
 2218 0052 23F02003 		bic	r3, r3, #32
 2219 0056 1361     		str	r3, [r2, #16]
 2220 0058 E5E7     		b	.L198
 2221              	.L203:
1024:n32g430_std_periph_driver/src/n32g430_flash.c **** 
 2222              		.loc 1 1024 13 is_stmt 1 view .LVU541
 2223 005a 3420     		movs	r0, #52
 2224              	.LVL152:
1024:n32g430_std_periph_driver/src/n32g430_flash.c **** 
 2225              		.loc 1 1024 13 is_stmt 0 view .LVU542
 2226 005c FFF7FEFF 		bl	FLASH_Flag_Status_Clear
 2227              	.LVL153:
1027:n32g430_std_periph_driver/src/n32g430_flash.c ****             /* Enable the Option Bytes Programming operation */
 2228              		.loc 1 1027 13 is_stmt 1 view .LVU543
1027:n32g430_std_periph_driver/src/n32g430_flash.c ****             /* Enable the Option Bytes Programming operation */
 2229              		.loc 1 1027 18 is_stmt 0 view .LVU544
 2230 0060 0D4B     		ldr	r3, .L204
 2231 0062 1A69     		ldr	r2, [r3, #16]
1027:n32g430_std_periph_driver/src/n32g430_flash.c ****             /* Enable the Option Bytes Programming operation */
 2232              		.loc 1 1027 25 view .LVU545
 2233 0064 22F02002 		bic	r2, r2, #32
 2234 0068 1A61     		str	r2, [r3, #16]
1029:n32g430_std_periph_driver/src/n32g430_flash.c ****             /* Disables the read out protection */
 2235              		.loc 1 1029 13 is_stmt 1 view .LVU546
ARM GAS  C:\Users\Dawn\AppData\Local\Temp\cc12bvwa.s 			page 71


1029:n32g430_std_periph_driver/src/n32g430_flash.c ****             /* Disables the read out protection */
 2236              		.loc 1 1029 18 is_stmt 0 view .LVU547
 2237 006a 1A69     		ldr	r2, [r3, #16]
1029:n32g430_std_periph_driver/src/n32g430_flash.c ****             /* Disables the read out protection */
 2238              		.loc 1 1029 25 view .LVU548
 2239 006c 42F01002 		orr	r2, r2, #16
 2240 0070 1A61     		str	r2, [r3, #16]
1031:n32g430_std_periph_driver/src/n32g430_flash.c ****             /* Wait for last operation to be completed */
 2241              		.loc 1 1031 13 is_stmt 1 view .LVU549
1031:n32g430_std_periph_driver/src/n32g430_flash.c ****             /* Wait for last operation to be completed */
 2242              		.loc 1 1031 67 is_stmt 0 view .LVU550
 2243 0072 44F0A504 		orr	r4, r4, #165
 2244              	.LVL154:
1031:n32g430_std_periph_driver/src/n32g430_flash.c ****             /* Wait for last operation to be completed */
 2245              		.loc 1 1031 27 view .LVU551
 2246 0076 094A     		ldr	r2, .L204+4
 2247 0078 1460     		str	r4, [r2]
1033:n32g430_std_periph_driver/src/n32g430_flash.c **** 
 2248              		.loc 1 1033 13 is_stmt 1 view .LVU552
1033:n32g430_std_periph_driver/src/n32g430_flash.c **** 
 2249              		.loc 1 1033 28 is_stmt 0 view .LVU553
 2250 007a 4FF43020 		mov	r0, #720896
 2251 007e FFF7FEFF 		bl	FLASH_Last_Operation_Wait
 2252              	.LVL155:
1035:n32g430_std_periph_driver/src/n32g430_flash.c ****             {
 2253              		.loc 1 1035 13 is_stmt 1 view .LVU554
1035:n32g430_std_periph_driver/src/n32g430_flash.c ****             {
 2254              		.loc 1 1035 16 is_stmt 0 view .LVU555
 2255 0082 0728     		cmp	r0, #7
 2256 0084 CFD0     		beq	.L198
1038:n32g430_std_periph_driver/src/n32g430_flash.c ****             }
 2257              		.loc 1 1038 17 is_stmt 1 view .LVU556
1038:n32g430_std_periph_driver/src/n32g430_flash.c ****             }
 2258              		.loc 1 1038 22 is_stmt 0 view .LVU557
 2259 0086 044A     		ldr	r2, .L204
 2260 0088 1369     		ldr	r3, [r2, #16]
1038:n32g430_std_periph_driver/src/n32g430_flash.c ****             }
 2261              		.loc 1 1038 29 view .LVU558
 2262 008a 23F01003 		bic	r3, r3, #16
 2263 008e 1361     		str	r3, [r2, #16]
 2264 0090 C9E7     		b	.L198
 2265              	.LVL156:
 2266              	.L200:
1002:n32g430_std_periph_driver/src/n32g430_flash.c ****     }
