ARM GAS  C:\Users\Dawn\AppData\Local\Temp\ccKSsmib.s 			page 1


   1              		.cpu cortex-m4
   2              		.arch armv7e-m
   3              		.fpu fpv4-sp-d16
   4              		.eabi_attribute 27, 1
   5              		.eabi_attribute 28, 1
   6              		.eabi_attribute 23, 1
   7              		.eabi_attribute 24, 1
   8              		.eabi_attribute 25, 1
   9              		.eabi_attribute 26, 1
  10              		.eabi_attribute 30, 1
  11              		.eabi_attribute 34, 1
  12              		.eabi_attribute 18, 4
  13              		.file	"timer.c"
  14              		.text
  15              	.Ltext0:
  16              		.cfi_sections	.debug_frame
  17              		.file 1 "core/src/timer.c"
  18              		.section	.text.Timer_Init,"ax",%progbits
  19              		.align	1
  20              		.global	Timer_Init
  21              		.syntax unified
  22              		.thumb
  23              		.thumb_func
  25              	Timer_Init:
  26              	.LFB123:
   1:core/src/timer.c **** /**
   2:core/src/timer.c ****  * @file timer.c
   3:core/src/timer.c ****  * @brief SysTick Hardware Timer Delay Implementation
   4:core/src/timer.c ****  * @version v1.0.0
   5:core/src/timer.c ****  * @author N32G430 Project
   6:core/src/timer.c ****  */
   7:core/src/timer.c **** 
   8:core/src/timer.c **** #include "timer.h"
   9:core/src/timer.c **** 
  10:core/src/timer.c **** /* Private Variables */
  11:core/src/timer.c **** static volatile uint32_t tick_counter = 0;
  12:core/src/timer.c **** static volatile uint32_t timer_start_tick = 0;
  13:core/src/timer.c **** static uint32_t systick_reload_value = 0;
  14:core/src/timer.c **** 
  15:core/src/timer.c **** /**
  16:core/src/timer.c ****  * @brief Initialize SysTick Timer for precise delay functions
  17:core/src/timer.c ****  * @param None
  18:core/src/timer.c ****  * @retval None
  19:core/src/timer.c ****  * @note System clock is assumed to be 128MHz
  20:core/src/timer.c ****  */
  21:core/src/timer.c **** void Timer_Init(void)
  22:core/src/timer.c **** {
  27              		.loc 1 22 1 view -0
  28              		.cfi_startproc
  29              		@ args = 0, pretend = 0, frame = 24
  30              		@ frame_needed = 0, uses_anonymous_args = 0
  31 0000 00B5     		push	{lr}
  32              	.LCFI0:
  33              		.cfi_def_cfa_offset 4
  34              		.cfi_offset 14, -4
  35 0002 87B0     		sub	sp, sp, #28
  36              	.LCFI1:
ARM GAS  C:\Users\Dawn\AppData\Local\Temp\ccKSsmib.s 			page 2


  37              		.cfi_def_cfa_offset 32
  23:core/src/timer.c ****     uint32_t system_clock_hz;
  38              		.loc 1 23 5 view .LVU1
  24:core/src/timer.c ****     
  25:core/src/timer.c ****     /* Get system clock frequency */
  26:core/src/timer.c ****     RCC_ClocksType clocks;
  39              		.loc 1 26 5 view .LVU2
  27:core/src/timer.c ****     RCC_Clocks_Frequencies_Value_Get(&clocks);
  40              		.loc 1 27 5 view .LVU3
  41 0004 6846     		mov	r0, sp
  42 0006 FFF7FEFF 		bl	RCC_Clocks_Frequencies_Value_Get
  43              	.LVL0:
  28:core/src/timer.c ****     system_clock_hz = clocks.SysclkFreq;
  44              		.loc 1 28 5 view .LVU4
  29:core/src/timer.c ****     
  30:core/src/timer.c ****     /* Calculate reload value for 1MHz (1μs resolution) */
  31:core/src/timer.c ****     systick_reload_value = system_clock_hz / SYSTICK_FREQUENCY_HZ - 1;
  45              		.loc 1 31 5 view .LVU5
  46              		.loc 1 31 44 is_stmt 0 view .LVU6
  47 000a 009B     		ldr	r3, [sp]
  48 000c 044A     		ldr	r2, .L3
  49 000e A2FB0323 		umull	r2, r3, r2, r3
  50 0012 9B0C     		lsrs	r3, r3, #18
  51              		.loc 1 31 67 view .LVU7
  52 0014 013B     		subs	r3, r3, #1
  53              		.loc 1 31 26 view .LVU8
  54 0016 034A     		ldr	r2, .L3+4
  55 0018 1360     		str	r3, [r2]
  32:core/src/timer.c **** }
  56              		.loc 1 32 1 view .LVU9
  57 001a 07B0     		add	sp, sp, #28
  58              	.LCFI2:
  59              		.cfi_def_cfa_offset 4
  60              	.LVL1:
  61              		.loc 1 32 1 view .LVU10
  62              		@ sp needed
  63 001c 5DF804FB 		ldr	pc, [sp], #4
  64              	.LVL2:
  65              	.L4:
  66              		.loc 1 32 1 view .LVU11
  67              		.align	2
  68              	.L3:
  69 0020 83DE1B43 		.word	1125899907
  70 0024 00000000 		.word	systick_reload_value
  71              		.cfi_endproc
  72              	.LFE123:
  74              		.section	.text.SysTick_Handler,"ax",%progbits
  75              		.align	1
  76              		.global	SysTick_Handler
  77              		.syntax unified
  78              		.thumb
  79              		.thumb_func
  81              	SysTick_Handler:
  82              	.LFB124:
  33:core/src/timer.c **** 
  34:core/src/timer.c **** /**
  35:core/src/timer.c ****  * @brief SysTick interrupt handler
ARM GAS  C:\Users\Dawn\AppData\Local\Temp\ccKSsmib.s 			page 3


  36:core/src/timer.c ****  * @param None
  37:core/src/timer.c ****  * @retval None
  38:core/src/timer.c ****  */
  39:core/src/timer.c **** void SysTick_Handler(void)
  40:core/src/timer.c **** {
  83              		.loc 1 40 1 is_stmt 1 view -0
  84              		.cfi_startproc
  85              		@ args = 0, pretend = 0, frame = 0
  86              		@ frame_needed = 0, uses_anonymous_args = 0
  87              		@ link register save eliminated.
  41:core/src/timer.c ****     tick_counter++;
  88              		.loc 1 41 5 view .LVU13
  89              		.loc 1 41 17 is_stmt 0 view .LVU14
  90 0000 024A     		ldr	r2, .L6
  91 0002 1368     		ldr	r3, [r2]
  92 0004 0133     		adds	r3, r3, #1
  93 0006 1360     		str	r3, [r2]
  42:core/src/timer.c **** }
  94              		.loc 1 42 1 view .LVU15
  95 0008 7047     		bx	lr
  96              	.L7:
  97 000a 00BF     		.align	2
  98              	.L6:
  99 000c 00000000 		.word	tick_counter
 100              		.cfi_endproc
 101              	.LFE124:
 103              		.section	.text.Delay_us,"ax",%progbits
 104              		.align	1
 105              		.global	Delay_us
 106              		.syntax unified
 107              		.thumb
 108              		.thumb_func
 110              	Delay_us:
 111              	.LVL3:
 112              	.LFB126:
  43:core/src/timer.c **** 
  44:core/src/timer.c **** /**
  45:core/src/timer.c ****  * @brief Delay function in milliseconds
  46:core/src/timer.c ****  * @param ms: delay time in milliseconds
  47:core/src/timer.c ****  * @retval None
  48:core/src/timer.c ****  */
  49:core/src/timer.c **** void Delay_ms(uint32_t ms)
  50:core/src/timer.c **** {
  51:core/src/timer.c ****     if (ms == 0) return;
  52:core/src/timer.c ****     
  53:core/src/timer.c ****     Delay_us(ms * 1000U);
  54:core/src/timer.c **** }
  55:core/src/timer.c **** 
  56:core/src/timer.c **** /**
  57:core/src/timer.c ****  * @brief Delay function in microseconds
  58:core/src/timer.c ****  * @param us: delay time in microseconds
  59:core/src/timer.c ****  * @retval None
  60:core/src/timer.c ****  */
  61:core/src/timer.c **** void Delay_us(uint32_t us)
  62:core/src/timer.c **** {
 113              		.loc 1 62 1 is_stmt 1 view -0
 114              		.cfi_startproc
ARM GAS  C:\Users\Dawn\AppData\Local\Temp\ccKSsmib.s 			page 4


 115              		@ args = 0, pretend = 0, frame = 0
 116              		@ frame_needed = 0, uses_anonymous_args = 0
 117              		@ link register save eliminated.
  63:core/src/timer.c ****     if (us == 0) return;
 118              		.loc 1 63 5 view .LVU17
 119              		.loc 1 63 8 is_stmt 0 view .LVU18
 120 0000 0146     		mov	r1, r0
 121 0002 70B1     		cbz	r0, .L8
  64:core/src/timer.c ****     
  65:core/src/timer.c ****     uint32_t start_tick = tick_counter;
 122              		.loc 1 65 5 is_stmt 1 view .LVU19
 123              		.loc 1 65 14 is_stmt 0 view .LVU20
 124 0004 074B     		ldr	r3, .L13
 125 0006 1A68     		ldr	r2, [r3]
 126              	.LVL4:
  66:core/src/timer.c ****     uint32_t target_ticks = us;
 127              		.loc 1 66 5 is_stmt 1 view .LVU21
  67:core/src/timer.c ****     
  68:core/src/timer.c ****     /* Handle tick counter overflow */
  69:core/src/timer.c ****     if (start_tick > (UINT32_MAX - target_ticks)) {
 128              		.loc 1 69 5 view .LVU22
 129              		.loc 1 69 34 is_stmt 0 view .LVU23
 130 0008 C343     		mvns	r3, r0
 131              		.loc 1 69 8 view .LVU24
 132 000a 9342     		cmp	r3, r2
 133 000c 04D2     		bcs	.L12
 134              	.L11:
  70:core/src/timer.c ****         /* Wait for overflow */
  71:core/src/timer.c ****         while (tick_counter >= start_tick);
 135              		.loc 1 71 29 is_stmt 1 discriminator 1 view .LVU25
 136 000e 054B     		ldr	r3, .L13
 137 0010 1B68     		ldr	r3, [r3]
 138 0012 9342     		cmp	r3, r2
 139 0014 FBD2     		bcs	.L11
  72:core/src/timer.c ****         start_tick = 0;
 140              		.loc 1 72 20 is_stmt 0 view .LVU26
 141 0016 0022     		movs	r2, #0
 142              	.LVL5:
 143              	.L12:
  73:core/src/timer.c ****     }
  74:core/src/timer.c ****     
  75:core/src/timer.c ****     /* Wait for target ticks */
  76:core/src/timer.c ****     while ((tick_counter - start_tick) < target_ticks);
 144              		.loc 1 76 40 is_stmt 1 discriminator 1 view .LVU27
 145              		.loc 1 76 26 is_stmt 0 discriminator 1 view .LVU28
 146 0018 024B     		ldr	r3, .L13
 147 001a 1B68     		ldr	r3, [r3]
 148 001c 9B1A     		subs	r3, r3, r2
 149              		.loc 1 76 40 discriminator 1 view .LVU29
 150 001e 8B42     		cmp	r3, r1
 151 0020 FAD3     		bcc	.L12
 152              	.LVL6:
 153              	.L8:
  77:core/src/timer.c **** }
 154              		.loc 1 77 1 view .LVU30
 155 0022 7047     		bx	lr
 156              	.L14:
ARM GAS  C:\Users\Dawn\AppData\Local\Temp\ccKSsmib.s 			page 5


 157              		.align	2
 158              	.L13:
 159 0024 00000000 		.word	tick_counter
 160              		.cfi_endproc
 161              	.LFE126:
 163              		.section	.text.Delay_ms,"ax",%progbits
 164              		.align	1
 165              		.global	Delay_ms
 166              		.syntax unified
 167              		.thumb
 168              		.thumb_func
 170              	Delay_ms:
 171              	.LVL7:
 172              	.LFB125:
  50:core/src/timer.c ****     if (ms == 0) return;
 173              		.loc 1 50 1 is_stmt 1 view -0
 174              		.cfi_startproc
 175              		@ args = 0, pretend = 0, frame = 0
 176              		@ frame_needed = 0, uses_anonymous_args = 0
  51:core/src/timer.c ****     
 177              		.loc 1 51 5 view .LVU32
  51:core/src/timer.c ****     
 178              		.loc 1 51 8 is_stmt 0 view .LVU33
 179 0000 00B9     		cbnz	r0, .L21
 180 0002 7047     		bx	lr
 181              	.L21:
  50:core/src/timer.c ****     if (ms == 0) return;
 182              		.loc 1 50 1 view .LVU34
 183 0004 08B5     		push	{r3, lr}
 184              	.LCFI3:
 185              		.cfi_def_cfa_offset 8
 186              		.cfi_offset 3, -8
 187              		.cfi_offset 14, -4
 188 0006 0346     		mov	r3, r0
  53:core/src/timer.c **** }
 189              		.loc 1 53 5 is_stmt 1 view .LVU35
 190 0008 4FF47A70 		mov	r0, #1000
 191              	.LVL8:
  53:core/src/timer.c **** }
 192              		.loc 1 53 5 is_stmt 0 view .LVU36
 193 000c 03FB00F0 		mul	r0, r3, r0
 194 0010 FFF7FEFF 		bl	Delay_us
 195              	.LVL9:
  54:core/src/timer.c **** 
 196              		.loc 1 54 1 view .LVU37
 197 0014 08BD     		pop	{r3, pc}
 198              		.cfi_endproc
 199              	.LFE125:
 201              		.section	.text.Get_Tick_Count,"ax",%progbits
 202              		.align	1
 203              		.global	Get_Tick_Count
 204              		.syntax unified
 205              		.thumb
 206              		.thumb_func
 208              	Get_Tick_Count:
 209              	.LFB127:
  78:core/src/timer.c **** 
ARM GAS  C:\Users\Dawn\AppData\Local\Temp\ccKSsmib.s 			page 6


  79:core/src/timer.c **** /**
  80:core/src/timer.c ****  * @brief Get current tick count in microseconds
  81:core/src/timer.c ****  * @param None
  82:core/src/timer.c ****  * @retval Current tick count
  83:core/src/timer.c ****  */
  84:core/src/timer.c **** uint32_t Get_Tick_Count(void)
  85:core/src/timer.c **** {
 210              		.loc 1 85 1 is_stmt 1 view -0
 211              		.cfi_startproc
 212              		@ args = 0, pretend = 0, frame = 0
 213              		@ frame_needed = 0, uses_anonymous_args = 0
 214              		@ link register save eliminated.
  86:core/src/timer.c ****     return tick_counter;
 215              		.loc 1 86 5 view .LVU39
 216              		.loc 1 86 12 is_stmt 0 view .LVU40
 217 0000 014B     		ldr	r3, .L23
 218 0002 1868     		ldr	r0, [r3]
  87:core/src/timer.c **** }
 219              		.loc 1 87 1 view .LVU41
 220 0004 7047     		bx	lr
 221              	.L24:
 222 0006 00BF     		.align	2
 223              	.L23:
 224 0008 00000000 		.word	tick_counter
 225              		.cfi_endproc
 226              	.LFE127:
 228              		.section	.text.Timer_Reset,"ax",%progbits
 229              		.align	1
 230              		.global	Timer_Reset
 231              		.syntax unified
 232              		.thumb
 233              		.thumb_func
 235              	Timer_Reset:
 236              	.LFB128:
  88:core/src/timer.c **** 
  89:core/src/timer.c **** /**
  90:core/src/timer.c ****  * @brief Reset tick counter
  91:core/src/timer.c ****  * @param None
  92:core/src/timer.c ****  * @retval None
  93:core/src/timer.c ****  */
  94:core/src/timer.c **** void Timer_Reset(void)
  95:core/src/timer.c **** {
 237              		.loc 1 95 1 is_stmt 1 view -0
 238              		.cfi_startproc
 239              		@ args = 0, pretend = 0, frame = 0
 240              		@ frame_needed = 0, uses_anonymous_args = 0
 241              		@ link register save eliminated.
  96:core/src/timer.c ****     tick_counter = 0;
 242              		.loc 1 96 5 view .LVU43
 243              		.loc 1 96 18 is_stmt 0 view .LVU44
 244 0000 014B     		ldr	r3, .L26
 245 0002 0022     		movs	r2, #0
 246 0004 1A60     		str	r2, [r3]
  97:core/src/timer.c **** }
 247              		.loc 1 97 1 view .LVU45
 248 0006 7047     		bx	lr
 249              	.L27:
ARM GAS  C:\Users\Dawn\AppData\Local\Temp\ccKSsmib.s 			page 7


 250              		.align	2
 251              	.L26:
 252 0008 00000000 		.word	tick_counter
 253              		.cfi_endproc
 254              	.LFE128:
 256              		.section	.text.Timer_Start,"ax",%progbits
 257              		.align	1
 258              		.global	Timer_Start
 259              		.syntax unified
 260              		.thumb
 261              		.thumb_func
 263              	Timer_Start:
 264              	.LFB129:
  98:core/src/timer.c **** 
  99:core/src/timer.c **** /**
 100:core/src/timer.c ****  * @brief Start timer for elapsed time measurement
 101:core/src/timer.c ****  * @param None
 102:core/src/timer.c ****  * @retval None
 103:core/src/timer.c ****  */
 104:core/src/timer.c **** void Timer_Start(void)
 105:core/src/timer.c **** {
 265              		.loc 1 105 1 is_stmt 1 view -0
 266              		.cfi_startproc
 267              		@ args = 0, pretend = 0, frame = 0
 268              		@ frame_needed = 0, uses_anonymous_args = 0
 269              		@ link register save eliminated.
 106:core/src/timer.c ****     timer_start_tick = tick_counter;
 270              		.loc 1 106 5 view .LVU47
 271              		.loc 1 106 22 is_stmt 0 view .LVU48
 272 0000 024B     		ldr	r3, .L29
 273 0002 1A68     		ldr	r2, [r3]
 274 0004 024B     		ldr	r3, .L29+4
 275 0006 1A60     		str	r2, [r3]
 107:core/src/timer.c **** }
 276              		.loc 1 107 1 view .LVU49
 277 0008 7047     		bx	lr
 278              	.L30:
 279 000a 00BF     		.align	2
 280              	.L29:
 281 000c 00000000 		.word	tick_counter
 282 0010 00000000 		.word	timer_start_tick
 283              		.cfi_endproc
 284              	.LFE129:
 286              		.section	.text.Timer_Stop,"ax",%progbits
 287              		.align	1
 288              		.global	Timer_Stop
 289              		.syntax unified
 290              		.thumb
 291              		.thumb_func
 293              	Timer_Stop:
 294              	.LFB130:
 108:core/src/timer.c **** 
 109:core/src/timer.c **** /**
 110:core/src/timer.c ****  * @brief Stop timer (actually just record current tick)
 111:core/src/timer.c ****  * @param None
 112:core/src/timer.c ****  * @retval None
 113:core/src/timer.c ****  */
ARM GAS  C:\Users\Dawn\AppData\Local\Temp\ccKSsmib.s 			page 8


 114:core/src/timer.c **** void Timer_Stop(void)
 115:core/src/timer.c **** {
 295              		.loc 1 115 1 is_stmt 1 view -0
 296              		.cfi_startproc
 297              		@ args = 0, pretend = 0, frame = 0
 298              		@ frame_needed = 0, uses_anonymous_args = 0
 299              		@ link register save eliminated.
 116:core/src/timer.c ****     /* Timer continues running, this is just for API completeness */
 117:core/src/timer.c **** }
 300              		.loc 1 117 1 view .LVU51
 301 0000 7047     		bx	lr
 302              		.cfi_endproc
 303              	.LFE130:
 305              		.section	.text.Timer_Get_Elapsed_us,"ax",%progbits
 306              		.align	1
 307              		.global	Timer_Get_Elapsed_us
 308              		.syntax unified
 309              		.thumb
 310              		.thumb_func
 312              	Timer_Get_Elapsed_us:
 313              	.LFB131:
 118:core/src/timer.c **** 
 119:core/src/timer.c **** /**
 120:core/src/timer.c ****  * @brief Get elapsed time in microseconds since Timer_Start()
 121:core/src/timer.c ****  * @param None
 122:core/src/timer.c ****  * @retval Elapsed time in microseconds
 123:core/src/timer.c ****  */
 124:core/src/timer.c **** uint32_t Timer_Get_Elapsed_us(void)
 125:core/src/timer.c **** {
 314              		.loc 1 125 1 view -0
 315              		.cfi_startproc
 316              		@ args = 0, pretend = 0, frame = 0
 317              		@ frame_needed = 0, uses_anonymous_args = 0
 318              		@ link register save eliminated.
 126:core/src/timer.c ****     uint32_t current_tick = tick_counter;
 319              		.loc 1 126 5 view .LVU53
 320              		.loc 1 126 14 is_stmt 0 view .LVU54
 321 0000 064B     		ldr	r3, .L35
 322 0002 1868     		ldr	r0, [r3]
 323              	.LVL10:
 127:core/src/timer.c ****     
 128:core/src/timer.c ****     /* Handle overflow */
 129:core/src/timer.c ****     if (current_tick >= timer_start_tick) {
 324              		.loc 1 129 5 is_stmt 1 view .LVU55
 325              		.loc 1 129 22 is_stmt 0 view .LVU56
 326 0004 064B     		ldr	r3, .L35+4
 327 0006 1B68     		ldr	r3, [r3]
 328              		.loc 1 129 8 view .LVU57
 329 0008 8342     		cmp	r3, r0
 330 000a 03D8     		bhi	.L33
 130:core/src/timer.c ****         return (current_tick - timer_start_tick);
 331              		.loc 1 130 9 is_stmt 1 view .LVU58
 332              		.loc 1 130 30 is_stmt 0 view .LVU59
 333 000c 044B     		ldr	r3, .L35+4
 334 000e 1B68     		ldr	r3, [r3]
 335 0010 C01A     		subs	r0, r0, r3
 336              	.LVL11:
ARM GAS  C:\Users\Dawn\AppData\Local\Temp\ccKSsmib.s 			page 9


 337              		.loc 1 130 30 view .LVU60
 338 0012 7047     		bx	lr
 339              	.LVL12:
 340              	.L33:
 131:core/src/timer.c ****     } else {
 132:core/src/timer.c ****         return (UINT32_MAX - timer_start_tick + current_tick + 1);
 341              		.loc 1 132 9 is_stmt 1 view .LVU61
 342              		.loc 1 132 62 is_stmt 0 view .LVU62
 343 0014 024B     		ldr	r3, .L35+4
 344 0016 1B68     		ldr	r3, [r3]
 345 0018 C01A     		subs	r0, r0, r3
 346              	.LVL13:
 133:core/src/timer.c ****     }
 134:core/src/timer.c **** }
 347              		.loc 1 134 1 view .LVU63
 348 001a 7047     		bx	lr
 349              	.L36:
 350              		.align	2
 351              	.L35:
 352 001c 00000000 		.word	tick_counter
 353 0020 00000000 		.word	timer_start_tick
 354              		.cfi_endproc
 355              	.LFE131:
 357              		.section	.text.Timer_Get_Elapsed_ms,"ax",%progbits
 358              		.align	1
 359              		.global	Timer_Get_Elapsed_ms
 360              		.syntax unified
 361              		.thumb
 362              		.thumb_func
 364              	Timer_Get_Elapsed_ms:
 365              	.LFB132:
 135:core/src/timer.c **** 
 136:core/src/timer.c **** /**
 137:core/src/timer.c ****  * @brief Get elapsed time in milliseconds since Timer_Start()
 138:core/src/timer.c ****  * @param None
 139:core/src/timer.c ****  * @retval Elapsed time in milliseconds
 140:core/src/timer.c ****  */
 141:core/src/timer.c **** uint32_t Timer_Get_Elapsed_ms(void)
 142:core/src/timer.c **** {
 366              		.loc 1 142 1 is_stmt 1 view -0
 367              		.cfi_startproc
 368              		@ args = 0, pretend = 0, frame = 0
 369              		@ frame_needed = 0, uses_anonymous_args = 0
 370 0000 08B5     		push	{r3, lr}
 371              	.LCFI4:
 372              		.cfi_def_cfa_offset 8
 373              		.cfi_offset 3, -8
 374              		.cfi_offset 14, -4
 143:core/src/timer.c ****     return Timer_Get_Elapsed_us() / 1000U;
 375              		.loc 1 143 5 view .LVU65
 376              		.loc 1 143 12 is_stmt 0 view .LVU66
 377 0002 FFF7FEFF 		bl	Timer_Get_Elapsed_us
 378              	.LVL14:
 379              		.loc 1 143 35 discriminator 1 view .LVU67
 380 0006 024B     		ldr	r3, .L39
 381 0008 A3FB0030 		umull	r3, r0, r3, r0
 144:core/src/timer.c **** }
ARM GAS  C:\Users\Dawn\AppData\Local\Temp\ccKSsmib.s 			page 10


 382              		.loc 1 144 1 view .LVU68
 383 000c 8009     		lsrs	r0, r0, #6
 384 000e 08BD     		pop	{r3, pc}
 385              	.L40:
 386              		.align	2
 387              	.L39:
 388 0010 D34D6210 		.word	274877907
 389              		.cfi_endproc
 390              	.LFE132:
 392              		.section	.text.Delay_us_Precise,"ax",%progbits
 393              		.align	1
 394              		.global	Delay_us_Precise
 395              		.syntax unified
 396              		.thumb
 397              		.thumb_func
 399              	Delay_us_Precise:
 400              	.LVL15:
 401              	.LFB133:
 145:core/src/timer.c **** 
 146:core/src/timer.c **** /**
 147:core/src/timer.c ****  * @brief High precision delay using polling method (for very short delays)
 148:core/src/timer.c ****  * @param us: delay time in microseconds (max 65535)
 149:core/src/timer.c ****  * @retval None
 150:core/src/timer.c ****  * @note This function uses polling and is more precise for short delays < 100us
 151:core/src/timer.c ****  */
 152:core/src/timer.c **** void Delay_us_Precise(uint32_t us)
 153:core/src/timer.c **** {
 402              		.loc 1 153 1 is_stmt 1 view -0
 403              		.cfi_startproc
 404              		@ args = 0, pretend = 0, frame = 32
 405              		@ frame_needed = 0, uses_anonymous_args = 0
 154:core/src/timer.c ****     if (us == 0) return;
 406              		.loc 1 154 5 view .LVU70
 407              		.loc 1 154 8 is_stmt 0 view .LVU71
 408 0000 F0B1     		cbz	r0, .L47
 153:core/src/timer.c ****     if (us == 0) return;
 409              		.loc 1 153 1 view .LVU72
 410 0002 10B5     		push	{r4, lr}
 411              	.LCFI5:
 412              		.cfi_def_cfa_offset 8
 413              		.cfi_offset 4, -8
 414              		.cfi_offset 14, -4
 415 0004 88B0     		sub	sp, sp, #32
 416              	.LCFI6:
 417              		.cfi_def_cfa_offset 40
 418 0006 0446     		mov	r4, r0
 155:core/src/timer.c ****     
 156:core/src/timer.c ****     /* For very short delays, use direct register polling */
 157:core/src/timer.c ****     if (us < 100) {
 419              		.loc 1 157 5 is_stmt 1 view .LVU73
 420              		.loc 1 157 8 is_stmt 0 view .LVU74
 421 0008 6328     		cmp	r0, #99
 422 000a 16D8     		bhi	.L43
 423              	.LBB2:
 158:core/src/timer.c ****         uint32_t system_clock_hz;
 424              		.loc 1 158 9 is_stmt 1 view .LVU75
 159:core/src/timer.c ****         RCC_ClocksType clocks;
ARM GAS  C:\Users\Dawn\AppData\Local\Temp\ccKSsmib.s 			page 11


 425              		.loc 1 159 9 view .LVU76
 160:core/src/timer.c ****         RCC_Clocks_Frequencies_Value_Get(&clocks);
 426              		.loc 1 160 9 view .LVU77
 427 000c 02A8     		add	r0, sp, #8
 428              	.LVL16:
 429              		.loc 1 160 9 is_stmt 0 view .LVU78
 430 000e FFF7FEFF 		bl	RCC_Clocks_Frequencies_Value_Get
 431              	.LVL17:
 161:core/src/timer.c ****         system_clock_hz = clocks.SysclkFreq;
 432              		.loc 1 161 9 is_stmt 1 view .LVU79
 162:core/src/timer.c ****         
 163:core/src/timer.c ****         /* Calculate cycles needed */
 164:core/src/timer.c ****         uint32_t cycles = (system_clock_hz / 1000000U) * us;
 433              		.loc 1 164 9 view .LVU80
 434              		.loc 1 164 44 is_stmt 0 view .LVU81
 435 0012 029B     		ldr	r3, [sp, #8]
 436 0014 0B4A     		ldr	r2, .L50
 437 0016 A2FB0332 		umull	r3, r2, r2, r3
 438 001a 920C     		lsrs	r2, r2, #18
 439              		.loc 1 164 18 view .LVU82
 440 001c 04FB02F2 		mul	r2, r4, r2
 441              	.LVL18:
 165:core/src/timer.c ****         cycles = cycles / 4; /* Approximate cycles per loop iteration */
 442              		.loc 1 165 9 is_stmt 1 view .LVU83
 443              		.loc 1 165 16 is_stmt 0 view .LVU84
 444 0020 9208     		lsrs	r2, r2, #2
 445              	.LVL19:
 166:core/src/timer.c ****         
 167:core/src/timer.c ****         /* Simple delay loop */
 168:core/src/timer.c ****         for (volatile uint32_t i = 0; i < cycles; i++) {
 446              		.loc 1 168 9 is_stmt 1 view .LVU85
 447              	.LBB3:
 448              		.loc 1 168 14 view .LVU86
 449              		.loc 1 168 32 is_stmt 0 view .LVU87
 450 0022 0023     		movs	r3, #0
 451 0024 0193     		str	r3, [sp, #4]
 452              		.loc 1 168 9 view .LVU88
 453 0026 03E0     		b	.L44
 454              	.L45:
 169:core/src/timer.c ****             __NOP(); /* No operation */
 455              		.loc 1 169 13 is_stmt 1 view .LVU89
 456              		.syntax unified
 457              	@ 169 "core/src/timer.c" 1
 458 0028 00BF     		nop
 459              	@ 0 "" 2
 168:core/src/timer.c ****             __NOP(); /* No operation */
 460              		.loc 1 168 52 discriminator 3 view .LVU90
 461              		.thumb
 462              		.syntax unified
 463 002a 019B     		ldr	r3, [sp, #4]
 464 002c 0133     		adds	r3, r3, #1
 465 002e 0193     		str	r3, [sp, #4]
 466              	.L44:
 168:core/src/timer.c ****             __NOP(); /* No operation */
 467              		.loc 1 168 41 discriminator 1 view .LVU91
 468 0030 019B     		ldr	r3, [sp, #4]
 469 0032 9342     		cmp	r3, r2
ARM GAS  C:\Users\Dawn\AppData\Local\Temp\ccKSsmib.s 			page 12


 470 0034 F8D3     		bcc	.L45
 471              	.LVL20:
 472              	.L41:
 168:core/src/timer.c ****             __NOP(); /* No operation */
 473              		.loc 1 168 41 is_stmt 0 discriminator 1 view .LVU92
 474              	.LBE3:
 475              	.LBE2:
 170:core/src/timer.c ****         }
 171:core/src/timer.c ****     } else {
 172:core/src/timer.c ****         /* Use SysTick for longer delays */
 173:core/src/timer.c ****         Delay_us(us);
 174:core/src/timer.c ****     }
 175:core/src/timer.c **** }
 476              		.loc 1 175 1 view .LVU93
 477 0036 08B0     		add	sp, sp, #32
 478              	.LCFI7:
 479              		.cfi_remember_state
 480              		.cfi_def_cfa_offset 8
 481              		@ sp needed
 482 0038 10BD     		pop	{r4, pc}
 483              	.LVL21:
 484              	.L43:
 485              	.LCFI8:
 486              		.cfi_restore_state
 173:core/src/timer.c ****     }
 487              		.loc 1 173 9 is_stmt 1 view .LVU94
 488 003a FFF7FEFF 		bl	Delay_us
 489              	.LVL22:
 173:core/src/timer.c ****     }
 490              		.loc 1 173 9 is_stmt 0 view .LVU95
 491 003e FAE7     		b	.L41
 492              	.LVL23:
 493              	.L47:
 494              	.LCFI9:
 495              		.cfi_def_cfa_offset 0
 496              		.cfi_restore 4
 497              		.cfi_restore 14
 173:core/src/timer.c ****     }
 498              		.loc 1 173 9 view .LVU96
 499 0040 7047     		bx	lr
 500              	.L51:
 501 0042 00BF     		.align	2
 502              	.L50:
 503 0044 83DE1B43 		.word	1125899907
 504              		.cfi_endproc
 505              	.LFE133:
 507              		.section	.text.Timer_Get_System_Clock_Hz,"ax",%progbits
 508              		.align	1
 509              		.global	Timer_Get_System_Clock_Hz
 510              		.syntax unified
 511              		.thumb
 512              		.thumb_func
 514              	Timer_Get_System_Clock_Hz:
 515              	.LFB134:
 176:core/src/timer.c **** 
 177:core/src/timer.c **** /**
 178:core/src/timer.c ****  * @brief Get system clock frequency
ARM GAS  C:\Users\Dawn\AppData\Local\Temp\ccKSsmib.s 			page 13


 179:core/src/timer.c ****  * @param None
 180:core/src/timer.c ****  * @retval System clock frequency in Hz
 181:core/src/timer.c ****  */
 182:core/src/timer.c **** uint32_t Timer_Get_System_Clock_Hz(void)
 183:core/src/timer.c **** {
 516              		.loc 1 183 1 is_stmt 1 view -0
 517              		.cfi_startproc
 518              		@ args = 0, pretend = 0, frame = 24
 519              		@ frame_needed = 0, uses_anonymous_args = 0
 520 0000 00B5     		push	{lr}
 521              	.LCFI10:
 522              		.cfi_def_cfa_offset 4
 523              		.cfi_offset 14, -4
 524 0002 87B0     		sub	sp, sp, #28
 525              	.LCFI11:
 526              		.cfi_def_cfa_offset 32
 184:core/src/timer.c ****     RCC_ClocksType clocks;
 527              		.loc 1 184 5 view .LVU98
 185:core/src/timer.c ****     RCC_Clocks_Frequencies_Value_Get(&clocks);
 528              		.loc 1 185 5 view .LVU99
 529 0004 6846     		mov	r0, sp
 530 0006 FFF7FEFF 		bl	RCC_Clocks_Frequencies_Value_Get
 531              	.LVL24:
 186:core/src/timer.c ****     return clocks.SysclkFreq;
 532              		.loc 1 186 5 view .LVU100
 187:core/src/timer.c **** }
 533              		.loc 1 187 1 is_stmt 0 view .LVU101
 534 000a 0098     		ldr	r0, [sp]
 535 000c 07B0     		add	sp, sp, #28
 536              	.LCFI12:
 537              		.cfi_def_cfa_offset 4
 538              		@ sp needed
 539 000e 5DF804FB 		ldr	pc, [sp], #4
 540              		.cfi_endproc
 541              	.LFE134:
 543              		.section	.text.Timer_Is_Initialized,"ax",%progbits
 544              		.align	1
 545              		.global	Timer_Is_Initialized
 546              		.syntax unified
 547              		.thumb
 548              		.thumb_func
 550              	Timer_Is_Initialized:
 551              	.LFB135:
 188:core/src/timer.c **** 
 189:core/src/timer.c **** /**
 190:core/src/timer.c ****  * @brief Check if timer is initialized
 191:core/src/timer.c ****  * @param None
 192:core/src/timer.c ****  * @retval 1 if initialized, 0 if not
 193:core/src/timer.c ****  */
 194:core/src/timer.c **** uint8_t Timer_Is_Initialized(void)
 195:core/src/timer.c **** {
 552              		.loc 1 195 1 is_stmt 1 view -0
 553              		.cfi_startproc
 554              		@ args = 0, pretend = 0, frame = 0
 555              		@ frame_needed = 0, uses_anonymous_args = 0
 556              		@ link register save eliminated.
 196:core/src/timer.c ****     return (SysTick->CTRL & SysTick_CTRL_ENABLE) ? 1 : 0;
ARM GAS  C:\Users\Dawn\AppData\Local\Temp\ccKSsmib.s 			page 14


 557              		.loc 1 196 5 view .LVU103
 558              		.loc 1 196 20 is_stmt 0 view .LVU104
 559 0000 4FF0E023 		mov	r3, #-536813568
 560 0004 1869     		ldr	r0, [r3, #16]
 197:core/src/timer.c **** } ...
 561              		.loc 1 197 1 view .LVU105
 562 0006 00F00100 		and	r0, r0, #1
 563 000a 7047     		bx	lr
 564              		.cfi_endproc
 565              	.LFE135:
 567              		.section	.bss.systick_reload_value,"aw",%nobits
 568              		.align	2
 571              	systick_reload_value:
 572 0000 00000000 		.space	4
 573              		.section	.bss.timer_start_tick,"aw",%nobits
 574              		.align	2
 577              	timer_start_tick:
 578 0000 00000000 		.space	4
 579              		.section	.bss.tick_counter,"aw",%nobits
 580              		.align	2
 583              	tick_counter:
 584 0000 00000000 		.space	4
 585              		.text
 586              	.Letext0:
 587              		.file 2 "D:/Tools/arm-gnu-toolchain/arm-none-eabi/include/machine/_default_types.h"
 588              		.file 3 "D:/Tools/arm-gnu-toolchain/arm-none-eabi/include/sys/_stdint.h"
 589              		.file 4 "CMSIS/core/core_cm4.h"
 590              		.file 5 "n32g430_std_periph_driver/inc/n32g430_rcc.h"
ARM GAS  C:\Users\Dawn\AppData\Local\Temp\ccKSsmib.s 			page 15

