ARM GAS  C:\Users\Dawn\AppData\Local\Temp\ccpPnLvM.s 			page 1


   1              		.cpu cortex-m4
   2              		.arch armv7e-m
   3              		.fpu fpv4-sp-d16
   4              		.eabi_attribute 27, 1
   5              		.eabi_attribute 28, 1
   6              		.eabi_attribute 20, 1
   7              		.eabi_attribute 21, 1
   8              		.eabi_attribute 23, 3
   9              		.eabi_attribute 24, 1
  10              		.eabi_attribute 25, 1
  11              		.eabi_attribute 26, 1
  12              		.eabi_attribute 30, 4
  13              		.eabi_attribute 34, 1
  14              		.eabi_attribute 18, 4
  15              		.file	"lcd.c"
  16              		.text
  17              	.Ltext0:
  18              		.cfi_sections	.debug_frame
  19              		.file 1 "../APP/LCD/Src/lcd.c"
  20              		.section	.text.LCD_Fill,"ax",%progbits
  21              		.align	1
  22              		.global	LCD_Fill
  23              		.syntax unified
  24              		.thumb
  25              		.thumb_func
  27              	LCD_Fill:
  28              	.LVL0:
  29              	.LFB130:
   1:../APP/LCD/Src/lcd.c **** #include "lcd.h"
   2:../APP/LCD/Src/lcd.c **** #include "lcd_init.h"
   3:../APP/LCD/Src/lcd.c **** #include "lcdfont.h"
   4:../APP/LCD/Src/lcd.c **** #include "main.h"
   5:../APP/LCD/Src/lcd.c **** 
   6:../APP/LCD/Src/lcd.c **** void LCD_Fill(u16 xsta,u16 ysta,u16 xend,u16 yend,u16 color)
   7:../APP/LCD/Src/lcd.c **** {
  30              		.loc 1 7 1 view -0
  31              		.cfi_startproc
  32              		@ args = 4, pretend = 0, frame = 0
  33              		@ frame_needed = 0, uses_anonymous_args = 0
   8:../APP/LCD/Src/lcd.c **** 	u16 i,j;
  34              		.loc 1 8 2 view .LVU1
   9:../APP/LCD/Src/lcd.c **** 	u16 width = xend - xsta;
  35              		.loc 1 9 2 view .LVU2
  10:../APP/LCD/Src/lcd.c **** 	u16 height = yend - ysta;
  36              		.loc 1 10 2 view .LVU3
  11:../APP/LCD/Src/lcd.c **** 	u32 total_pixels = (u32)width * (u32)height;
  37              		.loc 1 11 2 view .LVU4
   7:../APP/LCD/Src/lcd.c **** 	u16 i,j;
  38              		.loc 1 7 1 is_stmt 0 view .LVU5
  39 0000 2DE9F843 		push	{r3, r4, r5, r6, r7, r8, r9, lr}
  40              	.LCFI0:
  41              		.cfi_def_cfa_offset 32
  42              		.cfi_offset 3, -32
  43              		.cfi_offset 4, -28
  44              		.cfi_offset 5, -24
  45              		.cfi_offset 6, -20
  46              		.cfi_offset 7, -16
ARM GAS  C:\Users\Dawn\AppData\Local\Temp\ccpPnLvM.s 			page 2


  47              		.cfi_offset 8, -12
  48              		.cfi_offset 9, -8
  49              		.cfi_offset 14, -4
   9:../APP/LCD/Src/lcd.c **** 	u16 height = yend - ysta;
  50              		.loc 1 9 6 view .LVU6
  51 0004 141A     		subs	r4, r2, r0
   7:../APP/LCD/Src/lcd.c **** 	u16 i,j;
  52              		.loc 1 7 1 view .LVU7
  53 0006 1E46     		mov	r6, r3
  10:../APP/LCD/Src/lcd.c **** 	u32 total_pixels = (u32)width * (u32)height;
  54              		.loc 1 10 6 view .LVU8
  55 0008 5B1A     		subs	r3, r3, r1
  56              	.LVL1:
  57              		.loc 1 11 34 view .LVU9
  58 000a 9BB2     		uxth	r3, r3
  59              		.loc 1 11 21 view .LVU10
  60 000c A4B2     		uxth	r4, r4
  61              		.loc 1 11 6 view .LVU11
  62 000e 5C43     		muls	r4, r3, r4
  63              	.LVL2:
  12:../APP/LCD/Src/lcd.c **** 
  13:../APP/LCD/Src/lcd.c **** 	LCD_Address_Set(xsta,ysta,xend-1,yend-1);//设置显示范围
  64              		.loc 1 13 2 is_stmt 1 view .LVU12
   7:../APP/LCD/Src/lcd.c **** 	u16 i,j;
  65              		.loc 1 7 1 is_stmt 0 view .LVU13
  66 0010 1746     		mov	r7, r2
  67              		.loc 1 13 2 view .LVU14
  68 0012 731E     		subs	r3, r6, #1
  69 0014 013A     		subs	r2, r2, #1
  70              	.LVL3:
  71              		.loc 1 13 2 view .LVU15
  72 0016 9BB2     		uxth	r3, r3
  73 0018 92B2     		uxth	r2, r2
   7:../APP/LCD/Src/lcd.c **** 	u16 i,j;
  74              		.loc 1 7 1 view .LVU16
  75 001a BDF82080 		ldrh	r8, [sp, #32]
  76 001e 8146     		mov	r9, r0
  77 0020 0D46     		mov	r5, r1
  78              		.loc 1 13 2 view .LVU17
  79 0022 FFF7FEFF 		bl	LCD_Address_Set
  80              	.LVL4:
  14:../APP/LCD/Src/lcd.c **** 
  15:../APP/LCD/Src/lcd.c **** 	/* Use DMA for fast filling if area is large enough */
  16:../APP/LCD/Src/lcd.c **** 	if (total_pixels > 16) {
  81              		.loc 1 16 2 is_stmt 1 view .LVU18
  82              		.loc 1 16 5 is_stmt 0 view .LVU19
  83 0026 102C     		cmp	r4, #16
  84 0028 26D9     		bls	.L2
  85              	.LBB6:
  17:../APP/LCD/Src/lcd.c **** 		/* Large buffer for maximum performance (1KB = 512 pixels) */
  18:../APP/LCD/Src/lcd.c **** 		static u16 color_buffer[512];
  86              		.loc 1 18 3 is_stmt 1 view .LVU20
  19:../APP/LCD/Src/lcd.c **** 		static u16 last_color = 0xFFFF;
  87              		.loc 1 19 3 view .LVU21
  20:../APP/LCD/Src/lcd.c **** 
  21:../APP/LCD/Src/lcd.c **** 		/* Only refill buffer if color changed */
  22:../APP/LCD/Src/lcd.c **** 		if (color != last_color) {
ARM GAS  C:\Users\Dawn\AppData\Local\Temp\ccpPnLvM.s 			page 3


  88              		.loc 1 22 3 view .LVU22
  89              		.loc 1 22 13 is_stmt 0 view .LVU23
  90 002a 154A     		ldr	r2, .L13
  91              		.loc 1 22 6 view .LVU24
  92 002c 1388     		ldrh	r3, [r2]
  93 002e 4345     		cmp	r3, r8
  94 0030 0AD0     		beq	.L5
  95 0032 1449     		ldr	r1, .L13+4
  96 0034 4FF40073 		mov	r3, #512
  97              	.L4:
  98              	.LVL5:
  23:../APP/LCD/Src/lcd.c **** 			for (i = 0; i < 512; i++) {
  24:../APP/LCD/Src/lcd.c **** 				color_buffer[i] = color;
  99              		.loc 1 24 5 is_stmt 1 view .LVU25
  23:../APP/LCD/Src/lcd.c **** 			for (i = 0; i < 512; i++) {
 100              		.loc 1 23 18 is_stmt 0 discriminator 1 view .LVU26
 101 0038 013B     		subs	r3, r3, #1
 102              	.LVL6:
  23:../APP/LCD/Src/lcd.c **** 			for (i = 0; i < 512; i++) {
 103              		.loc 1 23 18 discriminator 1 view .LVU27
 104 003a 9BB2     		uxth	r3, r3
 105              	.LVL7:
 106              		.loc 1 24 21 view .LVU28
 107 003c 21F8028B 		strh	r8, [r1], #2	@ movhi
  23:../APP/LCD/Src/lcd.c **** 			for (i = 0; i < 512; i++) {
 108              		.loc 1 23 26 is_stmt 1 discriminator 3 view .LVU29
 109              	.LVL8:
  23:../APP/LCD/Src/lcd.c **** 			for (i = 0; i < 512; i++) {
 110              		.loc 1 23 18 discriminator 1 view .LVU30
 111 0040 002B     		cmp	r3, #0
 112 0042 F9D1     		bne	.L4
  25:../APP/LCD/Src/lcd.c **** 			}
  26:../APP/LCD/Src/lcd.c **** 			last_color = color;
 113              		.loc 1 26 4 view .LVU31
 114              		.loc 1 26 15 is_stmt 0 view .LVU32
 115 0044 A2F80080 		strh	r8, [r2]	@ movhi
 116              	.LVL9:
  27:../APP/LCD/Src/lcd.c **** 		}
  28:../APP/LCD/Src/lcd.c **** 
  29:../APP/LCD/Src/lcd.c **** 		/* Send in large chunks for maximum DMA efficiency */
  30:../APP/LCD/Src/lcd.c **** 		u32 remaining = total_pixels;
  31:../APP/LCD/Src/lcd.c **** 		while (remaining > 0) {
 117              		.loc 1 31 20 is_stmt 1 view .LVU33
 118              	.L5:
 119              	.LBB7:
  32:../APP/LCD/Src/lcd.c **** 			u16 chunk_pixels = (remaining > 512) ? 512 : remaining;
 120              		.loc 1 32 4 view .LVU34
 121              		.loc 1 32 47 is_stmt 0 view .LVU35
 122 0048 B4F5007F 		cmp	r4, #512
 123 004c 2546     		mov	r5, r4
 124 004e 28BF     		it	cs
 125 0050 4FF40075 		movcs	r5, #512
 126              	.LVL10:
  33:../APP/LCD/Src/lcd.c **** 			LCD_WR_DATA_DMA((u8*)color_buffer, chunk_pixels * 2);
 127              		.loc 1 33 4 is_stmt 1 view .LVU36
 128 0054 6900     		lsls	r1, r5, #1
 129 0056 0B48     		ldr	r0, .L13+4
ARM GAS  C:\Users\Dawn\AppData\Local\Temp\ccpPnLvM.s 			page 4


 130 0058 89B2     		uxth	r1, r1
 131 005a FFF7FEFF 		bl	LCD_WR_DATA_DMA
 132              	.LVL11:
  34:../APP/LCD/Src/lcd.c **** 			remaining -= chunk_pixels;
 133              		.loc 1 34 4 view .LVU37
 134              		.loc 1 34 4 is_stmt 0 view .LVU38
 135              	.LBE7:
  31:../APP/LCD/Src/lcd.c **** 			u16 chunk_pixels = (remaining > 512) ? 512 : remaining;
 136              		.loc 1 31 20 is_stmt 1 view .LVU39
 137 005e 641B     		subs	r4, r4, r5
 138              	.LVL12:
  31:../APP/LCD/Src/lcd.c **** 			u16 chunk_pixels = (remaining > 512) ? 512 : remaining;
 139              		.loc 1 31 20 is_stmt 0 view .LVU40
 140 0060 F2D1     		bne	.L5
 141              	.LVL13:
 142              	.L1:
  31:../APP/LCD/Src/lcd.c **** 			u16 chunk_pixels = (remaining > 512) ? 512 : remaining;
 143              		.loc 1 31 20 view .LVU41
 144              	.LBE6:
  35:../APP/LCD/Src/lcd.c **** 		}
  36:../APP/LCD/Src/lcd.c **** 	} else {
  37:../APP/LCD/Src/lcd.c **** 		/* Very small area - use normal method */
  38:../APP/LCD/Src/lcd.c **** 		for(i=ysta;i<yend;i++)
  39:../APP/LCD/Src/lcd.c **** 		{
  40:../APP/LCD/Src/lcd.c **** 			for(j=xsta;j<xend;j++)
  41:../APP/LCD/Src/lcd.c **** 			{
  42:../APP/LCD/Src/lcd.c **** 				LCD_WR_DATA(color);
  43:../APP/LCD/Src/lcd.c **** 			}
  44:../APP/LCD/Src/lcd.c **** 		}
  45:../APP/LCD/Src/lcd.c **** 	}
  46:../APP/LCD/Src/lcd.c **** }
 145              		.loc 1 46 1 view .LVU42
 146 0062 BDE8F883 		pop	{r3, r4, r5, r6, r7, r8, r9, pc}
 147              	.LVL14:
 148              	.L7:
  42:../APP/LCD/Src/lcd.c **** 			}
 149              		.loc 1 42 5 is_stmt 1 view .LVU43
 150 0066 4046     		mov	r0, r8
 151 0068 FFF7FEFF 		bl	LCD_WR_DATA
 152              	.LVL15:
  40:../APP/LCD/Src/lcd.c **** 			{
 153              		.loc 1 40 23 discriminator 3 view .LVU44
 154 006c 0134     		adds	r4, r4, #1
 155              	.LVL16:
  40:../APP/LCD/Src/lcd.c **** 			{
 156              		.loc 1 40 23 is_stmt 0 discriminator 3 view .LVU45
 157 006e A4B2     		uxth	r4, r4
 158              	.LVL17:
 159              	.L8:
  40:../APP/LCD/Src/lcd.c **** 			{
 160              		.loc 1 40 16 is_stmt 1 discriminator 1 view .LVU46
 161 0070 BC42     		cmp	r4, r7
 162 0072 F8D3     		bcc	.L7
  38:../APP/LCD/Src/lcd.c **** 		{
 163              		.loc 1 38 22 discriminator 2 view .LVU47
 164 0074 0135     		adds	r5, r5, #1
 165              	.LVL18:
ARM GAS  C:\Users\Dawn\AppData\Local\Temp\ccpPnLvM.s 			page 5


  38:../APP/LCD/Src/lcd.c **** 		{
 166              		.loc 1 38 22 is_stmt 0 discriminator 2 view .LVU48
 167 0076 ADB2     		uxth	r5, r5
 168              	.LVL19:
 169              	.L2:
  38:../APP/LCD/Src/lcd.c **** 		{
 170              		.loc 1 38 15 is_stmt 1 discriminator 1 view .LVU49
 171 0078 B542     		cmp	r5, r6
 172 007a F2D2     		bcs	.L1
  40:../APP/LCD/Src/lcd.c **** 			{
 173              		.loc 1 40 9 is_stmt 0 view .LVU50
 174 007c 4C46     		mov	r4, r9
 175 007e F7E7     		b	.L8
 176              	.L14:
 177              		.align	2
 178              	.L13:
 179 0080 00000000 		.word	last_color.1
 180 0084 00000000 		.word	color_buffer.0
 181              		.cfi_endproc
 182              	.LFE130:
 184              		.section	.text.LCD_DrawPoint,"ax",%progbits
 185              		.align	1
 186              		.global	LCD_DrawPoint
 187              		.syntax unified
 188              		.thumb
 189              		.thumb_func
 191              	LCD_DrawPoint:
 192              	.LVL20:
 193              	.LFB131:
  47:../APP/LCD/Src/lcd.c **** 
  48:../APP/LCD/Src/lcd.c **** void LCD_DrawPoint(u16 x,u16 y,u16 color)
  49:../APP/LCD/Src/lcd.c **** {
 194              		.loc 1 49 1 is_stmt 1 view -0
 195              		.cfi_startproc
 196              		@ args = 0, pretend = 0, frame = 0
 197              		@ frame_needed = 0, uses_anonymous_args = 0
  50:../APP/LCD/Src/lcd.c **** 	LCD_Address_Set(x,y,x,y);//设置光标位置
 198              		.loc 1 50 2 view .LVU52
  49:../APP/LCD/Src/lcd.c **** 	LCD_Address_Set(x,y,x,y);//设置光标位置
 199              		.loc 1 49 1 is_stmt 0 view .LVU53
 200 0000 10B5     		push	{r4, lr}
 201              	.LCFI1:
 202              		.cfi_def_cfa_offset 8
 203              		.cfi_offset 4, -8
 204              		.cfi_offset 14, -4
  49:../APP/LCD/Src/lcd.c **** 	LCD_Address_Set(x,y,x,y);//设置光标位置
 205              		.loc 1 49 1 view .LVU54
 206 0002 0B46     		mov	r3, r1
 207 0004 1446     		mov	r4, r2
 208              		.loc 1 50 2 view .LVU55
 209 0006 0246     		mov	r2, r0
 210              	.LVL21:
 211              		.loc 1 50 2 view .LVU56
 212 0008 FFF7FEFF 		bl	LCD_Address_Set
 213              	.LVL22:
  51:../APP/LCD/Src/lcd.c **** 	LCD_WR_DATA(color);
 214              		.loc 1 51 2 is_stmt 1 view .LVU57
ARM GAS  C:\Users\Dawn\AppData\Local\Temp\ccpPnLvM.s 			page 6


 215 000c 2046     		mov	r0, r4
  52:../APP/LCD/Src/lcd.c **** }
 216              		.loc 1 52 1 is_stmt 0 view .LVU58
 217 000e BDE81040 		pop	{r4, lr}
 218              	.LCFI2:
 219              		.cfi_restore 14
 220              		.cfi_restore 4
 221              		.cfi_def_cfa_offset 0
 222              	.LVL23:
  51:../APP/LCD/Src/lcd.c **** 	LCD_WR_DATA(color);
 223              		.loc 1 51 2 view .LVU59
 224 0012 FFF7FEBF 		b	LCD_WR_DATA
 225              	.LVL24:
  51:../APP/LCD/Src/lcd.c **** 	LCD_WR_DATA(color);
 226              		.loc 1 51 2 view .LVU60
 227              		.cfi_endproc
 228              	.LFE131:
 230              		.section	.text.LCD_DrawLine,"ax",%progbits
 231              		.align	1
 232              		.global	LCD_DrawLine
 233              		.syntax unified
 234              		.thumb
 235              		.thumb_func
 237              	LCD_DrawLine:
 238              	.LVL25:
 239              	.LFB132:
  53:../APP/LCD/Src/lcd.c **** 
  54:../APP/LCD/Src/lcd.c **** void LCD_DrawLine(u16 x1,u16 y1,u16 x2,u16 y2,u16 color)
  55:../APP/LCD/Src/lcd.c **** {
 240              		.loc 1 55 1 is_stmt 1 view -0
 241              		.cfi_startproc
 242              		@ args = 4, pretend = 0, frame = 16
 243              		@ frame_needed = 0, uses_anonymous_args = 0
  56:../APP/LCD/Src/lcd.c **** 	u16 t;
 244              		.loc 1 56 2 view .LVU62
  57:../APP/LCD/Src/lcd.c **** 	int xerr=0,yerr=0,delta_x,delta_y,distance;
 245              		.loc 1 57 2 view .LVU63
  58:../APP/LCD/Src/lcd.c **** 	int incx,incy,uRow,uCol;
 246              		.loc 1 58 2 view .LVU64
  59:../APP/LCD/Src/lcd.c **** 	delta_x=x2-x1; //计算坐标增量
 247              		.loc 1 59 2 view .LVU65
  55:../APP/LCD/Src/lcd.c **** 	u16 t;
 248              		.loc 1 55 1 is_stmt 0 view .LVU66
 249 0000 2DE9F04F 		push	{r4, r5, r6, r7, r8, r9, r10, fp, lr}
 250              	.LCFI3:
 251              		.cfi_def_cfa_offset 36
 252              		.cfi_offset 4, -36
 253              		.cfi_offset 5, -32
 254              		.cfi_offset 6, -28
 255              		.cfi_offset 7, -24
 256              		.cfi_offset 8, -20
 257              		.cfi_offset 9, -16
 258              		.cfi_offset 10, -12
 259              		.cfi_offset 11, -8
 260              		.cfi_offset 14, -4
 261 0004 85B0     		sub	sp, sp, #20
 262              	.LCFI4:
ARM GAS  C:\Users\Dawn\AppData\Local\Temp\ccpPnLvM.s 			page 7


 263              		.cfi_def_cfa_offset 56
 264              		.loc 1 59 9 view .LVU67
 265 0006 A2EB0009 		sub	r9, r2, r0
 266              	.LVL26:
  60:../APP/LCD/Src/lcd.c **** 	delta_y=y2-y1;
 267              		.loc 1 60 2 is_stmt 1 view .LVU68
  55:../APP/LCD/Src/lcd.c **** 	u16 t;
 268              		.loc 1 55 1 is_stmt 0 view .LVU69
 269 000a 1D46     		mov	r5, r3
  61:../APP/LCD/Src/lcd.c **** 	uRow=x1;//画线起点坐标
  62:../APP/LCD/Src/lcd.c **** 	uCol=y1;
  63:../APP/LCD/Src/lcd.c **** 	if(delta_x>0)incx=1; //设置单步方向
 270              		.loc 1 63 4 view .LVU70
 271 000c B9F1000F 		cmp	r9, #0
  55:../APP/LCD/Src/lcd.c **** 	u16 t;
 272              		.loc 1 55 1 view .LVU71
 273 0010 BDF83830 		ldrh	r3, [sp, #56]
 274              	.LVL27:
  55:../APP/LCD/Src/lcd.c **** 	u16 t;
 275              		.loc 1 55 1 view .LVU72
 276 0014 0293     		str	r3, [sp, #8]
  59:../APP/LCD/Src/lcd.c **** 	delta_y=y2-y1;
 277              		.loc 1 59 12 view .LVU73
 278 0016 0446     		mov	r4, r0
  60:../APP/LCD/Src/lcd.c **** 	uRow=x1;//画线起点坐标
 279              		.loc 1 60 12 view .LVU74
 280 0018 0B46     		mov	r3, r1
  60:../APP/LCD/Src/lcd.c **** 	uRow=x1;//画线起点坐标
 281              		.loc 1 60 9 view .LVU75
 282 001a A5EB010A 		sub	r10, r5, r1
 283              	.LVL28:
  61:../APP/LCD/Src/lcd.c **** 	uCol=y1;
 284              		.loc 1 61 2 is_stmt 1 view .LVU76
  62:../APP/LCD/Src/lcd.c **** 	if(delta_x>0)incx=1; //设置单步方向
 285              		.loc 1 62 2 view .LVU77
 286              		.loc 1 63 2 view .LVU78
 287              		.loc 1 63 4 is_stmt 0 view .LVU79
 288 001e 1ADC     		bgt	.L23
  64:../APP/LCD/Src/lcd.c **** 	else if (delta_x==0)incx=0;//垂直线
 289              		.loc 1 64 7 is_stmt 1 view .LVU80
 290              		.loc 1 64 10 is_stmt 0 view .LVU81
 291 0020 1BD0     		beq	.L24
  65:../APP/LCD/Src/lcd.c **** 	else {incx=-1;delta_x=-delta_x;}
 292              		.loc 1 65 8 is_stmt 1 view .LVU82
 293              	.LVL29:
 294              		.loc 1 65 16 view .LVU83
 295              		.loc 1 65 23 is_stmt 0 view .LVU84
 296 0022 A0EB0209 		sub	r9, r0, r2
 297              	.LVL30:
 298              		.loc 1 65 12 view .LVU85
 299 0026 4FF0FF32 		mov	r2, #-1
 300              	.LVL31:
 301              	.L27:
  63:../APP/LCD/Src/lcd.c **** 	else if (delta_x==0)incx=0;//垂直线
 302              		.loc 1 63 19 discriminator 1 view .LVU86
 303 002a 0192     		str	r2, [sp, #4]
 304              	.L17:
ARM GAS  C:\Users\Dawn\AppData\Local\Temp\ccpPnLvM.s 			page 8


 305              	.LVL32:
  66:../APP/LCD/Src/lcd.c **** 	if(delta_y>0)incy=1;
 306              		.loc 1 66 2 is_stmt 1 view .LVU87
 307              		.loc 1 66 4 is_stmt 0 view .LVU88
 308 002c BAF1000F 		cmp	r10, #0
 309 0030 16DC     		bgt	.L25
  67:../APP/LCD/Src/lcd.c **** 	else if (delta_y==0)incy=0;//水平线
 310              		.loc 1 67 7 is_stmt 1 view .LVU89
 311              		.loc 1 67 10 is_stmt 0 view .LVU90
 312 0032 18D0     		beq	.L26
  68:../APP/LCD/Src/lcd.c **** 	else {incy=-1;delta_y=-delta_y;}
 313              		.loc 1 68 8 is_stmt 1 view .LVU91
 314              	.LVL33:
 315              		.loc 1 68 16 view .LVU92
 316              		.loc 1 68 23 is_stmt 0 view .LVU93
 317 0034 A1EB050A 		sub	r10, r1, r5
 318              	.LVL34:
 319              		.loc 1 68 12 view .LVU94
 320 0038 4FF0FF3B 		mov	fp, #-1
 321              	.LVL35:
 322              	.L18:
  69:../APP/LCD/Src/lcd.c **** 	if(delta_x>delta_y)distance=delta_x; //选取基本增量坐标轴
 323              		.loc 1 69 2 is_stmt 1 view .LVU95
  70:../APP/LCD/Src/lcd.c **** 	else distance=delta_y;
  71:../APP/LCD/Src/lcd.c **** 	for(t=0;t<distance+1;t++)
 324              		.loc 1 71 2 is_stmt 0 view .LVU96
 325 003c 0026     		movs	r6, #0
  69:../APP/LCD/Src/lcd.c **** 	if(delta_x>delta_y)distance=delta_x; //选取基本增量坐标轴
 326              		.loc 1 69 4 view .LVU97
 327 003e D145     		cmp	r9, r10
 328 0040 4D46     		mov	r5, r9
 329              	.LVL36:
  57:../APP/LCD/Src/lcd.c **** 	int incx,incy,uRow,uCol;
 330              		.loc 1 57 13 view .LVU98
 331 0042 B046     		mov	r8, r6
  69:../APP/LCD/Src/lcd.c **** 	if(delta_x>delta_y)distance=delta_x; //选取基本增量坐标轴
 332              		.loc 1 69 4 view .LVU99
 333 0044 B8BF     		it	lt
 334 0046 5546     		movlt	r5, r10
 335              	.LVL37:
 336              		.loc 1 71 2 is_stmt 1 view .LVU100
  57:../APP/LCD/Src/lcd.c **** 	int incx,incy,uRow,uCol;
 337              		.loc 1 57 6 is_stmt 0 view .LVU101
 338 0048 3746     		mov	r7, r6
 339              	.LVL38:
 340              	.L19:
 341              		.loc 1 71 11 is_stmt 1 discriminator 1 view .LVU102
 342 004a B2B2     		uxth	r2, r6
 343 004c AA42     		cmp	r2, r5
 344 004e 0CDD     		ble	.L22
  72:../APP/LCD/Src/lcd.c **** 	{
  73:../APP/LCD/Src/lcd.c **** 		LCD_DrawPoint(uRow,uCol,color);//画点
  74:../APP/LCD/Src/lcd.c **** 		xerr+=delta_x;
  75:../APP/LCD/Src/lcd.c **** 		yerr+=delta_y;
  76:../APP/LCD/Src/lcd.c **** 		if(xerr>distance)
  77:../APP/LCD/Src/lcd.c **** 		{
  78:../APP/LCD/Src/lcd.c **** 			xerr-=distance;
ARM GAS  C:\Users\Dawn\AppData\Local\Temp\ccpPnLvM.s 			page 9


  79:../APP/LCD/Src/lcd.c **** 			uRow+=incx;
  80:../APP/LCD/Src/lcd.c **** 		}
  81:../APP/LCD/Src/lcd.c **** 		if(yerr>distance)
  82:../APP/LCD/Src/lcd.c **** 		{
  83:../APP/LCD/Src/lcd.c **** 			yerr-=distance;
  84:../APP/LCD/Src/lcd.c **** 			uCol+=incy;
  85:../APP/LCD/Src/lcd.c **** 		}
  86:../APP/LCD/Src/lcd.c **** 	}
  87:../APP/LCD/Src/lcd.c **** }
 345              		.loc 1 87 1 is_stmt 0 view .LVU103
 346 0050 05B0     		add	sp, sp, #20
 347              	.LCFI5:
 348              		.cfi_remember_state
 349              		.cfi_def_cfa_offset 36
 350              		@ sp needed
 351 0052 BDE8F08F 		pop	{r4, r5, r6, r7, r8, r9, r10, fp, pc}
 352              	.LVL39:
 353              	.L23:
 354              	.LCFI6:
 355              		.cfi_restore_state
  63:../APP/LCD/Src/lcd.c **** 	else if (delta_x==0)incx=0;//垂直线
 356              		.loc 1 63 19 discriminator 1 view .LVU104
 357 0056 0122     		movs	r2, #1
 358              	.LVL40:
  63:../APP/LCD/Src/lcd.c **** 	else if (delta_x==0)incx=0;//垂直线
 359              		.loc 1 63 19 discriminator 1 view .LVU105
 360 0058 E7E7     		b	.L27
 361              	.LVL41:
 362              	.L24:
  64:../APP/LCD/Src/lcd.c **** 	else {incx=-1;delta_x=-delta_x;}
 363              		.loc 1 64 26 discriminator 1 view .LVU106
 364 005a CDF80490 		str	r9, [sp, #4]
 365 005e E5E7     		b	.L17
 366              	.LVL42:
 367              	.L25:
  66:../APP/LCD/Src/lcd.c **** 	else if (delta_y==0)incy=0;//水平线
 368              		.loc 1 66 19 discriminator 1 view .LVU107
 369 0060 4FF0010B 		mov	fp, #1
 370 0064 EAE7     		b	.L18
 371              	.L26:
  67:../APP/LCD/Src/lcd.c **** 	else {incy=-1;delta_y=-delta_y;}
 372              		.loc 1 67 26 discriminator 1 view .LVU108
 373 0066 D346     		mov	fp, r10
 374 0068 E8E7     		b	.L18
 375              	.LVL43:
 376              	.L22:
  73:../APP/LCD/Src/lcd.c **** 		xerr+=delta_x;
 377              		.loc 1 73 3 is_stmt 1 view .LVU109
 378 006a 029A     		ldr	r2, [sp, #8]
 379 006c 0393     		str	r3, [sp, #12]
 380 006e 99B2     		uxth	r1, r3
 381 0070 A0B2     		uxth	r0, r4
  74:../APP/LCD/Src/lcd.c **** 		yerr+=delta_y;
 382              		.loc 1 74 7 is_stmt 0 view .LVU110
 383 0072 4F44     		add	r7, r7, r9
 384              	.LVL44:
  73:../APP/LCD/Src/lcd.c **** 		xerr+=delta_x;
ARM GAS  C:\Users\Dawn\AppData\Local\Temp\ccpPnLvM.s 			page 10


 385              		.loc 1 73 3 view .LVU111
 386 0074 FFF7FEFF 		bl	LCD_DrawPoint
 387              	.LVL45:
  74:../APP/LCD/Src/lcd.c **** 		yerr+=delta_y;
 388              		.loc 1 74 3 is_stmt 1 view .LVU112
  75:../APP/LCD/Src/lcd.c **** 		if(xerr>distance)
 389              		.loc 1 75 3 view .LVU113
  76:../APP/LCD/Src/lcd.c **** 		{
 390              		.loc 1 76 5 is_stmt 0 view .LVU114
 391 0078 BD42     		cmp	r5, r7
  79:../APP/LCD/Src/lcd.c **** 		}
 392              		.loc 1 79 8 view .LVU115
 393 007a B8BF     		it	lt
 394 007c 019A     		ldrlt	r2, [sp, #4]
  76:../APP/LCD/Src/lcd.c **** 		{
 395              		.loc 1 76 5 view .LVU116
 396 007e 039B     		ldr	r3, [sp, #12]
  75:../APP/LCD/Src/lcd.c **** 		if(xerr>distance)
 397              		.loc 1 75 7 view .LVU117
 398 0080 D044     		add	r8, r8, r10
 399              	.LVL46:
  76:../APP/LCD/Src/lcd.c **** 		{
 400              		.loc 1 76 3 is_stmt 1 view .LVU118
  78:../APP/LCD/Src/lcd.c **** 			uRow+=incx;
 401              		.loc 1 78 4 view .LVU119
  78:../APP/LCD/Src/lcd.c **** 			uRow+=incx;
 402              		.loc 1 78 8 is_stmt 0 view .LVU120
 403 0082 BCBF     		itt	lt
 404 0084 7F1B     		sublt	r7, r7, r5
 405              	.LVL47:
  79:../APP/LCD/Src/lcd.c **** 		}
 406              		.loc 1 79 4 is_stmt 1 view .LVU121
  79:../APP/LCD/Src/lcd.c **** 		}
 407              		.loc 1 79 8 is_stmt 0 view .LVU122
 408 0086 A418     		addlt	r4, r4, r2
 409              	.LVL48:
  81:../APP/LCD/Src/lcd.c **** 		{
 410              		.loc 1 81 3 is_stmt 1 view .LVU123
  81:../APP/LCD/Src/lcd.c **** 		{
 411              		.loc 1 81 5 is_stmt 0 view .LVU124
 412 0088 4545     		cmp	r5, r8
  83:../APP/LCD/Src/lcd.c **** 			uCol+=incy;
 413              		.loc 1 83 4 is_stmt 1 view .LVU125
  83:../APP/LCD/Src/lcd.c **** 			uCol+=incy;
 414              		.loc 1 83 8 is_stmt 0 view .LVU126
 415 008a BCBF     		itt	lt
 416 008c A8EB0508 		sublt	r8, r8, r5
 417              	.LVL49:
  84:../APP/LCD/Src/lcd.c **** 		}
 418              		.loc 1 84 4 is_stmt 1 view .LVU127
  84:../APP/LCD/Src/lcd.c **** 		}
 419              		.loc 1 84 8 is_stmt 0 view .LVU128
 420 0090 5B44     		addlt	r3, r3, fp
 421              	.LVL50:
  71:../APP/LCD/Src/lcd.c **** 	{
 422              		.loc 1 71 24 is_stmt 1 discriminator 2 view .LVU129
  71:../APP/LCD/Src/lcd.c **** 	{
ARM GAS  C:\Users\Dawn\AppData\Local\Temp\ccpPnLvM.s 			page 11


 423              		.loc 1 71 24 is_stmt 0 discriminator 2 view .LVU130
 424 0092 0136     		adds	r6, r6, #1
 425              	.LVL51:
  71:../APP/LCD/Src/lcd.c **** 	{
 426              		.loc 1 71 24 discriminator 2 view .LVU131
 427 0094 D9E7     		b	.L19
 428              		.cfi_endproc
 429              	.LFE132:
 431              		.section	.text.LCD_DrawRectangle,"ax",%progbits
 432              		.align	1
 433              		.global	LCD_DrawRectangle
 434              		.syntax unified
 435              		.thumb
 436              		.thumb_func
 438              	LCD_DrawRectangle:
 439              	.LVL52:
 440              	.LFB133:
  88:../APP/LCD/Src/lcd.c **** 
  89:../APP/LCD/Src/lcd.c **** void LCD_DrawRectangle(u16 x1, u16 y1, u16 x2, u16 y2,u16 color)
  90:../APP/LCD/Src/lcd.c **** {
 441              		.loc 1 90 1 is_stmt 1 view -0
 442              		.cfi_startproc
 443              		@ args = 4, pretend = 0, frame = 0
 444              		@ frame_needed = 0, uses_anonymous_args = 0
  91:../APP/LCD/Src/lcd.c **** 	LCD_DrawLine(x1,y1,x2,y1,color);
 445              		.loc 1 91 2 view .LVU133
  90:../APP/LCD/Src/lcd.c **** 	LCD_DrawLine(x1,y1,x2,y1,color);
 446              		.loc 1 90 1 is_stmt 0 view .LVU134
 447 0000 2DE9F341 		push	{r0, r1, r4, r5, r6, r7, r8, lr}
 448              	.LCFI7:
 449              		.cfi_def_cfa_offset 32
 450              		.cfi_offset 4, -24
 451              		.cfi_offset 5, -20
 452              		.cfi_offset 6, -16
 453              		.cfi_offset 7, -12
 454              		.cfi_offset 8, -8
 455              		.cfi_offset 14, -4
  90:../APP/LCD/Src/lcd.c **** 	LCD_DrawLine(x1,y1,x2,y1,color);
 456              		.loc 1 90 1 view .LVU135
 457 0004 BDF82080 		ldrh	r8, [sp, #32]
 458              		.loc 1 91 2 view .LVU136
 459 0008 CDF80080 		str	r8, [sp]
  90:../APP/LCD/Src/lcd.c **** 	LCD_DrawLine(x1,y1,x2,y1,color);
 460              		.loc 1 90 1 view .LVU137
 461 000c 1C46     		mov	r4, r3
 462 000e 0646     		mov	r6, r0
 463 0010 0D46     		mov	r5, r1
 464              		.loc 1 91 2 view .LVU138
 465 0012 0B46     		mov	r3, r1
 466              	.LVL53:
  90:../APP/LCD/Src/lcd.c **** 	LCD_DrawLine(x1,y1,x2,y1,color);
 467              		.loc 1 90 1 view .LVU139
 468 0014 1746     		mov	r7, r2
 469              		.loc 1 91 2 view .LVU140
 470 0016 FFF7FEFF 		bl	LCD_DrawLine
 471              	.LVL54:
  92:../APP/LCD/Src/lcd.c **** 	LCD_DrawLine(x1,y1,x1,y2,color);
ARM GAS  C:\Users\Dawn\AppData\Local\Temp\ccpPnLvM.s 			page 12


 472              		.loc 1 92 2 is_stmt 1 view .LVU141
 473 001a 2346     		mov	r3, r4
 474 001c 3246     		mov	r2, r6
 475 001e 2946     		mov	r1, r5
 476 0020 3046     		mov	r0, r6
 477 0022 CDF80080 		str	r8, [sp]
 478 0026 FFF7FEFF 		bl	LCD_DrawLine
 479              	.LVL55:
  93:../APP/LCD/Src/lcd.c **** 	LCD_DrawLine(x1,y2,x2,y2,color);
 480              		.loc 1 93 2 view .LVU142
 481 002a 2346     		mov	r3, r4
 482 002c 3A46     		mov	r2, r7
 483 002e 2146     		mov	r1, r4
 484 0030 3046     		mov	r0, r6
 485 0032 CDF80080 		str	r8, [sp]
 486 0036 FFF7FEFF 		bl	LCD_DrawLine
 487              	.LVL56:
  94:../APP/LCD/Src/lcd.c **** 	LCD_DrawLine(x2,y1,x2,y2,color);
 488              		.loc 1 94 2 view .LVU143
 489 003a 2346     		mov	r3, r4
 490 003c 3A46     		mov	r2, r7
 491 003e 2946     		mov	r1, r5
 492 0040 3846     		mov	r0, r7
 493 0042 CDF82080 		str	r8, [sp, #32]
 494              	.LVL57:
  95:../APP/LCD/Src/lcd.c **** }
 495              		.loc 1 95 1 is_stmt 0 view .LVU144
 496 0046 02B0     		add	sp, sp, #8
 497              	.LCFI8:
 498              		.cfi_def_cfa_offset 24
 499              		@ sp needed
 500 0048 BDE8F041 		pop	{r4, r5, r6, r7, r8, lr}
 501              	.LCFI9:
 502              		.cfi_restore 14
 503              		.cfi_restore 8
 504              		.cfi_restore 7
 505              		.cfi_restore 6
 506              		.cfi_restore 5
 507              		.cfi_restore 4
 508              		.cfi_def_cfa_offset 0
 509              	.LVL58:
  94:../APP/LCD/Src/lcd.c **** 	LCD_DrawLine(x2,y1,x2,y2,color);
 510              		.loc 1 94 2 view .LVU145
 511 004c FFF7FEBF 		b	LCD_DrawLine
 512              	.LVL59:
  94:../APP/LCD/Src/lcd.c **** 	LCD_DrawLine(x2,y1,x2,y2,color);
 513              		.loc 1 94 2 view .LVU146
 514              		.cfi_endproc
 515              	.LFE133:
 517              		.section	.text.Draw_Circle,"ax",%progbits
 518              		.align	1
 519              		.global	Draw_Circle
 520              		.syntax unified
 521              		.thumb
 522              		.thumb_func
 524              	Draw_Circle:
 525              	.LVL60:
ARM GAS  C:\Users\Dawn\AppData\Local\Temp\ccpPnLvM.s 			page 13


 526              	.LFB134:
  96:../APP/LCD/Src/lcd.c **** 
  97:../APP/LCD/Src/lcd.c **** void Draw_Circle(u16 x0,u16 y0,u8 r,u16 color)
  98:../APP/LCD/Src/lcd.c **** {
 527              		.loc 1 98 1 is_stmt 1 view -0
 528              		.cfi_startproc
 529              		@ args = 0, pretend = 0, frame = 16
 530              		@ frame_needed = 0, uses_anonymous_args = 0
  99:../APP/LCD/Src/lcd.c **** 	int a,b;
 531              		.loc 1 99 2 view .LVU148
 100:../APP/LCD/Src/lcd.c **** 	a=0;b=r;
 532              		.loc 1 100 2 view .LVU149
 533              		.loc 1 100 6 view .LVU150
  98:../APP/LCD/Src/lcd.c **** 	int a,b;
 534              		.loc 1 98 1 is_stmt 0 view .LVU151
 535 0000 2DE9F04F 		push	{r4, r5, r6, r7, r8, r9, r10, fp, lr}
 536              	.LCFI10:
 537              		.cfi_def_cfa_offset 36
 538              		.cfi_offset 4, -36
 539              		.cfi_offset 5, -32
 540              		.cfi_offset 6, -28
 541              		.cfi_offset 7, -24
 542              		.cfi_offset 8, -20
 543              		.cfi_offset 9, -16
 544              		.cfi_offset 10, -12
 545              		.cfi_offset 11, -8
 546              		.cfi_offset 14, -4
 547 0004 85B0     		sub	sp, sp, #20
 548              	.LCFI11:
 549              		.cfi_def_cfa_offset 56
  98:../APP/LCD/Src/lcd.c **** 	int a,b;
 550              		.loc 1 98 1 view .LVU152
 551 0006 1D46     		mov	r5, r3
 101:../APP/LCD/Src/lcd.c **** 	while(a<=b)
 102:../APP/LCD/Src/lcd.c **** 	{
 103:../APP/LCD/Src/lcd.c **** 		LCD_DrawPoint(x0-b,y0-a,color);             //3
 104:../APP/LCD/Src/lcd.c **** 		LCD_DrawPoint(x0+b,y0-a,color);             //0
 105:../APP/LCD/Src/lcd.c **** 		LCD_DrawPoint(x0-a,y0+b,color);             //1
 106:../APP/LCD/Src/lcd.c **** 		LCD_DrawPoint(x0-a,y0-b,color);             //2
 107:../APP/LCD/Src/lcd.c **** 		LCD_DrawPoint(x0+b,y0+a,color);             //4
 108:../APP/LCD/Src/lcd.c **** 		LCD_DrawPoint(x0+a,y0-b,color);             //5
 109:../APP/LCD/Src/lcd.c **** 		LCD_DrawPoint(x0+a,y0+b,color);             //6
 110:../APP/LCD/Src/lcd.c **** 		LCD_DrawPoint(x0-b,y0+a,color);             //7
 111:../APP/LCD/Src/lcd.c **** 		a++;
 112:../APP/LCD/Src/lcd.c **** 		if((a*a+b*b)>(r*r))//判断要画的点是否过远
 552              		.loc 1 112 18 view .LVU153
 553 0008 12FB02F3 		smulbb	r3, r2, r2
 554              	.LVL61:
  98:../APP/LCD/Src/lcd.c **** 	int a,b;
 555              		.loc 1 98 1 view .LVU154
 556 000c 8146     		mov	r9, r0
 557 000e 8A46     		mov	r10, r1
 100:../APP/LCD/Src/lcd.c **** 	while(a<=b)
 558              		.loc 1 100 7 view .LVU155
 559 0010 1446     		mov	r4, r2
 560              	.LVL62:
 101:../APP/LCD/Src/lcd.c **** 	while(a<=b)
ARM GAS  C:\Users\Dawn\AppData\Local\Temp\ccpPnLvM.s 			page 14


 561              		.loc 1 101 2 is_stmt 1 view .LVU156
 101:../APP/LCD/Src/lcd.c **** 	while(a<=b)
 562              		.loc 1 101 9 view .LVU157
 563              		.loc 1 112 18 is_stmt 0 view .LVU158
 564 0012 0293     		str	r3, [sp, #8]
 100:../APP/LCD/Src/lcd.c **** 	while(a<=b)
 565              		.loc 1 100 3 view .LVU159
 566 0014 4FF00008 		mov	r8, #0
 567              	.LVL63:
 568              	.L31:
 103:../APP/LCD/Src/lcd.c **** 		LCD_DrawPoint(x0+b,y0-a,color);             //0
 569              		.loc 1 103 3 is_stmt 1 view .LVU160
 570 0018 A7B2     		uxth	r7, r4
 571 001a 1FFA88F6 		uxth	r6, r8
 572 001e A9EB0703 		sub	r3, r9, r7
 573 0022 9BB2     		uxth	r3, r3
 574 0024 AAEB0601 		sub	r1, r10, r6
 104:../APP/LCD/Src/lcd.c **** 		LCD_DrawPoint(x0-a,y0+b,color);             //1
 575              		.loc 1 104 3 is_stmt 0 view .LVU161
 576 0028 07EB090B 		add	fp, r7, r9
 103:../APP/LCD/Src/lcd.c **** 		LCD_DrawPoint(x0+b,y0-a,color);             //0
 577              		.loc 1 103 3 view .LVU162
 578 002c 1846     		mov	r0, r3
 579 002e 89B2     		uxth	r1, r1
 580 0030 2A46     		mov	r2, r5
 104:../APP/LCD/Src/lcd.c **** 		LCD_DrawPoint(x0-a,y0+b,color);             //1
 581              		.loc 1 104 3 view .LVU163
 582 0032 1FFA8BFB 		uxth	fp, fp
 103:../APP/LCD/Src/lcd.c **** 		LCD_DrawPoint(x0+b,y0-a,color);             //0
 583              		.loc 1 103 3 view .LVU164
 584 0036 0093     		str	r3, [sp]
 585 0038 0191     		str	r1, [sp, #4]
 586 003a FFF7FEFF 		bl	LCD_DrawPoint
 587              	.LVL64:
 104:../APP/LCD/Src/lcd.c **** 		LCD_DrawPoint(x0-a,y0+b,color);             //1
 588              		.loc 1 104 3 is_stmt 1 view .LVU165
 589 003e 0199     		ldr	r1, [sp, #4]
 590 0040 2A46     		mov	r2, r5
 591 0042 5846     		mov	r0, fp
 592 0044 FFF7FEFF 		bl	LCD_DrawPoint
 593              	.LVL65:
 105:../APP/LCD/Src/lcd.c **** 		LCD_DrawPoint(x0-a,y0-b,color);             //2
 594              		.loc 1 105 3 view .LVU166
 595 0048 07EB0A03 		add	r3, r7, r10
 596 004c 9BB2     		uxth	r3, r3
 597 004e A9EB0600 		sub	r0, r9, r6
 106:../APP/LCD/Src/lcd.c **** 		LCD_DrawPoint(x0+b,y0+a,color);             //4
 598              		.loc 1 106 3 is_stmt 0 view .LVU167
 599 0052 AAEB0707 		sub	r7, r10, r7
 105:../APP/LCD/Src/lcd.c **** 		LCD_DrawPoint(x0-a,y0-b,color);             //2
 600              		.loc 1 105 3 view .LVU168
 601 0056 1946     		mov	r1, r3
 602 0058 80B2     		uxth	r0, r0
 603 005a 2A46     		mov	r2, r5
 106:../APP/LCD/Src/lcd.c **** 		LCD_DrawPoint(x0+b,y0+a,color);             //4
 604              		.loc 1 106 3 view .LVU169
 605 005c BFB2     		uxth	r7, r7
ARM GAS  C:\Users\Dawn\AppData\Local\Temp\ccpPnLvM.s 			page 15


 105:../APP/LCD/Src/lcd.c **** 		LCD_DrawPoint(x0-a,y0-b,color);             //2
 606              		.loc 1 105 3 view .LVU170
 607 005e 0193     		str	r3, [sp, #4]
 608 0060 0390     		str	r0, [sp, #12]
 609 0062 FFF7FEFF 		bl	LCD_DrawPoint
 610              	.LVL66:
 106:../APP/LCD/Src/lcd.c **** 		LCD_DrawPoint(x0+b,y0+a,color);             //4
 611              		.loc 1 106 3 is_stmt 1 view .LVU171
 612 0066 0398     		ldr	r0, [sp, #12]
 613 0068 2A46     		mov	r2, r5
 614 006a 3946     		mov	r1, r7
 615 006c FFF7FEFF 		bl	LCD_DrawPoint
 616              	.LVL67:
 107:../APP/LCD/Src/lcd.c **** 		LCD_DrawPoint(x0+a,y0-b,color);             //5
 617              		.loc 1 107 3 view .LVU172
 618 0070 0AEB0603 		add	r3, r10, r6
 619 0074 9BB2     		uxth	r3, r3
 108:../APP/LCD/Src/lcd.c **** 		LCD_DrawPoint(x0+a,y0+b,color);             //6
 620              		.loc 1 108 3 is_stmt 0 view .LVU173
 621 0076 4E44     		add	r6, r6, r9
 107:../APP/LCD/Src/lcd.c **** 		LCD_DrawPoint(x0+a,y0-b,color);             //5
 622              		.loc 1 107 3 view .LVU174
 623 0078 1946     		mov	r1, r3
 624 007a 2A46     		mov	r2, r5
 625 007c 5846     		mov	r0, fp
 108:../APP/LCD/Src/lcd.c **** 		LCD_DrawPoint(x0+a,y0+b,color);             //6
 626              		.loc 1 108 3 view .LVU175
 627 007e B6B2     		uxth	r6, r6
 107:../APP/LCD/Src/lcd.c **** 		LCD_DrawPoint(x0+a,y0-b,color);             //5
 628              		.loc 1 107 3 view .LVU176
 629 0080 0393     		str	r3, [sp, #12]
 630 0082 FFF7FEFF 		bl	LCD_DrawPoint
 631              	.LVL68:
 108:../APP/LCD/Src/lcd.c **** 		LCD_DrawPoint(x0+a,y0+b,color);             //6
 632              		.loc 1 108 3 is_stmt 1 view .LVU177
 633 0086 2A46     		mov	r2, r5
 634 0088 3946     		mov	r1, r7
 635 008a 3046     		mov	r0, r6
 636 008c FFF7FEFF 		bl	LCD_DrawPoint
 637              	.LVL69:
 109:../APP/LCD/Src/lcd.c **** 		LCD_DrawPoint(x0-b,y0+a,color);             //7
 638              		.loc 1 109 3 view .LVU178
 639 0090 0199     		ldr	r1, [sp, #4]
 640 0092 2A46     		mov	r2, r5
 641 0094 3046     		mov	r0, r6
 642 0096 FFF7FEFF 		bl	LCD_DrawPoint
 643              	.LVL70:
 110:../APP/LCD/Src/lcd.c **** 		a++;
 644              		.loc 1 110 3 view .LVU179
 645 009a 039B     		ldr	r3, [sp, #12]
 646 009c 0098     		ldr	r0, [sp]
 647 009e 2A46     		mov	r2, r5
 648 00a0 1946     		mov	r1, r3
 649 00a2 FFF7FEFF 		bl	LCD_DrawPoint
 650              	.LVL71:
 111:../APP/LCD/Src/lcd.c **** 		if((a*a+b*b)>(r*r))//判断要画的点是否过远
 651              		.loc 1 111 3 view .LVU180
ARM GAS  C:\Users\Dawn\AppData\Local\Temp\ccpPnLvM.s 			page 16


 111:../APP/LCD/Src/lcd.c **** 		if((a*a+b*b)>(r*r))//判断要画的点是否过远
 652              		.loc 1 111 4 is_stmt 0 view .LVU181
 653 00a6 08F10108 		add	r8, r8, #1
 654              	.LVL72:
 655              		.loc 1 112 3 is_stmt 1 view .LVU182
 656              		.loc 1 112 12 is_stmt 0 view .LVU183
 657 00aa 14FB04F3 		smulbb	r3, r4, r4
 658              		.loc 1 112 5 view .LVU184
 659 00ae 029A     		ldr	r2, [sp, #8]
 660              		.loc 1 112 10 view .LVU185
 661 00b0 18FB0833 		smlabb	r3, r8, r8, r3
 662              		.loc 1 112 5 view .LVU186
 663 00b4 9342     		cmp	r3, r2
 113:../APP/LCD/Src/lcd.c **** 		{
 114:../APP/LCD/Src/lcd.c **** 			b--;
 664              		.loc 1 114 4 is_stmt 1 view .LVU187
 665              		.loc 1 114 5 is_stmt 0 view .LVU188
 666 00b6 C8BF     		it	gt
 667 00b8 04F1FF34 		addgt	r4, r4, #-1
 668              	.LVL73:
 101:../APP/LCD/Src/lcd.c **** 	{
 669              		.loc 1 101 9 is_stmt 1 view .LVU189
 670 00bc 4445     		cmp	r4, r8
 671 00be ABDA     		bge	.L31
 115:../APP/LCD/Src/lcd.c **** 		}
 116:../APP/LCD/Src/lcd.c **** 	}
 117:../APP/LCD/Src/lcd.c **** }
 672              		.loc 1 117 1 is_stmt 0 view .LVU190
 673 00c0 05B0     		add	sp, sp, #20
 674              	.LCFI12:
 675              		.cfi_def_cfa_offset 36
 676              		@ sp needed
 677 00c2 BDE8F08F 		pop	{r4, r5, r6, r7, r8, r9, r10, fp, pc}
 678              		.loc 1 117 1 view .LVU191
 679              		.cfi_endproc
 680              	.LFE134:
 682              		.section	.text.LCD_ShowChar,"ax",%progbits
 683              		.align	1
 684              		.global	LCD_ShowChar
 685              		.syntax unified
 686              		.thumb
 687              		.thumb_func
 689              	LCD_ShowChar:
 690              	.LVL74:
 691              	.LFB135:
 118:../APP/LCD/Src/lcd.c **** 
 119:../APP/LCD/Src/lcd.c **** void LCD_ShowChar(u16 x,u16 y,u8 num,u16 fc,u16 bc,u8 sizey,u8 mode)
 120:../APP/LCD/Src/lcd.c **** {
 692              		.loc 1 120 1 is_stmt 1 view -0
 693              		.cfi_startproc
 694              		@ args = 12, pretend = 0, frame = 24
 695              		@ frame_needed = 0, uses_anonymous_args = 0
 121:../APP/LCD/Src/lcd.c **** 	u8 temp,sizex,t,m=0;
 696              		.loc 1 121 2 view .LVU193
 122:../APP/LCD/Src/lcd.c **** 	u16 i,TypefaceNum;//一个字符所占字节大小
 697              		.loc 1 122 2 view .LVU194
 123:../APP/LCD/Src/lcd.c **** 	u16 x0=x;
ARM GAS  C:\Users\Dawn\AppData\Local\Temp\ccpPnLvM.s 			page 17


 698              		.loc 1 123 2 view .LVU195
 120:../APP/LCD/Src/lcd.c **** 	u8 temp,sizex,t,m=0;
 699              		.loc 1 120 1 is_stmt 0 view .LVU196
 700 0000 2DE9F04F 		push	{r4, r5, r6, r7, r8, r9, r10, fp, lr}
 701              	.LCFI13:
 702              		.cfi_def_cfa_offset 36
 703              		.cfi_offset 4, -36
 704              		.cfi_offset 5, -32
 705              		.cfi_offset 6, -28
 706              		.cfi_offset 7, -24
 707              		.cfi_offset 8, -20
 708              		.cfi_offset 9, -16
 709              		.cfi_offset 10, -12
 710              		.cfi_offset 11, -8
 711              		.cfi_offset 14, -4
 712 0004 87B0     		sub	sp, sp, #28
 713              	.LCFI14:
 714              		.cfi_def_cfa_offset 64
 715              	.LVL75:
 124:../APP/LCD/Src/lcd.c **** 	sizex=sizey/2;
 716              		.loc 1 124 2 is_stmt 1 view .LVU197
 125:../APP/LCD/Src/lcd.c **** 	TypefaceNum=(sizex/8+((sizex%8)?1:0))*sizey;
 126:../APP/LCD/Src/lcd.c **** 	num=num-' ';    //得到偏移后的值
 717              		.loc 1 126 5 is_stmt 0 view .LVU198
 718 0006 A2F12006 		sub	r6, r2, #32
 120:../APP/LCD/Src/lcd.c **** 	u8 temp,sizex,t,m=0;
 719              		.loc 1 120 1 view .LVU199
 720 000a 9DF84440 		ldrb	r4, [sp, #68]	@ zero_extendqisi2
 721 000e 0293     		str	r3, [sp, #8]
 722 0010 BDF84030 		ldrh	r3, [sp, #64]
 723              	.LVL76:
 120:../APP/LCD/Src/lcd.c **** 	u8 temp,sizex,t,m=0;
 724              		.loc 1 120 1 view .LVU200
 725 0014 0493     		str	r3, [sp, #16]
 726 0016 9DF84830 		ldrb	r3, [sp, #72]	@ zero_extendqisi2
 727 001a 0593     		str	r3, [sp, #20]
 124:../APP/LCD/Src/lcd.c **** 	sizex=sizey/2;
 728              		.loc 1 124 7 view .LVU201
 729 001c 6308     		lsrs	r3, r4, #1
 730 001e 0193     		str	r3, [sp, #4]
 731              	.LVL77:
 125:../APP/LCD/Src/lcd.c **** 	TypefaceNum=(sizex/8+((sizex%8)?1:0))*sizey;
 732              		.loc 1 125 2 is_stmt 1 view .LVU202
 125:../APP/LCD/Src/lcd.c **** 	TypefaceNum=(sizex/8+((sizex%8)?1:0))*sizey;
 733              		.loc 1 125 35 is_stmt 0 view .LVU203
 734 0020 14F00E03 		ands	r3, r4, #14
 735 0024 18BF     		it	ne
 736 0026 0123     		movne	r3, #1
 125:../APP/LCD/Src/lcd.c **** 	TypefaceNum=(sizex/8+((sizex%8)?1:0))*sizey;
 737              		.loc 1 125 22 view .LVU204
 738 0028 03EB1413 		add	r3, r3, r4, lsr #4
 125:../APP/LCD/Src/lcd.c **** 	TypefaceNum=(sizex/8+((sizex%8)?1:0))*sizey;
 739              		.loc 1 125 13 view .LVU205
 740 002c 6343     		muls	r3, r4, r3
 741 002e 0393     		str	r3, [sp, #12]
 742              	.LVL78:
 743              		.loc 1 126 2 is_stmt 1 view .LVU206
ARM GAS  C:\Users\Dawn\AppData\Local\Temp\ccpPnLvM.s 			page 18


 127:../APP/LCD/Src/lcd.c **** 	LCD_Address_Set(x,y,x+sizex-1,y+sizey-1);  //设置光标位置
 744              		.loc 1 127 2 is_stmt 0 view .LVU207
 745 0030 421E     		subs	r2, r0, #1
 746              	.LVL79:
 747              		.loc 1 127 2 view .LVU208
 748 0032 4B1E     		subs	r3, r1, #1
 749 0034 2344     		add	r3, r3, r4
 750 0036 02EB5402 		add	r2, r2, r4, lsr #1
 751 003a 9BB2     		uxth	r3, r3
 752 003c 92B2     		uxth	r2, r2
 120:../APP/LCD/Src/lcd.c **** 	u8 temp,sizex,t,m=0;
 753              		.loc 1 120 1 view .LVU209
 754 003e 0090     		str	r0, [sp]
 755              	.LVL80:
 120:../APP/LCD/Src/lcd.c **** 	u8 temp,sizex,t,m=0;
 756              		.loc 1 120 1 view .LVU210
 757 0040 0F46     		mov	r7, r1
 128:../APP/LCD/Src/lcd.c **** 	for(i=0;i<TypefaceNum;i++)
 758              		.loc 1 128 2 view .LVU211
 759 0042 0025     		movs	r5, #0
 127:../APP/LCD/Src/lcd.c **** 	LCD_Address_Set(x,y,x+sizex-1,y+sizey-1);  //设置光标位置
 760              		.loc 1 127 2 view .LVU212
 761 0044 FFF7FEFF 		bl	LCD_Address_Set
 762              	.LVL81:
 763              		.loc 1 128 2 view .LVU213
 764 0048 DDF80080 		ldr	r8, [sp]
 126:../APP/LCD/Src/lcd.c **** 	LCD_Address_Set(x,y,x+sizex-1,y+sizey-1);  //设置光标位置
 765              		.loc 1 126 5 view .LVU214
 766 004c F6B2     		uxtb	r6, r6
 767              	.LVL82:
 127:../APP/LCD/Src/lcd.c **** 	LCD_Address_Set(x,y,x+sizex-1,y+sizey-1);  //设置光标位置
 768              		.loc 1 127 2 is_stmt 1 view .LVU215
 769              		.loc 1 128 2 view .LVU216
 121:../APP/LCD/Src/lcd.c **** 	u16 i,TypefaceNum;//一个字符所占字节大小
 770              		.loc 1 121 18 is_stmt 0 view .LVU217
 771 004e A946     		mov	r9, r5
 772              	.LVL83:
 773              	.L34:
 774              		.loc 1 128 11 is_stmt 1 discriminator 1 view .LVU218
 775 0050 039B     		ldr	r3, [sp, #12]
 776 0052 AAB2     		uxth	r2, r5
 777 0054 9342     		cmp	r3, r2
 778 0056 06D9     		bls	.L33
 129:../APP/LCD/Src/lcd.c **** 	{
 130:../APP/LCD/Src/lcd.c **** 		if(sizey==12)temp=ascii_1206[num][i];		       //调用6x12字体
 779              		.loc 1 130 3 view .LVU219
 780 0058 182C     		cmp	r4, #24
 781 005a 30D0     		beq	.L35
 782 005c 06D8     		bhi	.L36
 783 005e 0C2C     		cmp	r4, #12
 784 0060 0AD0     		beq	.L37
 785 0062 102C     		cmp	r4, #16
 786 0064 27D0     		beq	.L38
 787              	.L33:
 131:../APP/LCD/Src/lcd.c **** 		else if(sizey==16)temp=ascii_1608[num][i];		 //调用8x16字体
 132:../APP/LCD/Src/lcd.c **** 		else if(sizey==24)temp=ascii_2412[num][i];		 //调用12x24字体
 133:../APP/LCD/Src/lcd.c **** 		else if(sizey==32)temp=ascii_3216[num][i];		 //调用16x32字体
ARM GAS  C:\Users\Dawn\AppData\Local\Temp\ccpPnLvM.s 			page 19


 134:../APP/LCD/Src/lcd.c **** 		else return;
 135:../APP/LCD/Src/lcd.c **** 		for(t=0;t<8;t++)
 136:../APP/LCD/Src/lcd.c **** 		{
 137:../APP/LCD/Src/lcd.c **** 			if(!mode)//非叠加模式
 138:../APP/LCD/Src/lcd.c **** 			{
 139:../APP/LCD/Src/lcd.c **** 				if(temp&(0x01<<t))LCD_WR_DATA(fc);
 140:../APP/LCD/Src/lcd.c **** 				else LCD_WR_DATA(bc);
 141:../APP/LCD/Src/lcd.c **** 				m++;
 142:../APP/LCD/Src/lcd.c **** 				if(m%sizex==0)
 143:../APP/LCD/Src/lcd.c **** 				{
 144:../APP/LCD/Src/lcd.c **** 					m=0;
 145:../APP/LCD/Src/lcd.c **** 					break;
 146:../APP/LCD/Src/lcd.c **** 				}
 147:../APP/LCD/Src/lcd.c **** 			}
 148:../APP/LCD/Src/lcd.c **** 			else//叠加模式
 149:../APP/LCD/Src/lcd.c **** 			{
 150:../APP/LCD/Src/lcd.c **** 				if(temp&(0x01<<t))LCD_DrawPoint(x,y,fc);//画一个点
 151:../APP/LCD/Src/lcd.c **** 				x++;
 152:../APP/LCD/Src/lcd.c **** 				if((x-x0)==sizex)
 153:../APP/LCD/Src/lcd.c **** 				{
 154:../APP/LCD/Src/lcd.c **** 					x=x0;
 155:../APP/LCD/Src/lcd.c **** 					y++;
 156:../APP/LCD/Src/lcd.c **** 					break;
 157:../APP/LCD/Src/lcd.c **** 				}
 158:../APP/LCD/Src/lcd.c **** 			}
 159:../APP/LCD/Src/lcd.c **** 		}
 160:../APP/LCD/Src/lcd.c **** 	}
 161:../APP/LCD/Src/lcd.c **** }
 788              		.loc 1 161 1 is_stmt 0 view .LVU220
 789 0066 07B0     		add	sp, sp, #28
 790              	.LCFI15:
 791              		.cfi_remember_state
 792              		.cfi_def_cfa_offset 36
 793              		@ sp needed
 794 0068 BDE8F08F 		pop	{r4, r5, r6, r7, r8, r9, r10, fp, pc}
 795              	.LVL84:
 796              	.L36:
 797              	.LCFI16:
 798              		.cfi_restore_state
 799              		.loc 1 161 1 view .LVU221
 800 006c 202C     		cmp	r4, #32
 801 006e FAD1     		bne	.L33
 133:../APP/LCD/Src/lcd.c **** 		else return;
 802              		.loc 1 133 21 is_stmt 1 discriminator 1 view .LVU222
 133:../APP/LCD/Src/lcd.c **** 		else return;
 803              		.loc 1 133 25 is_stmt 0 discriminator 1 view .LVU223
 804 0070 244A     		ldr	r2, .L57
 805 0072 02EB8612 		add	r2, r2, r6, lsl #6
 806 0076 02E0     		b	.L55
 807              	.L37:
 130:../APP/LCD/Src/lcd.c **** 		else if(sizey==16)temp=ascii_1608[num][i];		 //调用8x16字体
 808              		.loc 1 130 16 is_stmt 1 discriminator 1 view .LVU224
 130:../APP/LCD/Src/lcd.c **** 		else if(sizey==16)temp=ascii_1608[num][i];		 //调用8x16字体
 809              		.loc 1 130 20 is_stmt 0 discriminator 1 view .LVU225
 810 0078 234A     		ldr	r2, .L57+4
 811 007a 04FB0622 		mla	r2, r4, r6, r2
 812              	.L55:
ARM GAS  C:\Users\Dawn\AppData\Local\Temp\ccpPnLvM.s 			page 20


 133:../APP/LCD/Src/lcd.c **** 		else return;
 813              		.loc 1 133 25 discriminator 1 view .LVU226
 814 007e 12F805B0 		ldrb	fp, [r2, r5]	@ zero_extendqisi2
 815              	.LVL85:
 135:../APP/LCD/Src/lcd.c **** 		{
 816              		.loc 1 135 3 is_stmt 1 view .LVU227
 135:../APP/LCD/Src/lcd.c **** 		{
 817              		.loc 1 135 12 discriminator 1 view .LVU228
 120:../APP/LCD/Src/lcd.c **** 	u8 temp,sizex,t,m=0;
 818              		.loc 1 120 1 is_stmt 0 view .LVU229
 819 0082 4FF0000A 		mov	r10, #0
 820              	.LVL86:
 821              	.L48:
 137:../APP/LCD/Src/lcd.c **** 			{
 822              		.loc 1 137 4 is_stmt 1 view .LVU230
 137:../APP/LCD/Src/lcd.c **** 			{
 823              		.loc 1 137 6 is_stmt 0 view .LVU231
 824 0086 059B     		ldr	r3, [sp, #20]
 139:../APP/LCD/Src/lcd.c **** 				else LCD_WR_DATA(bc);
 825              		.loc 1 139 8 view .LVU232
 826 0088 4BFA0AF2 		asr	r2, fp, r10
 827 008c 02F00102 		and	r2, r2, #1
 137:../APP/LCD/Src/lcd.c **** 			{
 828              		.loc 1 137 6 view .LVU233
 829 0090 E3B9     		cbnz	r3, .L42
 139:../APP/LCD/Src/lcd.c **** 				else LCD_WR_DATA(bc);
 830              		.loc 1 139 5 is_stmt 1 view .LVU234
 139:../APP/LCD/Src/lcd.c **** 				else LCD_WR_DATA(bc);
 831              		.loc 1 139 7 is_stmt 0 view .LVU235
 832 0092 CAB1     		cbz	r2, .L43
 139:../APP/LCD/Src/lcd.c **** 				else LCD_WR_DATA(bc);
 833              		.loc 1 139 23 is_stmt 1 discriminator 1 view .LVU236
 834 0094 0298     		ldr	r0, [sp, #8]
 835              	.L56:
 140:../APP/LCD/Src/lcd.c **** 				m++;
 836              		.loc 1 140 10 is_stmt 0 view .LVU237
 837 0096 FFF7FEFF 		bl	LCD_WR_DATA
 838              	.LVL87:
 141:../APP/LCD/Src/lcd.c **** 				if(m%sizex==0)
 839              		.loc 1 141 5 is_stmt 1 view .LVU238
 141:../APP/LCD/Src/lcd.c **** 				if(m%sizex==0)
 840              		.loc 1 141 6 is_stmt 0 view .LVU239
 841 009a 09F10103 		add	r3, r9, #1
 842 009e 5FFA83F9 		uxtb	r9, r3
 843              	.LVL88:
 142:../APP/LCD/Src/lcd.c **** 				{
 844              		.loc 1 142 5 is_stmt 1 view .LVU240
 142:../APP/LCD/Src/lcd.c **** 				{
 845              		.loc 1 142 15 is_stmt 0 view .LVU241
 846 00a2 019B     		ldr	r3, [sp, #4]
 847 00a4 B9FBF3F2 		udiv	r2, r9, r3
 848 00a8 03FB1292 		mls	r2, r3, r2, r9
 142:../APP/LCD/Src/lcd.c **** 				{
 849              		.loc 1 142 7 view .LVU242
 850 00ac 12F0FF02 		ands	r2, r2, #255
 851 00b0 22D1     		bne	.L46
 144:../APP/LCD/Src/lcd.c **** 					break;
ARM GAS  C:\Users\Dawn\AppData\Local\Temp\ccpPnLvM.s 			page 21


 852              		.loc 1 144 7 view .LVU243
 853 00b2 9146     		mov	r9, r2
 854              	.LVL89:
 144:../APP/LCD/Src/lcd.c **** 					break;
 855              		.loc 1 144 7 view .LVU244
 856 00b4 1EE0     		b	.L45
 857              	.LVL90:
 858              	.L38:
 131:../APP/LCD/Src/lcd.c **** 		else if(sizey==24)temp=ascii_2412[num][i];		 //调用12x24字体
 859              		.loc 1 131 21 is_stmt 1 discriminator 1 view .LVU245
 131:../APP/LCD/Src/lcd.c **** 		else if(sizey==24)temp=ascii_2412[num][i];		 //调用12x24字体
 860              		.loc 1 131 25 is_stmt 0 discriminator 1 view .LVU246
 861 00b6 154A     		ldr	r2, .L57+8
 862 00b8 02EB0612 		add	r2, r2, r6, lsl #4
 863 00bc DFE7     		b	.L55
 864              	.L35:
 132:../APP/LCD/Src/lcd.c **** 		else if(sizey==32)temp=ascii_3216[num][i];		 //调用16x32字体
 865              		.loc 1 132 21 is_stmt 1 discriminator 1 view .LVU247
 132:../APP/LCD/Src/lcd.c **** 		else if(sizey==32)temp=ascii_3216[num][i];		 //调用16x32字体
 866              		.loc 1 132 25 is_stmt 0 discriminator 1 view .LVU248
 867 00be 144A     		ldr	r2, .L57+12
 868 00c0 3021     		movs	r1, #48
 869 00c2 01FB0622 		mla	r2, r1, r6, r2
 870 00c6 DAE7     		b	.L55
 871              	.LVL91:
 872              	.L43:
 140:../APP/LCD/Src/lcd.c **** 				m++;
 873              		.loc 1 140 10 is_stmt 1 view .LVU249
 874 00c8 0498     		ldr	r0, [sp, #16]
 875 00ca E4E7     		b	.L56
 876              	.L42:
 150:../APP/LCD/Src/lcd.c **** 				x++;
 877              		.loc 1 150 5 view .LVU250
 150:../APP/LCD/Src/lcd.c **** 				x++;
 878              		.loc 1 150 7 is_stmt 0 view .LVU251
 879 00cc 22B1     		cbz	r2, .L47
 150:../APP/LCD/Src/lcd.c **** 				x++;
 880              		.loc 1 150 23 is_stmt 1 discriminator 1 view .LVU252
 881 00ce 029A     		ldr	r2, [sp, #8]
 882 00d0 3946     		mov	r1, r7
 883 00d2 4046     		mov	r0, r8
 884 00d4 FFF7FEFF 		bl	LCD_DrawPoint
 885              	.LVL92:
 886              	.L47:
 151:../APP/LCD/Src/lcd.c **** 				if((x-x0)==sizex)
 887              		.loc 1 151 5 view .LVU253
 152:../APP/LCD/Src/lcd.c **** 				{
 888              		.loc 1 152 10 is_stmt 0 view .LVU254
 889 00d8 009B     		ldr	r3, [sp]
 151:../APP/LCD/Src/lcd.c **** 				if((x-x0)==sizex)
 890              		.loc 1 151 6 view .LVU255
 891 00da 08F10108 		add	r8, r8, #1
 892              	.LVL93:
 151:../APP/LCD/Src/lcd.c **** 				if((x-x0)==sizex)
 893              		.loc 1 151 6 view .LVU256
 894 00de 1FFA88F8 		uxth	r8, r8
 895              	.LVL94:
ARM GAS  C:\Users\Dawn\AppData\Local\Temp\ccpPnLvM.s 			page 22


 152:../APP/LCD/Src/lcd.c **** 				{
 896              		.loc 1 152 5 is_stmt 1 view .LVU257
 152:../APP/LCD/Src/lcd.c **** 				{
 897              		.loc 1 152 10 is_stmt 0 view .LVU258
 898 00e2 A8EB0302 		sub	r2, r8, r3
 152:../APP/LCD/Src/lcd.c **** 				{
 899              		.loc 1 152 7 view .LVU259
 900 00e6 019B     		ldr	r3, [sp, #4]
 901 00e8 9A42     		cmp	r2, r3
 902 00ea 05D1     		bne	.L46
 154:../APP/LCD/Src/lcd.c **** 					y++;
 903              		.loc 1 154 6 is_stmt 1 view .LVU260
 904              	.LVL95:
 155:../APP/LCD/Src/lcd.c **** 					break;
 905              		.loc 1 155 6 view .LVU261
 155:../APP/LCD/Src/lcd.c **** 					break;
 906              		.loc 1 155 7 is_stmt 0 view .LVU262
 907 00ec 0137     		adds	r7, r7, #1
 908              	.LVL96:
 154:../APP/LCD/Src/lcd.c **** 					y++;
 909              		.loc 1 154 7 view .LVU263
 910 00ee DDF80080 		ldr	r8, [sp]
 155:../APP/LCD/Src/lcd.c **** 					break;
 911              		.loc 1 155 7 view .LVU264
 912 00f2 BFB2     		uxth	r7, r7
 913              	.LVL97:
 156:../APP/LCD/Src/lcd.c **** 				}
 914              		.loc 1 156 6 is_stmt 1 view .LVU265
 915              	.L45:
 128:../APP/LCD/Src/lcd.c **** 	{
 916              		.loc 1 128 25 discriminator 2 view .LVU266
 128:../APP/LCD/Src/lcd.c **** 	{
 917              		.loc 1 128 25 is_stmt 0 discriminator 2 view .LVU267
 918 00f4 0135     		adds	r5, r5, #1
 919              	.LVL98:
 128:../APP/LCD/Src/lcd.c **** 	{
 920              		.loc 1 128 25 discriminator 2 view .LVU268
 921 00f6 ABE7     		b	.L34
 922              	.LVL99:
 923              	.L46:
 135:../APP/LCD/Src/lcd.c **** 		{
 924              		.loc 1 135 16 is_stmt 1 discriminator 2 view .LVU269
 135:../APP/LCD/Src/lcd.c **** 		{
 925              		.loc 1 135 12 discriminator 1 view .LVU270
 926 00f8 0AF1010A 		add	r10, r10, #1
 927              	.LVL100:
 135:../APP/LCD/Src/lcd.c **** 		{
 928              		.loc 1 135 12 is_stmt 0 discriminator 1 view .LVU271
 929 00fc BAF1080F 		cmp	r10, #8
 930 0100 C1D1     		bne	.L48
 135:../APP/LCD/Src/lcd.c **** 		{
 931              		.loc 1 135 12 discriminator 1 view .LVU272
 932 0102 F7E7     		b	.L45
 933              	.L58:
 934              		.align	2
 935              	.L57:
 936 0104 00000000 		.word	ascii_3216
ARM GAS  C:\Users\Dawn\AppData\Local\Temp\ccpPnLvM.s 			page 23


 937 0108 00000000 		.word	ascii_1206
 938 010c 00000000 		.word	ascii_1608
 939 0110 00000000 		.word	ascii_2412
 940              		.cfi_endproc
 941              	.LFE135:
 943              		.section	.text.LCD_ShowString,"ax",%progbits
 944              		.align	1
 945              		.global	LCD_ShowString
 946              		.syntax unified
 947              		.thumb
 948              		.thumb_func
 950              	LCD_ShowString:
 951              	.LVL101:
 952              	.LFB136:
 162:../APP/LCD/Src/lcd.c **** 
 163:../APP/LCD/Src/lcd.c **** void LCD_ShowString(u16 x,u16 y,const u8 *p,u16 fc,u16 bc,u8 sizey,u8 mode)
 164:../APP/LCD/Src/lcd.c **** {
 953              		.loc 1 164 1 is_stmt 1 view -0
 954              		.cfi_startproc
 955              		@ args = 12, pretend = 0, frame = 0
 956              		@ frame_needed = 0, uses_anonymous_args = 0
 165:../APP/LCD/Src/lcd.c **** 	while(*p!='\0')
 957              		.loc 1 165 2 view .LVU274
 164:../APP/LCD/Src/lcd.c **** 	while(*p!='\0')
 958              		.loc 1 164 1 is_stmt 0 view .LVU275
 959 0000 2DE9F04F 		push	{r4, r5, r6, r7, r8, r9, r10, fp, lr}
 960              	.LCFI17:
 961              		.cfi_def_cfa_offset 36
 962              		.cfi_offset 4, -36
 963              		.cfi_offset 5, -32
 964              		.cfi_offset 6, -28
 965              		.cfi_offset 7, -24
 966              		.cfi_offset 8, -20
 967              		.cfi_offset 9, -16
 968              		.cfi_offset 10, -12
 969              		.cfi_offset 11, -8
 970              		.cfi_offset 14, -4
 971 0004 85B0     		sub	sp, sp, #20
 972              	.LCFI18:
 973              		.cfi_def_cfa_offset 56
 164:../APP/LCD/Src/lcd.c **** 	while(*p!='\0')
 974              		.loc 1 164 1 view .LVU276
 975 0006 0446     		mov	r4, r0
 976 0008 9DF83C80 		ldrb	r8, [sp, #60]	@ zero_extendqisi2
 977 000c BDF83890 		ldrh	r9, [sp, #56]
 978 0010 9DF840A0 		ldrb	r10, [sp, #64]	@ zero_extendqisi2
 979 0014 0E46     		mov	r6, r1
 980 0016 1F46     		mov	r7, r3
 981 0018 551E     		subs	r5, r2, #1
 166:../APP/LCD/Src/lcd.c **** 	{
 167:../APP/LCD/Src/lcd.c **** 		LCD_ShowChar(x,y,*p,fc,bc,sizey,mode);
 168:../APP/LCD/Src/lcd.c **** 		x+=sizey/2;
 982              		.loc 1 168 4 view .LVU277
 983 001a 4FEA580B 		lsr	fp, r8, #1
 984              	.LVL102:
 985              	.L60:
 165:../APP/LCD/Src/lcd.c **** 	{
ARM GAS  C:\Users\Dawn\AppData\Local\Temp\ccpPnLvM.s 			page 24


 986              		.loc 1 165 10 is_stmt 1 view .LVU278
 165:../APP/LCD/Src/lcd.c **** 	{
 987              		.loc 1 165 8 is_stmt 0 view .LVU279
 988 001e 15F8012F 		ldrb	r2, [r5, #1]!	@ zero_extendqisi2
 989              	.LVL103:
 165:../APP/LCD/Src/lcd.c **** 	{
 990              		.loc 1 165 10 view .LVU280
 991 0022 12B9     		cbnz	r2, .L61
 169:../APP/LCD/Src/lcd.c **** 		p++;
 170:../APP/LCD/Src/lcd.c **** 	}
 171:../APP/LCD/Src/lcd.c **** }
 992              		.loc 1 171 1 view .LVU281
 993 0024 05B0     		add	sp, sp, #20
 994              	.LCFI19:
 995              		.cfi_remember_state
 996              		.cfi_def_cfa_offset 36
 997              		@ sp needed
 998 0026 BDE8F08F 		pop	{r4, r5, r6, r7, r8, r9, r10, fp, pc}
 999              	.LVL104:
 1000              	.L61:
 1001              	.LCFI20:
 1002              		.cfi_restore_state
 167:../APP/LCD/Src/lcd.c **** 		x+=sizey/2;
 1003              		.loc 1 167 3 is_stmt 1 view .LVU282
 1004 002a 2046     		mov	r0, r4
 1005 002c CDE9018A 		strd	r8, r10, [sp, #4]
 1006 0030 CDF80090 		str	r9, [sp]
 1007 0034 3B46     		mov	r3, r7
 1008 0036 3146     		mov	r1, r6
 168:../APP/LCD/Src/lcd.c **** 		p++;
 1009              		.loc 1 168 4 is_stmt 0 view .LVU283
 1010 0038 5C44     		add	r4, r4, fp
 1011              	.LVL105:
 167:../APP/LCD/Src/lcd.c **** 		x+=sizey/2;
 1012              		.loc 1 167 3 view .LVU284
 1013 003a FFF7FEFF 		bl	LCD_ShowChar
 1014              	.LVL106:
 168:../APP/LCD/Src/lcd.c **** 		p++;
 1015              		.loc 1 168 3 is_stmt 1 view .LVU285
 168:../APP/LCD/Src/lcd.c **** 		p++;
 1016              		.loc 1 168 4 is_stmt 0 view .LVU286
 1017 003e A4B2     		uxth	r4, r4
 1018              	.LVL107:
 169:../APP/LCD/Src/lcd.c **** 		p++;
 1019              		.loc 1 169 3 is_stmt 1 view .LVU287
 1020 0040 EDE7     		b	.L60
 1021              		.cfi_endproc
 1022              	.LFE136:
 1024              		.section	.text.mypow,"ax",%progbits
 1025              		.align	1
 1026              		.global	mypow
 1027              		.syntax unified
 1028              		.thumb
 1029              		.thumb_func
 1031              	mypow:
 1032              	.LVL108:
 1033              	.LFB137:
ARM GAS  C:\Users\Dawn\AppData\Local\Temp\ccpPnLvM.s 			page 25


 172:../APP/LCD/Src/lcd.c **** 
 173:../APP/LCD/Src/lcd.c **** u32 mypow(u8 m,u8 n)
 174:../APP/LCD/Src/lcd.c **** {
 1034              		.loc 1 174 1 view -0
 1035              		.cfi_startproc
 1036              		@ args = 0, pretend = 0, frame = 0
 1037              		@ frame_needed = 0, uses_anonymous_args = 0
 1038              		@ link register save eliminated.
 175:../APP/LCD/Src/lcd.c **** 	u32 result=1;
 1039              		.loc 1 175 2 view .LVU289
 176:../APP/LCD/Src/lcd.c **** 	while(n--)result*=m;
 1040              		.loc 1 176 2 view .LVU290
 174:../APP/LCD/Src/lcd.c **** 	u32 result=1;
 1041              		.loc 1 174 1 is_stmt 0 view .LVU291
 1042 0000 0346     		mov	r3, r0
 175:../APP/LCD/Src/lcd.c **** 	u32 result=1;
 1043              		.loc 1 175 6 view .LVU292
 1044 0002 0120     		movs	r0, #1
 1045              	.LVL109:
 1046              	.L63:
 1047              		.loc 1 176 8 is_stmt 1 discriminator 1 view .LVU293
 1048              		.loc 1 176 9 is_stmt 0 discriminator 1 view .LVU294
 1049 0004 0139     		subs	r1, r1, #1
 1050              	.LVL110:
 1051              		.loc 1 176 9 discriminator 1 view .LVU295
 1052 0006 C9B2     		uxtb	r1, r1
 1053              	.LVL111:
 1054              		.loc 1 176 8 discriminator 1 view .LVU296
 1055 0008 FF29     		cmp	r1, #255
 1056 000a 00D1     		bne	.L64
 177:../APP/LCD/Src/lcd.c **** 	return result;
 1057              		.loc 1 177 2 is_stmt 1 view .LVU297
 178:../APP/LCD/Src/lcd.c **** }
 1058              		.loc 1 178 1 is_stmt 0 view .LVU298
 1059 000c 7047     		bx	lr
 1060              	.L64:
 176:../APP/LCD/Src/lcd.c **** 	return result;
 1061              		.loc 1 176 12 is_stmt 1 discriminator 2 view .LVU299
 176:../APP/LCD/Src/lcd.c **** 	return result;
 1062              		.loc 1 176 18 is_stmt 0 discriminator 2 view .LVU300
 1063 000e 5843     		muls	r0, r3, r0
 1064              	.LVL112:
 176:../APP/LCD/Src/lcd.c **** 	return result;
 1065              		.loc 1 176 18 discriminator 2 view .LVU301
 1066 0010 F8E7     		b	.L63
 1067              		.cfi_endproc
 1068              	.LFE137:
 1070              		.section	.text.LCD_ShowIntNum,"ax",%progbits
 1071              		.align	1
 1072              		.global	LCD_ShowIntNum
 1073              		.syntax unified
 1074              		.thumb
 1075              		.thumb_func
 1077              	LCD_ShowIntNum:
 1078              	.LVL113:
 1079              	.LFB138:
 179:../APP/LCD/Src/lcd.c **** 
ARM GAS  C:\Users\Dawn\AppData\Local\Temp\ccpPnLvM.s 			page 26


 180:../APP/LCD/Src/lcd.c **** void LCD_ShowIntNum(u16 x,u16 y,u16 num,u8 len,u16 fc,u16 bc,u8 sizey)
 181:../APP/LCD/Src/lcd.c **** {
 1080              		.loc 1 181 1 is_stmt 1 view -0
 1081              		.cfi_startproc
 1082              		@ args = 12, pretend = 0, frame = 16
 1083              		@ frame_needed = 0, uses_anonymous_args = 0
 182:../APP/LCD/Src/lcd.c **** 	u8 t,temp;
 1084              		.loc 1 182 2 view .LVU303
 183:../APP/LCD/Src/lcd.c **** 	u8 enshow=0;
 1085              		.loc 1 183 2 view .LVU304
 184:../APP/LCD/Src/lcd.c **** 	u8 sizex=sizey/2;
 1086              		.loc 1 184 2 view .LVU305
 181:../APP/LCD/Src/lcd.c **** 	u8 t,temp;
 1087              		.loc 1 181 1 is_stmt 0 view .LVU306
 1088 0000 2DE9F04F 		push	{r4, r5, r6, r7, r8, r9, r10, fp, lr}
 1089              	.LCFI21:
 1090              		.cfi_def_cfa_offset 36
 1091              		.cfi_offset 4, -36
 1092              		.cfi_offset 5, -32
 1093              		.cfi_offset 6, -28
 1094              		.cfi_offset 7, -24
 1095              		.cfi_offset 8, -20
 1096              		.cfi_offset 9, -16
 1097              		.cfi_offset 10, -12
 1098              		.cfi_offset 11, -8
 1099              		.cfi_offset 14, -4
 1100 0004 89B0     		sub	sp, sp, #36
 1101              	.LCFI22:
 1102              		.cfi_def_cfa_offset 72
 1103 0006 5E1E     		subs	r6, r3, #1
 181:../APP/LCD/Src/lcd.c **** 	u8 t,temp;
 1104              		.loc 1 181 1 view .LVU307
 1105 0008 9DF85080 		ldrb	r8, [sp, #80]	@ zero_extendqisi2
 1106              	.LVL114:
 185:../APP/LCD/Src/lcd.c **** 	for(t=0;t<len;t++)
 1107              		.loc 1 185 2 is_stmt 1 view .LVU308
 181:../APP/LCD/Src/lcd.c **** 	u8 t,temp;
 1108              		.loc 1 181 1 is_stmt 0 view .LVU309
 1109 000c 0792     		str	r2, [sp, #28]
 1110 000e BDF84820 		ldrh	r2, [sp, #72]
 1111              	.LVL115:
 181:../APP/LCD/Src/lcd.c **** 	u8 t,temp;
 1112              		.loc 1 181 1 view .LVU310
 1113 0012 0592     		str	r2, [sp, #20]
 1114              		.loc 1 185 2 view .LVU311
 1115 0014 0025     		movs	r5, #0
 1116 0016 4FEA5802 		lsr	r2, r8, #1
 181:../APP/LCD/Src/lcd.c **** 	u8 t,temp;
 1117              		.loc 1 181 1 view .LVU312
 1118 001a BDF84CB0 		ldrh	fp, [sp, #76]
 1119 001e 0491     		str	r1, [sp, #16]
 1120 0020 8246     		mov	r10, r0
 1121 0022 0692     		str	r2, [sp, #24]
 1122 0024 F4B2     		uxtb	r4, r6
 183:../APP/LCD/Src/lcd.c **** 	u8 sizex=sizey/2;
 1123              		.loc 1 183 5 view .LVU313
 1124 0026 2F46     		mov	r7, r5
ARM GAS  C:\Users\Dawn\AppData\Local\Temp\ccpPnLvM.s 			page 27


 1125 0028 4FF00A09 		mov	r9, #10
 1126              	.LVL116:
 1127              	.L66:
 1128              		.loc 1 185 11 is_stmt 1 discriminator 1 view .LVU314
 1129 002c FF2C     		cmp	r4, #255
 1130 002e 02D1     		bne	.L71
 186:../APP/LCD/Src/lcd.c **** 	{
 187:../APP/LCD/Src/lcd.c **** 		temp=(num/mypow(10,len-t-1))%10;
 188:../APP/LCD/Src/lcd.c **** 		if(enshow==0&&t<(len-1))
 189:../APP/LCD/Src/lcd.c **** 		{
 190:../APP/LCD/Src/lcd.c **** 			if(temp==0)
 191:../APP/LCD/Src/lcd.c **** 			{
 192:../APP/LCD/Src/lcd.c **** 				LCD_ShowChar(x+t*sizex,y,' ',fc,bc,sizey,0);
 193:../APP/LCD/Src/lcd.c **** 				continue;
 194:../APP/LCD/Src/lcd.c **** 			}else enshow=1;
 195:../APP/LCD/Src/lcd.c **** 
 196:../APP/LCD/Src/lcd.c **** 		}
 197:../APP/LCD/Src/lcd.c **** 	 	LCD_ShowChar(x+t*sizex,y,temp+48,fc,bc,sizey,0);
 198:../APP/LCD/Src/lcd.c **** 	}
 199:../APP/LCD/Src/lcd.c **** }
 1131              		.loc 1 199 1 is_stmt 0 view .LVU315
 1132 0030 09B0     		add	sp, sp, #36
 1133              	.LCFI23:
 1134              		.cfi_remember_state
 1135              		.cfi_def_cfa_offset 36
 1136              		@ sp needed
 1137 0032 BDE8F08F 		pop	{r4, r5, r6, r7, r8, r9, r10, fp, pc}
 1138              	.LVL117:
 1139              	.L71:
 1140              	.LCFI24:
 1141              		.cfi_restore_state
 187:../APP/LCD/Src/lcd.c **** 		if(enshow==0&&t<(len-1))
 1142              		.loc 1 187 3 is_stmt 1 view .LVU316
 1143              	.LBB8:
 1144              	.LBI8:
 173:../APP/LCD/Src/lcd.c **** {
 1145              		.loc 1 173 5 view .LVU317
 1146              	.LBB9:
 175:../APP/LCD/Src/lcd.c **** 	while(n--)result*=m;
 1147              		.loc 1 175 2 view .LVU318
 176:../APP/LCD/Src/lcd.c **** 	return result;
 1148              		.loc 1 176 2 view .LVU319
 176:../APP/LCD/Src/lcd.c **** 	return result;
 1149              		.loc 1 176 7 is_stmt 0 view .LVU320
 1150 0036 2246     		mov	r2, r4
 175:../APP/LCD/Src/lcd.c **** 	while(n--)result*=m;
 1151              		.loc 1 175 6 view .LVU321
 1152 0038 0123     		movs	r3, #1
 1153              	.LVL118:
 1154              	.L67:
 176:../APP/LCD/Src/lcd.c **** 	return result;
 1155              		.loc 1 176 8 is_stmt 1 discriminator 1 view .LVU322
 176:../APP/LCD/Src/lcd.c **** 	return result;
 1156              		.loc 1 176 9 is_stmt 0 discriminator 1 view .LVU323
 1157 003a 013A     		subs	r2, r2, #1
 1158              	.LVL119:
 176:../APP/LCD/Src/lcd.c **** 	return result;
ARM GAS  C:\Users\Dawn\AppData\Local\Temp\ccpPnLvM.s 			page 28


 1159              		.loc 1 176 9 discriminator 1 view .LVU324
 1160 003c D2B2     		uxtb	r2, r2
 1161              	.LVL120:
 176:../APP/LCD/Src/lcd.c **** 	return result;
 1162              		.loc 1 176 8 discriminator 1 view .LVU325
 1163 003e FF2A     		cmp	r2, #255
 1164 0040 1ED1     		bne	.L68
 177:../APP/LCD/Src/lcd.c **** }
 1165              		.loc 1 177 2 is_stmt 1 view .LVU326
 1166              	.LVL121:
 177:../APP/LCD/Src/lcd.c **** }
 1167              		.loc 1 177 2 is_stmt 0 view .LVU327
 1168              	.LBE9:
 1169              	.LBE8:
 187:../APP/LCD/Src/lcd.c **** 		if(enshow==0&&t<(len-1))
 1170              		.loc 1 187 12 discriminator 1 view .LVU328
 1171 0042 079A     		ldr	r2, [sp, #28]
 1172 0044 B2FBF3F3 		udiv	r3, r2, r3
 187:../APP/LCD/Src/lcd.c **** 		if(enshow==0&&t<(len-1))
 1173              		.loc 1 187 31 discriminator 1 view .LVU329
 1174 0048 B3FBF9F2 		udiv	r2, r3, r9
 1175 004c 09FB1233 		mls	r3, r9, r2, r3
 187:../APP/LCD/Src/lcd.c **** 		if(enshow==0&&t<(len-1))
 1176              		.loc 1 187 7 discriminator 1 view .LVU330
 1177 0050 DAB2     		uxtb	r2, r3
 1178              	.LVL122:
 188:../APP/LCD/Src/lcd.c **** 		{
 1179              		.loc 1 188 3 is_stmt 1 view .LVU331
 188:../APP/LCD/Src/lcd.c **** 		{
 1180              		.loc 1 188 5 is_stmt 0 view .LVU332
 1181 0052 CFB9     		cbnz	r7, .L69
 188:../APP/LCD/Src/lcd.c **** 		{
 1182              		.loc 1 188 15 discriminator 1 view .LVU333
 1183 0054 AE42     		cmp	r6, r5
 1184 0056 17DD     		ble	.L69
 190:../APP/LCD/Src/lcd.c **** 			{
 1185              		.loc 1 190 4 is_stmt 1 view .LVU334
 190:../APP/LCD/Src/lcd.c **** 			{
 1186              		.loc 1 190 6 is_stmt 0 view .LVU335
 1187 0058 ABB9     		cbnz	r3, .L72
 192:../APP/LCD/Src/lcd.c **** 				continue;
 1188              		.loc 1 192 5 is_stmt 1 view .LVU336
 1189 005a CDE90187 		strd	r8, r7, [sp, #4]
 1190 005e 059B     		ldr	r3, [sp, #20]
 1191 0060 CDF800B0 		str	fp, [sp]
 1192 0064 2022     		movs	r2, #32
 1193              	.LVL123:
 1194              	.L73:
 197:../APP/LCD/Src/lcd.c **** 	}
 1195              		.loc 1 197 4 is_stmt 0 view .LVU337
 1196 0066 5046     		mov	r0, r10
 1197 0068 0499     		ldr	r1, [sp, #16]
 1198 006a FFF7FEFF 		bl	LCD_ShowChar
 1199              	.LVL124:
 185:../APP/LCD/Src/lcd.c **** 	{
 1200              		.loc 1 185 17 is_stmt 1 discriminator 2 view .LVU338
 185:../APP/LCD/Src/lcd.c **** 	{
ARM GAS  C:\Users\Dawn\AppData\Local\Temp\ccpPnLvM.s 			page 29


 1201              		.loc 1 185 17 is_stmt 0 discriminator 2 view .LVU339
 1202 006e 069B     		ldr	r3, [sp, #24]
 1203 0070 013C     		subs	r4, r4, #1
 1204 0072 0AEB0300 		add	r0, r10, r3
 1205 0076 0135     		adds	r5, r5, #1
 1206              	.LVL125:
 185:../APP/LCD/Src/lcd.c **** 	{
 1207              		.loc 1 185 17 discriminator 2 view .LVU340
 1208 0078 1FFA80FA 		uxth	r10, r0
 1209 007c E4B2     		uxtb	r4, r4
 1210 007e D5E7     		b	.L66
 1211              	.LVL126:
 1212              	.L68:
 1213              	.LBB11:
 1214              	.LBB10:
 176:../APP/LCD/Src/lcd.c **** 	return result;
 1215              		.loc 1 176 12 is_stmt 1 discriminator 2 view .LVU341
 176:../APP/LCD/Src/lcd.c **** 	return result;
 1216              		.loc 1 176 18 is_stmt 0 discriminator 2 view .LVU342
 1217 0080 09FB03F3 		mul	r3, r9, r3
 1218              	.LVL127:
 176:../APP/LCD/Src/lcd.c **** 	return result;
 1219              		.loc 1 176 18 discriminator 2 view .LVU343
 1220 0084 D9E7     		b	.L67
 1221              	.LVL128:
 1222              	.L72:
 176:../APP/LCD/Src/lcd.c **** 	return result;
 1223              		.loc 1 176 18 discriminator 2 view .LVU344
 1224              	.LBE10:
 1225              	.LBE11:
 1226 0086 0127     		movs	r7, #1
 1227              	.LVL129:
 1228              	.L69:
 197:../APP/LCD/Src/lcd.c **** 	}
 1229              		.loc 1 197 4 is_stmt 1 view .LVU345
 1230 0088 0023     		movs	r3, #0
 1231 008a 3032     		adds	r2, r2, #48
 1232              	.LVL130:
 197:../APP/LCD/Src/lcd.c **** 	}
 1233              		.loc 1 197 4 is_stmt 0 view .LVU346
 1234 008c CDE90183 		strd	r8, r3, [sp, #4]
 1235 0090 CDF800B0 		str	fp, [sp]
 1236 0094 059B     		ldr	r3, [sp, #20]
 1237 0096 D2B2     		uxtb	r2, r2
 1238              	.LVL131:
 197:../APP/LCD/Src/lcd.c **** 	}
 1239              		.loc 1 197 4 view .LVU347
 1240 0098 E5E7     		b	.L73
 1241              		.cfi_endproc
 1242              	.LFE138:
 1244              		.section	.text.LCD_ShowFloatNum1,"ax",%progbits
 1245              		.align	1
 1246              		.global	LCD_ShowFloatNum1
 1247              		.syntax unified
 1248              		.thumb
 1249              		.thumb_func
 1251              	LCD_ShowFloatNum1:
ARM GAS  C:\Users\Dawn\AppData\Local\Temp\ccpPnLvM.s 			page 30


 1252              	.LVL132:
 1253              	.LFB139:
 200:../APP/LCD/Src/lcd.c **** 
 201:../APP/LCD/Src/lcd.c **** void LCD_ShowFloatNum1(u16 x,u16 y,float num,u8 len,u16 fc,u16 bc,u8 sizey)
 202:../APP/LCD/Src/lcd.c **** {
 1254              		.loc 1 202 1 is_stmt 1 view -0
 1255              		.cfi_startproc
 1256              		@ args = 8, pretend = 0, frame = 16
 1257              		@ frame_needed = 0, uses_anonymous_args = 0
 203:../APP/LCD/Src/lcd.c **** 	u8 t,temp,sizex;
 1258              		.loc 1 203 2 view .LVU349
 204:../APP/LCD/Src/lcd.c **** 	u16 num1;
 1259              		.loc 1 204 2 view .LVU350
 205:../APP/LCD/Src/lcd.c **** 	sizex=sizey/2;
 1260              		.loc 1 205 2 view .LVU351
 202:../APP/LCD/Src/lcd.c **** 	u8 t,temp,sizex;
 1261              		.loc 1 202 1 is_stmt 0 view .LVU352
 1262 0000 2DE9F04F 		push	{r4, r5, r6, r7, r8, r9, r10, fp, lr}
 1263              	.LCFI25:
 1264              		.cfi_def_cfa_offset 36
 1265              		.cfi_offset 4, -36
 1266              		.cfi_offset 5, -32
 1267              		.cfi_offset 6, -28
 1268              		.cfi_offset 7, -24
 1269              		.cfi_offset 8, -20
 1270              		.cfi_offset 9, -16
 1271              		.cfi_offset 10, -12
 1272              		.cfi_offset 11, -8
 1273              		.cfi_offset 14, -4
 206:../APP/LCD/Src/lcd.c **** 	num1=num*100;
 1274              		.loc 1 206 10 view .LVU353
 1275 0004 DFED2A7A 		vldr.32	s15, .L80
 1276 0008 20EE270A 		vmul.f32	s0, s0, s15
 1277              	.LVL133:
 202:../APP/LCD/Src/lcd.c **** 	u8 t,temp,sizex;
 1278              		.loc 1 202 1 view .LVU354
 1279 000c 89B0     		sub	sp, sp, #36
 1280              	.LCFI26:
 1281              		.cfi_def_cfa_offset 72
 1282              		.loc 1 206 6 view .LVU355
 1283 000e BCEEC00A 		vcvt.u32.f32	s0, s0
 202:../APP/LCD/Src/lcd.c **** 	u8 t,temp,sizex;
 1284              		.loc 1 202 1 view .LVU356
 1285 0012 0593     		str	r3, [sp, #20]
 1286 0014 BDF84830 		ldrh	r3, [sp, #72]
 1287              	.LVL134:
 202:../APP/LCD/Src/lcd.c **** 	u8 t,temp,sizex;
 1288              		.loc 1 202 1 view .LVU357
 1289 0018 0693     		str	r3, [sp, #24]
 1290              		.loc 1 206 6 view .LVU358
 1291 001a 10EE103A 		vmov	r3, s0	@ int
 202:../APP/LCD/Src/lcd.c **** 	u8 t,temp,sizex;
 1292              		.loc 1 202 1 view .LVU359
 1293 001e 9DF84C80 		ldrb	r8, [sp, #76]	@ zero_extendqisi2
 1294 0022 0491     		str	r1, [sp, #16]
 1295              		.loc 1 206 6 view .LVU360
 1296 0024 9BB2     		uxth	r3, r3
ARM GAS  C:\Users\Dawn\AppData\Local\Temp\ccpPnLvM.s 			page 31


 207:../APP/LCD/Src/lcd.c **** 	for(t=0;t<len;t++)
 1297              		.loc 1 207 7 view .LVU361
 1298 0026 0025     		movs	r5, #0
 202:../APP/LCD/Src/lcd.c **** 	u8 t,temp,sizex;
 1299              		.loc 1 202 1 view .LVU362
 1300 0028 0746     		mov	r7, r0
 1301 002a 1646     		mov	r6, r2
 205:../APP/LCD/Src/lcd.c **** 	num1=num*100;
 1302              		.loc 1 205 7 view .LVU363
 1303 002c 4FEA580A 		lsr	r10, r8, #1
 1304              	.LVL135:
 206:../APP/LCD/Src/lcd.c **** 	num1=num*100;
 1305              		.loc 1 206 2 is_stmt 1 view .LVU364
 206:../APP/LCD/Src/lcd.c **** 	num1=num*100;
 1306              		.loc 1 206 6 is_stmt 0 view .LVU365
 1307 0030 0793     		str	r3, [sp, #28]
 1308              	.LVL136:
 1309              		.loc 1 207 2 is_stmt 1 view .LVU366
 1310              		.loc 1 207 2 is_stmt 0 view .LVU367
 1311 0032 4FF00A09 		mov	r9, #10
 208:../APP/LCD/Src/lcd.c **** 	{
 209:../APP/LCD/Src/lcd.c **** 		temp=(num1/mypow(10,len-t-1))%10;
 210:../APP/LCD/Src/lcd.c **** 		if(t==(len-2))
 211:../APP/LCD/Src/lcd.c **** 		{
 212:../APP/LCD/Src/lcd.c **** 			LCD_ShowChar(x+(len-2)*sizex,y,'.',fc,bc,sizey,0);
 1312              		.loc 1 212 4 view .LVU368
 1313 0036 AB46     		mov	fp, r5
 1314              	.LVL137:
 1315              	.L75:
 207:../APP/LCD/Src/lcd.c **** 	{
 1316              		.loc 1 207 11 is_stmt 1 discriminator 1 view .LVU369
 1317 0038 AE42     		cmp	r6, r5
 1318 003a 02D8     		bhi	.L79
 213:../APP/LCD/Src/lcd.c **** 			t++;
 214:../APP/LCD/Src/lcd.c **** 			len+=1;
 215:../APP/LCD/Src/lcd.c **** 		}
 216:../APP/LCD/Src/lcd.c **** 	 	LCD_ShowChar(x+t*sizex,y,temp+48,fc,bc,sizey,0);
 217:../APP/LCD/Src/lcd.c **** 	}
 218:../APP/LCD/Src/lcd.c **** }
 1319              		.loc 1 218 1 is_stmt 0 view .LVU370
 1320 003c 09B0     		add	sp, sp, #36
 1321              	.LCFI27:
 1322              		.cfi_remember_state
 1323              		.cfi_def_cfa_offset 36
 1324              		@ sp needed
 1325 003e BDE8F08F 		pop	{r4, r5, r6, r7, r8, r9, r10, fp, pc}
 1326              	.LVL138:
 1327              	.L79:
 1328              	.LCFI28:
 1329              		.cfi_restore_state
 209:../APP/LCD/Src/lcd.c **** 		if(t==(len-2))
 1330              		.loc 1 209 3 is_stmt 1 view .LVU371
 209:../APP/LCD/Src/lcd.c **** 		if(t==(len-2))
 1331              		.loc 1 209 14 is_stmt 0 view .LVU372
 1332 0042 721E     		subs	r2, r6, #1
 1333 0044 531B     		subs	r3, r2, r5
 1334 0046 DBB2     		uxtb	r3, r3
ARM GAS  C:\Users\Dawn\AppData\Local\Temp\ccpPnLvM.s 			page 32


 1335              	.LVL139:
 1336              	.LBB12:
 1337              	.LBI12:
 173:../APP/LCD/Src/lcd.c **** {
 1338              		.loc 1 173 5 is_stmt 1 view .LVU373
 1339              	.LBB13:
 175:../APP/LCD/Src/lcd.c **** 	while(n--)result*=m;
 1340              		.loc 1 175 2 view .LVU374
 176:../APP/LCD/Src/lcd.c **** 	return result;
 1341              		.loc 1 176 2 view .LVU375
 175:../APP/LCD/Src/lcd.c **** 	while(n--)result*=m;
 1342              		.loc 1 175 6 is_stmt 0 view .LVU376
 1343 0048 0124     		movs	r4, #1
 1344              	.LVL140:
 1345              	.L76:
 176:../APP/LCD/Src/lcd.c **** 	return result;
 1346              		.loc 1 176 8 is_stmt 1 discriminator 1 view .LVU377
 176:../APP/LCD/Src/lcd.c **** 	return result;
 1347              		.loc 1 176 9 is_stmt 0 discriminator 1 view .LVU378
 1348 004a 013B     		subs	r3, r3, #1
 1349              	.LVL141:
 176:../APP/LCD/Src/lcd.c **** 	return result;
 1350              		.loc 1 176 9 discriminator 1 view .LVU379
 1351 004c DBB2     		uxtb	r3, r3
 1352              	.LVL142:
 176:../APP/LCD/Src/lcd.c **** 	return result;
 1353              		.loc 1 176 8 discriminator 1 view .LVU380
 1354 004e FF2B     		cmp	r3, #255
 1355 0050 2AD1     		bne	.L77
 177:../APP/LCD/Src/lcd.c **** }
 1356              		.loc 1 177 2 is_stmt 1 view .LVU381
 1357              	.LVL143:
 177:../APP/LCD/Src/lcd.c **** }
 1358              		.loc 1 177 2 is_stmt 0 view .LVU382
 1359              	.LBE13:
 1360              	.LBE12:
 210:../APP/LCD/Src/lcd.c **** 		{
 1361              		.loc 1 210 13 view .LVU383
 1362 0052 B01E     		subs	r0, r6, #2
 209:../APP/LCD/Src/lcd.c **** 		if(t==(len-2))
 1363              		.loc 1 209 13 discriminator 1 view .LVU384
 1364 0054 079B     		ldr	r3, [sp, #28]
 1365 0056 B3FBF4F4 		udiv	r4, r3, r4
 210:../APP/LCD/Src/lcd.c **** 		{
 1366              		.loc 1 210 5 view .LVU385
 1367 005a 8542     		cmp	r5, r0
 209:../APP/LCD/Src/lcd.c **** 		if(t==(len-2))
 1368              		.loc 1 209 32 discriminator 1 view .LVU386
 1369 005c B4FBF9F3 		udiv	r3, r4, r9
 1370 0060 09FB1344 		mls	r4, r9, r3, r4
 209:../APP/LCD/Src/lcd.c **** 		if(t==(len-2))
 1371              		.loc 1 209 7 discriminator 1 view .LVU387
 1372 0064 E4B2     		uxtb	r4, r4
 1373              	.LVL144:
 210:../APP/LCD/Src/lcd.c **** 		{
 1374              		.loc 1 210 3 is_stmt 1 view .LVU388
 210:../APP/LCD/Src/lcd.c **** 		{
ARM GAS  C:\Users\Dawn\AppData\Local\Temp\ccpPnLvM.s 			page 33


 1375              		.loc 1 210 5 is_stmt 0 view .LVU389
 1376 0066 0ED1     		bne	.L78
 212:../APP/LCD/Src/lcd.c **** 			t++;
 1377              		.loc 1 212 4 view .LVU390
 1378 0068 069B     		ldr	r3, [sp, #24]
 1379 006a 0093     		str	r3, [sp]
 1380 006c 00FB0A70 		mla	r0, r0, r10, r7
 1381 0070 CDE9018B 		strd	r8, fp, [sp, #4]
 1382 0074 059B     		ldr	r3, [sp, #20]
 1383 0076 0499     		ldr	r1, [sp, #16]
 213:../APP/LCD/Src/lcd.c **** 			len+=1;
 1384              		.loc 1 213 5 view .LVU391
 1385 0078 D5B2     		uxtb	r5, r2
 1386              	.LVL145:
 212:../APP/LCD/Src/lcd.c **** 			t++;
 1387              		.loc 1 212 4 is_stmt 1 view .LVU392
 1388 007a 80B2     		uxth	r0, r0
 1389 007c 2E22     		movs	r2, #46
 1390 007e FFF7FEFF 		bl	LCD_ShowChar
 1391              	.LVL146:
 213:../APP/LCD/Src/lcd.c **** 			len+=1;
 1392              		.loc 1 213 4 view .LVU393
 214:../APP/LCD/Src/lcd.c **** 		}
 1393              		.loc 1 214 4 view .LVU394
 214:../APP/LCD/Src/lcd.c **** 		}
 1394              		.loc 1 214 7 is_stmt 0 view .LVU395
 1395 0082 0136     		adds	r6, r6, #1
 1396              	.LVL147:
 214:../APP/LCD/Src/lcd.c **** 		}
 1397              		.loc 1 214 7 view .LVU396
 1398 0084 F6B2     		uxtb	r6, r6
 1399              	.LVL148:
 1400              	.L78:
 216:../APP/LCD/Src/lcd.c **** 	}
 1401              		.loc 1 216 4 is_stmt 1 view .LVU397
 1402 0086 069B     		ldr	r3, [sp, #24]
 1403 0088 0093     		str	r3, [sp]
 1404 008a 05FB0A70 		mla	r0, r5, r10, r7
 1405 008e 04F13002 		add	r2, r4, #48
 1406 0092 CDE9018B 		strd	r8, fp, [sp, #4]
 1407 0096 059B     		ldr	r3, [sp, #20]
 1408 0098 0499     		ldr	r1, [sp, #16]
 1409 009a D2B2     		uxtb	r2, r2
 1410 009c 80B2     		uxth	r0, r0
 207:../APP/LCD/Src/lcd.c **** 	{
 1411              		.loc 1 207 17 is_stmt 0 discriminator 2 view .LVU398
 1412 009e 0135     		adds	r5, r5, #1
 1413              	.LVL149:
 216:../APP/LCD/Src/lcd.c **** 	}
 1414              		.loc 1 216 4 view .LVU399
 1415 00a0 FFF7FEFF 		bl	LCD_ShowChar
 1416              	.LVL150:
 207:../APP/LCD/Src/lcd.c **** 	{
 1417              		.loc 1 207 17 is_stmt 1 discriminator 2 view .LVU400
 1418 00a4 EDB2     		uxtb	r5, r5
 1419              	.LVL151:
 207:../APP/LCD/Src/lcd.c **** 	{
ARM GAS  C:\Users\Dawn\AppData\Local\Temp\ccpPnLvM.s 			page 34


 1420              		.loc 1 207 17 is_stmt 0 discriminator 2 view .LVU401
 1421 00a6 C7E7     		b	.L75
 1422              	.LVL152:
 1423              	.L77:
 1424              	.LBB15:
 1425              	.LBB14:
 176:../APP/LCD/Src/lcd.c **** 	return result;
 1426              		.loc 1 176 12 is_stmt 1 discriminator 2 view .LVU402
 176:../APP/LCD/Src/lcd.c **** 	return result;
 1427              		.loc 1 176 18 is_stmt 0 discriminator 2 view .LVU403
 1428 00a8 09FB04F4 		mul	r4, r9, r4
 1429              	.LVL153:
 176:../APP/LCD/Src/lcd.c **** 	return result;
 1430              		.loc 1 176 18 discriminator 2 view .LVU404
 1431 00ac CDE7     		b	.L76
 1432              	.L81:
 1433 00ae 00BF     		.align	2
 1434              	.L80:
 1435 00b0 0000C842 		.word	1120403456
 1436              	.LBE14:
 1437              	.LBE15:
 1438              		.cfi_endproc
 1439              	.LFE139:
 1441              		.section	.bss.color_buffer.0,"aw",%nobits
 1442              		.align	1
 1445              	color_buffer.0:
 1446 0000 00000000 		.space	1024
 1446      00000000 
 1446      00000000 
 1446      00000000 
 1446      00000000 
 1447              		.section	.data.last_color.1,"aw"
 1448              		.align	1
 1451              	last_color.1:
 1452 0000 FFFF     		.short	-1
 1453              		.global	ascii_3216
 1454              		.section	.rodata.ascii_3216,"a"
 1457              	ascii_3216:
 1458 0000 00000000 		.ascii	"\000\000\000\000\000\000\000\000\000\000\000\000\000"
 1458      00000000 
 1458      00000000 
 1458      00
 1459 000d 00000000 		.ascii	"\000\000\000\000\000\000\000\000\000\000\000\000\000"
 1459      00000000 
 1459      00000000 
 1459      00
 1460 001a 00000000 		.ascii	"\000\000\000\000\000\000\000\000\000\000\000\000\000"
 1460      00000000 
 1460      00000000 
 1460      00
 1461 0027 00000000 		.ascii	"\000\000\000\000\000\000\000\000\000\000\000\000\000"
 1461      00000000 
 1461      00000000 
 1461      00
 1462 0034 00000000 		.ascii	"\000\000\000\000\000\000\000\000\000\000\000\000"
 1462      00000000 
 1462      00000000 
ARM GAS  C:\Users\Dawn\AppData\Local\Temp\ccpPnLvM.s 			page 35


 1463 0040 00000000 		.ascii	"\000\000\000\000\000\000\000\000\000\000\300\001\300"
 1463      00000000 
 1463      0000C001 
 1463      C0
 1464 004d 01C001C0 		.ascii	"\001\300\001\300\001\300\001\300\001\300\001\200\000"
 1464      01C001C0 
 1464      01C00180 
 1464      00
 1465 005a 80008000 		.ascii	"\200\000\200\000\200\000\200\000\200\000\200\000\000"
 1465      80008000 
 1465      80008000 
 1465      00
 1466 0067 00000000 		.ascii	"\000\000\000\000\000\000\000\200\001\300\003\300\003"
 1466      00000080 
 1466      01C003C0 
 1466      03
 1467 0074 80010000 		.ascii	"\200\001\000\000\000\000\000\000\000\000\000\000"
 1467      00000000 
 1467      00000000 
 1468 0080 00000000 		.ascii	"\000\000\000\000\000\000\340\034\340\034\360\036p\016"
 1468      0000E01C 
 1468      E01CF01E 
 1468      700E
 1469 008e 38071803 		.ascii	"8\007\030\003\010\001\204\000\000\000\000\000\000\000"
 1469      08018400 
 1469      00000000 
 1469      0000
 1470 009c 00000000 		.ascii	"\000\000\000\000\000\000\000\000\000\000\000\000\000"
 1470      00000000 
 1470      00000000 
 1470      00
 1471 00a9 00000000 		.ascii	"\000\000\000\000\000\000\000\000\000\000\000\000\000"
 1471      00000000 
 1471      00000000 
 1471      00
 1472 00b6 00000000 		.ascii	"\000\000\000\000\000\000\000\000\000\000"
 1472      00000000 
 1472      0000
 1473 00c0 00000000 		.ascii	"\000\000\000\000\000\000\000\000\000\000\000\000 \020"
 1473      00000000 
 1473      00000000 
 1473      2010
 1474 00ce 20102010 		.ascii	" \020 \020 \020 \020\376\177\376\177\020\010\020\010"
 1474      20102010 
 1474      FE7FFE7F 
 1474      10081008 
 1475 00de 10081008 		.ascii	"\020\010\020\010\020\010\020\010\020\010\376\177\376"
 1475      10081008 
 1475      1008FE7F 
 1475      FE
 1476 00eb 7F080408 		.ascii	"\177\010\004\010\004\010\004\010\004\010\004\000\000"
 1476      04080408 
 1476      04080400 
 1476      00
 1477 00f8 00000000 		.ascii	"\000\000\000\000\000\000\000\000"
 1477      00000000 
 1478 0100 00000000 		.ascii	"\000\000\000\000\000\000\000\000\000\001\000\001\300"
ARM GAS  C:\Users\Dawn\AppData\Local\Temp\ccpPnLvM.s 			page 36


 1478      00000000 
 1478      00010001 
 1478      C0
 1479 010d 07601910 		.ascii	"\007`\031\0201\0301\0309\03098\001p\001\340\001\300"
 1479      31183118 
 1479      39183938 
 1479      017001E0 
 1479      01C0
 1480 011f 03800700 		.ascii	"\003\200\007\000\017\000\035\0009\0001\0341\0341\014"
 1480      0F001D00 
 1480      3900311C 
 1480      311C310C 
 1481 012f 310C1118 		.ascii	"1\014\021\030\015\340\007\000\001\000\001\000\001\000"
 1481      0DE00700 
 1481      01000100 
 1481      0100
 1482 013d 000000   		.ascii	"\000\000\000"
 1483 0140 00000000 		.ascii	"\000\000\000\000\000\000\000\000\000\000\000\000\034"
 1483      00000000 
 1483      00000000 
 1483      1C
 1484 014d 10361863 		.ascii	"\0206\030c\010c\014c\004c\004c\002c\002c\0016\035\234"
 1484      08630C63 
 1484      04630463 
 1484      02630263 
 1484      01361D9C 
 1485 0161 37802280 		.ascii	"7\200\"\200c@c@c c c0c\020\"\0306\010\034\000\000\000"
 1485      63406340 
 1485      63206320 
 1485      63306310 
 1485      22183608 
 1486 0179 00000000 		.ascii	"\000\000\000\000\000\000\000"
 1486      000000
 1487 0180 00000000 		.ascii	"\000\000\000\000\000\000\000\000\000\000\000\000\360"
 1487      00000000 
 1487      00000000 
 1487      F0
 1488 018d 0098018C 		.ascii	"\000\230\001\214\001\214\001\214\001\214\001\214\000"
 1488      018C018C 
 1488      018C018C 
 1488      00
 1489 019a CC007800 		.ascii	"\314\000x\000\030>\034\0106\0102\010c\004c\004\303\004"
 1489      183E1C08 
 1489      36083208 
 1489      63046304 
 1489      C304
 1490 01ac C3038343 		.ascii	"\303\003\203C\006C\216&x\034\000\000\000\000\000\000"
 1490      06438E26 
 1490      781C0000 
 1490      00000000 
 1491 01bc 00000000 		.ascii	"\000\000\000\000"
 1492 01c0 00000000 		.ascii	"\000\000\000\000\000\000\034\000<\000<\0000\0000\000"
 1492      00001C00 
 1492      3C003C00 
 1492      30003000 
 1493 01d0 10000C00 		.ascii	"\020\000\014\000\006\000\000\000\000\000\000\000\000"
 1493      06000000 
ARM GAS  C:\Users\Dawn\AppData\Local\Temp\ccpPnLvM.s 			page 37


 1493      00000000 
 1493      00
 1494 01dd 00000000 		.ascii	"\000\000\000\000\000\000\000\000\000\000\000\000\000"
 1494      00000000 
 1494      00000000 
 1494      00
 1495 01ea 00000000 		.ascii	"\000\000\000\000\000\000\000\000\000\000\000\000\000"
 1495      00000000 
 1495      00000000 
 1495      00
 1496 01f7 00000000 		.ascii	"\000\000\000\000\000\000\000\000\000"
 1496      00000000 
 1496      00
 1497 0200 00000000 		.ascii	"\000\000\000\000\000\000\000@\000 \000\020\000\010\000"
 1497      00000040 
 1497      00200010 
 1497      000800
 1498 020f 0C000400 		.ascii	"\014\000\004\000\006\000\003\000\003\000\003\200\001"
 1498      06000300 
 1498      03000380 
 1498      01
 1499 021c 80018001 		.ascii	"\200\001\200\001\200\001\200\001\200\001\200\001\200"
 1499      80018001 
 1499      80018001 
 1499      80
 1500 0229 01000300 		.ascii	"\001\000\003\000\003\000\003\000\006\000\006\000\014"
 1500      03000300 
 1500      06000600 
 1500      0C
 1501 0236 00080010 		.ascii	"\000\010\000\020\000 \000@\000\000"
 1501      00200040 
 1501      0000
 1502 0240 00000000 		.ascii	"\000\000\000\000\000\000\002\000\004\000\010\000\020"
 1502      00000200 
 1502      04000800 
 1502      10
 1503 024d 00300020 		.ascii	"\0000\000 \000`\000\300\000\300\000\300\000\200\001"
 1503      006000C0 
 1503      00C000C0 
 1503      008001
 1504 025c 80018001 		.ascii	"\200\001\200\001\200\001\200\001\200\001\200\001\200"
 1504      80018001 
 1504      80018001 
 1504      80
 1505 0269 01C000C0 		.ascii	"\001\300\000\300\000\300\000`\000`\0000\000\020\000"
 1505      00C00060 
 1505      00600030 
 1505      001000
 1506 0278 08000400 		.ascii	"\010\000\004\000\002\000\000\000"
 1506      02000000 
 1507 0280 00000000 		.ascii	"\000\000\000\000\000\000\000\000\000\000\000\000\000"
 1507      00000000 
 1507      00000000 
 1507      00
 1508 028d 00000000 		.ascii	"\000\000\000\000\001\200\003\200\003\000\001\034q<y"
 1508      01800380 
 1508      0300011C 
ARM GAS  C:\Users\Dawn\AppData\Local\Temp\ccpPnLvM.s 			page 38


 1508      713C79
 1509 029c 783DC007 		.ascii	"x=\300\007\000\001\300\007x=<y\034q\000\001\200\003"
 1509      0001C007 
 1509      783D3C79 
 1509      1C710001 
 1509      8003
 1510 02ae 80038001 		.ascii	"\200\003\200\001\000\000\000\000\000\000\000\000\000"
 1510      00000000 
 1510      00000000 
 1510      00
 1511 02bb 00000000 		.ascii	"\000\000\000\000\000"
 1511      00
 1512 02c0 00000000 		.ascii	"\000\000\000\000\000\000\000\000\000\000\000\000\000"
 1512      00000000 
 1512      00000000 
 1512      00
 1513 02cd 00000000 		.ascii	"\000\000\000\000\000\000\001\000\001\000\001\000\001"
 1513      00000100 
 1513      01000100 
 1513      01
 1514 02da 00010001 		.ascii	"\000\001\000\001\000\001\374\177\000\001\000\001\000"
 1514      0001FC7F 
 1514      00010001 
 1514      00
 1515 02e7 01000100 		.ascii	"\001\000\001\000\001\000\001\000\001\000\000\000\000"
 1515      01000100 
 1515      01000000 
 1515      00
 1516 02f4 00000000 		.ascii	"\000\000\000\000\000\000\000\000\000\000\000\000"
 1516      00000000 
 1516      00000000 
 1517 0300 00000000 		.ascii	"\000\000\000\000\000\000\000\000\000\000\000\000\000"
 1517      00000000 
 1517      00000000 
 1517      00
 1518 030d 00000000 		.ascii	"\000\000\000\000\000\000\000\000\000\000\000\000\000"
 1518      00000000 
 1518      00000000 
 1518      00
 1519 031a 00000000 		.ascii	"\000\000\000\000\000\000\000\000\000\000\000\000\000"
 1519      00000000 
 1519      00000000 
 1519      00
 1520 0327 00000000 		.ascii	"\000\000\000\000\000\000\000\000\000\034\000<\000<\000"
 1520      00000000 
 1520      001C003C 
 1520      003C00
 1521 0336 30003000 		.ascii	"0\0000\000\020\000\014\000\006\000"
 1521      10000C00 
 1521      0600
 1522 0340 00000000 		.ascii	"\000\000\000\000\000\000\000\000\000\000\000\000\000"
 1522      00000000 
 1522      00000000 
 1522      00
 1523 034d 00000000 		.ascii	"\000\000\000\000\000\000\000\000\000\000\000\000\000"
 1523      00000000 
 1523      00000000 
ARM GAS  C:\Users\Dawn\AppData\Local\Temp\ccpPnLvM.s 			page 39


 1523      00
 1524 035a 00000000 		.ascii	"\000\000\000\000\000\000\376\177\000\000\000\000\000"
 1524      0000FE7F 
 1524      00000000 
 1524      00
 1525 0367 00000000 		.ascii	"\000\000\000\000\000\000\000\000\000\000\000\000\000"
 1525      00000000 
 1525      00000000 
 1525      00
 1526 0374 00000000 		.ascii	"\000\000\000\000\000\000\000\000\000\000\000\000"
 1526      00000000 
 1526      00000000 
 1527 0380 00000000 		.ascii	"\000\000\000\000\000\000\000\000\000\000\000\000\000"
 1527      00000000 
 1527      00000000 
 1527      00
 1528 038d 00000000 		.ascii	"\000\000\000\000\000\000\000\000\000\000\000\000\000"
 1528      00000000 
 1528      00000000 
 1528      00
 1529 039a 00000000 		.ascii	"\000\000\000\000\000\000\000\000\000\000\000\000\000"
 1529      00000000 
 1529      00000000 
 1529      00
 1530 03a7 00000000 		.ascii	"\000\000\000\000\000\000\000\030\000<\000<\000\030\000"
 1530      00000018 
 1530      003C003C 
 1530      001800
 1531 03b6 00000000 		.ascii	"\000\000\000\000\000\000\000\000\000\000"
 1531      00000000 
 1531      0000
 1532 03c0 00000000 		.ascii	"\000\000\000\000\000\000\000@\000`\000 \0000\000\020"
 1532      00000040 
 1532      00600020 
 1532      00300010 
 1533 03d0 00180008 		.ascii	"\000\030\000\010\000\014\000\004\000\006\000\002\000"
 1533      000C0004 
 1533      00060002 
 1533      00
 1534 03dd 03000180 		.ascii	"\003\000\001\200\001\200\000\300\000@\000`\000 \000"
 1534      018000C0 
 1534      00400060 
 1534      002000
 1535 03ec 30001000 		.ascii	"0\000\020\000\030\000\010\000\014\000\004\000\006\000"
 1535      18000800 
 1535      0C000400 
 1535      0600
 1536 03fa 02000000 		.ascii	"\002\000\000\000\000\000"
 1536      0000
 1537 0400 00000000 		.ascii	"\000\000\000\000\000\000\000\000\000\000\000\000\300"
 1537      00000000 
 1537      00000000 
 1537      C0
 1538 040d 07600C30 		.ascii	"\007`\0140\030\0300\0300\030 \014`\014`\014`\014`\014"
 1538      18183018 
 1538      3018200C 
 1538      600C600C 
ARM GAS  C:\Users\Dawn\AppData\Local\Temp\ccpPnLvM.s 			page 40


 1538      600C600C 
 1539 0421 600C600C 		.ascii	"`\014`\014`\014`\014`\030 \0300\03000\030`\014\300\007"
 1539      600C600C 
 1539      60182018 
 1539      30183030 
 1539      18600CC0 
 1540 0436 00000000 		.ascii	"\000\000\000\000\000\000\000\000\000\000"
 1540      00000000 
 1540      0000
 1541 0440 00000000 		.ascii	"\000\000\000\000\000\000\000\000\000\000\000\000\000"
 1541      00000000 
 1541      00000000 
 1541      00
 1542 044d 018001F8 		.ascii	"\001\200\001\370\001\200\001\200\001\200\001\200\001"
 1542      01800180 
 1542      01800180 
 1542      01
 1543 045a 80018001 		.ascii	"\200\001\200\001\200\001\200\001\200\001\200\001\200"
 1543      80018001 
 1543      80018001 
 1543      80
 1544 0467 01800180 		.ascii	"\001\200\001\200\001\200\001\200\001\200\001\300\003"
 1544      01800180 
 1544      018001C0 
 1544      03
 1545 0474 F81F0000 		.ascii	"\370\037\000\000\000\000\000\000\000\000\000\000"
 1545      00000000 
 1545      00000000 
 1546 0480 00000000 		.ascii	"\000\000\000\000\000\000\000\000\000\000\000\000\340"
 1546      00000000 
 1546      00000000 
 1546      E0
 1547 048d 07101C08 		.ascii	"\007\020\034\010\030\0040\0040\0140\0140\0000\000\030"
 1547      18043004 
 1547      300C300C 
 1547      30003000 
 1547      18
 1548 049e 00080004 		.ascii	"\000\010\000\004\000\002\000\001\200\000@\000  \020"
 1548      00020001 
 1548      80004000 
 1548      202010
 1549 04ad 20082004 		.ascii	" \010 \0040\374\037\374\037\000\000\000\000\000\000"
 1549      30FC1FFC 
 1549      1F000000 
 1549      000000
 1550 04bc 00000000 		.ascii	"\000\000\000\000"
 1551 04c0 00000000 		.ascii	"\000\000\000\000\000\000\000\000\000\000\000\000\340"
 1551      00000000 
 1551      00000000 
 1551      E0
 1552 04cd 03180E0C 		.ascii	"\003\030\016\014\014\014\030\014\030\014\030\000\030"
 1552      0C0C180C 
 1552      180C1800 
 1552      18
 1553 04da 000C0006 		.ascii	"\000\014\000\006\300\003\000\016\000\030\000\020\000"
 1553      C003000E 
 1553      00180010 
ARM GAS  C:\Users\Dawn\AppData\Local\Temp\ccpPnLvM.s 			page 41


 1553      00
 1554 04e7 3000300C 		.ascii	"0\0000\0140\0140\014\020\014\030\030\014\340\003\000"
 1554      300C300C 
 1554      100C1818 
 1554      0CE00300 
 1555 04f7 00000000 		.ascii	"\000\000\000\000\000\000\000\000\000"
 1555      00000000 
 1555      00
 1556 0500 00000000 		.ascii	"\000\000\000\000\000\000\000\000\000\000\000\000\000"
 1556      00000000 
 1556      00000000 
 1556      00
 1557 050d 0C000E00 		.ascii	"\014\000\016\000\016\000\017\200\016\200\016@\016`\016"
 1557      0E000F80 
 1557      0E800E40 
 1557      0E600E
 1558 051c 200E100E 		.ascii	" \016\020\016\020\016\010\016\004\016\004\016\376\177"
 1558      100E080E 
 1558      040E040E 
 1558      FE7F
 1559 052a 000E000E 		.ascii	"\000\016\000\016\000\016\000\016\000\016\000\016\300"
 1559      000E000E 
 1559      000E000E 
 1559      C0
 1560 0537 7F000000 		.ascii	"\177\000\000\000\000\000\000\000\000"
 1560      00000000 
 1560      00
 1561 0540 00000000 		.ascii	"\000\000\000\000\000\000\000\000\000\000\000\000\360"
 1561      00000000 
 1561      00000000 
 1561      F0
 1562 054d 3FF03F10 		.ascii	"?\360?\020\000\020\000\020\000\010\000\010\000\310\007"
 1562      00100010 
 1562      00080008 
 1562      00C807
 1563 055c 280C1818 		.ascii	"(\014\030\030\010\020\0000\0000\0000\0000\0140\0140"
 1563      08100030 
 1563      00300030 
 1563      00300C30 
 1563      0C30
 1564 056e 04180418 		.ascii	"\004\030\004\030\010\014\360\003\000\000\000\000\000"
 1564      080CF003 
 1564      00000000 
 1564      00
 1565 057b 00000000 		.ascii	"\000\000\000\000\000"
 1565      00
 1566 0580 00000000 		.ascii	"\000\000\000\000\000\000\000\000\000\000\000\000\200"
 1566      00000000 
 1566      00000000 
 1566      80
 1567 058d 0FC01020 		.ascii	"\017\300\020 0\0200\030\000\030\000\010\000\014\000"
 1567      30103018 
 1567      00180008 
 1567      000C00
 1568 059c 8C0F6C18 		.ascii	"\214\017l\030<0\034`\014`\014`\014`\014`\030`\030 0"
 1568      3C301C60 
 1568      0C600C60 
ARM GAS  C:\Users\Dawn\AppData\Local\Temp\ccpPnLvM.s 			page 42


 1568      0C600C60 
 1568      18601820 
 1569 05b1 306018C0 		.ascii	"0`\030\300\007\000\000\000\000\000\000\000\000\000\000"
 1569      07000000 
 1569      00000000 
 1569      000000
 1570 05c0 00000000 		.ascii	"\000\000\000\000\000\000\000\000\000\000\000\000\370"
 1570      00000000 
 1570      00000000 
 1570      F8
 1571 05cd 3FF83F1C 		.ascii	"?\370?\034\020\014\010\004\010\004\004\000\004\000\002"
 1571      100C0804 
 1571      08040400 
 1571      040002
 1572 05dc 00020001 		.ascii	"\000\002\000\001\000\001\000\001\200\000\200\000\200"
 1572      00010001 
 1572      80008000 
 1572      80
 1573 05e9 00C000C0 		.ascii	"\000\300\000\300\000\300\000\300\000\300\000\300\000"
 1573      00C000C0 
 1573      00C000C0 
 1573      00
 1574 05f6 00000000 		.ascii	"\000\000\000\000\000\000\000\000\000\000"
 1574      00000000 
 1574      0000
 1575 0600 00000000 		.ascii	"\000\000\000\000\000\000\000\000\000\000\000\000\340"
 1575      00000000 
 1575      00000000 
 1575      E0
 1576 060d 07300C18 		.ascii	"\0070\014\030\030\0140\0140\0140\03408\030p\010\340"
 1576      180C300C 
 1576      300C301C 
 1576      30381870 
 1576      08E0
 1577 061f 07B00718 		.ascii	"\007\260\007\030\016\014\034\0068\0060\0060\0060\006"
 1577      0E0C1C06 
 1577      38063006 
 1577      30063006 
 1578 062f 300C1818 		.ascii	"0\014\030\030\014\340\003\000\000\000\000\000\000\000"
 1578      0CE00300 
 1578      00000000 
 1578      0000
 1579 063d 000000   		.ascii	"\000\000\000"
 1580 0640 00000000 		.ascii	"\000\000\000\000\000\000\000\000\000\000\000\000\340"
 1580      00000000 
 1580      00000000 
 1580      E0
 1581 064d 0318040C 		.ascii	"\003\030\004\014\010\014\030\006\020\0060\0060\0060"
 1581      080C1806 
 1581      10063006 
 1581      300630
 1582 065c 06300638 		.ascii	"\0060\0068\014<\0306\3601\0000\000\030\000\030\000\030"
 1582      0C3C1836 
 1582      F0310030 
 1582      00180018 
 1582      0018
 1583 066e 0C0C0C06 		.ascii	"\014\014\014\006\014\003\360\001\000\000\000\000\000"
ARM GAS  C:\Users\Dawn\AppData\Local\Temp\ccpPnLvM.s 			page 43


 1583      0C03F001 
 1583      00000000 
 1583      00
 1584 067b 00000000 		.ascii	"\000\000\000\000\000"
 1584      00
 1585 0680 00000000 		.ascii	"\000\000\000\000\000\000\000\000\000\000\000\000\000"
 1585      00000000 
 1585      00000000 
 1585      00
 1586 068d 00000000 		.ascii	"\000\000\000\000\000\000\000\000\000\000\000\000\000"
 1586      00000000 
 1586      00000000 
 1586      00
 1587 069a 8001C003 		.ascii	"\200\001\300\003\300\003\200\001\000\000\000\000\000"
 1587      C0038001 
 1587      00000000 
 1587      00
 1588 06a7 00000000 		.ascii	"\000\000\000\000\000\000\000\200\001\300\003\300\003"
 1588      00000080 
 1588      01C003C0 
 1588      03
 1589 06b4 80010000 		.ascii	"\200\001\000\000\000\000\000\000\000\000\000\000"
 1589      00000000 
 1589      00000000 
 1590 06c0 00000000 		.ascii	"\000\000\000\000\000\000\000\000\000\000\000\000\000"
 1590      00000000 
 1590      00000000 
 1590      00
 1591 06cd 00000000 		.ascii	"\000\000\000\000\000\000\000\000\000\000\000\000\000"
 1591      00000000 
 1591      00000000 
 1591      00
 1592 06da C000C000 		.ascii	"\300\000\300\000\000\000\000\000\000\000\000\000\000"
 1592      00000000 
 1592      00000000 
 1592      00
 1593 06e7 00000000 		.ascii	"\000\000\000\000\000\000\000\000\000\000\000\300\000"
 1593      00000000 
 1593      000000C0 
 1593      00
 1594 06f4 C0008000 		.ascii	"\300\000\200\000\200\000@\000@\000\000\000"
 1594      80004000 
 1594      40000000 
 1595 0700 00000000 		.ascii	"\000\000\000\000\000\000\000\000\000\000\000 \000\020"
 1595      00000000 
 1595      00000020 
 1595      0010
 1596 070e 00080004 		.ascii	"\000\010\000\004\000\006\000\003\200\001\300\000`\000"
 1596      00060003 
 1596      8001C000 
 1596      6000
 1597 071c 30001800 		.ascii	"0\000\030\000\014\000\030\0000\000`\000\300\000\200"
 1597      0C001800 
 1597      30006000 
 1597      C00080
 1598 072b 01000300 		.ascii	"\001\000\003\000\006\000\004\000\010\000\020\000 \000"
 1598      06000400 
ARM GAS  C:\Users\Dawn\AppData\Local\Temp\ccpPnLvM.s 			page 44


 1598      08001000 
 1598      2000
 1599 0739 00000000 		.ascii	"\000\000\000\000\000\000\000"
 1599      000000
 1600 0740 00000000 		.ascii	"\000\000\000\000\000\000\000\000\000\000\000\000\000"
 1600      00000000 
 1600      00000000 
 1600      00
 1601 074d 00000000 		.ascii	"\000\000\000\000\000\000\000\000\000\000\000\000\000"
 1601      00000000 
 1601      00000000 
 1601      00
 1602 075a FE7F0000 		.ascii	"\376\177\000\000\000\000\000\000\000\000\000\000\376"
 1602      00000000 
 1602      00000000 
 1602      FE
 1603 0767 7F000000 		.ascii	"\177\000\000\000\000\000\000\000\000\000\000\000\000"
 1603      00000000 
 1603      00000000 
 1603      00
 1604 0774 00000000 		.ascii	"\000\000\000\000\000\000\000\000\000\000\000\000"
 1604      00000000 
 1604      00000000 
 1605 0780 00000000 		.ascii	"\000\000\000\000\000\000\000\000\000\000\004\000\010"
 1605      00000000 
 1605      00000400 
 1605      08
 1606 078d 00100020 		.ascii	"\000\020\000 \000`\000\300\000\200\001\000\003\000\006"
 1606      006000C0 
 1606      00800100 
 1606      030006
 1607 079c 000C0018 		.ascii	"\000\014\000\030\0000\000\030\000\014\000\006\000\003"
 1607      00300018 
 1607      000C0006 
 1607      0003
 1608 07aa 8001C000 		.ascii	"\200\001\300\000`\000 \000\020\000\010\000\004\000\000"
 1608      60002000 
 1608      10000800 
 1608      040000
 1609 07b9 00000000 		.ascii	"\000\000\000\000\000\000\000"
 1609      000000
 1610 07c0 00000000 		.ascii	"\000\000\000\000\000\000\000\000\000\000\300\0070\030"
 1610      00000000 
 1610      0000C007 
 1610      3018
 1611 07ce 08300860 		.ascii	"\0100\010`\014`\034`\034`\034`\0000\000\034\000\006"
 1611      0C601C60 
 1611      1C601C60 
 1611      0030001C 
 1611      0006
 1612 07e0 00018000 		.ascii	"\000\001\200\000\200\000\200\000\200\000\000\000\000"
 1612      80008000 
 1612      80000000 
 1612      00
 1613 07ed 008001C0 		.ascii	"\000\200\001\300\003\300\003\200\001\000\000\000\000"
 1613      03C00380 
 1613      01000000 
ARM GAS  C:\Users\Dawn\AppData\Local\Temp\ccpPnLvM.s 			page 45


 1613      00
 1614 07fa 00000000 		.ascii	"\000\000\000\000\000\000"
 1614      0000
 1615 0800 00000000 		.ascii	"\000\000\000\000\000\000\000\000\000\000\000\000\300"
 1615      00000000 
 1615      00000000 
 1615      C0
 1616 080d 07601810 		.ascii	"\007`\030\0200\030 \014/\214M\206L\306L\306LfLfDfDf"
 1616      3018200C 
 1616      2F8C4D86 
 1616      4CC64CC6 
 1616      4C664C66 
 1617 0825 26662666 		.ascii	"&f&f\025\314\034\014@\010 \03000\030\300\007\000\000"
 1617      15CC1C0C 
 1617      40082018 
 1617      303018C0 
 1617      070000
 1618 0838 00000000 		.ascii	"\000\000\000\000\000\000\000\000"
 1618      00000000 
 1619 0840 00000000 		.ascii	"\000\000\000\000\000\000\000\000\000\000\000\001\300"
 1619      00000000 
 1619      00000001 
 1619      C0
 1620 084d 01C001C0 		.ascii	"\001\300\001\300\001@\001`\003 \003 \003 \0030\006\020"
 1620      01400160 
 1620      03200320 
 1620      03200330 
 1620      0610
 1621 085f 06100610 		.ascii	"\006\020\006\020\006\370\017\010\014\010\014\010\014"
 1621      06F80F08 
 1621      0C080C08 
 1621      0C
 1622 086c 0C0C0418 		.ascii	"\014\014\004\030\004\030\006\030\037|\000\000\000\000"
 1622      04180618 
 1622      1F7C0000 
 1622      0000
 1623 087a 00000000 		.ascii	"\000\000\000\000\000\000"
 1623      0000
 1624 0880 00000000 		.ascii	"\000\000\000\000\000\000\000\000\000\000\000\000\376"
 1624      00000000 
 1624      00000000 
 1624      FE
 1625 088d 07181C18 		.ascii	"\007\030\034\0308\0300\0300\0300\0300\030\030\030\014"
 1625      38183018 
 1625      30183018 
 1625      30181818 
 1625      0C
 1626 089e F8071818 		.ascii	"\370\007\030\030\0300\030 \030`\030`\030`\030`\030`"
 1626      18301820 
 1626      18601860 
 1626      18601860 
 1626      1860
 1627 08b0 18301818 		.ascii	"\0300\030\030\376\017\000\000\000\000\000\000\000\000"
 1627      FE0F0000 
 1627      00000000 
 1627      0000
 1628 08be 0000     		.ascii	"\000\000"
ARM GAS  C:\Users\Dawn\AppData\Local\Temp\ccpPnLvM.s 			page 46


 1629 08c0 00000000 		.ascii	"\000\000\000\000\000\000\000\000\000\000\000\000\300"
 1629      00000000 
 1629      00000000 
 1629      C0
 1630 08cd 27603810 		.ascii	"'`8\0200\030 \014@\014@\004\000\006\000\006\000\006"
 1630      3018200C 
 1630      400C4004 
 1630      00060006 
 1630      0006
 1631 08df 00060006 		.ascii	"\000\006\000\006\000\006\000\006\000\006\000\014@\014"
 1631      00060006 
 1631      0006000C 
 1631      400C
 1632 08ed 400C2018 		.ascii	"@\014 \03000\030\300\007\000\000\000\000\000\000\000"
 1632      303018C0 
 1632      07000000 
 1632      00000000 
 1633 08fd 000000   		.ascii	"\000\000\000"
 1634 0900 00000000 		.ascii	"\000\000\000\000\000\000\000\000\000\000\000\000\376"
 1634      00000000 
 1634      00000000 
 1634      FE
 1635 090d 03180E18 		.ascii	"\003\030\016\030\030\0300\0300\0300\030`\030`\030`\030"
 1635      18183018 
 1635      30183018 
 1635      60186018 
 1635      6018
 1636 091f 60186018 		.ascii	"`\030`\030`\030`\030`\030`\0300\0300\030\020\030\030"
 1636      60186018 
 1636      60186018 
 1636      30183018 
 1636      101818
 1637 0932 180EFE03 		.ascii	"\030\016\376\003\000\000\000\000\000\000\000\000\000"
 1637      00000000 
 1637      00000000 
 1637      00
 1638 093f 00       		.ascii	"\000"
 1639 0940 00000000 		.ascii	"\000\000\000\000\000\000\000\000\000\000\000\000\376"
 1639      00000000 
 1639      00000000 
 1639      FE
 1640 094d 3F183018 		.ascii	"?\0300\030 \030`\030@\030\000\030\010\030\010\030\014"
 1640      20186018 
 1640      40180018 
 1640      08180818 
 1640      0C
 1641 095e F80F180C 		.ascii	"\370\017\030\014\030\010\030\010\030\000\030\000\030"
 1641      18081808 
 1641      18001800 
 1641      18
 1642 096b 00184018 		.ascii	"\000\030@\030@\030 \0300\376?\000\000\000\000\000\000"
 1642      40182018 
 1642      30FE3F00 
 1642      00000000 
 1642      00
 1643 097c 00000000 		.ascii	"\000\000\000\000"
 1644 0980 00000000 		.ascii	"\000\000\000\000\000\000\000\000\000\000\000\000\376"
ARM GAS  C:\Users\Dawn\AppData\Local\Temp\ccpPnLvM.s 			page 47


 1644      00000000 
 1644      00000000 
 1644      FE
 1645 098d 7F187018 		.ascii	"\177\030p\030@\030\300\030\200\030\000\030\020\030\020"
 1645      4018C018 
 1645      80180018 
 1645      101810
 1646 099c 1818F81F 		.ascii	"\030\030\370\037\030\030\030\020\030\020\030\000\030"
 1646      18181810 
 1646      18101800 
 1646      18
 1647 09a9 00180018 		.ascii	"\000\030\000\030\000\030\000\030\000\030\000~\000\000"
 1647      00180018 
 1647      0018007E 
 1647      0000
 1648 09b7 00000000 		.ascii	"\000\000\000\000\000\000\000\000\000"
 1648      00000000 
 1648      00
 1649 09c0 00000000 		.ascii	"\000\000\000\000\000\000\000\000\000\000\000\000\300"
 1649      00000000 
 1649      00000000 
 1649      C0
 1650 09cd 13701C10 		.ascii	"\023p\034\020\020\030\020\014 \014 \004\000\006\000"
 1650      1018100C 
 1650      200C2004 
 1650      000600
 1651 09dc 06000600 		.ascii	"\006\000\006\000\006\000\006\000\006\374\0060\0060\014"
 1651      06000600 
 1651      06FC0630 
 1651      06300C
 1652 09eb 300C3018 		.ascii	"0\0140\0300\03000\010\300\007\000\000\000\000\000\000"
 1652      30183030 
 1652      08C00700 
 1652      00000000 
 1652      00
 1653 09fc 00000000 		.ascii	"\000\000\000\000"
 1654 0a00 00000000 		.ascii	"\000\000\000\000\000\000\000\000\000\000\000\000?~\014"
 1654      00000000 
 1654      00000000 
 1654      3F7E0C
 1655 0a0f 180C180C 		.ascii	"\030\014\030\014\030\014\030\014\030\014\030\014\030"
 1655      180C180C 
 1655      180C180C 
 1655      18
 1656 0a1c 0C180C18 		.ascii	"\014\030\014\030\374\037\014\030\014\030\014\030\014"
 1656      FC1F0C18 
 1656      0C180C18 
 1656      0C
 1657 0a29 180C180C 		.ascii	"\030\014\030\014\030\014\030\014\030\014\030?~\000\000"
 1657      180C180C 
 1657      180C183F 
 1657      7E0000
 1658 0a38 00000000 		.ascii	"\000\000\000\000\000\000\000\000"
 1658      00000000 
 1659 0a40 00000000 		.ascii	"\000\000\000\000\000\000\000\000\000\000\000\000\370"
 1659      00000000 
 1659      00000000 
ARM GAS  C:\Users\Dawn\AppData\Local\Temp\ccpPnLvM.s 			page 48


 1659      F8
 1660 0a4d 1F800180 		.ascii	"\037\200\001\200\001\200\001\200\001\200\001\200\001"
 1660      01800180 
 1660      01800180 
 1660      01
 1661 0a5a 80018001 		.ascii	"\200\001\200\001\200\001\200\001\200\001\200\001\200"
 1661      80018001 
 1661      80018001 
 1661      80
 1662 0a67 01800180 		.ascii	"\001\200\001\200\001\200\001\200\001\200\001\200\001"
 1662      01800180 
 1662      01800180 
 1662      01
 1663 0a74 F81F0000 		.ascii	"\370\037\000\000\000\000\000\000\000\000\000\000"
 1663      00000000 
 1663      00000000 
 1664 0a80 00000000 		.ascii	"\000\000\000\000\000\000\000\000\000\000\000\000\340"
 1664      00000000 
 1664      00000000 
 1664      E0
 1665 0a8d 7F000600 		.ascii	"\177\000\006\000\006\000\006\000\006\000\006\000\006"
 1665      06000600 
 1665      06000600 
 1665      06
 1666 0a9a 00060006 		.ascii	"\000\006\000\006\000\006\000\006\000\006\000\006\000"
 1666      00060006 
 1666      00060006 
 1666      00
 1667 0aa7 06000600 		.ascii	"\006\000\006\000\006\000\006\000\006\000\006\000\006"
 1667      06000600 
 1667      06000600 
 1667      06
 1668 0ab4 00060006 		.ascii	"\000\006\000\006\016\006\016\003\216\001\374\000"
 1668      0E060E03 
 1668      8E01FC00 
 1669 0ac0 00000000 		.ascii	"\000\000\000\000\000\000\000\000\000\000\000\000~|\030"
 1669      00000000 
 1669      00000000 
 1669      7E7C18
 1670 0acf 18180818 		.ascii	"\030\030\010\030\004\030\006\030\002\030\001\230\001"
 1670      04180618 
 1670      02180198 
 1670      01
 1671 0adc 9801D801 		.ascii	"\230\001\330\001\270\0038\003\030\007\030\006\030\016"
 1671      B8033803 
 1671      18071806 
 1671      180E
 1672 0aea 180C181C 		.ascii	"\030\014\030\034\030\030\0300\0300~\374\000\000\000"
 1672      18181830 
 1672      18307EFC 
 1672      000000
 1673 0af9 00000000 		.ascii	"\000\000\000\000\000\000\000"
 1673      000000
 1674 0b00 00000000 		.ascii	"\000\000\000\000\000\000\000\000\000\000\000\000~\000"
 1674      00000000 
 1674      00000000 
 1674      7E00
ARM GAS  C:\Users\Dawn\AppData\Local\Temp\ccpPnLvM.s 			page 49


 1675 0b0e 18001800 		.ascii	"\030\000\030\000\030\000\030\000\030\000\030\000\030"
 1675      18001800 
 1675      18001800 
 1675      18
 1676 0b1b 00180018 		.ascii	"\000\030\000\030\000\030\000\030\000\030\000\030\000"
 1676      00180018 
 1676      00180018 
 1676      00
 1677 0b28 18001800 		.ascii	"\030\000\030\000\030@\030@\030 \0300\376?\000\000\000"
 1677      18401840 
 1677      18201830 
 1677      FE3F0000 
 1677      00
 1678 0b39 00000000 		.ascii	"\000\000\000\000\000\000\000"
 1678      000000
 1679 0b40 00000000 		.ascii	"\000\000\000\000\000\000\000\000\000\000\000\000\037"
 1679      00000000 
 1679      00000000 
 1679      1F
 1680 0b4d F81C381C 		.ascii	"\370\0348\0348\0348\034<44444446t2d2d2d2d1\3041\304"
 1680      381C381C 
 1680      3C343434 
 1680      34343434 
 1680      36743264 
 1681 0b6b 31C431C4 		.ascii	"1\3041\3040\3040\2040\237\374\000\000\000\000\000\000"
 1681      30C43084 
 1681      309FFC00 
 1681      00000000 
 1681      00
 1682 0b7c 00000000 		.ascii	"\000\000\000\000"
 1683 0b80 00000000 		.ascii	"\000\000\000\000\000\000\000\000\000\000\000\000\037"
 1683      00000000 
 1683      00000000 
 1683      1F
 1684 0b8d 7C1C103C 		.ascii	"|\034\020<\0204\0204\020t\020d\020\344\020\304\020\304"
 1684      10341034 
 1684      10741064 
 1684      10E410C4 
 1684      10C4
 1685 0b9f 11841184 		.ascii	"\021\204\021\204\023\004\023\004\027\004\026\004\036"
 1685      13041304 
 1685      17041604 
 1685      1E
 1686 0bac 041C041C 		.ascii	"\004\034\004\034\004\034\004\030\037\030\000\000\000"
 1686      041C0418 
 1686      1F180000 
 1686      00
 1687 0bb9 00000000 		.ascii	"\000\000\000\000\000\000\000"
 1687      000000
 1688 0bc0 00000000 		.ascii	"\000\000\000\000\000\000\000\000\000\000\000\000\300"
 1688      00000000 
 1688      00000000 
 1688      C0
 1689 0bcd 03300C18 		.ascii	"\0030\014\030\030\010\020\0140\0140\006`\006`\006`\006"
 1689      1808100C 
 1689      300C3006 
 1689      60066006 
ARM GAS  C:\Users\Dawn\AppData\Local\Temp\ccpPnLvM.s 			page 50


 1689      6006
 1690 0bdf 60066006 		.ascii	"`\006`\006`\006`\006`\006`\014 \0140\010\020\030\030"
 1690      60066006 
 1690      6006600C 
 1690      200C3008 
 1690      101818
 1691 0bf2 300CC003 		.ascii	"0\014\300\003\000\000\000\000\000\000\000\000\000\000"
 1691      00000000 
 1691      00000000 
 1691      0000
 1692 0c00 00000000 		.ascii	"\000\000\000\000\000\000\000\000\000\000\000\000\376"
 1692      00000000 
 1692      00000000 
 1692      FE
 1693 0c0d 0F181818 		.ascii	"\017\030\030\0300\030`\030`\030`\030`\030`\0300\030"
 1693      30186018 
 1693      60186018 
 1693      60186018 
 1693      3018
 1694 0c1f 18F80F18 		.ascii	"\030\370\017\030\000\030\000\030\000\030\000\030\000"
 1694      00180018 
 1694      00180018 
 1694      00
 1695 0c2c 18001800 		.ascii	"\030\000\030\000\030\000\030\000~\000\000\000\000\000"
 1695      18001800 
 1695      7E000000 
 1695      0000
 1696 0c3a 00000000 		.ascii	"\000\000\000\000\000\000"
 1696      0000
 1697 0c40 00000000 		.ascii	"\000\000\000\000\000\000\000\000\000\000\000\000\300"
 1697      00000000 
 1697      00000000 
 1697      C0
 1698 0c4d 03300C18 		.ascii	"\0030\014\030\030\014\020\0140\014 \006`\006`\006`\006"
 1698      180C100C 
 1698      300C2006 
 1698      60066006 
 1698      6006
 1699 0c5f 60066006 		.ascii	"`\006`\006`\006`\006`\006`\344a,3\0342\030\0260\016"
 1699      60066006 
 1699      600660E4 
 1699      612C331C 
 1699      32181630 
 1700 0c74 C007004C 		.ascii	"\300\007\000L\000|\0008\000\000\000\000"
 1700      007C0038 
 1700      00000000 
 1701 0c80 00000000 		.ascii	"\000\000\000\000\000\000\000\000\000\000\000\000\376"
 1701      00000000 
 1701      00000000 
 1701      FE
 1702 0c8d 07181C18 		.ascii	"\007\030\034\0308\0300\0300\0300\0300\030\030\030\014"
 1702      38183018 
 1702      30183018 
 1702      30181818 
 1702      0C
 1703 0c9e F8079803 		.ascii	"\370\007\230\003\030\003\030\007\030\006\030\006\030"
 1703      18031807 
ARM GAS  C:\Users\Dawn\AppData\Local\Temp\ccpPnLvM.s 			page 51


 1703      18061806 
 1703      18
 1704 0cab 0E180C18 		.ascii	"\016\030\014\030\014\030\034\030\030~x\000\000\000\000"
 1704      0C181C18 
 1704      187E7800 
 1704      000000
 1705 0cba 00000000 		.ascii	"\000\000\000\000\000\000"
 1705      0000
 1706 0cc0 00000000 		.ascii	"\000\000\000\000\000\000\000\000\000\000\000\000\340"
 1706      00000000 
 1706      00000000 
 1706      E0
 1707 0ccd 27303818 		.ascii	"'08\0300\014 \014 \014\000\014\000\030\000x\000\340"
 1707      300C200C 
 1707      200C000C 
 1707      00180078 
 1707      00E0
 1708 0cdf 03800F00 		.ascii	"\003\200\017\000\036\0008\000p\000`\004`\004`\010`\030"
 1708      1E003800 
 1708      70006004 
 1708      60046008 
 1708      6018
 1709 0cf1 303818C8 		.ascii	"08\030\310\017\000\000\000\000\000\000\000\000\000\000"
 1709      0F000000 
 1709      00000000 
 1709      000000
 1710 0d00 00000000 		.ascii	"\000\000\000\000\000\000\000\000\000\000\000\000\374"
 1710      00000000 
 1710      00000000 
 1710      FC
 1711 0d0d 3F8C2184 		.ascii	"?\214!\204a\202A\202A\200\001\200\001\200\001\200\001"
 1711      61824182 
 1711      41800180 
 1711      01800180 
 1711      01
 1712 0d1e 80018001 		.ascii	"\200\001\200\001\200\001\200\001\200\001\200\001\200"
 1712      80018001 
 1712      80018001 
 1712      80
 1713 0d2b 01800180 		.ascii	"\001\200\001\200\001\200\001\200\001\340\007\000\000"
 1713      01800180 
 1713      01E00700 
 1713      00
 1714 0d38 00000000 		.ascii	"\000\000\000\000\000\000\000\000"
 1714      00000000 
 1715 0d40 00000000 		.ascii	"\000\000\000\000\000\000\000\000\000\000\000\000?|\014"
 1715      00000000 
 1715      00000000 
 1715      3F7C0C
 1716 0d4f 100C100C 		.ascii	"\020\014\020\014\020\014\020\014\020\014\020\014\020"
 1716      100C100C 
 1716      100C100C 
 1716      10
 1717 0d5c 0C100C10 		.ascii	"\014\020\014\020\014\020\014\020\014\020\014\020\014"
 1717      0C100C10 
 1717      0C100C10 
 1717      0C
ARM GAS  C:\Users\Dawn\AppData\Local\Temp\ccpPnLvM.s 			page 52


 1718 0d69 100C100C 		.ascii	"\020\014\020\014\020\014\020\010\0108\004\340\003\000"
 1718      100C1008 
 1718      083804E0 
 1718      0300
 1719 0d77 00000000 		.ascii	"\000\000\000\000\000\000\000\000\000"
 1719      00000000 
 1719      00
 1720 0d80 00000000 		.ascii	"\000\000\000\000\000\000\000\000\000\000\000\000>\370"
 1720      00000000 
 1720      00000000 
 1720      3EF8
 1721 0d8e 18201820 		.ascii	"\030 \030 \030 0\0200\0200\0200\020`\010`\010`\010\340"
 1721      18203010 
 1721      30103010 
 1721      30106008 
 1721      60086008 
 1722 0da3 0CC004C0 		.ascii	"\014\300\004\300\004\300\004\200\003\200\003\200\003"
 1722      04C00480 
 1722      03800380 
 1722      03
 1723 0db0 80030001 		.ascii	"\200\003\000\001\000\001\000\000\000\000\000\000\000"
 1723      00010000 
 1723      00000000 
 1723      00
 1724 0dbd 000000   		.ascii	"\000\000\000"
 1725 0dc0 00000000 		.ascii	"\000\000\000\000\000\000\000\000\000\000\000\000\337"
 1725      00000000 
 1725      00000000 
 1725      DF
 1726 0dcd F3866186 		.ascii	"\363\206a\206!\206!\214!\014!\214#\214\023\214\023\214"
 1726      2186218C 
 1726      210C218C 
 1726      238C138C 
 1726      138C
 1727 0ddf 134C1358 		.ascii	"\023L\023X\022X\026X\0168\0168\0168\0160\014\020\004"
 1727      12581658 
 1727      0E380E38 
 1727      0E380E30 
 1727      0C1004
 1728 0df2 10041004 		.ascii	"\020\004\020\004\000\000\000\000\000\000\000\000\000"
 1728      00000000 
 1728      00000000 
 1728      00
 1729 0dff 00       		.ascii	"\000"
 1730 0e00 00000000 		.ascii	"\000\000\000\000\000\000\000\000\000\000\000\000~>\030"
 1730      00000000 
 1730      00000000 
 1730      7E3E18
 1731 0e0f 08380830 		.ascii	"\0108\0100\0040\004p\002`\002\340\001\300\001\300\001"
 1731      04300470 
 1731      026002E0 
 1731      01C001C0 
 1731      01
 1732 0e20 80018003 		.ascii	"\200\001\200\003@\003@\007 \006 \006\020\014\020\014"
 1732      40034007 
 1732      20062006 
 1732      100C100C 
ARM GAS  C:\Users\Dawn\AppData\Local\Temp\ccpPnLvM.s 			page 53


 1733 0e30 08180818 		.ascii	"\010\030\010\030>|\000\000\000\000\000\000\000\000\000"
 1733      3E7C0000 
 1733      00000000 
 1733      000000
 1734 0e3f 00       		.ascii	"\000"
 1735 0e40 00000000 		.ascii	"\000\000\000\000\000\000\000\000\000\000\000\000~|\034"
 1735      00000000 
 1735      00000000 
 1735      7E7C1C
 1736 0e4f 10181018 		.ascii	"\020\030\020\030\0100\0100\014p\004`\004`\002\300\002"
 1736      08300830 
 1736      0C700460 
 1736      046002C0 
 1736      02
 1737 0e60 C002C001 		.ascii	"\300\002\300\001\200\001\200\001\200\001\200\001\200"
 1737      80018001 
 1737      80018001 
 1737      80
 1738 0e6d 01800180 		.ascii	"\001\200\001\200\001\200\001\340\007\000\000\000\000"
 1738      018001E0 
 1738      07000000 
 1738      00
 1739 0e7a 00000000 		.ascii	"\000\000\000\000\000\000"
 1739      0000
 1740 0e80 00000000 		.ascii	"\000\000\000\000\000\000\000\000\000\000\000\000\370"
 1740      00000000 
 1740      00000000 
 1740      F8
 1741 0e8d 3F181808 		.ascii	"?\030\030\010\030\004\014\004\016\000\006\000\007\000"
 1741      18040C04 
 1741      0E000600 
 1741      0700
 1742 0e9b 03800380 		.ascii	"\003\200\003\200\001\300\001\300\000\340\000`\000p\000"
 1742      01C001C0 
 1742      00E00060 
 1742      007000
 1743 0eaa 30003820 		.ascii	"0\0008 \030 \034\020\014\030\376\037\000\000\000\000"
 1743      18201C10 
 1743      0C18FE1F 
 1743      00000000 
 1744 0eba 00000000 		.ascii	"\000\000\000\000\000\000"
 1744      0000
 1745 0ec0 00000000 		.ascii	"\000\000\000\000\000\000\300?@\000@\000@\000@\000@\000"
 1745      0000C03F 
 1745      40004000 
 1745      40004000 
 1745      4000
 1746 0ed2 40004000 		.ascii	"@\000@\000@\000@\000@\000@\000@\000@\000@\000@\000@"
 1746      40004000 
 1746      40004000 
 1746      40004000 
 1746      40004000 
 1747 0ee7 00400040 		.ascii	"\000@\000@\000@\000@\000@\000@\000@\000@\000@\000\300"
 1747      00400040 
 1747      00400040 
 1747      00400040 
 1747      004000C0 
ARM GAS  C:\Users\Dawn\AppData\Local\Temp\ccpPnLvM.s 			page 54


 1748 0efb 3F000000 		.ascii	"?\000\000\000\000"
 1748      00
 1749 0f00 00000000 		.ascii	"\000\000\000\000\000\000\000\000\000\000\010\000\030"
 1749      00000000 
 1749      00000800 
 1749      18
 1750 0f0d 00180010 		.ascii	"\000\030\000\020\0000\000 \000`\000`\000@\000\300\000"
 1750      00300020 
 1750      00600060 
 1750      004000C0 
 1750      00
 1751 0f1e 80008001 		.ascii	"\200\000\200\001\200\001\000\001\000\003\000\002\000"
 1751      80010001 
 1751      00030002 
 1751      00
 1752 0f2b 06000600 		.ascii	"\006\000\006\000\004\000\014\000\010\000\030\000\030"
 1752      04000C00 
 1752      08001800 
 1752      18
 1753 0f38 00100030 		.ascii	"\000\020\0000\000 \000\000"
 1753      00200000 
 1754 0f40 00000000 		.ascii	"\000\000\000\000\000\000\374\003\000\002\000\002\000"
 1754      0000FC03 
 1754      00020002 
 1754      00
 1755 0f4d 02000200 		.ascii	"\002\000\002\000\002\000\002\000\002\000\002\000\002"
 1755      02000200 
 1755      02000200 
 1755      02
 1756 0f5a 00020002 		.ascii	"\000\002\000\002\000\002\000\002\000\002\000\002\000"
 1756      00020002 
 1756      00020002 
 1756      00
 1757 0f67 02000200 		.ascii	"\002\000\002\000\002\000\002\000\002\000\002\000\002"
 1757      02000200 
 1757      02000200 
 1757      02
 1758 0f74 00020002 		.ascii	"\000\002\000\002\000\002\374\003\000\000\000\000"
 1758      0002FC03 
 1758      00000000 
 1759 0f80 00000000 		.ascii	"\000\000\000\000\000\000\200\007\300\006 \010\020\020"
 1759      00008007 
 1759      C0062008 
 1759      1010
 1760 0f8e 00000000 		.ascii	"\000\000\000\000\000\000\000\000\000\000\000\000\000"
 1760      00000000 
 1760      00000000 
 1760      00
 1761 0f9b 00000000 		.ascii	"\000\000\000\000\000\000\000\000\000\000\000\000\000"
 1761      00000000 
 1761      00000000 
 1761      00
 1762 0fa8 00000000 		.ascii	"\000\000\000\000\000\000\000\000\000\000\000\000\000"
 1762      00000000 
 1762      00000000 
 1762      00
 1763 0fb5 00000000 		.ascii	"\000\000\000\000\000\000\000\000\000\000\000"
ARM GAS  C:\Users\Dawn\AppData\Local\Temp\ccpPnLvM.s 			page 55


 1763      00000000 
 1763      000000
 1764 0fc0 00000000 		.ascii	"\000\000\000\000\000\000\000\000\000\000\000\000\000"
 1764      00000000 
 1764      00000000 
 1764      00
 1765 0fcd 00000000 		.ascii	"\000\000\000\000\000\000\000\000\000\000\000\000\000"
 1765      00000000 
 1765      00000000 
 1765      00
 1766 0fda 00000000 		.ascii	"\000\000\000\000\000\000\000\000\000\000\000\000\000"
 1766      00000000 
 1766      00000000 
 1766      00
 1767 0fe7 00000000 		.ascii	"\000\000\000\000\000\000\000\000\000\000\000\000\000"
 1767      00000000 
 1767      00000000 
 1767      00
 1768 0ff4 00000000 		.ascii	"\000\000\000\000\000\000\000\000\000\000\377\377"
 1768      00000000 
 1768      0000FFFF 
 1769 1000 00000000 		.ascii	"\000\000\000\000\000\000x\000\300\000\000\001\000\000"
 1769      00007800 
 1769      C0000001 
 1769      0000
 1770 100e 00000000 		.ascii	"\000\000\000\000\000\000\000\000\000\000\000\000\000"
 1770      00000000 
 1770      00000000 
 1770      00
 1771 101b 00000000 		.ascii	"\000\000\000\000\000\000\000\000\000\000\000\000\000"
 1771      00000000 
 1771      00000000 
 1771      00
 1772 1028 00000000 		.ascii	"\000\000\000\000\000\000\000\000\000\000\000\000\000"
 1772      00000000 
 1772      00000000 
 1772      00
 1773 1035 00000000 		.ascii	"\000\000\000\000\000\000\000\000\000\000\000"
 1773      00000000 
 1773      000000
 1774 1040 00000000 		.ascii	"\000\000\000\000\000\000\000\000\000\000\000\000\000"
 1774      00000000 
 1774      00000000 
 1774      00
 1775 104d 00000000 		.ascii	"\000\000\000\000\000\000\000\000\000\000\000\000\000"
 1775      00000000 
 1775      00000000 
 1775      00
 1776 105a F0031806 		.ascii	"\360\003\030\006\014\014\014\014\000\014\200\017p\014"
 1776      0C0C0C0C 
 1776      000C800F 
 1776      700C
 1777 1068 1C0C0C0C 		.ascii	"\034\014\014\014\006\014\006\014\006L\014O\3708\000"
 1777      060C060C 
 1777      064C0C4F 
 1777      F83800
 1778 1077 00000000 		.ascii	"\000\000\000\000\000\000\000\000\000"
ARM GAS  C:\Users\Dawn\AppData\Local\Temp\ccpPnLvM.s 			page 56


 1778      00000000 
 1778      00
 1779 1080 00000000 		.ascii	"\000\000\000\000\000\000\000\000\000\000\020\000\036"
 1779      00000000 
 1779      00001000 
 1779      1E
 1780 108d 00180018 		.ascii	"\000\030\000\030\000\030\000\030\000\030\000\030\000"
 1780      00180018 
 1780      00180018 
 1780      00
 1781 109a 180FD818 		.ascii	"\030\017\330\030808`\030`\030`\030`\030`\030`\030`\030"
 1781      38303860 
 1781      18601860 
 1781      18601860 
 1781      18601860 
 1782 10af 20383078 		.ascii	" 80x\030\310\007\000\000\000\000\000\000\000\000\000"
 1782      18C80700 
 1782      00000000 
 1782      00000000 
 1783 10bf 00       		.ascii	"\000"
 1784 10c0 00000000 		.ascii	"\000\000\000\000\000\000\000\000\000\000\000\000\000"
 1784      00000000 
 1784      00000000 
 1784      00
 1785 10cd 00000000 		.ascii	"\000\000\000\000\000\000\000\000\000\000\000\000\000"
 1785      00000000 
 1785      00000000 
 1785      00
 1786 10da C007700C 		.ascii	"\300\007p\014\030\030\030\030\014\030\014\000\014\000"
 1786      18181818 
 1786      0C180C00 
 1786      0C00
 1787 10e8 0C000C00 		.ascii	"\014\000\014\000\014 \030 \030\0200\010\300\007\000"
 1787      0C201820 
 1787      18103008 
 1787      C00700
 1788 10f7 00000000 		.ascii	"\000\000\000\000\000\000\000\000\000"
 1788      00000000 
 1788      00
 1789 1100 00000000 		.ascii	"\000\000\000\000\000\000\000\000\000\000\000\020\000"
 1789      00000000 
 1789      00000010 
 1789      00
 1790 110d 1E001800 		.ascii	"\036\000\030\000\030\000\030\000\030\000\030\000\030"
 1790      18001800 
 1790      18001800 
 1790      18
 1791 111a E01B301C 		.ascii	"\340\0330\034\030\030\030\030\014\030\014\030\014\030"
 1791      18181818 
 1791      0C180C18 
 1791      0C18
 1792 1128 0C180C18 		.ascii	"\014\030\014\030\014\030\010\030\030\0340z\340\011\000"
 1792      0C180818 
 1792      181C307A 
 1792      E00900
 1793 1137 00000000 		.ascii	"\000\000\000\000\000\000\000\000\000"
 1793      00000000 
ARM GAS  C:\Users\Dawn\AppData\Local\Temp\ccpPnLvM.s 			page 57


 1793      00
 1794 1140 00000000 		.ascii	"\000\000\000\000\000\000\000\000\000\000\000\000\000"
 1794      00000000 
 1794      00000000 
 1794      00
 1795 114d 00000000 		.ascii	"\000\000\000\000\000\000\000\000\000\000\000\000\000"
 1795      00000000 
 1795      00000000 
 1795      00
 1796 115a C007300C 		.ascii	"\300\0070\014\030\030\010\020\0140\0140\374?\014\000"
 1796      18180810 
 1796      0C300C30 
 1796      FC3F0C00 
 1797 116a 0C000C00 		.ascii	"\014\000\014\000\030 \030\020p\030\300\007\000\000\000"
 1797      18201810 
 1797      7018C007 
 1797      000000
 1798 1179 00000000 		.ascii	"\000\000\000\000\000\000\000"
 1798      000000
 1799 1180 00000000 		.ascii	"\000\000\000\000\000\000\000\000\000\000\000\000\000"
 1799      00000000 
 1799      00000000 
 1799      00
 1800 118d 3E80C380 		.ascii	">\200\303\200\300\300\300\300\000\300\000\300\000\374"
 1800      C0C0C0C0 
 1800      00C000C0 
 1800      00FC
 1801 119b 1FC000C0 		.ascii	"\037\300\000\300\000\300\000\300\000\300\000\300\000"
 1801      00C000C0 
 1801      00C000C0 
 1801      00
 1802 11a8 C000C000 		.ascii	"\300\000\300\000\300\000\300\000\300\000\300\000\370"
 1802      C000C000 
 1802      C000C000 
 1802      F8
 1803 11b5 0F000000 		.ascii	"\017\000\000\000\000\000\000\000\000\000\000"
 1803      00000000 
 1803      000000
 1804 11c0 00000000 		.ascii	"\000\000\000\000\000\000\000\000\000\000\000\000\000"
 1804      00000000 
 1804      00000000 
 1804      00
 1805 11cd 00000000 		.ascii	"\000\000\000\000\000\000\000\000\000\000\000\000\000"
 1805      00000000 
 1805      00000000 
 1805      00
 1806 11da C077306C 		.ascii	"\300w0l\020\030\030\030\030\030\030\030\020\0300\014"
 1806      10181818 
 1806      18181818 
 1806      1018300C 
 1807 11ea F0071800 		.ascii	"\360\007\030\000\030\000\360\017\360?\010p\014`\014"
 1807      1800F00F 
 1807      F03F0870 
 1807      0C600C
 1808 11f9 600C6038 		.ascii	"`\014`88\340\017"
 1808      38E00F
 1809 1200 00000000 		.ascii	"\000\000\000\000\000\000\000\000\000\000\020\000\036"
ARM GAS  C:\Users\Dawn\AppData\Local\Temp\ccpPnLvM.s 			page 58


 1809      00000000 
 1809      00001000 
 1809      1E
 1810 120d 00180018 		.ascii	"\000\030\000\030\000\030\000\030\000\030\000\030\000"
 1810      00180018 
 1810      00180018 
 1810      00
 1811 121a 980FD818 		.ascii	"\230\017\330\03080\0300\0300\0300\0300\0300\0300\030"
 1811      38301830 
 1811      18301830 
 1811      18301830 
 1811      183018
 1812 122d 30183018 		.ascii	"0\0300\0300\0300~\374\000\000\000\000\000\000\000\000"
 1812      3018307E 
 1812      FC000000 
 1812      00000000 
 1812      00
 1813 123e 0000     		.ascii	"\000\000"
 1814 1240 00000000 		.ascii	"\000\000\000\000\000\000\000\000\000\000\000\000\200"
 1814      00000000 
 1814      00000000 
 1814      80
 1815 124d 03800380 		.ascii	"\003\200\003\200\003\000\000\000\000\000\000\000\001"
 1815      03000000 
 1815      00000000 
 1815      01
 1816 125a F8018001 		.ascii	"\370\001\200\001\200\001\200\001\200\001\200\001\200"
 1816      80018001 
 1816      80018001 
 1816      80
 1817 1267 01800180 		.ascii	"\001\200\001\200\001\200\001\200\001\200\001\200\001"
 1817      01800180 
 1817      01800180 
 1817      01
 1818 1274 F81F0000 		.ascii	"\370\037\000\000\000\000\000\000\000\000\000\000"
 1818      00000000 
 1818      00000000 
 1819 1280 00000000 		.ascii	"\000\000\000\000\000\000\000\000\000\000\000\000\000"
 1819      00000000 
 1819      00000000 
 1819      00
 1820 128d 38003800 		.ascii	"8\0008\0008\000\000\000\000\000\000\000\020\200\037"
 1820      38000000 
 1820      00000000 
 1820      10801F
 1821 129c 00180018 		.ascii	"\000\030\000\030\000\030\000\030\000\030\000\030\000"
 1821      00180018 
 1821      00180018 
 1821      00
 1822 12a9 18001800 		.ascii	"\030\000\030\000\030\000\030\000\030\000\030\000\030"
 1822      18001800 
 1822      18001800 
 1822      18
 1823 12b6 00180018 		.ascii	"\000\030\000\030\030\014\030\006\360\003"
 1823      180C1806 
 1823      F003
 1824 12c0 00000000 		.ascii	"\000\000\000\000\000\000\000\000\000\000\020\000\036"
ARM GAS  C:\Users\Dawn\AppData\Local\Temp\ccpPnLvM.s 			page 59


 1824      00000000 
 1824      00001000 
 1824      1E
 1825 12cd 00180018 		.ascii	"\000\030\000\030\000\030\000\030\000\030\000\030\000"
 1825      00180018 
 1825      00180018 
 1825      00
 1826 12da 183E180C 		.ascii	"\030>\030\014\030\006\030\003\030\001\230\001\330\001"
 1826      18061803 
 1826      18019801 
 1826      D801
 1827 12e8 38031807 		.ascii	"8\003\030\007\030\006\030\014\030\034\030\030~|\000"
 1827      1806180C 
 1827      181C1818 
 1827      7E7C00
 1828 12f7 00000000 		.ascii	"\000\000\000\000\000\000\000\000\000"
 1828      00000000 
 1828      00
 1829 1300 00000000 		.ascii	"\000\000\000\000\000\000\000\000\000\000\000\001\370"
 1829      00000000 
 1829      00000001 
 1829      F8
 1830 130d 01800180 		.ascii	"\001\200\001\200\001\200\001\200\001\200\001\200\001"
 1830      01800180 
 1830      01800180 
 1830      01
 1831 131a 80018001 		.ascii	"\200\001\200\001\200\001\200\001\200\001\200\001\200"
 1831      80018001 
 1831      80018001 
 1831      80
 1832 1327 01800180 		.ascii	"\001\200\001\200\001\200\001\200\001\200\001\200\001"
 1832      01800180 
 1832      01800180 
 1832      01
 1833 1334 F81F0000 		.ascii	"\370\037\000\000\000\000\000\000\000\000\000\000"
 1833      00000000 
 1833      00000000 
 1834 1340 00000000 		.ascii	"\000\000\000\000\000\000\000\000\000\000\000\000\000"
 1834      00000000 
 1834      00000000 
 1834      00
 1835 134d 00000000 		.ascii	"\000\000\000\000\000\000\000\000\000\000\000\010\000"
 1835      00000000 
 1835      00000008 
 1835      00
 1836 135a EE1C9C33 		.ascii	"\356\034\2343\2141\2141\2141\2141\2141\2141\2141\214"
 1836      8C318C31 
 1836      8C318C31 
 1836      8C318C31 
 1836      8C318C
 1837 136d 318C318C 		.ascii	"1\2141\2141\2141\336{\000\000\000\000\000\000\000\000"
 1837      318C31DE 
 1837      7B000000 
 1837      00000000 
 1837      00
 1838 137e 0000     		.ascii	"\000\000"
 1839 1380 00000000 		.ascii	"\000\000\000\000\000\000\000\000\000\000\000\000\000"
ARM GAS  C:\Users\Dawn\AppData\Local\Temp\ccpPnLvM.s 			page 60


 1839      00000000 
 1839      00000000 
 1839      00
 1840 138d 00000000 		.ascii	"\000\000\000\000\000\000\000\000\000\000\000\020\000"
 1840      00000000 
 1840      00000010 
 1840      00
 1841 139a 1E0FD818 		.ascii	"\036\017\330\03080\0300\0300\0300\0300\0300\0300\030"
 1841      38301830 
 1841      18301830 
 1841      18301830 
 1841      183018
 1842 13ad 30183018 		.ascii	"0\0300\0300\0300~\374\000\000\000\000\000\000\000\000"
 1842      3018307E 
 1842      FC000000 
 1842      00000000 
 1842      00
 1843 13be 0000     		.ascii	"\000\000"
 1844 13c0 00000000 		.ascii	"\000\000\000\000\000\000\000\000\000\000\000\000\000"
 1844      00000000 
 1844      00000000 
 1844      00
 1845 13cd 00000000 		.ascii	"\000\000\000\000\000\000\000\000\000\000\000\000\000"
 1845      00000000 
 1845      00000000 
 1845      00
 1846 13da C007701C 		.ascii	"\300\007p\034\0200\0300\014`\014`\014`\014`\014`\014"
 1846      10301830 
 1846      0C600C60 
 1846      0C600C60 
 1846      0C600C
 1847 13ed 60183018 		.ascii	"`\0300\03000\030\300\007\000\000\000\000\000\000\000"
 1847      303018C0 
 1847      07000000 
 1847      00000000 
 1848 13fd 000000   		.ascii	"\000\000\000"
 1849 1400 00000000 		.ascii	"\000\000\000\000\000\000\000\000\000\000\000\000\000"
 1849      00000000 
 1849      00000000 
 1849      00
 1850 140d 00000000 		.ascii	"\000\000\000\000\000\000\000\000\000\000\000\020\000"
 1850      00000000 
 1850      00000010 
 1850      00
 1851 141a 9E0F5818 		.ascii	"\236\017X\03080\030 \030`\030`\030`\030`\030`\030`\030"
 1851      38301820 
 1851      18601860 
 1851      18601860 
 1851      18601860 
 1852 142f 30383078 		.ascii	"080x\030\230\007\030\000\030\000\030\000\030\000~\000"
 1852      18980718 
 1852      00180018 
 1852      0018007E 
 1852      00
 1853 1440 00000000 		.ascii	"\000\000\000\000\000\000\000\000\000\000\000\000\000"
 1853      00000000 
 1853      00000000 
ARM GAS  C:\Users\Dawn\AppData\Local\Temp\ccpPnLvM.s 			page 61


 1853      00
 1854 144d 00000000 		.ascii	"\000\000\000\000\000\000\000\000\000\000\000\000\000"
 1854      00000000 
 1854      00000000 
 1854      00
 1855 145a C023303C 		.ascii	"\300#0<\0308\0300\0140\0140\0140\0140\0140\0140\010"
 1855      18381830 
 1855      0C300C30 
 1855      0C300C30 
 1855      0C300C30 
 1856 146f 30183830 		.ascii	"0\03080<\3403\0000\0000\0000\0000\000\374"
 1856      3CE03300 
 1856      30003000 
 1856      30003000 
 1856      FC
 1857 1480 00000000 		.ascii	"\000\000\000\000\000\000\000\000\000\000\000\000\000"
 1857      00000000 
 1857      00000000 
 1857      00
 1858 148d 00000000 		.ascii	"\000\000\000\000\000\000\000\000\000\000\000`\000~<"
 1858      00000000 
 1858      00000060 
 1858      007E3C
 1859 149c 60666061 		.ascii	"`f`a\340\000\340\000`\000`\000`\000`\000`\000`\000`"
 1859      E000E000 
 1859      60006000 
 1859      60006000 
 1859      60006000 
 1860 14b1 006000FE 		.ascii	"\000`\000\376\007\000\000\000\000\000\000\000\000\000"
 1860      07000000 
 1860      00000000 
 1860      0000
 1861 14bf 00       		.ascii	"\000"
 1862 14c0 00000000 		.ascii	"\000\000\000\000\000\000\000\000\000\000\000\000\000"
 1862      00000000 
 1862      00000000 
 1862      00
 1863 14cd 00000000 		.ascii	"\000\000\000\000\000\000\000\000\000\000\000\000\000"
 1863      00000000 
 1863      00000000 
 1863      00
 1864 14da E0273038 		.ascii	"\340'08\0300\030 \030\000p\000\340\003\200\017\000\034"
 1864      18301820 
 1864      18007000 
 1864      E003800F 
 1864      001C
 1865 14ec 04300430 		.ascii	"\0040\0040\0140\034\030\354\017\000\000\000\000\000"
 1865      0C301C18 
 1865      EC0F0000 
 1865      000000
 1866 14fb 00000000 		.ascii	"\000\000\000\000\000"
 1866      00
 1867 1500 00000000 		.ascii	"\000\000\000\000\000\000\000\000\000\000\000\000\000"
 1867      00000000 
 1867      00000000 
 1867      00
 1868 150d 00000080 		.ascii	"\000\000\000\200\000\200\000\200\000\300\000\340\000"
ARM GAS  C:\Users\Dawn\AppData\Local\Temp\ccpPnLvM.s 			page 62


 1868      00800080 
 1868      00C000E0 
 1868      00
 1869 151a FC1FC000 		.ascii	"\374\037\300\000\300\000\300\000\300\000\300\000\300"
 1869      C000C000 
 1869      C000C000 
 1869      C0
 1870 1527 00C000C0 		.ascii	"\000\300\000\300\000\300\000\300 \300 \200\021\000\017"
 1870      00C000C0 
 1870      20C02080 
 1870      11000F
 1871 1536 00000000 		.ascii	"\000\000\000\000\000\000\000\000\000\000"
 1871      00000000 
 1871      0000
 1872 1540 00000000 		.ascii	"\000\000\000\000\000\000\000\000\000\000\000\000\000"
 1872      00000000 
 1872      00000000 
 1872      00
 1873 154d 00000000 		.ascii	"\000\000\000\000\000\000\000\000\000\000\000\020 \036"
 1873      00000000 
 1873      00000010 
 1873      201E
 1874 155b 3C183018 		.ascii	"<\0300\0300\0300\0300\0300\0300\0300\0300\0300\0300"
 1874      30183018 
 1874      30183018 
 1874      30183018 
 1874      30183018 
 1875 1570 183830F4 		.ascii	"\03080\364\340\023\000\000\000\000\000\000\000\000\000"
 1875      E0130000 
 1875      00000000 
 1875      000000
 1876 157f 00       		.ascii	"\000"
 1877 1580 00000000 		.ascii	"\000\000\000\000\000\000\000\000\000\000\000\000\000"
 1877      00000000 
 1877      00000000 
 1877      00
 1878 158d 00000000 		.ascii	"\000\000\000\000\000\000\000\000\000\000\000\000\000"
 1878      00000000 
 1878      00000000 
 1878      00
 1879 159a 7E3C1818 		.ascii	"~<\030\030\030\0108\0100\0040\004p\002`\002`\002\340"
 1879      18083808 
 1879      30043004 
 1879      70026002 
 1879      6002E0
 1880 15ad 01C001C0 		.ascii	"\001\300\001\300\001\300\000\200\000\000\000\000\000"
 1880      01C00080 
 1880      00000000 
 1880      00
 1881 15ba 00000000 		.ascii	"\000\000\000\000\000\000"
 1881      0000
 1882 15c0 00000000 		.ascii	"\000\000\000\000\000\000\000\000\000\000\000\000\000"
 1882      00000000 
 1882      00000000 
 1882      00
 1883 15cd 00000000 		.ascii	"\000\000\000\000\000\000\000\000\000\000\000\000\000"
 1883      00000000 
ARM GAS  C:\Users\Dawn\AppData\Local\Temp\ccpPnLvM.s 			page 63


 1883      00000000 
 1883      00
 1884 15da DFF78E63 		.ascii	"\337\367\216c\014#\214#\214#\230\023\230\023X\026X\026"
 1884      0C238C23 
 1884      8C239813 
 1884      98135816 
 1884      5816
 1885 15ec 700E700E 		.ascii	"p\016p\016p\016 \004 \004\000\000\000\000\000\000\000"
 1885      700E2004 
 1885      20040000 
 1885      00000000 
 1885      00
 1886 15fd 000000   		.ascii	"\000\000\000"
 1887 1600 00000000 		.ascii	"\000\000\000\000\000\000\000\000\000\000\000\000\000"
 1887      00000000 
 1887      00000000 
 1887      00
 1888 160d 00000000 		.ascii	"\000\000\000\000\000\000\000\000\000\000\000\000\000"
 1888      00000000 
 1888      00000000 
 1888      00
 1889 161a FC3E7008 		.ascii	"\374>p\010p\004\340\004\300\002\300\001\200\003\200"
 1889      7004E004 
 1889      C002C001 
 1889      800380
 1890 1629 03400760 		.ascii	"\003@\007`\006 \014\020\014\030\030>~\000\000\000\000"
 1890      06200C10 
 1890      0C18183E 
 1890      7E000000 
 1890      00
 1891 163a 00000000 		.ascii	"\000\000\000\000\000\000"
 1891      0000
 1892 1640 00000000 		.ascii	"\000\000\000\000\000\000\000\000\000\000\000\000\000"
 1892      00000000 
 1892      00000000 
 1892      00
 1893 164d 00000000 		.ascii	"\000\000\000\000\000\000\000\000\000\000\000\000\000"
 1893      00000000 
 1893      00000000 
 1893      00
 1894 165a 7E7C1818 		.ascii	"~|\030\030\030\0100\0100\0100\004`\004`\004\300\002"
 1894      18083008 
 1894      30083004 
 1894      60046004 
 1894      C002
 1895 166c C002C002 		.ascii	"\300\002\300\002\200\001\200\001\200\001\200\000\200"
 1895      80018001 
 1895      80018000 
 1895      80
 1896 1679 0080004C 		.ascii	"\000\200\000L\000<\000"
 1896      003C00
 1897 1680 00000000 		.ascii	"\000\000\000\000\000\000\000\000\000\000\000\000\000"
 1897      00000000 
 1897      00000000 
 1897      00
 1898 168d 00000000 		.ascii	"\000\000\000\000\000\000\000\000\000\000\000\000\000"
 1898      00000000 
ARM GAS  C:\Users\Dawn\AppData\Local\Temp\ccpPnLvM.s 			page 64


 1898      00000000 
 1898      00
 1899 169a FC1F0C0C 		.ascii	"\374\037\014\014\004\016\004\006\000\003\200\003\200"
 1899      040E0406 
 1899      00038003 
 1899      80
 1900 16a7 01C000E0 		.ascii	"\001\300\000\340\000p 0 80\034\030\374\037\000\000\000"
 1900      00702030 
 1900      2038301C 
 1900      18FC1F00 
 1900      0000
 1901 16b9 00000000 		.ascii	"\000\000\000\000\000\000\000"
 1901      000000
 1902 16c0 00000000 		.ascii	"\000\000\000\000\000\000\0000\000\010\000\004\000\004"
 1902      00000030 
 1902      00080004 
 1902      0004
 1903 16ce 00040004 		.ascii	"\000\004\000\004\000\004\000\004\000\004\000\004\000"
 1903      00040004 
 1903      00040004 
 1903      00
 1904 16db 04000400 		.ascii	"\004\000\004\000\002\200\001\000\002\000\004\000\004"
 1904      02800100 
 1904      02000400 
 1904      04
 1905 16e8 00040004 		.ascii	"\000\004\000\004\000\004\000\004\000\004\000\004\000"
 1905      00040004 
 1905      00040004 
 1905      00
 1906 16f5 04000400 		.ascii	"\004\000\004\000\004\000\010\0000\000\000"
 1906      04000800 
 1906      300000
 1907 1700 00010001 		.ascii	"\000\001\000\001\000\001\000\001\000\001\000\001\000"
 1907      00010001 
 1907      00010001 
 1907      00
 1908 170d 01000100 		.ascii	"\001\000\001\000\001\000\001\000\001\000\001\000\001"
 1908      01000100 
 1908      01000100 
 1908      01
 1909 171a 00010001 		.ascii	"\000\001\000\001\000\001\000\001\000\001\000\001\000"
 1909      00010001 
 1909      00010001 
 1909      00
 1910 1727 01000100 		.ascii	"\001\000\001\000\001\000\001\000\001\000\001\000\001"
 1910      01000100 
 1910      01000100 
 1910      01
 1911 1734 00010001 		.ascii	"\000\001\000\001\000\001\000\001\000\001\000\001"
 1911      00010001 
 1911      00010001 
 1912 1740 00000000 		.ascii	"\000\000\000\000\000\000\014\000\020\000 \000 \000 "
 1912      00000C00 
 1912      10002000 
 1912      200020
 1913 174f 00200020 		.ascii	"\000 \000 \000 \000 \000 \000 \000 \000@\000\200\001"
 1913      00200020 
ARM GAS  C:\Users\Dawn\AppData\Local\Temp\ccpPnLvM.s 			page 65


 1913      00200020 
 1913      00200040 
 1913      008001
 1914 1762 40002000 		.ascii	"@\000 \000 \000 \000 \000 \000 \000 \000 \000 \000 "
 1914      20002000 
 1914      20002000 
 1914      20002000 
 1914      20002000 
 1915 1777 00200010 		.ascii	"\000 \000\020\000\014\000\000\000"
 1915      000C0000 
 1915      00
 1916 1780 00003800 		.ascii	"\000\0008\000\304\000\206@\002a\000\"\000\034\000\000"
 1916      C4008640 
 1916      02610022 
 1916      001C0000 
 1917 1790 00000000 		.ascii	"\000\000\000\000\000\000\000\000\000\000\000\000\000"
 1917      00000000 
 1917      00000000 
 1917      00
 1918 179d 00000000 		.ascii	"\000\000\000\000\000\000\000\000\000\000\000\000\000"
 1918      00000000 
 1918      00000000 
 1918      00
 1919 17aa 00000000 		.ascii	"\000\000\000\000\000\000\000\000\000\000\000\000\000"
 1919      00000000 
 1919      00000000 
 1919      00
 1920 17b7 00000000 		.ascii	"\000\000\000\000\000\000\000\000\000"
 1920      00000000 
 1920      00
 1921              		.global	ascii_2412
 1922              		.section	.rodata.ascii_2412,"a"
 1925              	ascii_2412:
 1926 0000 00000000 		.ascii	"\000\000\000\000\000\000\000\000\000\000\000\000\000"
 1926      00000000 
 1926      00000000 
 1926      00
 1927 000d 00000000 		.ascii	"\000\000\000\000\000\000\000\000\000\000\000\000\000"
 1927      00000000 
 1927      00000000 
 1927      00
 1928 001a 00000000 		.ascii	"\000\000\000\000\000\000\000\000\000\000\000\000\000"
 1928      00000000 
 1928      00000000 
 1928      00
 1929 0027 00000000 		.ascii	"\000\000\000\000\000\000\000\000\000"
 1929      00000000 
 1929      00
 1930 0030 00000000 		.ascii	"\000\000\000\000\000\000\000\000`\000`\000`\000`\000"
 1930      00000000 
 1930      60006000 
 1930      60006000 
 1931 0040 60006000 		.ascii	"`\000`\000`\000@\000 \000 \000 \000\000\000\000\000"
 1931      60004000 
 1931      20002000 
 1931      20000000 
 1931      0000
ARM GAS  C:\Users\Dawn\AppData\Local\Temp\ccpPnLvM.s 			page 66


 1932 0052 00006000 		.ascii	"\000\000`\000`\000`\000\000\000\000\000\000\000"
 1932      60006000 
 1932      00000000 
 1932      0000
 1933 0060 00000000 		.ascii	"\000\000\000\000`\006`\0060\003\230\001\210\000D\000"
 1933      60066006 
 1933      30039801 
 1933      88004400 
 1934 0070 00000000 		.ascii	"\000\000\000\000\000\000\000\000\000\000\000\000\000"
 1934      00000000 
 1934      00000000 
 1934      00
 1935 007d 00000000 		.ascii	"\000\000\000\000\000\000\000\000\000\000\000\000\000"
 1935      00000000 
 1935      00000000 
 1935      00
 1936 008a 00000000 		.ascii	"\000\000\000\000\000\000"
 1936      0000
 1937 0090 00000000 		.ascii	"\000\000\000\000\000\000\000\000\020\002\020\002\020"
 1937      00000000 
 1937      10021002 
 1937      10
 1938 009d 021002FE 		.ascii	"\002\020\002\376\007\376\007\010\002\010\001\010\001"
 1938      07FE0708 
 1938      02080108 
 1938      01
 1939 00aa 08010801 		.ascii	"\010\001\010\001\376\007\376\007\004\001\004\001\004"
 1939      FE07FE07 
 1939      04010401 
 1939      04
 1940 00b7 01040100 		.ascii	"\001\004\001\000\000\000\000\000\000"
 1940      00000000 
 1940      00
 1941 00c0 00000000 		.ascii	"\000\000\000\000\000\000@\000@\000\360\001X\003L\003"
 1941      00004000 
 1941      4000F001 
 1941      58034C03 
 1942 00d0 CC034C00 		.ascii	"\314\003L\000X\000p\000\340\000\300\001\300\001@\003"
 1942      58007000 
 1942      E000C001 
 1942      C0014003 
 1943 00e0 4C035C03 		.ascii	"L\003\\\003L\003H\001\360\000@\000@\000\000\000"
 1943      4C034801 
 1943      F0004000 
 1943      40000000 
 1944 00f0 00000000 		.ascii	"\000\000\000\000\000\000\000\000\016\001\012\001\221"
 1944      00000000 
 1944      0E010A01 
 1944      91
 1945 00fd 00910091 		.ascii	"\000\221\000\221\000Q\000Q\000:\000\256\003\240\002"
 1945      00510051 
 1945      003A00AE 
 1945      03A002
 1946 010c 50045004 		.ascii	"P\004P\004H\004H\004H\004\204\002\204\003\000\000\000"
 1946      48044804 
 1946      48048402 
 1946      84030000 
ARM GAS  C:\Users\Dawn\AppData\Local\Temp\ccpPnLvM.s 			page 67


 1946      00
 1947 011d 000000   		.ascii	"\000\000\000"
 1948 0120 00000000 		.ascii	"\000\000\000\000\000\000\000\0008\000l\000l\000l\000"
 1948      00000000 
 1948      38006C00 
 1948      6C006C00 
 1949 0130 6C006C00 		.ascii	"l\000l\000,\000\230\007\034\001\032\0013\0013\001c\001"
 1949      2C009807 
 1949      1C011A01 
 1949      33013301 
 1949      6301
 1950 0142 E300C308 		.ascii	"\343\000\303\010\306\011<\007\000\000\000\000\000\000"
 1950      C6093C07 
 1950      00000000 
 1950      0000
 1951 0150 00000000 		.ascii	"\000\000\000\000\014\000\034\000\020\000\020\000\010"
 1951      0C001C00 
 1951      10001000 
 1951      08
 1952 015d 00040000 		.ascii	"\000\004\000\000\000\000\000\000\000\000\000\000\000"
 1952      00000000 
 1952      00000000 
 1952      00
 1953 016a 00000000 		.ascii	"\000\000\000\000\000\000\000\000\000\000\000\000\000"
 1953      00000000 
 1953      00000000 
 1953      00
 1954 0177 00000000 		.ascii	"\000\000\000\000\000\000\000\000\000"
 1954      00000000 
 1954      00
 1955 0180 00000000 		.ascii	"\000\000\000\000\000\004\000\002\000\001\200\000\200"
 1955      00040002 
 1955      00018000 
 1955      80
 1956 018d 00400040 		.ascii	"\000@\000@\000 \000 \000 \000 \000 \000 \000 \000@\000"
 1956      00200020 
 1956      00200020 
 1956      00200020 
 1956      00200040 
 1957 01a2 40008000 		.ascii	"@\000\200\000\200\000\000\001\000\002\000\004\000\000"
 1957      80000001 
 1957      00020004 
 1957      0000
 1958 01b0 00000000 		.ascii	"\000\000\000\000\002\000\004\000\010\000\020\000\020"
 1958      02000400 
 1958      08001000 
 1958      10
 1959 01bd 00200020 		.ascii	"\000 \000 \000@\000@\000@\000@\000@\000@\000@\000 \000"
 1959      00400040 
 1959      00400040 
 1959      00400040 
 1959      00400020 
 1960 01d2 20001000 		.ascii	" \000\020\000\020\000\010\000\004\000\002\000\000\000"
 1960      10000800 
 1960      04000200 
 1960      0000
 1961 01e0 00000000 		.ascii	"\000\000\000\000\000\000\000\000\000\000\000\000@\000"
ARM GAS  C:\Users\Dawn\AppData\Local\Temp\ccpPnLvM.s 			page 68


 1961      00000000 
 1961      00000000 
 1961      4000
 1962 01ee C0004000 		.ascii	"\300\000@\000F\014N\017\320\001\360\001^\017F\014@\000"
 1962      460C4E0F 
 1962      D001F001 
 1962      5E0F460C 
 1962      4000
 1963 0200 40004000 		.ascii	"@\000@\000\000\000\000\000\000\000\000\000\000\000\000"
 1963      00000000 
 1963      00000000 
 1963      000000
 1964 020f 00       		.ascii	"\000"
 1965 0210 00000000 		.ascii	"\000\000\000\000\000\000\000\000\000\000\000\000\000"
 1965      00000000 
 1965      00000000 
 1965      00
 1966 021d 00400040 		.ascii	"\000@\000@\000@\000@\000@\000\376\017@\000@\000@\000"
 1966      00400040 
 1966      004000FE 
 1966      0F400040 
 1966      004000
 1967 0230 40004000 		.ascii	"@\000@\000\000\000\000\000\000\000\000\000\000\000\000"
 1967      00000000 
 1967      00000000 
 1967      000000
 1968 023f 00       		.ascii	"\000"
 1969 0240 00000000 		.ascii	"\000\000\000\000\000\000\000\000\000\000\000\000\000"
 1969      00000000 
 1969      00000000 
 1969      00
 1970 024d 00000000 		.ascii	"\000\000\000\000\000\000\000\000\000\000\000\000\000"
 1970      00000000 
 1970      00000000 
 1970      00
 1971 025a 00000000 		.ascii	"\000\000\000\000\000\000\000\000\000\000\014\000\034"
 1971      00000000 
 1971      00000C00 
 1971      1C
 1972 0267 00100010 		.ascii	"\000\020\000\020\000\010\000\004\000"
 1972      00080004 
 1972      00
 1973 0270 00000000 		.ascii	"\000\000\000\000\000\000\000\000\000\000\000\000\000"
 1973      00000000 
 1973      00000000 
 1973      00
 1974 027d 00000000 		.ascii	"\000\000\000\000\000\000\000\000\000\000\000\376\007"
 1974      00000000 
 1974      000000FE 
 1974      07
 1975 028a 00000000 		.ascii	"\000\000\000\000\000\000\000\000\000\000\000\000\000"
 1975      00000000 
 1975      00000000 
 1975      00
 1976 0297 00000000 		.ascii	"\000\000\000\000\000\000\000\000\000"
 1976      00000000 
 1976      00
ARM GAS  C:\Users\Dawn\AppData\Local\Temp\ccpPnLvM.s 			page 69


 1977 02a0 00000000 		.ascii	"\000\000\000\000\000\000\000\000\000\000\000\000\000"
 1977      00000000 
 1977      00000000 
 1977      00
 1978 02ad 00000000 		.ascii	"\000\000\000\000\000\000\000\000\000\000\000\000\000"
 1978      00000000 
 1978      00000000 
 1978      00
 1979 02ba 00000000 		.ascii	"\000\000\000\000\000\000\000\000\000\000\034\000\034"
 1979      00000000 
 1979      00001C00 
 1979      1C
 1980 02c7 001C0000 		.ascii	"\000\034\000\000\000\000\000\000\000"
 1980      00000000 
 1980      00
 1981 02d0 00000000 		.ascii	"\000\000\000\000\000\004\000\006\000\002\000\003\000"
 1981      00040006 
 1981      00020003 
 1981      00
 1982 02dd 01000180 		.ascii	"\001\000\001\200\000\200\000@\000@\000`\000 \000 \000"
 1982      00800040 
 1982      00400060 
 1982      00200020 
 1982      00
 1983 02ee 10001000 		.ascii	"\020\000\020\000\010\000\010\000\014\000\004\000\006"
 1983      08000800 
 1983      0C000400 
 1983      06
 1984 02fb 00020000 		.ascii	"\000\002\000\000\000"
 1984      00
 1985 0300 00000000 		.ascii	"\000\000\000\000\000\000\000\000\000\000\360\000\230"
 1985      00000000 
 1985      0000F000 
 1985      98
 1986 030d 010C030C 		.ascii	"\001\014\003\014\003\006\006\006\006\006\006\006\006"
 1986      03060606 
 1986      06060606 
 1986      06
 1987 031a 06060606 		.ascii	"\006\006\006\006\006\006\006\006\014\003\014\003\230"
 1987      06060606 
 1987      0C030C03 
 1987      98
 1988 0327 01F00000 		.ascii	"\001\360\000\000\000\000\000\000\000"
 1988      00000000 
 1988      00
 1989 0330 00000000 		.ascii	"\000\000\000\000\000\000\000\000\000\000@\000|\000`"
 1989      00000000 
 1989      00004000 
 1989      7C0060
 1990 033f 00600060 		.ascii	"\000`\000`\000`\000`\000`\000`\000`\000`\000`\000`\000"
 1990      00600060 
 1990      00600060 
 1990      00600060 
 1990      00600060 
 1991 0354 60006000 		.ascii	"`\000`\000\374\003\000\000\000\000\000\000"
 1991      FC030000 
 1991      00000000 
ARM GAS  C:\Users\Dawn\AppData\Local\Temp\ccpPnLvM.s 			page 70


 1992 0360 00000000 		.ascii	"\000\000\000\000\000\000\000\000\000\000\370\000\204"
 1992      00000000 
 1992      0000F800 
 1992      84
 1993 036d 01020306 		.ascii	"\001\002\003\006\003\006\003\000\003\000\001\200\001"
 1993      03060300 
 1993      03000180 
 1993      01
 1994 037a C0006000 		.ascii	"\300\000`\000 \000\020\000\010\002\004\002\006\002\376"
 1994      20001000 
 1994      08020402 
 1994      0602FE
 1995 0389 03000000 		.ascii	"\003\000\000\000\000\000\000"
 1995      000000
 1996 0390 00000000 		.ascii	"\000\000\000\000\000\000\000\000\000\000x\000\306\000"
 1996      00000000 
 1996      00007800 
 1996      C600
 1997 039e 86018601 		.ascii	"\206\001\206\001\200\001\200\001\300\000p\000\200\001"
 1997      80018001 
 1997      C0007000 
 1997      8001
 1998 03ac 00010003 		.ascii	"\000\001\000\003\000\003\006\003\006\003\206\001\370"
 1998      00030603 
 1998      06038601 
 1998      F8
 1999 03b9 00000000 		.ascii	"\000\000\000\000\000\000\000"
 1999      000000
 2000 03c0 00000000 		.ascii	"\000\000\000\000\000\000\000\000\000\000\200\001\200"
 2000      00000000 
 2000      00008001 
 2000      80
 2001 03cd 01C001A0 		.ascii	"\001\300\001\240\001\240\001\220\001\210\001\210\001"
 2001      01A00190 
 2001      01880188 
 2001      01
 2002 03da 84018201 		.ascii	"\204\001\202\001\376\017\200\001\200\001\200\001\200"
 2002      FE0F8001 
 2002      80018001 
 2002      80
 2003 03e7 01E00700 		.ascii	"\001\340\007\000\000\000\000\000\000"
 2003      00000000 
 2003      00
 2004 03f0 00000000 		.ascii	"\000\000\000\000\000\000\000\000\000\000\374\003\004"
 2004      00000000 
 2004      0000FC03 
 2004      04
 2005 03fd 00040004 		.ascii	"\000\004\000\004\000\004\000\004\000\364\000\214\001"
 2005      00040004 
 2005      00F4008C 
 2005      01
 2006 040a 04030003 		.ascii	"\004\003\000\003\000\003\006\003\006\003\202\001\204"
 2006      00030603 
 2006      06038201 
 2006      84
 2007 0417 01F80000 		.ascii	"\001\370\000\000\000\000\000\000\000"
 2007      00000000 
ARM GAS  C:\Users\Dawn\AppData\Local\Temp\ccpPnLvM.s 			page 71


 2007      00
 2008 0420 00000000 		.ascii	"\000\000\000\000\000\000\000\000\000\000\340\001\030"
 2008      00000000 
 2008      0000E001 
 2008      18
 2009 042d 030C030C 		.ascii	"\003\014\003\014\000\004\000\006\000\346\001\026\003"
 2009      00040006 
 2009      00E60116 
 2009      03
 2010 043a 0E060606 		.ascii	"\016\006\006\006\006\006\006\006\004\006\014\002\030"
 2010      06060606 
 2010      04060C02 
 2010      18
 2011 0447 03F00000 		.ascii	"\003\360\000\000\000\000\000\000\000"
 2011      00000000 
 2011      00
 2012 0450 00000000 		.ascii	"\000\000\000\000\000\000\000\000\000\000\370\007\014"
 2012      00000000 
 2012      0000F807 
 2012      0C
 2013 045d 06040204 		.ascii	"\006\004\002\004\001\000\001\000\001\200\000\200\000"
 2013      01000100 
 2013      01800080 
 2013      00
 2014 046a 40004000 		.ascii	"@\000@\000@\000`\000`\000`\000`\000`\000\000\000\000"
 2014      40006000 
 2014      60006000 
 2014      60006000 
 2014      000000
 2015 047d 000000   		.ascii	"\000\000\000"
 2016 0480 00000000 		.ascii	"\000\000\000\000\000\000\000\000\000\000\370\001\014"
 2016      00000000 
 2016      0000F801 
 2016      0C
 2017 048d 03060606 		.ascii	"\003\006\006\006\006\006\006\014\002\034\003\360\000"
 2017      0606060C 
 2017      021C03F0 
 2017      00
 2018 049a C8010C03 		.ascii	"\310\001\014\003\006\006\006\006\006\006\006\006\014"
 2018      06060606 
 2018      06060606 
 2018      0C
 2019 04a7 03F00100 		.ascii	"\003\360\001\000\000\000\000\000\000"
 2019      00000000 
 2019      00
 2020 04b0 00000000 		.ascii	"\000\000\000\000\000\000\000\000\000\000\360\000\014"
 2020      00000000 
 2020      0000F000 
 2020      0C
 2021 04bd 010C0306 		.ascii	"\001\014\003\006\002\006\006\006\006\006\006\006\007"
 2021      02060606 
 2021      06060606 
 2021      07
 2022 04ca 8C067806 		.ascii	"\214\006x\006\000\006\000\003\000\003\014\001\214\001"
 2022      00060003 
 2022      00030C01 
 2022      8C01
ARM GAS  C:\Users\Dawn\AppData\Local\Temp\ccpPnLvM.s 			page 72


 2023 04d8 78000000 		.ascii	"x\000\000\000\000\000\000\000"
 2023      00000000 
 2024 04e0 00000000 		.ascii	"\000\000\000\000\000\000\000\000\000\000\000\000\000"
 2024      00000000 
 2024      00000000 
 2024      00
 2025 04ed 00000000 		.ascii	"\000\000\000\000\000\000\000\340\000\340\000\340\000"
 2025      000000E0 
 2025      00E000E0 
 2025      00
 2026 04fa 00000000 		.ascii	"\000\000\000\000\000\000\000\000\000\000\340\000\340"
 2026      00000000 
 2026      0000E000 
 2026      E0
 2027 0507 00E00000 		.ascii	"\000\340\000\000\000\000\000\000\000"
 2027      00000000 
 2027      00
 2028 0510 00000000 		.ascii	"\000\000\000\000\000\000\000\000\000\000\000\000\000"
 2028      00000000 
 2028      00000000 
 2028      00
 2029 051d 00000000 		.ascii	"\000\000\000\000\000\000\000`\000`\000\000\000\000\000"
 2029      00000060 
 2029      00600000 
 2029      000000
 2030 052c 00000000 		.ascii	"\000\000\000\000\000\000\000\000\000\000`\000`\000@"
 2030      00000000 
 2030      00006000 
 2030      600040
 2031 053b 00200020 		.ascii	"\000 \000 \000"
 2031      00
 2032 0540 00000000 		.ascii	"\000\000\000\000\000\000\000\000\000\004\000\002\000"
 2032      00000000 
 2032      00040002 
 2032      00
 2033 054d 01800040 		.ascii	"\001\200\000@\000 \000\020\000\010\000\004\000\010\000"
 2033      00200010 
 2033      00080004 
 2033      000800
 2034 055c 10002000 		.ascii	"\020\000 \000@\000\200\000\000\001\000\002\000\004\000"
 2034      40008000 
 2034      00010002 
 2034      000400
 2035 056b 00000000 		.ascii	"\000\000\000\000\000"
 2035      00
 2036 0570 00000000 		.ascii	"\000\000\000\000\000\000\000\000\000\000\000\000\000"
 2036      00000000 
 2036      00000000 
 2036      00
 2037 057d 00000000 		.ascii	"\000\000\000\000\000\000\000\376\007\000\000\000\000"
 2037      000000FE 
 2037      07000000 
 2037      00
 2038 058a 0000FE07 		.ascii	"\000\000\376\007\000\000\000\000\000\000\000\000\000"
 2038      00000000 
 2038      00000000 
 2038      00
ARM GAS  C:\Users\Dawn\AppData\Local\Temp\ccpPnLvM.s 			page 73


 2039 0597 00000000 		.ascii	"\000\000\000\000\000\000\000\000\000"
 2039      00000000 
 2039      00
 2040 05a0 00000000 		.ascii	"\000\000\000\000\000\000\000\000\004\000\010\000\020"
 2040      00000000 
 2040      04000800 
 2040      10
 2041 05ad 00200040 		.ascii	"\000 \000@\000\200\000\000\001\000\002\000\004\000\002"
 2041      00800000 
 2041      01000200 
 2041      040002
 2042 05bc 00018000 		.ascii	"\000\001\200\000@\000 \000\020\000\010\000\004\000\000"
 2042      40002000 
 2042      10000800 
 2042      040000
 2043 05cb 00000000 		.ascii	"\000\000\000\000\000"
 2043      00
 2044 05d0 00000000 		.ascii	"\000\000\000\000\000\000\000\000\000\000\340\003\030"
 2044      00000000 
 2044      0000E003 
 2044      18
 2045 05dd 06040C04 		.ascii	"\006\004\014\004\014\014\014\014\014\000\007\200\001"
 2045      0C0C0C0C 
 2045      0C000780 
 2045      01
 2046 05ea 40004000 		.ascii	"@\000@\000@\000\000\000\000\000\340\000\340\000\340"
 2046      40000000 
 2046      0000E000 
 2046      E000E0
 2047 05f9 00000000 		.ascii	"\000\000\000\000\000\000\000"
 2047      000000
 2048 0600 00000000 		.ascii	"\000\000\000\000\000\000\000\000\340\000\030\003\014"
 2048      00000000 
 2048      E0001803 
 2048      0C
 2049 060d 02CC0564 		.ascii	"\002\314\005d\005f\005\246\005\266\004\266\004\266\004"
 2049      056605A6 
 2049      05B604B6 
 2049      04B604
 2050 061c B604B602 		.ascii	"\266\004\266\002\344\001\014\004\014\002\030\003\360"
 2050      E4010C04 
 2050      0C021803 
 2050      F0
 2051 0629 00000000 		.ascii	"\000\000\000\000\000\000\000"
 2051      000000
 2052 0630 00000000 		.ascii	"\000\000\000\000\000\000\000\000\000\000`\000`\000P"
 2052      00000000 
 2052      00006000 
 2052      600050
 2053 063f 00D00090 		.ascii	"\000\320\000\220\000\220\000\210\000\210\001\010\001"
 2053      00900088 
 2053      00880108 
 2053      01
 2054 064c F8010403 		.ascii	"\370\001\004\003\004\003\004\002\002\002\002\006\017"
 2054      04030402 
 2054      02020206 
 2054      0F
ARM GAS  C:\Users\Dawn\AppData\Local\Temp\ccpPnLvM.s 			page 74


 2055 0659 0F000000 		.ascii	"\017\000\000\000\000\000\000"
 2055      000000
 2056 0660 00000000 		.ascii	"\000\000\000\000\000\000\000\000\000\000\376\000\214"
 2056      00000000 
 2056      0000FE00 
 2056      8C
 2057 066d 030C030C 		.ascii	"\003\014\003\014\003\014\003\014\003\214\001\374\000"
 2057      030C030C 
 2057      038C01FC 
 2057      00
 2058 067a 0C030C02 		.ascii	"\014\003\014\002\014\006\014\006\014\006\014\006\014"
 2058      0C060C06 
 2058      0C060C06 
 2058      0C
 2059 0687 03FE0100 		.ascii	"\003\376\001\000\000\000\000\000\000"
 2059      00000000 
 2059      00
 2060 0690 00000000 		.ascii	"\000\000\000\000\000\000\000\000\000\000\340\003\030"
 2060      00000000 
 2060      0000E003 
 2060      18
 2061 069d 030C060C 		.ascii	"\003\014\006\014\004\004\004\006\000\006\000\006\000"
 2061      04040406 
 2061      00060006 
 2061      00
 2062 06aa 06000600 		.ascii	"\006\000\006\000\006\000\006\004\014\004\014\002\030"
 2062      06000604 
 2062      0C040C02 
 2062      18
 2063 06b7 03F00000 		.ascii	"\003\360\000\000\000\000\000\000\000"
 2063      00000000 
 2063      00
 2064 06c0 00000000 		.ascii	"\000\000\000\000\000\000\000\000\000\000\177\000\214"
 2064      00000000 
 2064      00007F00 
 2064      8C
 2065 06cd 010C030C 		.ascii	"\001\014\003\014\003\014\006\014\006\014\006\014\006"
 2065      030C060C 
 2065      060C060C 
 2065      06
 2066 06da 0C060C06 		.ascii	"\014\006\014\006\014\006\014\006\014\003\014\003\214"
 2066      0C060C06 
 2066      0C030C03 
 2066      8C
 2067 06e7 017F0000 		.ascii	"\001\177\000\000\000\000\000\000\000"
 2067      00000000 
 2067      00
 2068 06f0 00000000 		.ascii	"\000\000\000\000\000\000\000\000\000\000\377\003\006"
 2068      00000000 
 2068      0000FF03 
 2068      06
 2069 06fd 03060406 		.ascii	"\003\006\004\006\004\006\000\206\000\206\000\376\000"
 2069      04060086 
 2069      008600FE 
 2069      00
 2070 070a 86008600 		.ascii	"\206\000\206\000\206\000\006\000\006\004\006\004\006"
 2070      86000600 
ARM GAS  C:\Users\Dawn\AppData\Local\Temp\ccpPnLvM.s 			page 75


 2070      06040604 
 2070      06
 2071 0717 02FF0300 		.ascii	"\002\377\003\000\000\000\000\000\000"
 2071      00000000 
 2071      00
 2072 0720 00000000 		.ascii	"\000\000\000\000\000\000\000\000\000\000\377\003\006"
 2072      00000000 
 2072      0000FF03 
 2072      06
 2073 072d 03060406 		.ascii	"\003\006\004\006\004\006\000\206\000\206\000\376\000"
 2073      04060086 
 2073      008600FE 
 2073      00
 2074 073a 86008600 		.ascii	"\206\000\206\000\206\000\006\000\006\000\006\000\006"
 2074      86000600 
 2074      06000600 
 2074      06
 2075 0747 001F0000 		.ascii	"\000\037\000\000\000\000\000\000\000"
 2075      00000000 
 2075      00
 2076 0750 00000000 		.ascii	"\000\000\000\000\000\000\000\000\000\000\360\000\030"
 2076      00000000 
 2076      0000F000 
 2076      18
 2077 075d 010C020C 		.ascii	"\001\014\002\014\002\004\002\006\000\006\000\006\000"
 2077      02040206 
 2077      00060006 
 2077      00
 2078 076a 0600C60F 		.ascii	"\006\000\306\017\006\003\006\003\014\003\014\003\030"
 2078      06030603 
 2078      0C030C03 
 2078      18
 2079 0777 03F00000 		.ascii	"\003\360\000\000\000\000\000\000\000"
 2079      00000000 
 2079      00
 2080 0780 00000000 		.ascii	"\000\000\000\000\000\000\000\000\000\000\017\017\006"
 2080      00000000 
 2080      00000F0F 
 2080      06
 2081 078d 06060606 		.ascii	"\006\006\006\006\006\006\006\006\006\006\006\376\007"
 2081      06060606 
 2081      060606FE 
 2081      07
 2082 079a 06060606 		.ascii	"\006\006\006\006\006\006\006\006\006\006\006\006\006"
 2082      06060606 
 2082      06060606 
 2082      06
 2083 07a7 060F0F00 		.ascii	"\006\017\017\000\000\000\000\000\000"
 2083      00000000 
 2083      00
 2084 07b0 00000000 		.ascii	"\000\000\000\000\000\000\000\000\000\000\374\003`\000"
 2084      00000000 
 2084      0000FC03 
 2084      6000
 2085 07be 60006000 		.ascii	"`\000`\000`\000`\000`\000`\000`\000`\000`\000`\000`"
 2085      60006000 
 2085      60006000 
ARM GAS  C:\Users\Dawn\AppData\Local\Temp\ccpPnLvM.s 			page 76


 2085      60006000 
 2085      60006000 
 2086 07d3 00600060 		.ascii	"\000`\000`\000\374\003\000\000\000\000\000\000"
 2086      00FC0300 
 2086      00000000 
 2086      00
 2087 07e0 00000000 		.ascii	"\000\000\000\000\000\000\000\000\000\000\370\007\300"
 2087      00000000 
 2087      0000F807 
 2087      C0
 2088 07ed 00C000C0 		.ascii	"\000\300\000\300\000\300\000\300\000\300\000\300\000"
 2088      00C000C0 
 2088      00C000C0 
 2088      00
 2089 07fa C000C000 		.ascii	"\300\000\300\000\300\000\300\000\300\000\300\000\300"
 2089      C000C000 
 2089      C000C000 
 2089      C0
 2090 0807 00C000C6 		.ascii	"\000\300\000\306\000f\000<\000"
 2090      0066003C 
 2090      00
 2091 0810 00000000 		.ascii	"\000\000\000\000\000\000\000\000\000\000\317\003\206"
 2091      00000000 
 2091      0000CF03 
 2091      86
 2092 081d 01C60046 		.ascii	"\001\306\000F\000&\000\026\0006\000.\000n\000F\000\306"
 2092      00260016 
 2092      0036002E 
 2092      006E0046 
 2092      00C6
 2093 082f 00860086 		.ascii	"\000\206\000\206\001\006\001\006\003\217\007\000\000"
 2093      01060106 
 2093      038F0700 
 2093      00
 2094 083c 00000000 		.ascii	"\000\000\000\000"
 2095 0840 00000000 		.ascii	"\000\000\000\000\000\000\000\000\000\000\037\000\006"
 2095      00000000 
 2095      00001F00 
 2095      06
 2096 084d 00060006 		.ascii	"\000\006\000\006\000\006\000\006\000\006\000\006\000"
 2096      00060006 
 2096      00060006 
 2096      00
 2097 085a 06000600 		.ascii	"\006\000\006\000\006\000\006\000\006\004\006\004\006"
 2097      06000600 
 2097      06040604 
 2097      06
 2098 0867 02FF0300 		.ascii	"\002\377\003\000\000\000\000\000\000"
 2098      00000000 
 2098      00
 2099 0870 00000000 		.ascii	"\000\000\000\000\000\000\000\000\000\000\007\007\206"
 2099      00000000 
 2099      00000707 
 2099      86
 2100 087d 0386038E 		.ascii	"\003\206\003\216\003\216\003N\003N\003J\003Z\003Z\003"
 2100      038E034E 
 2100      034E034A 
ARM GAS  C:\Users\Dawn\AppData\Local\Temp\ccpPnLvM.s 			page 77


 2100      035A035A 
 2100      03
 2101 088e 3A033203 		.ascii	":\0032\0032\0032\003\022\003\207\007\000\000\000\000"
 2101      32033203 
 2101      12038707 
 2101      00000000 
 2102 089e 0000     		.ascii	"\000\000"
 2103 08a0 00000000 		.ascii	"\000\000\000\000\000\000\000\000\000\000\216\017\014"
 2103      00000000 
 2103      00008E0F 
 2103      0C
 2104 08ad 021C021C 		.ascii	"\002\034\002\034\0024\0024\002d\002d\002D\002\304\002"
 2104      02340234 
 2104      02640264 
 2104      024402C4 
 2104      02
 2105 08be 84028403 		.ascii	"\204\002\204\003\204\003\004\003\004\003\037\002\000"
 2105      84030403 
 2105      04031F02 
 2105      00
 2106 08cb 00000000 		.ascii	"\000\000\000\000\000"
 2106      00
 2107 08d0 00000000 		.ascii	"\000\000\000\000\000\000\000\000\000\000\360\000\230"
 2107      00000000 
 2107      0000F000 
 2107      98
 2108 08dd 010C030C 		.ascii	"\001\014\003\014\002\006\006\006\006\006\006\006\006"
 2108      02060606 
 2108      06060606 
 2108      06
 2109 08ea 06060606 		.ascii	"\006\006\006\006\006\006\006\006\014\002\014\003\230"
 2109      06060606 
 2109      0C020C03 
 2109      98
 2110 08f7 01F00000 		.ascii	"\001\360\000\000\000\000\000\000\000"
 2110      00000000 
 2110      00
 2111 0900 00000000 		.ascii	"\000\000\000\000\000\000\000\000\000\000\377\000\006"
 2111      00000000 
 2111      0000FF00 
 2111      06
 2112 090d 03060606 		.ascii	"\003\006\006\006\006\006\006\006\006\006\006\206\003"
 2112      06060606 
 2112      06060686 
 2112      03
 2113 091a FE000600 		.ascii	"\376\000\006\000\006\000\006\000\006\000\006\000\006"
 2113      06000600 
 2113      06000600 
 2113      06
 2114 0927 001F0000 		.ascii	"\000\037\000\000\000\000\000\000\000"
 2114      00000000 
 2114      00
 2115 0930 00000000 		.ascii	"\000\000\000\000\000\000\000\000\000\000\360\000\230"
 2115      00000000 
 2115      0000F000 
 2115      98
 2116 093d 010C030C 		.ascii	"\001\014\003\014\002\006\006\006\006\006\006\006\006"
ARM GAS  C:\Users\Dawn\AppData\Local\Temp\ccpPnLvM.s 			page 78


 2116      02060606 
 2116      06060606 
 2116      06
 2117 094a 06060606 		.ascii	"\006\006\006\006\006\006v\006L\002\314\003\230\001\360"
 2117      06067606 
 2117      4C02CC03 
 2117      9801F0
 2118 0959 00800700 		.ascii	"\000\200\007\000\003\000\000"
 2118      030000
 2119 0960 00000000 		.ascii	"\000\000\000\000\000\000\000\000\000\000\377\001\006"
 2119      00000000 
 2119      0000FF01 
 2119      06
 2120 096d 03060606 		.ascii	"\003\006\006\006\006\006\006\006\006\006\003\376\000"
 2120      06060606 
 2120      060603FE 
 2120      00
 2121 097a 4600C600 		.ascii	"F\000\306\000\206\000\206\001\006\003\006\003\006\006"
 2121      86008601 
 2121      06030603 
 2121      0606
 2122 0988 0F0E0000 		.ascii	"\017\016\000\000\000\000\000\000"
 2122      00000000 
 2123 0990 00000000 		.ascii	"\000\000\000\000\000\000\000\000\000\000\370\002\014"
 2123      00000000 
 2123      0000F802 
 2123      0C
 2124 099d 03060206 		.ascii	"\003\006\002\006\002\006\000\016\000<\000\370\000\340"
 2124      0206000E 
 2124      003C00F8 
 2124      00E0
 2125 09ab 03800300 		.ascii	"\003\200\003\000\007\002\006\002\006\006\006\014\003"
 2125      07020602 
 2125      0606060C 
 2125      03
 2126 09b8 F0010000 		.ascii	"\360\001\000\000\000\000\000\000"
 2126      00000000 
 2127 09c0 00000000 		.ascii	"\000\000\000\000\000\000\000\000\000\000\376\007b\004"
 2127      00000000 
 2127      0000FE07 
 2127      6204
 2128 09ce 61086108 		.ascii	"a\010a\010`\000`\000`\000`\000`\000`\000`\000`\000`"
 2128      60006000 
 2128      60006000 
 2128      60006000 
 2128      60006000 
 2129 09e3 00600060 		.ascii	"\000`\000`\000\370\001\000\000\000\000\000\000"
 2129      00F80100 
 2129      00000000 
 2129      00
 2130 09f0 00000000 		.ascii	"\000\000\000\000\000\000\000\000\000\000\036\007\014"
 2130      00000000 
 2130      00001E07 
 2130      0C
 2131 09fd 020C020C 		.ascii	"\002\014\002\014\002\014\002\014\002\014\002\014\002"
 2131      020C020C 
 2131      020C020C 
ARM GAS  C:\Users\Dawn\AppData\Local\Temp\ccpPnLvM.s 			page 79


 2131      02
 2132 0a0a 0C020C02 		.ascii	"\014\002\014\002\014\002\014\002\014\002\014\002\030"
 2132      0C020C02 
 2132      0C020C02 
 2132      18
 2133 0a17 01F00000 		.ascii	"\001\360\000\000\000\000\000\000\000"
 2133      00000000 
 2133      00
 2134 0a20 00000000 		.ascii	"\000\000\000\000\000\000\000\000\000\000\017\007\006"
 2134      00000000 
 2134      00000F07 
 2134      06
 2135 0a2d 02040104 		.ascii	"\002\004\001\004\001\014\001\014\001\210\000\210\000"
 2135      010C010C 
 2135      01880088 
 2135      00
 2136 0a3a 98009800 		.ascii	"\230\000\230\000P\000P\000p\0000\000 \000 \000\000\000"
 2136      50005000 
 2136      70003000 
 2136      20002000 
 2136      0000
 2137 0a4c 00000000 		.ascii	"\000\000\000\000"
 2138 0a50 00000000 		.ascii	"\000\000\000\000\000\000\000\000\000\000\367\016b\004"
 2138      00000000 
 2138      0000F70E 
 2138      6204
 2139 0a5e 42044604 		.ascii	"B\004F\004F\004d\002d\002\344\002\344\002\234\002\234"
 2139      46046402 
 2139      6402E402 
 2139      E4029C02 
 2139      9C
 2140 0a6f 01980198 		.ascii	"\001\230\001\230\001\210\001\210\000\210\000\000\000"
 2140      01880188 
 2140      00880000 
 2140      00
 2141 0a7c 00000000 		.ascii	"\000\000\000\000"
 2142 0a80 00000000 		.ascii	"\000\000\000\000\000\000\000\000\000\000\236\007\014"
 2142      00000000 
 2142      00009E07 
 2142      0C
 2143 0a8d 01080118 		.ascii	"\001\010\001\030\001\220\000\260\000`\000 \000`\000"
 2143      019000B0 
 2143      00600020 
 2143      006000
 2144 0a9c 6000D000 		.ascii	"`\000\320\000\220\000\210\001\010\001\004\003\216\007"
 2144      90008801 
 2144      08010403 
 2144      8E07
 2145 0aaa 00000000 		.ascii	"\000\000\000\000\000\000"
 2145      0000
 2146 0ab0 00000000 		.ascii	"\000\000\000\000\000\000\000\000\000\000\017\017\006"
 2146      00000000 
 2146      00000F0F 
 2146      06
 2147 0abd 0404020C 		.ascii	"\004\004\002\014\002\010\001\030\001\270\000\260\000"
 2147      02080118 
 2147      01B800B0 
ARM GAS  C:\Users\Dawn\AppData\Local\Temp\ccpPnLvM.s 			page 80


 2147      00
 2148 0aca 70006000 		.ascii	"p\000`\000`\000`\000`\000`\000`\000\370\001\000\000"
 2148      60006000 
 2148      60006000 
 2148      6000F801 
 2148      0000
 2149 0adc 00000000 		.ascii	"\000\000\000\000"
 2150 0ae0 00000000 		.ascii	"\000\000\000\000\000\000\000\000\000\000\374\007\014"
 2150      00000000 
 2150      0000FC07 
 2150      0C
 2151 0aed 02060302 		.ascii	"\002\006\003\002\001\200\001\200\000@\000@\000 \000"
 2151      01800180 
 2151      00400040 
 2151      002000
 2152 0afc 20001000 		.ascii	" \000\020\000\030\000\010\004\014\004\004\002\376\003"
 2152      18000804 
 2152      0C040402 
 2152      FE03
 2153 0b0a 00000000 		.ascii	"\000\000\000\000\000\000"
 2153      0000
 2154 0b10 00000000 		.ascii	"\000\000\000\000\340\003 \000 \000 \000 \000 \000 \000"
 2154      E0032000 
 2154      20002000 
 2154      20002000 
 2154      2000
 2155 0b22 20002000 		.ascii	" \000 \000 \000 \000 \000 \000 \000 \000 \000 \000 "
 2155      20002000 
 2155      20002000 
 2155      20002000 
 2155      20002000 
 2156 0b37 00200020 		.ascii	"\000 \000 \000\340\003\000\000"
 2156      00E00300 
 2156      00
 2157 0b40 00000000 		.ascii	"\000\000\000\000\000\000\000\000\004\000\004\000\010"
 2157      00000000 
 2157      04000400 
 2157      08
 2158 0b4d 00080010 		.ascii	"\000\010\000\020\000\020\000\020\000 \000 \000@\000"
 2158      00100010 
 2158      00200020 
 2158      004000
 2159 0b5c 4000C000 		.ascii	"@\000\300\000\200\000\200\000\000\001\000\001\000\002"
 2159      80008000 
 2159      00010001 
 2159      0002
 2160 0b6a 00020002 		.ascii	"\000\002\000\002\000\004"
 2160      0004
 2161 0b70 00000000 		.ascii	"\000\000\000\000|\000@\000@\000@\000@\000@\000@\000"
 2161      7C004000 
 2161      40004000 
 2161      40004000 
 2161      4000
 2162 0b82 40004000 		.ascii	"@\000@\000@\000@\000@\000@\000@\000@\000@\000@\000@"
 2162      40004000 
 2162      40004000 
 2162      40004000 
ARM GAS  C:\Users\Dawn\AppData\Local\Temp\ccpPnLvM.s 			page 81


 2162      40004000 
 2163 0b97 00400040 		.ascii	"\000@\000@\000|\000\000\000"
 2163      007C0000 
 2163      00
 2164 0ba0 00006000 		.ascii	"\000\000`\000\220\000\010\001\000\000\000\000\000\000"
 2164      90000801 
 2164      00000000 
 2164      0000
 2165 0bae 00000000 		.ascii	"\000\000\000\000\000\000\000\000\000\000\000\000\000"
 2165      00000000 
 2165      00000000 
 2165      00
 2166 0bbb 00000000 		.ascii	"\000\000\000\000\000\000\000\000\000\000\000\000\000"
 2166      00000000 
 2166      00000000 
 2166      00
 2167 0bc8 00000000 		.ascii	"\000\000\000\000\000\000\000\000"
 2167      00000000 
 2168 0bd0 00000000 		.ascii	"\000\000\000\000\000\000\000\000\000\000\000\000\000"
 2168      00000000 
 2168      00000000 
 2168      00
 2169 0bdd 00000000 		.ascii	"\000\000\000\000\000\000\000\000\000\000\000\000\000"
 2169      00000000 
 2169      00000000 
 2169      00
 2170 0bea 00000000 		.ascii	"\000\000\000\000\000\000\000\000\000\000\000\000\000"
 2170      00000000 
 2170      00000000 
 2170      00
 2171 0bf7 00000000 		.ascii	"\000\000\000\000\000\000\000\377\017"
 2171      000000FF 
 2171      0F
 2172 0c00 00000000 		.ascii	"\000\000\000\000\030\000`\000\000\000\000\000\000\000"
 2172      18006000 
 2172      00000000 
 2172      0000
 2173 0c0e 00000000 		.ascii	"\000\000\000\000\000\000\000\000\000\000\000\000\000"
 2173      00000000 
 2173      00000000 
 2173      00
 2174 0c1b 00000000 		.ascii	"\000\000\000\000\000\000\000\000\000\000\000\000\000"
 2174      00000000 
 2174      00000000 
 2174      00
 2175 0c28 00000000 		.ascii	"\000\000\000\000\000\000\000\000"
 2175      00000000 
 2176 0c30 00000000 		.ascii	"\000\000\000\000\000\000\000\000\000\000\000\000\000"
 2176      00000000 
 2176      00000000 
 2176      00
 2177 0c3d 00000000 		.ascii	"\000\000\000\000\000\000\000\360\001\014\003\014\003"
 2177      000000F0 
 2177      010C030C 
 2177      03
 2178 0c4a 0003E003 		.ascii	"\000\003\340\003\034\003\016\003\006\003\006\003\216"
 2178      1C030E03 
ARM GAS  C:\Users\Dawn\AppData\Local\Temp\ccpPnLvM.s 			page 82


 2178      06030603 
 2178      8E
 2179 0c57 0B7C0E00 		.ascii	"\013|\016\000\000\000\000\000\000"
 2179      00000000 
 2179      00
 2180 0c60 00000000 		.ascii	"\000\000\000\000\000\000\000\000\010\000\016\000\014"
 2180      00000000 
 2180      08000E00 
 2180      0C
 2181 0c6d 000C000C 		.ascii	"\000\014\000\014\000\014\000\314\001<\003\034\006\014"
 2181      000C00CC 
 2181      013C031C 
 2181      060C
 2182 0c7b 060C060C 		.ascii	"\006\014\006\014\006\014\006\014\006\014\002\034\003"
 2182      060C060C 
 2182      060C021C 
 2182      03
 2183 0c88 E4010000 		.ascii	"\344\001\000\000\000\000\000\000"
 2183      00000000 
 2184 0c90 00000000 		.ascii	"\000\000\000\000\000\000\000\000\000\000\000\000\000"
 2184      00000000 
 2184      00000000 
 2184      00
 2185 0c9d 00000000 		.ascii	"\000\000\000\000\000\000\000\360\000\214\001\214\001"
 2185      000000F0 
 2185      008C018C 
 2185      01
 2186 0caa 86010600 		.ascii	"\206\001\006\000\006\000\006\000\006\002\014\002\014"
 2186      06000600 
 2186      06020C02 
 2186      0C
 2187 0cb7 01F00000 		.ascii	"\001\360\000\000\000\000\000\000\000"
 2187      00000000 
 2187      00
 2188 0cc0 00000000 		.ascii	"\000\000\000\000\000\000\000\000\000\002\300\003\000"
 2188      00000000 
 2188      0002C003 
 2188      00
 2189 0ccd 03000300 		.ascii	"\003\000\003\000\003\000\003x\003\214\003\014\003\006"
 2189      03000378 
 2189      038C030C 
 2189      0306
 2190 0cdb 03060306 		.ascii	"\003\006\003\006\003\006\003\006\003\004\003\214\007"
 2190      03060306 
 2190      0304038C 
 2190      07
 2191 0ce8 78010000 		.ascii	"x\001\000\000\000\000\000\000"
 2191      00000000 
 2192 0cf0 00000000 		.ascii	"\000\000\000\000\000\000\000\000\000\000\000\000\000"
 2192      00000000 
 2192      00000000 
 2192      00
 2193 0cfd 00000000 		.ascii	"\000\000\000\000\000\000\000\340\001\030\003\010\002"
 2193      000000E0 
 2193      01180308 
 2193      02
 2194 0d0a 0C060C06 		.ascii	"\014\006\014\006\374\007\014\000\014\000\030\004\030"
ARM GAS  C:\Users\Dawn\AppData\Local\Temp\ccpPnLvM.s 			page 83


 2194      FC070C00 
 2194      0C001804 
 2194      18
 2195 0d17 02E00100 		.ascii	"\002\340\001\000\000\000\000\000\000"
 2195      00000000 
 2195      00
 2196 0d20 00000000 		.ascii	"\000\000\000\000\000\000\000\000\000\000\300\003`\006"
 2196      00000000 
 2196      0000C003 
 2196      6006
 2197 0d2e 30063000 		.ascii	"0\0060\0000\000\376\0010\0000\0000\0000\0000\0000\000"
 2197      3000FE01 
 2197      30003000 
 2197      30003000 
 2197      30003000 
 2198 0d42 30003000 		.ascii	"0\0000\0000\000\374\001\000\000\000\000\000\000"
 2198      3000FC01 
 2198      00000000 
 2198      0000
 2199 0d50 00000000 		.ascii	"\000\000\000\000\000\000\000\000\000\000\000\000\000"
 2199      00000000 
 2199      00000000 
 2199      00
 2200 0d5d 00000000 		.ascii	"\000\000\000\000\000\000\000\360\007\330\006\214\001"
 2200      000000F0 
 2200      07D8068C 
 2200      01
 2201 0d6a 8C018C01 		.ascii	"\214\001\214\001\230\001\370\000\014\000\374\000\314"
 2201      9801F800 
 2201      0C00FC00 
 2201      CC
 2202 0d77 03060306 		.ascii	"\003\006\003\006\003\216\003\370\000"
 2202      038E03F8 
 2202      00
 2203 0d80 00000000 		.ascii	"\000\000\000\000\000\000\000\000\010\000\016\000\014"
 2203      00000000 
 2203      08000E00 
 2203      0C
 2204 0d8d 000C000C 		.ascii	"\000\014\000\014\000\014\000\354\001\034\003\014\003"
 2204      000C00EC 
 2204      011C030C 
 2204      03
 2205 0d9a 0C030C03 		.ascii	"\014\003\014\003\014\003\014\003\014\003\014\003\014"
 2205      0C030C03 
 2205      0C030C03 
 2205      0C
 2206 0da7 039E0700 		.ascii	"\003\236\007\000\000\000\000\000\000"
 2206      00000000 
 2206      00
 2207 0db0 00000000 		.ascii	"\000\000\000\000\000\000\000\000\000\000`\000`\000\000"
 2207      00000000 
 2207      00006000 
 2207      600000
 2208 0dbf 00000040 		.ascii	"\000\000\000@\000|\000`\000`\000`\000`\000`\000`\000"
 2208      007C0060 
 2208      00600060 
 2208      00600060 
ARM GAS  C:\Users\Dawn\AppData\Local\Temp\ccpPnLvM.s 			page 84


 2208      006000
 2209 0dd2 60006000 		.ascii	"`\000`\000`\000\374\003\000\000\000\000\000\000"
 2209      6000FC03 
 2209      00000000 
 2209      0000
 2210 0de0 00000000 		.ascii	"\000\000\000\000\000\000\000\000\000\000\300\001\300"
 2210      00000000 
 2210      0000C001 
 2210      C0
 2211 0ded 01000000 		.ascii	"\001\000\000\000\000\000\001\360\001\200\001\200\001"
 2211      000001F0 
 2211      01800180 
 2211      01
 2212 0dfa 80018001 		.ascii	"\200\001\200\001\200\001\200\001\200\001\200\001\200"
 2212      80018001 
 2212      80018001 
 2212      80
 2213 0e07 01800180 		.ascii	"\001\200\001\200\001\314\000|\000"
 2213      01CC007C 
 2213      00
 2214 0e10 00000000 		.ascii	"\000\000\000\000\000\000\000\000\010\000\016\000\014"
 2214      00000000 
 2214      08000E00 
 2214      0C
 2215 0e1d 000C000C 		.ascii	"\000\014\000\014\000\014\000\214\003\214\000\214\000"
 2215      000C008C 
 2215      038C008C 
 2215      00
 2216 0e2a 4C006C00 		.ascii	"L\000l\000\\\000\214\000\214\001\014\001\014\003\236"
 2216      5C008C00 
 2216      8C010C01 
 2216      0C039E
 2217 0e39 07000000 		.ascii	"\007\000\000\000\000\000\000"
 2217      000000
 2218 0e40 00000000 		.ascii	"\000\000\000\000\000\000\000\000@\000|\000`\000`\000"
 2218      00000000 
 2218      40007C00 
 2218      60006000 
 2219 0e50 60006000 		.ascii	"`\000`\000`\000`\000`\000`\000`\000`\000`\000`\000`"
 2219      60006000 
 2219      60006000 
 2219      60006000 
 2219      60006000 
 2220 0e65 006000FC 		.ascii	"\000`\000\374\003\000\000\000\000\000\000"
 2220      03000000 
 2220      000000
 2221 0e70 00000000 		.ascii	"\000\000\000\000\000\000\000\000\000\000\000\000\000"
 2221      00000000 
 2221      00000000 
 2221      00
 2222 0e7d 00000000 		.ascii	"\000\000\000\000\000\000\0007\007\356\006f\006f\006"
 2222      00000037 
 2222      07EE0666 
 2222      066606
 2223 0e8c 66066606 		.ascii	"f\006f\006f\006f\006f\006f\006\377\017\000\000\000\000"
 2223      66066606 
 2223      66066606 
ARM GAS  C:\Users\Dawn\AppData\Local\Temp\ccpPnLvM.s 			page 85


 2223      FF0F0000 
 2223      0000
 2224 0e9e 0000     		.ascii	"\000\000"
 2225 0ea0 00000000 		.ascii	"\000\000\000\000\000\000\000\000\000\000\000\000\000"
 2225      00000000 
 2225      00000000 
 2225      00
 2226 0ead 00000000 		.ascii	"\000\000\000\000\000\000\000\356\001\034\003\014\003"
 2226      000000EE 
 2226      011C030C 
 2226      03
 2227 0eba 0C030C03 		.ascii	"\014\003\014\003\014\003\014\003\014\003\014\003\014"
 2227      0C030C03 
 2227      0C030C03 
 2227      0C
 2228 0ec7 039E0700 		.ascii	"\003\236\007\000\000\000\000\000\000"
 2228      00000000 
 2228      00
 2229 0ed0 00000000 		.ascii	"\000\000\000\000\000\000\000\000\000\000\000\000\000"
 2229      00000000 
 2229      00000000 
 2229      00
 2230 0edd 00000000 		.ascii	"\000\000\000\000\000\000\000\360\000\230\001\014\003"
 2230      000000F0 
 2230      0098010C 
 2230      03
 2231 0eea 06060606 		.ascii	"\006\006\006\006\006\006\006\006\006\006\014\003\014"
 2231      06060606 
 2231      06060C03 
 2231      0C
 2232 0ef7 03F00000 		.ascii	"\003\360\000\000\000\000\000\000\000"
 2232      00000000 
 2232      00
 2233 0f00 00000000 		.ascii	"\000\000\000\000\000\000\000\000\000\000\000\000\000"
 2233      00000000 
 2233      00000000 
 2233      00
 2234 0f0d 00000000 		.ascii	"\000\000\000\000\000\000\000\356\001\034\003\014\006"
 2234      000000EE 
 2234      011C030C 
 2234      06
 2235 0f1a 0C060C06 		.ascii	"\014\006\014\006\014\006\014\006\014\006\014\003\034"
 2235      0C060C06 
 2235      0C060C03 
 2235      1C
 2236 0f27 03EC010C 		.ascii	"\003\354\001\014\000\014\000>\000"
 2236      000C003E 
 2236      00
 2237 0f30 00000000 		.ascii	"\000\000\000\000\000\000\000\000\000\000\000\000\000"
 2237      00000000 
 2237      00000000 
 2237      00
 2238 0f3d 00000000 		.ascii	"\000\000\000\000\000\000\000x\002\214\003\014\003\006"
 2238      00000078 
 2238      028C030C 
 2238      0306
 2239 0f4b 03060306 		.ascii	"\003\006\003\006\003\006\003\006\003\004\003\214\003"
ARM GAS  C:\Users\Dawn\AppData\Local\Temp\ccpPnLvM.s 			page 86


 2239      03060306 
 2239      0304038C 
 2239      03
 2240 0f58 78030003 		.ascii	"x\003\000\003\000\003\300\007"
 2240      0003C007 
 2241 0f60 00000000 		.ascii	"\000\000\000\000\000\000\000\000\000\000\000\000\000"
 2241      00000000 
 2241      00000000 
 2241      00
 2242 0f6d 00000000 		.ascii	"\000\000\000\000\000\000\000\237\003X\0068\006\030\000"
 2242      0000009F 
 2242      03580638 
 2242      061800
 2243 0f7c 18001800 		.ascii	"\030\000\030\000\030\000\030\000\030\000\030\000\377"
 2243      18001800 
 2243      18001800 
 2243      FF
 2244 0f89 00000000 		.ascii	"\000\000\000\000\000\000\000"
 2244      000000
 2245 0f90 00000000 		.ascii	"\000\000\000\000\000\000\000\000\000\000\000\000\000"
 2245      00000000 
 2245      00000000 
 2245      00
 2246 0f9d 00000000 		.ascii	"\000\000\000\000\000\000\000\360\003\034\003\014\002"
 2246      000000F0 
 2246      031C030C 
 2246      02
 2247 0faa 0C023800 		.ascii	"\014\0028\000\360\000\300\003\004\003\004\003\214\003"
 2247      F000C003 
 2247      04030403 
 2247      8C03
 2248 0fb8 FC010000 		.ascii	"\374\001\000\000\000\000\000\000"
 2248      00000000 
 2249 0fc0 00000000 		.ascii	"\000\000\000\000\000\000\000\000\000\000\000\000 \000"
 2249      00000000 
 2249      00000000 
 2249      2000
 2250 0fce 20003000 		.ascii	" \0000\0000\000\376\0010\0000\0000\0000\0000\0000\000"
 2250      3000FE01 
 2250      30003000 
 2250      30003000 
 2250      30003000 
 2251 0fe2 30003002 		.ascii	"0\0000\0020\002\340\001\000\000\000\000\000\000"
 2251      3002E001 
 2251      00000000 
 2251      0000
 2252 0ff0 00000000 		.ascii	"\000\000\000\000\000\000\000\000\000\000\000\000\000"
 2252      00000000 
 2252      00000000 
 2252      00
 2253 0ffd 00000000 		.ascii	"\000\000\000\000\000\010\002\216\003\014\003\014\003"
 2253      0008028E 
 2253      030C030C 
 2253      03
 2254 100a 0C030C03 		.ascii	"\014\003\014\003\014\003\014\003\014\003\014\003\234"
 2254      0C030C03 
 2254      0C030C03 
ARM GAS  C:\Users\Dawn\AppData\Local\Temp\ccpPnLvM.s 			page 87


 2254      9C
 2255 1017 07780100 		.ascii	"\007x\001\000\000\000\000\000\000"
 2255      00000000 
 2255      00
 2256 1020 00000000 		.ascii	"\000\000\000\000\000\000\000\000\000\000\000\000\000"
 2256      00000000 
 2256      00000000 
 2256      00
 2257 102d 00000000 		.ascii	"\000\000\000\000\000\000\000\036\007\014\002\010\001"
 2257      0000001E 
 2257      070C0208 
 2257      01
 2258 103a 08011801 		.ascii	"\010\001\030\001\220\000\260\000\260\000`\000`\000 "
 2258      9000B000 
 2258      B0006000 
 2258      600020
 2259 1049 00000000 		.ascii	"\000\000\000\000\000\000\000"
 2259      000000
 2260 1050 00000000 		.ascii	"\000\000\000\000\000\000\000\000\000\000\000\000\000"
 2260      00000000 
 2260      00000000 
 2260      00
 2261 105d 00000000 		.ascii	"\000\000\000\000\000\000\000\367\016b\004F\004d\002"
 2261      000000F7 
 2261      0E620446 
 2261      046402
 2262 106c 6402EC02 		.ascii	"d\002\354\002\234\001\230\001\230\001\230\001\010\000"
 2262      9C019801 
 2262      98019801 
 2262      0800
 2263 107a 00000000 		.ascii	"\000\000\000\000\000\000"
 2263      0000
 2264 1080 00000000 		.ascii	"\000\000\000\000\000\000\000\000\000\000\000\000\000"
 2264      00000000 
 2264      00000000 
 2264      00
 2265 108d 00000000 		.ascii	"\000\000\000\000\000\000\000\274\007\030\001\020\001"
 2265      000000BC 
 2265      07180110 
 2265      01
 2266 109a B0006000 		.ascii	"\260\000`\000`\000\340\000\220\000\010\001\010\003\236"
 2266      6000E000 
 2266      90000801 
 2266      08039E
 2267 10a9 07000000 		.ascii	"\007\000\000\000\000\000\000"
 2267      000000
 2268 10b0 00000000 		.ascii	"\000\000\000\000\000\000\000\000\000\000\000\000\000"
 2268      00000000 
 2268      00000000 
 2268      00
 2269 10bd 00000000 		.ascii	"\000\000\000\000\000\000\000\236\007\010\001\010\001"
 2269      0000009E 
 2269      07080108 
 2269      01
 2270 10ca 08019000 		.ascii	"\010\001\220\000\220\000\260\000`\000`\000`\000 \000"
 2270      9000B000 
 2270      60006000 
ARM GAS  C:\Users\Dawn\AppData\Local\Temp\ccpPnLvM.s 			page 88


 2270      60002000 
 2271 10da 20002400 		.ascii	" \000$\000\034\000"
 2271      1C00
 2272 10e0 00000000 		.ascii	"\000\000\000\000\000\000\000\000\000\000\000\000\000"
 2272      00000000 
 2272      00000000 
 2272      00
 2273 10ed 00000000 		.ascii	"\000\000\000\000\000\000\000\374\001\204\001\304\000"
 2273      000000FC 
 2273      018401C4 
 2273      00
 2274 10fa 44006000 		.ascii	"D\000`\000 \0000\000\030\002\010\002\014\003\374\001"
 2274      20003000 
 2274      18020802 
 2274      0C03FC01 
 2275 110a 00000000 		.ascii	"\000\000\000\000\000\000"
 2275      0000
 2276 1110 00000000 		.ascii	"\000\000\000\000\000\003\200\000\200\000\200\000\200"
 2276      00038000 
 2276      80008000 
 2276      80
 2277 111d 00800080 		.ascii	"\000\200\000\200\000\200\000\200\000@\000 \000@\000"
 2277      00800080 
 2277      00400020 
 2277      004000
 2278 112c 80008000 		.ascii	"\200\000\200\000\200\000\200\000\200\000\200\000\200"
 2278      80008000 
 2278      80008000 
 2278      80
 2279 1139 00800000 		.ascii	"\000\200\000\000\003\000\000"
 2279      030000
 2280 1140 40004000 		.ascii	"@\000@\000@\000@\000@\000@\000@\000@\000@\000@\000@"
 2280      40004000 
 2280      40004000 
 2280      40004000 
 2280      40004000 
 2281 1155 00400040 		.ascii	"\000@\000@\000@\000@\000@\000@\000@\000@\000@\000@\000"
 2281      00400040 
 2281      00400040 
 2281      00400040 
 2281      00400040 
 2282 116a 40004000 		.ascii	"@\000@\000@\000"
 2282      4000
 2283 1170 00000000 		.ascii	"\000\000\000\000\014\000\020\000\020\000\020\000\020"
 2283      0C001000 
 2283      10001000 
 2283      10
 2284 117d 00100010 		.ascii	"\000\020\000\020\000\020\000\020\000 \000@\000 \000"
 2284      00100010 
 2284      00200040 
 2284      002000
 2285 118c 10001000 		.ascii	"\020\000\020\000\020\000\020\000\020\000\020\000\020"
 2285      10001000 
 2285      10001000 
 2285      10
 2286 1199 0010000C 		.ascii	"\000\020\000\014\000\000\000"
 2286      000000
ARM GAS  C:\Users\Dawn\AppData\Local\Temp\ccpPnLvM.s 			page 89


 2287 11a0 00001C00 		.ascii	"\000\000\034\000\"\004\302\004\200\003\000\000\000\000"
 2287      2204C204 
 2287      80030000 
 2287      0000
 2288 11ae 00000000 		.ascii	"\000\000\000\000\000\000\000\000\000\000\000\000\000"
 2288      00000000 
 2288      00000000 
 2288      00
 2289 11bb 00000000 		.ascii	"\000\000\000\000\000\000\000\000\000\000\000\000\000"
 2289      00000000 
 2289      00000000 
 2289      00
 2290 11c8 00000000 		.ascii	"\000\000\000\000\000\000\000\000"
 2290      00000000 
 2291              		.global	ascii_1608
 2292              		.section	.rodata.ascii_1608,"a"
 2295              	ascii_1608:
 2296 0000 00000000 		.ascii	"\000\000\000\000\000\000\000\000\000\000\000\000\000"
 2296      00000000 
 2296      00000000 
 2296      00
 2297 000d 000000   		.ascii	"\000\000\000"
 2298 0010 00000008 		.ascii	"\000\000\000\010\010\010\010\010\010\010\000\000\030"
 2298      08080808 
 2298      08080000 
 2298      18
 2299 001d 180000   		.ascii	"\030\000\000"
 2300 0020 00486C24 		.ascii	"\000Hl$\022\000\000\000\000\000\000\000\000\000\000"
 2300      12000000 
 2300      00000000 
 2300      000000
 2301 002f 00       		.ascii	"\000"
 2302 0030 00000024 		.ascii	"\000\000\000$$$\177\022\022\022\177\022\022\022\000"
 2302      24247F12 
 2302      12127F12 
 2302      121200
 2303 003f 00       		.ascii	"\000"
 2304 0040 0000081C 		.ascii	"\000\000\010\034**\012\014\030((**\034\010\010"
 2304      2A2A0A0C 
 2304      1828282A 
 2304      2A1C0808 
 2305 0050 00000022 		.ascii	"\000\000\000\"%\025\025\025*XTTT\"\000\000"
 2305      25151515 
 2305      2A585454 
 2305      54220000 
 2306 0060 0000000C 		.ascii	"\000\000\000\014\022\022\022\012v%)\021\221n\000\000"
 2306      1212120A 
 2306      76252911 
 2306      916E0000 
 2307 0070 00060604 		.ascii	"\000\006\006\004\003\000\000\000\000\000\000\000\000"
 2307      03000000 
 2307      00000000 
 2307      00
 2308 007d 000000   		.ascii	"\000\000\000"
 2309 0080 00402010 		.ascii	"\000@ \020\020\010\010\010\010\010\010\020\020 @\000"
 2309      10080808 
 2309      08080810 
ARM GAS  C:\Users\Dawn\AppData\Local\Temp\ccpPnLvM.s 			page 90


 2309      10204000 
 2310 0090 00020408 		.ascii	"\000\002\004\010\010\020\020\020\020\020\020\010\010"
 2310      08101010 
 2310      10101008 
 2310      08
 2311 009d 040200   		.ascii	"\004\002\000"
 2312 00a0 00000000 		.ascii	"\000\000\000\000\010\010k\034\034k\010\010\000\000\000"
 2312      08086B1C 
 2312      1C6B0808 
 2312      000000
 2313 00af 00       		.ascii	"\000"
 2314 00b0 00000000 		.ascii	"\000\000\000\000\010\010\010\010\177\010\010\010\010"
 2314      08080808 
 2314      7F080808 
 2314      08
 2315 00bd 000000   		.ascii	"\000\000\000"
 2316 00c0 00000000 		.ascii	"\000\000\000\000\000\000\000\000\000\000\000\000\006"
 2316      00000000 
 2316      00000000 
 2316      06
 2317 00cd 060403   		.ascii	"\006\004\003"
 2318 00d0 00000000 		.ascii	"\000\000\000\000\000\000\000\000\376\000\000\000\000"
 2318      00000000 
 2318      FE000000 
 2318      00
 2319 00dd 000000   		.ascii	"\000\000\000"
 2320 00e0 00000000 		.ascii	"\000\000\000\000\000\000\000\000\000\000\000\000\006"
 2320      00000000 
 2320      00000000 
 2320      06
 2321 00ed 060000   		.ascii	"\006\000\000"
 2322 00f0 00008040 		.ascii	"\000\000\200@@  \020\020\010\010\004\004\002\002\000"
 2322      40202010 
 2322      10080804 
 2322      04020200 
 2323 0100 00000018 		.ascii	"\000\000\000\030$BBBBBBB$\030\000\000"
 2323      24424242 
 2323      42424242 
 2323      24180000 
 2324 0110 00000008 		.ascii	"\000\000\000\010\016\010\010\010\010\010\010\010\010"
 2324      0E080808 
 2324      08080808 
 2324      08
 2325 011d 3E0000   		.ascii	">\000\000"
 2326 0120 0000003C 		.ascii	"\000\000\000<BBB  \020\010\004B~\000\000"
 2326      42424220 
 2326      20100804 
 2326      427E0000 
 2327 0130 0000003C 		.ascii	"\000\000\000<BB \030 @@B\"\034\000\000"
 2327      42422018 
 2327      20404042 
 2327      221C0000 
 2328 0140 00000020 		.ascii	"\000\000\000 0($$\"\"~  x\000\000"
 2328      30282424 
 2328      22227E20 
 2328      20780000 
 2329 0150 0000007E 		.ascii	"\000\000\000~\002\002\002\032&@@B\"\034\000\000"
ARM GAS  C:\Users\Dawn\AppData\Local\Temp\ccpPnLvM.s 			page 91


 2329      0202021A 
 2329      26404042 
 2329      221C0000 
 2330 0160 00000038 		.ascii	"\000\000\0008$\002\002\032&BBB$\030\000\000"
 2330      2402021A 
 2330      26424242 
 2330      24180000 
 2331 0170 0000007E 		.ascii	"\000\000\000~\"\"\020\020\010\010\010\010\010\010\000"
 2331      22221010 
 2331      08080808 
 2331      080800
 2332 017f 00       		.ascii	"\000"
 2333 0180 0000003C 		.ascii	"\000\000\000<BBB$\030$BBB<\000\000"
 2333      42424224 
 2333      18244242 
 2333      423C0000 
 2334 0190 00000018 		.ascii	"\000\000\000\030$BBBdX@@$\034\000\000"
 2334      24424242 
 2334      64584040 
 2334      241C0000 
 2335 01a0 00000000 		.ascii	"\000\000\000\000\000\000\030\030\000\000\000\000\030"
 2335      00001818 
 2335      00000000 
 2335      18
 2336 01ad 180000   		.ascii	"\030\000\000"
 2337 01b0 00000000 		.ascii	"\000\000\000\000\000\000\000\010\000\000\000\000\000"
 2337      00000008 
 2337      00000000 
 2337      00
 2338 01bd 080804   		.ascii	"\010\010\004"
 2339 01c0 00000040 		.ascii	"\000\000\000@ \020\010\004\002\004\010\020 @\000\000"
 2339      20100804 
 2339      02040810 
 2339      20400000 
 2340 01d0 00000000 		.ascii	"\000\000\000\000\000\000\177\000\000\000\177\000\000"
 2340      00007F00 
 2340      00007F00 
 2340      00
 2341 01dd 000000   		.ascii	"\000\000\000"
 2342 01e0 00000002 		.ascii	"\000\000\000\002\004\010\020 @ \020\010\004\002\000"
 2342      04081020 
 2342      40201008 
 2342      040200
 2343 01ef 00       		.ascii	"\000"
 2344 01f0 0000003C 		.ascii	"\000\000\000<BBF@ \020\020\000\030\030\000\000"
 2344      42424640 
 2344      20101000 
 2344      18180000 
 2345 0200 0000001C 		.ascii	"\000\000\000\034\"ZUUUU-B\"\034\000\000"
 2345      225A5555 
 2345      55552D42 
 2345      221C0000 
 2346 0210 00000008 		.ascii	"\000\000\000\010\010\030\024\024$<\"BB\347\000\000"
 2346      08181414 
 2346      243C2242 
 2346      42E70000 
 2347 0220 0000001F 		.ascii	"\000\000\000\037\"\"\"\036\"BBB\"\037\000\000"
ARM GAS  C:\Users\Dawn\AppData\Local\Temp\ccpPnLvM.s 			page 92


 2347      2222221E 
 2347      22424242 
 2347      221F0000 
 2348 0230 0000007C 		.ascii	"\000\000\000|BB\001\001\001\001\001B\"\034\000\000"
 2348      42420101 
 2348      01010142 
 2348      221C0000 
 2349 0240 0000001F 		.ascii	"\000\000\000\037\"BBBBBBB\"\037\000\000"
 2349      22424242 
 2349      42424242 
 2349      221F0000 
 2350 0250 0000003F 		.ascii	"\000\000\000?B\022\022\036\022\022\002BB?\000\000"
 2350      4212121E 
 2350      12120242 
 2350      423F0000 
 2351 0260 0000003F 		.ascii	"\000\000\000?B\022\022\036\022\022\002\002\002\007\000"
 2351      4212121E 
 2351      12120202 
 2351      020700
 2352 026f 00       		.ascii	"\000"
 2353 0270 0000003C 		.ascii	"\000\000\000<\"\"\001\001\001q!\"\"\034\000\000"
 2353      22220101 
 2353      01712122 
 2353      221C0000 
 2354 0280 000000E7 		.ascii	"\000\000\000\347BBBB~BBBB\347\000\000"
 2354      42424242 
 2354      7E424242 
 2354      42E70000 
 2355 0290 0000003E 		.ascii	"\000\000\000>\010\010\010\010\010\010\010\010\010>\000"
 2355      08080808 
 2355      08080808 
 2355      083E00
 2356 029f 00       		.ascii	"\000"
 2357 02a0 0000007C 		.ascii	"\000\000\000|\020\020\020\020\020\020\020\020\020\020"
 2357      10101010 
 2357      10101010 
 2357      1010
 2358 02ae 110F     		.ascii	"\021\017"
 2359 02b0 00000077 		.ascii	"\000\000\000w\"\022\012\016\012\022\022\"\"w\000\000"
 2359      22120A0E 
 2359      0A121222 
 2359      22770000 
 2360 02c0 00000007 		.ascii	"\000\000\000\007\002\002\002\002\002\002\002\002B\177"
 2360      02020202 
 2360      02020202 
 2360      427F
 2361 02ce 0000     		.ascii	"\000\000"
 2362 02d0 00000077 		.ascii	"\000\000\000w6666*****k\000\000"
 2362      36363636 
 2362      2A2A2A2A 
 2362      2A6B0000 
 2363 02e0 000000E3 		.ascii	"\000\000\000\343FFJJRRRbbG\000\000"
 2363      46464A4A 
 2363      52525262 
 2363      62470000 
 2364 02f0 0000001C 		.ascii	"\000\000\000\034\"AAAAAAA\"\034\000\000"
 2364      22414141 
ARM GAS  C:\Users\Dawn\AppData\Local\Temp\ccpPnLvM.s 			page 93


 2364      41414141 
 2364      221C0000 
 2365 0300 0000003F 		.ascii	"\000\000\000?BBBB>\002\002\002\002\007\000\000"
 2365      42424242 
 2365      3E020202 
 2365      02070000 
 2366 0310 0000001C 		.ascii	"\000\000\000\034\"AAAAAMS2\034`\000"
 2366      22414141 
 2366      41414D53 
 2366      321C6000 
 2367 0320 0000003F 		.ascii	"\000\000\000?BBB>\022\022\"\"B\307\000\000"
 2367      4242423E 
 2367      12122222 
 2367      42C70000 
 2368 0330 0000007C 		.ascii	"\000\000\000|BB\002\004\030 @BB>\000\000"
 2368      42420204 
 2368      18204042 
 2368      423E0000 
 2369 0340 0000007F 		.ascii	"\000\000\000\177I\010\010\010\010\010\010\010\010\034"
 2369      49080808 
 2369      08080808 
 2369      081C
 2370 034e 0000     		.ascii	"\000\000"
 2371 0350 000000E7 		.ascii	"\000\000\000\347BBBBBBBBB<\000\000"
 2371      42424242 
 2371      42424242 
 2371      423C0000 
 2372 0360 000000E7 		.ascii	"\000\000\000\347BB\"$$\024\024\030\010\010\000\000"
 2372      42422224 
 2372      24141418 
 2372      08080000 
 2373 0370 0000006B 		.ascii	"\000\000\000kIIIIUU6\"\"\"\000\000"
 2373      49494949 
 2373      55553622 
 2373      22220000 
 2374 0380 000000E7 		.ascii	"\000\000\000\347B$$\030\030\030$$B\347\000\000"
 2374      42242418 
 2374      18182424 
 2374      42E70000 
 2375 0390 00000077 		.ascii	"\000\000\000w\"\"\024\024\010\010\010\010\010\034\000"
 2375      22221414 
 2375      08080808 
 2375      081C00
 2376 039f 00       		.ascii	"\000"
 2377 03a0 0000007E 		.ascii	"\000\000\000~! \020\020\010\004\004BB?\000\000"
 2377      21201010 
 2377      08040442 
 2377      423F0000 
 2378 03b0 00780808 		.ascii	"\000x\010\010\010\010\010\010\010\010\010\010\010\010"
 2378      08080808 
 2378      08080808 
 2378      0808
 2379 03be 7800     		.ascii	"x\000"
 2380 03c0 00000202 		.ascii	"\000\000\002\002\004\004\010\010\010\020\020   @@"
 2380      04040808 
 2380      08101020 
 2380      20204040 
ARM GAS  C:\Users\Dawn\AppData\Local\Temp\ccpPnLvM.s 			page 94


 2381 03d0 001E1010 		.ascii	"\000\036\020\020\020\020\020\020\020\020\020\020\020"
 2381      10101010 
 2381      10101010 
 2381      10
 2382 03dd 101E00   		.ascii	"\020\036\000"
 2383 03e0 00384400 		.ascii	"\0008D\000\000\000\000\000\000\000\000\000\000\000\000"
 2383      00000000 
 2383      00000000 
 2383      000000
 2384 03ef 00       		.ascii	"\000"
 2385 03f0 00000000 		.ascii	"\000\000\000\000\000\000\000\000\000\000\000\000\000"
 2385      00000000 
 2385      00000000 
 2385      00
 2386 03fd 0000FF   		.ascii	"\000\000\377"
 2387 0400 00060800 		.ascii	"\000\006\010\000\000\000\000\000\000\000\000\000\000"
 2387      00000000 
 2387      00000000 
 2387      00
 2388 040d 000000   		.ascii	"\000\000\000"
 2389 0410 00000000 		.ascii	"\000\000\000\000\000\000\000<BxDBB\374\000\000"
 2389      0000003C 
 2389      42784442 
 2389      42FC0000 
 2390 0420 00000003 		.ascii	"\000\000\000\003\002\002\002\032&BBB&\032\000\000"
 2390      0202021A 
 2390      26424242 
 2390      261A0000 
 2391 0430 00000000 		.ascii	"\000\000\000\000\000\000\0008D\002\002\002D8\000\000"
 2391      00000038 
 2391      44020202 
 2391      44380000 
 2392 0440 00000060 		.ascii	"\000\000\000`@@@xDBBBd\330\000\000"
 2392      40404078 
 2392      44424242 
 2392      64D80000 
 2393 0450 00000000 		.ascii	"\000\000\000\000\000\000\000<B~\002\002B<\000\000"
 2393      0000003C 
 2393      427E0202 
 2393      423C0000 
 2394 0460 000000F0 		.ascii	"\000\000\000\360\210\010\010~\010\010\010\010\010>\000"
 2394      8808087E 
 2394      08080808 
 2394      083E00
 2395 046f 00       		.ascii	"\000"
 2396 0470 00000000 		.ascii	"\000\000\000\000\000\000\000|\"\"\034\002<BB<"
 2396      0000007C 
 2396      22221C02 
 2396      3C42423C 
 2397 0480 00000003 		.ascii	"\000\000\000\003\002\002\002:FBBBB\347\000\000"
 2397      0202023A 
 2397      46424242 
 2397      42E70000 
 2398 0490 0000000C 		.ascii	"\000\000\000\014\014\000\000\016\010\010\010\010\010"
 2398      0C00000E 
 2398      08080808 
 2398      08
ARM GAS  C:\Users\Dawn\AppData\Local\Temp\ccpPnLvM.s 			page 95


 2399 049d 3E0000   		.ascii	">\000\000"
 2400 04a0 00000030 		.ascii	"\000\000\00000\000\0008      \"\036"
 2400      30000038 
 2400      20202020 
 2400      2020221E 
 2401 04b0 00000003 		.ascii	"\000\000\000\003\002\002\002r\022\012\026\022\"w\000"
 2401      02020272 
 2401      120A1612 
 2401      227700
 2402 04bf 00       		.ascii	"\000"
 2403 04c0 0000000E 		.ascii	"\000\000\000\016\010\010\010\010\010\010\010\010\010"
 2403      08080808 
 2403      08080808 
 2403      08
 2404 04cd 3E0000   		.ascii	">\000\000"
 2405 04d0 00000000 		.ascii	"\000\000\000\000\000\000\000\177\222\222\222\222\222"
 2405      0000007F 
 2405      92929292 
 2405      92
 2406 04dd B70000   		.ascii	"\267\000\000"
 2407 04e0 00000000 		.ascii	"\000\000\000\000\000\000\000;FBBBB\347\000\000"
 2407      0000003B 
 2407      46424242 
 2407      42E70000 
 2408 04f0 00000000 		.ascii	"\000\000\000\000\000\000\000<BBBBB<\000\000"
 2408      0000003C 
 2408      42424242 
 2408      423C0000 
 2409 0500 00000000 		.ascii	"\000\000\000\000\000\000\000\033&BBB\"\036\002\007"
 2409      0000001B 
 2409      26424242 
 2409      221E0207 
 2410 0510 00000000 		.ascii	"\000\000\000\000\000\000\000xDBBBDx@\340"
 2410      00000078 
 2410      44424242 
 2410      447840E0 
 2411 0520 00000000 		.ascii	"\000\000\000\000\000\000\000wL\004\004\004\004\037\000"
 2411      00000077 
 2411      4C040404 
 2411      041F00
 2412 052f 00       		.ascii	"\000"
 2413 0530 00000000 		.ascii	"\000\000\000\000\000\000\000|B\002<@B>\000\000"
 2413      0000007C 
 2413      42023C40 
 2413      423E0000 
 2414 0540 00000000 		.ascii	"\000\000\000\000\000\010\010>\010\010\010\010\0100\000"
 2414      0008083E 
 2414      08080808 
 2414      083000
 2415 054f 00       		.ascii	"\000"
 2416 0550 00000000 		.ascii	"\000\000\000\000\000\000\000cBBBBb\334\000\000"
 2416      00000063 
 2416      42424242 
 2416      62DC0000 
 2417 0560 00000000 		.ascii	"\000\000\000\000\000\000\000\347B$$\024\010\010\000"
 2417      000000E7 
 2417      42242414 
ARM GAS  C:\Users\Dawn\AppData\Local\Temp\ccpPnLvM.s 			page 96


 2417      080800
 2418 056f 00       		.ascii	"\000"
 2419 0570 00000000 		.ascii	"\000\000\000\000\000\000\000\353IIUU\"\"\000\000"
 2419      000000EB 
 2419      49495555 
 2419      22220000 
 2420 0580 00000000 		.ascii	"\000\000\000\000\000\000\000v$\030\030\030$n\000\000"
 2420      00000076 
 2420      24181818 
 2420      246E0000 
 2421 0590 00000000 		.ascii	"\000\000\000\000\000\000\000\347B$$\024\030\010\010"
 2421      000000E7 
 2421      42242414 
 2421      180808
 2422 059f 07       		.ascii	"\007"
 2423 05a0 00000000 		.ascii	"\000\000\000\000\000\000\000~\"\020\010\010D~\000\000"
 2423      0000007E 
 2423      22100808 
 2423      447E0000 
 2424 05b0 00C02020 		.ascii	"\000\300     \020      \300\000"
 2424      20202010 
 2424      20202020 
 2424      2020C000 
 2425 05c0 10101010 		.ascii	"\020\020\020\020\020\020\020\020\020\020\020\020\020"
 2425      10101010 
 2425      10101010 
 2425      10
 2426 05cd 101010   		.ascii	"\020\020\020"
 2427 05d0 00060808 		.ascii	"\000\006\010\010\010\010\010\020\010\010\010\010\010"
 2427      08080810 
 2427      08080808 
 2427      08
 2428 05dd 080600   		.ascii	"\010\006\000"
 2429 05e0 0C32C200 		.ascii	"\0142\302\000\000\000\000\000\000\000\000\000\000\000"
 2429      00000000 
 2429      00000000 
 2429      0000
 2430 05ee 0000     		.ascii	"\000\000"
 2431              		.global	ascii_1206
 2432              		.section	.rodata.ascii_1206,"a"
 2435              	ascii_1206:
 2436 0000 00000000 		.ascii	"\000\000\000\000\000\000\000\000\000\000\000\000"
 2436      00000000 
 2436      00000000 
 2437 000c 00000404 		.ascii	"\000\000\004\004\004\004\004\000\000\004\000\000"
 2437      04040400 
 2437      00040000 
 2438 0018 14140A00 		.ascii	"\024\024\012\000\000\000\000\000\000\000\000\000"
 2438      00000000 
 2438      00000000 
 2439 0024 00000A0A 		.ascii	"\000\000\012\012\037\012\012\037\012\012\000\000"
 2439      1F0A0A1F 
 2439      0A0A0000 
 2440 0030 00040E15 		.ascii	"\000\004\016\025\005\006\014\024\025\016\004\000"
 2440      05060C14 
 2440      150E0400 
 2441 003c 00001215 		.ascii	"\000\000\022\025\015\025.,*\022\000\000"
ARM GAS  C:\Users\Dawn\AppData\Local\Temp\ccpPnLvM.s 			page 97


 2441      0D152E2C 
 2441      2A120000 
 2442 0048 0000040A 		.ascii	"\000\000\004\012\0126\025\025)\026\000\000"
 2442      0A361515 
 2442      29160000 
 2443 0054 02020100 		.ascii	"\002\002\001\000\000\000\000\000\000\000\000\000"
 2443      00000000 
 2443      00000000 
 2444 0060 10080804 		.ascii	"\020\010\010\004\004\004\004\004\010\010\020\000"
 2444      04040404 
 2444      08081000 
 2445 006c 02040408 		.ascii	"\002\004\004\010\010\010\010\010\004\004\002\000"
 2445      08080808 
 2445      04040200 
 2446 0078 00000004 		.ascii	"\000\000\000\004\025\016\016\025\004\000\000\000"
 2446      150E0E15 
 2446      04000000 
 2447 0084 00000008 		.ascii	"\000\000\000\010\010>\010\010\000\000\000\000"
 2447      083E0808 
 2447      00000000 
 2448 0090 00000000 		.ascii	"\000\000\000\000\000\000\000\000\002\002\001\000"
 2448      00000000 
 2448      02020100 
 2449 009c 00000000 		.ascii	"\000\000\000\000\000?\000\000\000\000\000\000"
 2449      003F0000 
 2449      00000000 
 2450 00a8 00000000 		.ascii	"\000\000\000\000\000\000\000\000\000\002\000\000"
 2450      00000000 
 2450      00020000 
 2451 00b4 00201010 		.ascii	"\000 \020\020\010\010\004\004\002\002\001\000"
 2451      08080404 
 2451      02020100 
 2452 00c0 00000E11 		.ascii	"\000\000\016\021\021\021\021\021\021\016\000\000"
 2452      11111111 
 2452      110E0000 
 2453 00cc 00000406 		.ascii	"\000\000\004\006\004\004\004\004\004\016\000\000"
 2453      04040404 
 2453      040E0000 
 2454 00d8 00000E11 		.ascii	"\000\000\016\021\021\010\004\002\001\037\000\000"
 2454      11080402 
 2454      011F0000 
 2455 00e4 00000E11 		.ascii	"\000\000\016\021\020\014\020\020\021\016\000\000"
 2455      100C1010 
 2455      110E0000 
 2456 00f0 0000080C 		.ascii	"\000\000\010\014\014\012\011\037\010\034\000\000"
 2456      0C0A091F 
 2456      081C0000 
 2457 00fc 00001F01 		.ascii	"\000\000\037\001\001\017\021\020\021\016\000\000"
 2457      010F1110 
 2457      110E0000 
 2458 0108 00000C12 		.ascii	"\000\000\014\022\001\015\023\021\021\016\000\000"
 2458      010D1311 
 2458      110E0000 
 2459 0114 00001E10 		.ascii	"\000\000\036\020\010\010\004\004\004\004\000\000"
 2459      08080404 
 2459      04040000 
 2460 0120 00000E11 		.ascii	"\000\000\016\021\021\016\021\021\021\016\000\000"
ARM GAS  C:\Users\Dawn\AppData\Local\Temp\ccpPnLvM.s 			page 98


 2460      110E1111 
 2460      110E0000 
 2461 012c 00000E11 		.ascii	"\000\000\016\021\021\031\026\020\011\006\000\000"
 2461      11191610 
 2461      09060000 
 2462 0138 00000000 		.ascii	"\000\000\000\000\004\000\000\000\000\004\000\000"
 2462      04000000 
 2462      00040000 
 2463 0144 00000000 		.ascii	"\000\000\000\000\000\004\000\000\000\004\004\000"
 2463      00040000 
 2463      00040400 
 2464 0150 00001008 		.ascii	"\000\000\020\010\004\002\002\004\010\020\000\000"
 2464      04020204 
 2464      08100000 
 2465 015c 00000000 		.ascii	"\000\000\000\000?\000?\000\000\000\000\000"
 2465      3F003F00 
 2465      00000000 
 2466 0168 00000204 		.ascii	"\000\000\002\004\010\020\020\010\004\002\000\000"
 2466      08101008 
 2466      04020000 
 2467 0174 00000E11 		.ascii	"\000\000\016\021\021\010\004\004\000\004\000\000"
 2467      11080404 
 2467      00040000 
 2468 0180 00001C22 		.ascii	"\000\000\034\")--\035\"\034\000\000"
 2468      292D2D1D 
 2468      221C0000 
 2469 018c 00000404 		.ascii	"\000\000\004\004\014\012\012\036\0223\000\000"
 2469      0C0A0A1E 
 2469      12330000 
 2470 0198 00000F12 		.ascii	"\000\000\017\022\022\016\022\022\022\017\000\000"
 2470      120E1212 
 2470      120F0000 
 2471 01a4 00001E11 		.ascii	"\000\000\036\021\001\001\001\001\021\016\000\000"
 2471      01010101 
 2471      110E0000 
 2472 01b0 00000F12 		.ascii	"\000\000\017\022\022\022\022\022\022\017\000\000"
 2472      12121212 
 2472      120F0000 
 2473 01bc 00001F12 		.ascii	"\000\000\037\022\012\016\012\002\022\037\000\000"
 2473      0A0E0A02 
 2473      121F0000 
 2474 01c8 00001F12 		.ascii	"\000\000\037\022\012\016\012\002\002\007\000\000"
 2474      0A0E0A02 
 2474      02070000 
 2475 01d4 00001C12 		.ascii	"\000\000\034\022\001\0019\021\022\014\000\000"
 2475      01013911 
 2475      120C0000 
 2476 01e0 00003312 		.ascii	"\000\0003\022\022\036\022\022\0223\000\000"
 2476      121E1212 
 2476      12330000 
 2477 01ec 00001F04 		.ascii	"\000\000\037\004\004\004\004\004\004\037\000\000"
 2477      04040404 
 2477      041F0000 
 2478 01f8 00003E08 		.ascii	"\000\000>\010\010\010\010\010\010\010\011\007"
 2478      08080808 
 2478      08080907 
 2479 0204 00003712 		.ascii	"\000\0007\022\012\006\012\022\0227\000\000"
ARM GAS  C:\Users\Dawn\AppData\Local\Temp\ccpPnLvM.s 			page 99


 2479      0A060A12 
 2479      12370000 
 2480 0210 00000702 		.ascii	"\000\000\007\002\002\002\002\002\"?\000\000"
 2480      02020202 
 2480      223F0000 
 2481 021c 00003B1B 		.ascii	"\000\000;\033\033\033\025\025\0255\000\000"
 2481      1B1B1515 
 2481      15350000 
 2482 0228 00003B12 		.ascii	"\000\000;\022\026\026\032\032\022\027\000\000"
 2482      16161A1A 
 2482      12170000 
 2483 0234 00000E11 		.ascii	"\000\000\016\021\021\021\021\021\021\016\000\000"
 2483      11111111 
 2483      110E0000 
 2484 0240 00000F12 		.ascii	"\000\000\017\022\022\016\002\002\002\007\000\000"
 2484      120E0202 
 2484      02070000 
 2485 024c 00000E11 		.ascii	"\000\000\016\021\021\021\021\027\031\016\030\000"
 2485      11111117 
 2485      190E1800 
 2486 0258 00000F12 		.ascii	"\000\000\017\022\022\016\012\022\0227\000\000"
 2486      120E0A12 
 2486      12370000 
 2487 0264 00001E11 		.ascii	"\000\000\036\021\001\006\010\020\021\017\000\000"
 2487      01060810 
 2487      110F0000 
 2488 0270 00001F15 		.ascii	"\000\000\037\025\004\004\004\004\004\016\000\000"
 2488      04040404 
 2488      040E0000 
 2489 027c 00003312 		.ascii	"\000\0003\022\022\022\022\022\022\014\000\000"
 2489      12121212 
 2489      120C0000 
 2490 0288 00003312 		.ascii	"\000\0003\022\022\012\012\014\004\004\000\000"
 2490      120A0A0C 
 2490      04040000 
 2491 0294 00001515 		.ascii	"\000\000\025\025\025\025\016\012\012\012\000\000"
 2491      15150E0A 
 2491      0A0A0000 
 2492 02a0 00001B0A 		.ascii	"\000\000\033\012\012\004\004\012\012\033\000\000"
 2492      0A04040A 
 2492      0A1B0000 
 2493 02ac 00001B0A 		.ascii	"\000\000\033\012\012\012\004\004\004\016\000\000"
 2493      0A0A0404 
 2493      040E0000 
 2494 02b8 00001F09 		.ascii	"\000\000\037\011\010\004\004\002\022\037\000\000"
 2494      08040402 
 2494      121F0000 
 2495 02c4 1C040404 		.ascii	"\034\004\004\004\004\004\004\004\004\004\034\000"
 2495      04040404 
 2495      04041C00 
 2496 02d0 00020204 		.ascii	"\000\002\002\004\004\004\010\010\010\020\020\000"
 2496      04040808 
 2496      08101000 
 2497 02dc 0E080808 		.ascii	"\016\010\010\010\010\010\010\010\010\010\016\000"
 2497      08080808 
 2497      08080E00 
 2498 02e8 040A0000 		.ascii	"\004\012\000\000\000\000\000\000\000\000\000\000"
ARM GAS  C:\Users\Dawn\AppData\Local\Temp\ccpPnLvM.s 			page 100


 2498      00000000 
 2498      00000000 
 2499 02f4 00000000 		.ascii	"\000\000\000\000\000\000\000\000\000\000\000?"
 2499      00000000 
 2499      0000003F 
 2500 0300 02040000 		.ascii	"\002\004\000\000\000\000\000\000\000\000\000\000"
 2500      00000000 
 2500      00000000 
 2501 030c 00000000 		.ascii	"\000\000\000\000\000\014\022\034\022<\000\000"
 2501      000C121C 
 2501      123C0000 
 2502 0318 00030202 		.ascii	"\000\003\002\002\002\016\022\022\022\016\000\000"
 2502      020E1212 
 2502      120E0000 
 2503 0324 00000000 		.ascii	"\000\000\000\000\000\034\022\002\022\014\000\000"
 2503      001C1202 
 2503      120C0000 
 2504 0330 00181010 		.ascii	"\000\030\020\020\020\034\022\022\022<\000\000"
 2504      101C1212 
 2504      123C0000 
 2505 033c 00000000 		.ascii	"\000\000\000\000\000\014\022\036\002\034\000\000"
 2505      000C121E 
 2505      021C0000 
 2506 0348 00182404 		.ascii	"\000\030$\004\004\036\004\004\004\036\000\000"
 2506      041E0404 
 2506      041E0000 
 2507 0354 00000000 		.ascii	"\000\000\000\000\000<\022\014\002\034\"\034"
 2507      003C120C 
 2507      021C221C 
 2508 0360 00030202 		.ascii	"\000\003\002\002\002\016\022\022\0227\000\000"
 2508      020E1212 
 2508      12370000 
 2509 036c 00040400 		.ascii	"\000\004\004\000\000\006\004\004\004\016\000\000"
 2509      00060404 
 2509      040E0000 
 2510 0378 00080800 		.ascii	"\000\010\010\000\000\014\010\010\010\010\010\007"
 2510      000C0808 
 2510      08080807 
 2511 0384 00030202 		.ascii	"\000\003\002\002\002\032\012\006\012\023\000\000"
 2511      021A0A06 
 2511      0A130000 
 2512 0390 00070404 		.ascii	"\000\007\004\004\004\004\004\004\004\037\000\000"
 2512      04040404 
 2512      041F0000 
 2513 039c 00000000 		.ascii	"\000\000\000\000\000\017\025\025\025\025\000\000"
 2513      000F1515 
 2513      15150000 
 2514 03a8 00000000 		.ascii	"\000\000\000\000\000\017\022\022\0227\000\000"
 2514      000F1212 
 2514      12370000 
 2515 03b4 00000000 		.ascii	"\000\000\000\000\000\014\022\022\022\014\000\000"
 2515      000C1212 
 2515      120C0000 
 2516 03c0 00000000 		.ascii	"\000\000\000\000\000\017\022\022\022\016\002\007"
 2516      000F1212 
 2516      120E0207 
 2517 03cc 00000000 		.ascii	"\000\000\000\000\000\034\022\022\022\034\0208"
ARM GAS  C:\Users\Dawn\AppData\Local\Temp\ccpPnLvM.s 			page 101


 2517      001C1212 
 2517      121C1038 
 2518 03d8 00000000 		.ascii	"\000\000\000\000\000\033\006\002\002\007\000\000"
 2518      001B0602 
 2518      02070000 
 2519 03e4 00000000 		.ascii	"\000\000\000\000\000\036\002\014\020\036\000\000"
 2519      001E020C 
 2519      101E0000 
 2520 03f0 00000004 		.ascii	"\000\000\000\004\004\036\004\004\004\034\000\000"
 2520      041E0404 
 2520      041C0000 
 2521 03fc 00000000 		.ascii	"\000\000\000\000\000\033\022\022\022<\000\000"
 2521      001B1212 
 2521      123C0000 
 2522 0408 00000000 		.ascii	"\000\000\000\000\000\033\012\012\004\004\000\000"
 2522      001B0A0A 
 2522      04040000 
 2523 0414 00000000 		.ascii	"\000\000\000\000\000\025\025\016\012\012\000\000"
 2523      0015150E 
 2523      0A0A0000 
 2524 0420 00000000 		.ascii	"\000\000\000\000\000\033\012\004\012\033\000\000"
 2524      001B0A04 
 2524      0A1B0000 
 2525 042c 00000000 		.ascii	"\000\000\000\000\0003\022\022\014\010\004\003"
 2525      00331212 
 2525      0C080403 
 2526 0438 00000000 		.ascii	"\000\000\000\000\000\036\010\004\004\036\000\000"
 2526      001E0804 
 2526      041E0000 
 2527 0444 18080808 		.ascii	"\030\010\010\010\010\014\010\010\010\010\030\000"
 2527      080C0808 
 2527      08081800 
 2528 0450 08080808 		.ascii	"\010\010\010\010\010\010\010\010\010\010\010\010"
 2528      08080808 
 2528      08080808 
 2529 045c 06040404 		.ascii	"\006\004\004\004\004\010\004\004\004\004\006\000"
 2529      04080404 
 2529      04040600 
 2530 0468 16090000 		.ascii	"\026\011\000\000\000\000\000\000\000\000\000\000"
 2530      00000000 
 2530      00000000 
 2531              		.text
 2532              	.Letext0:
 2533              		.file 2 "D:/Tool/arm-gnu-toolchain/arm-none-eabi/include/machine/_default_types.h"
 2534              		.file 3 "D:/Tool/arm-gnu-toolchain/arm-none-eabi/include/sys/_stdint.h"
 2535              		.file 4 "../firmware/CMSIS/device/n32g430.h"
 2536              		.file 5 "../APP/LCD/Inc/lcdfont.h"
 2537              		.file 6 "../APP/LCD/Inc/lcd_init.h"
ARM GAS  C:\Users\Dawn\AppData\Local\Temp\ccpPnLvM.s 			page 102

