ARM GAS  C:\Users\Dawn\AppData\Local\Temp\ccGZo2O0.s 			page 1


   1              		.cpu cortex-m4
   2              		.arch armv7e-m
   3              		.fpu fpv4-sp-d16
   4              		.eabi_attribute 27, 1
   5              		.eabi_attribute 28, 1
   6              		.eabi_attribute 20, 1
   7              		.eabi_attribute 21, 1
   8              		.eabi_attribute 23, 3
   9              		.eabi_attribute 24, 1
  10              		.eabi_attribute 25, 1
  11              		.eabi_attribute 26, 1
  12              		.eabi_attribute 30, 4
  13              		.eabi_attribute 34, 1
  14              		.eabi_attribute 18, 4
  15              		.file	"n32g430_comp.c"
  16              		.text
  17              	.Ltext0:
  18              		.cfi_sections	.debug_frame
  19              		.file 1 "../firmware/n32g430_std_periph_driver/src/n32g430_comp.c"
  20              		.section	.text.COMP_Reset,"ax",%progbits
  21              		.align	1
  22              		.global	COMP_Reset
  23              		.syntax unified
  24              		.thumb
  25              		.thumb_func
  27              	COMP_Reset:
  28              	.LFB130:
   1:../firmware/n32g430_std_periph_driver/src/n32g430_comp.c **** /*****************************************************************************
   2:../firmware/n32g430_std_periph_driver/src/n32g430_comp.c ****  * Copyright (c) 2019, Nations Technologies Inc.
   3:../firmware/n32g430_std_periph_driver/src/n32g430_comp.c ****  *
   4:../firmware/n32g430_std_periph_driver/src/n32g430_comp.c ****  * All rights reserved.
   5:../firmware/n32g430_std_periph_driver/src/n32g430_comp.c ****  * ****************************************************************************
   6:../firmware/n32g430_std_periph_driver/src/n32g430_comp.c ****  *
   7:../firmware/n32g430_std_periph_driver/src/n32g430_comp.c ****  * Redistribution and use in source and binary forms, with or without
   8:../firmware/n32g430_std_periph_driver/src/n32g430_comp.c ****  * modification, are permitted provided that the following conditions are met:
   9:../firmware/n32g430_std_periph_driver/src/n32g430_comp.c ****  *
  10:../firmware/n32g430_std_periph_driver/src/n32g430_comp.c ****  * - Redistributions of source code must retain the above copyright notice,
  11:../firmware/n32g430_std_periph_driver/src/n32g430_comp.c ****  * this list of conditions and the disclaimer below.
  12:../firmware/n32g430_std_periph_driver/src/n32g430_comp.c ****  *
  13:../firmware/n32g430_std_periph_driver/src/n32g430_comp.c ****  * Nations' name may not be used to endorse or promote products derived from
  14:../firmware/n32g430_std_periph_driver/src/n32g430_comp.c ****  * this software without specific prior written permission.
  15:../firmware/n32g430_std_periph_driver/src/n32g430_comp.c ****  *
  16:../firmware/n32g430_std_periph_driver/src/n32g430_comp.c ****  * DISCLAIMER: THIS SOFTWARE IS PROVIDED BY NATIONS "AS IS" AND ANY EXPRESS OR
  17:../firmware/n32g430_std_periph_driver/src/n32g430_comp.c ****  * IMPLIED WARRANTIES, INCLUDING, BUT NOT LIMITED TO, THE IMPLIED WARRANTIES OF
  18:../firmware/n32g430_std_periph_driver/src/n32g430_comp.c ****  * MERCHANTABILITY, FITNESS FOR A PARTICULAR PURPOSE AND NON-INFRINGEMENT ARE
  19:../firmware/n32g430_std_periph_driver/src/n32g430_comp.c ****  * DISCLAIMED. IN NO EVENT SHALL NATIONS BE LIABLE FOR ANY DIRECT, INDIRECT,
  20:../firmware/n32g430_std_periph_driver/src/n32g430_comp.c ****  * INCIDENTAL, SPECIAL, EXEMPLARY, OR CONSEQUENTIAL DAMAGES (INCLUDING, BUT NOT
  21:../firmware/n32g430_std_periph_driver/src/n32g430_comp.c ****  * LIMITED TO, PROCUREMENT OF SUBSTITUTE GOODS OR SERVICES; LOSS OF USE, DATA,
  22:../firmware/n32g430_std_periph_driver/src/n32g430_comp.c ****  * OR PROFITS; OR BUSINESS INTERRUPTION) HOWEVER CAUSED AND ON ANY THEORY OF
  23:../firmware/n32g430_std_periph_driver/src/n32g430_comp.c ****  * LIABILITY, WHETHER IN CONTRACT, STRICT LIABILITY, OR TORT (INCLUDING
  24:../firmware/n32g430_std_periph_driver/src/n32g430_comp.c ****  * NEGLIGENCE OR OTHERWISE) ARISING IN ANY WAY OUT OF THE USE OF THIS SOFTWARE,
  25:../firmware/n32g430_std_periph_driver/src/n32g430_comp.c ****  * EVEN IF ADVISED OF THE POSSIBILITY OF SUCH DAMAGE.
  26:../firmware/n32g430_std_periph_driver/src/n32g430_comp.c ****  * ****************************************************************************/
  27:../firmware/n32g430_std_periph_driver/src/n32g430_comp.c **** 
  28:../firmware/n32g430_std_periph_driver/src/n32g430_comp.c **** /**
  29:../firmware/n32g430_std_periph_driver/src/n32g430_comp.c **** *\*\file n32g430_comp.c
  30:../firmware/n32g430_std_periph_driver/src/n32g430_comp.c **** *\*\author Nations
ARM GAS  C:\Users\Dawn\AppData\Local\Temp\ccGZo2O0.s 			page 2


  31:../firmware/n32g430_std_periph_driver/src/n32g430_comp.c **** *\*\version v1.0.0
  32:../firmware/n32g430_std_periph_driver/src/n32g430_comp.c **** *\*\copyright Copyright (c) 2019, Nations Technologies Inc. All rights reserved.
  33:../firmware/n32g430_std_periph_driver/src/n32g430_comp.c **** **/
  34:../firmware/n32g430_std_periph_driver/src/n32g430_comp.c **** 
  35:../firmware/n32g430_std_periph_driver/src/n32g430_comp.c **** #include "n32g430_comp.h"
  36:../firmware/n32g430_std_periph_driver/src/n32g430_comp.c **** #include "n32g430_rcc.h"
  37:../firmware/n32g430_std_periph_driver/src/n32g430_comp.c **** 
  38:../firmware/n32g430_std_periph_driver/src/n32g430_comp.c **** 
  39:../firmware/n32g430_std_periph_driver/src/n32g430_comp.c **** /** COMP Driving Functions Declaration**/
  40:../firmware/n32g430_std_periph_driver/src/n32g430_comp.c **** 
  41:../firmware/n32g430_std_periph_driver/src/n32g430_comp.c **** 
  42:../firmware/n32g430_std_periph_driver/src/n32g430_comp.c **** /**
  43:../firmware/n32g430_std_periph_driver/src/n32g430_comp.c **** *\*\name    COMP_Reset.
  44:../firmware/n32g430_std_periph_driver/src/n32g430_comp.c **** *\*\fun     Reset the COMP registers.
  45:../firmware/n32g430_std_periph_driver/src/n32g430_comp.c **** *\*\return  none
  46:../firmware/n32g430_std_periph_driver/src/n32g430_comp.c **** **/
  47:../firmware/n32g430_std_periph_driver/src/n32g430_comp.c **** void COMP_Reset(void)
  48:../firmware/n32g430_std_periph_driver/src/n32g430_comp.c **** {
  29              		.loc 1 48 1 view -0
  30              		.cfi_startproc
  31              		@ args = 0, pretend = 0, frame = 0
  32              		@ frame_needed = 0, uses_anonymous_args = 0
  49:../firmware/n32g430_std_periph_driver/src/n32g430_comp.c ****     RCC_APB1_Peripheral_Reset(RCC_APB1_PERIPH_COMP);
  33              		.loc 1 49 5 view .LVU1
  48:../firmware/n32g430_std_periph_driver/src/n32g430_comp.c ****     RCC_APB1_Peripheral_Reset(RCC_APB1_PERIPH_COMP);
  34              		.loc 1 48 1 is_stmt 0 view .LVU2
  35 0000 08B5     		push	{r3, lr}
  36              	.LCFI0:
  37              		.cfi_def_cfa_offset 8
  38              		.cfi_offset 3, -8
  39              		.cfi_offset 14, -4
  40              		.loc 1 49 5 view .LVU3
  41 0002 4020     		movs	r0, #64
  42 0004 FFF7FEFF 		bl	RCC_APB1_Peripheral_Reset
  43              	.LVL0:
  50:../firmware/n32g430_std_periph_driver/src/n32g430_comp.c ****     RCC_APB1_Peripheral_Reset(RCC_APB1_PERIPH_COMP_FILT);  
  44              		.loc 1 50 5 is_stmt 1 view .LVU4
  51:../firmware/n32g430_std_periph_driver/src/n32g430_comp.c **** }
  45              		.loc 1 51 1 is_stmt 0 view .LVU5
  46 0008 BDE80840 		pop	{r3, lr}
  47              	.LCFI1:
  48              		.cfi_restore 14
  49              		.cfi_restore 3
  50              		.cfi_def_cfa_offset 0
  50:../firmware/n32g430_std_periph_driver/src/n32g430_comp.c ****     RCC_APB1_Peripheral_Reset(RCC_APB1_PERIPH_COMP_FILT);  
  51              		.loc 1 50 5 view .LVU6
  52 000c 8020     		movs	r0, #128
  53 000e FFF7FEBF 		b	RCC_APB1_Peripheral_Reset
  54              	.LVL1:
  55              		.cfi_endproc
  56              	.LFE130:
  58              		.section	.text.COMP_Initializes_Structure,"ax",%progbits
  59              		.align	1
  60              		.global	COMP_Initializes_Structure
  61              		.syntax unified
  62              		.thumb
  63              		.thumb_func
ARM GAS  C:\Users\Dawn\AppData\Local\Temp\ccGZo2O0.s 			page 3


  65              	COMP_Initializes_Structure:
  66              	.LVL2:
  67              	.LFB131:
  52:../firmware/n32g430_std_periph_driver/src/n32g430_comp.c **** 
  53:../firmware/n32g430_std_periph_driver/src/n32g430_comp.c **** /**
  54:../firmware/n32g430_std_periph_driver/src/n32g430_comp.c **** *\*\name    COMP_Initializes_Structure.
  55:../firmware/n32g430_std_periph_driver/src/n32g430_comp.c **** *\*\fun     Fills all COMP_initstruct member with default value.
  56:../firmware/n32g430_std_periph_driver/src/n32g430_comp.c **** *\*\param   COMP_initstruct :
  57:../firmware/n32g430_std_periph_driver/src/n32g430_comp.c **** *\*\          - Blking
  58:../firmware/n32g430_std_periph_driver/src/n32g430_comp.c **** *\*\          - Hyst
  59:../firmware/n32g430_std_periph_driver/src/n32g430_comp.c **** *\*\          - PolRev
  60:../firmware/n32g430_std_periph_driver/src/n32g430_comp.c **** *\*\          - OutSel
  61:../firmware/n32g430_std_periph_driver/src/n32g430_comp.c **** *\*\          - InpSel
  62:../firmware/n32g430_std_periph_driver/src/n32g430_comp.c **** *\*\          - InmSel
  63:../firmware/n32g430_std_periph_driver/src/n32g430_comp.c **** *\*\          - FilterEn
  64:../firmware/n32g430_std_periph_driver/src/n32g430_comp.c **** *\*\          - ClkPsc
  65:../firmware/n32g430_std_periph_driver/src/n32g430_comp.c **** *\*\          - SampWindow
  66:../firmware/n32g430_std_periph_driver/src/n32g430_comp.c **** *\*\          - Threshold
  67:../firmware/n32g430_std_periph_driver/src/n32g430_comp.c **** *\*\          - En
  68:../firmware/n32g430_std_periph_driver/src/n32g430_comp.c **** *\*\return  none
  69:../firmware/n32g430_std_periph_driver/src/n32g430_comp.c **** **/
  70:../firmware/n32g430_std_periph_driver/src/n32g430_comp.c **** void COMP_Initializes_Structure(COMP_InitType* COMP_initstruct)
  71:../firmware/n32g430_std_periph_driver/src/n32g430_comp.c **** {
  68              		.loc 1 71 1 is_stmt 1 view -0
  69              		.cfi_startproc
  70              		@ args = 0, pretend = 0, frame = 0
  71              		@ frame_needed = 0, uses_anonymous_args = 0
  72              		@ link register save eliminated.
  72:../firmware/n32g430_std_periph_driver/src/n32g430_comp.c ****     /* Reset COMP init structure parameters values */ 
  73:../firmware/n32g430_std_periph_driver/src/n32g430_comp.c ****     /* Initialize the Blking */
  74:../firmware/n32g430_std_periph_driver/src/n32g430_comp.c ****     COMP_initstruct->Blking            = COMP_BLANKING_NO;
  73              		.loc 1 74 5 view .LVU8
  75:../firmware/n32g430_std_periph_driver/src/n32g430_comp.c ****     /* Initialize the Hyst */
  76:../firmware/n32g430_std_periph_driver/src/n32g430_comp.c ****     COMP_initstruct->Hyst              = COMP_HYST_NO;
  74              		.loc 1 76 5 view .LVU9
  77:../firmware/n32g430_std_periph_driver/src/n32g430_comp.c ****     /* Initialize the PolRev */
  78:../firmware/n32g430_std_periph_driver/src/n32g430_comp.c ****     COMP_initstruct->PolRev            = COMP_OUTPOL_NFLIP;
  75              		.loc 1 78 5 view .LVU10
  79:../firmware/n32g430_std_periph_driver/src/n32g430_comp.c ****     /* Initialize the OutSel */
  80:../firmware/n32g430_std_periph_driver/src/n32g430_comp.c ****     COMP_initstruct->OutSel            = COMP_OUTSEL_RES;
  76              		.loc 1 80 5 view .LVU11
  81:../firmware/n32g430_std_periph_driver/src/n32g430_comp.c ****     /* Initialize the InpSel */
  82:../firmware/n32g430_std_periph_driver/src/n32g430_comp.c ****     COMP_initstruct->InpSel            = COMP_INPSEL_RES;
  77              		.loc 1 82 5 view .LVU12
  83:../firmware/n32g430_std_periph_driver/src/n32g430_comp.c ****     /* Initialize the InmSel */
  84:../firmware/n32g430_std_periph_driver/src/n32g430_comp.c ****     COMP_initstruct->InmSel            = COMP_INMSEL_RES;
  78              		.loc 1 84 5 view .LVU13
  85:../firmware/n32g430_std_periph_driver/src/n32g430_comp.c ****     /* Initialize the FilterEn */
  86:../firmware/n32g430_std_periph_driver/src/n32g430_comp.c ****     COMP_initstruct->FilterEn          = DISABLE;
  79              		.loc 1 86 5 view .LVU14
  87:../firmware/n32g430_std_periph_driver/src/n32g430_comp.c ****     /* Initialize the ClkPsc */
  88:../firmware/n32g430_std_periph_driver/src/n32g430_comp.c ****     COMP_initstruct->ClkPsc            = 0;
  80              		.loc 1 88 5 view .LVU15
  81              		.loc 1 88 40 is_stmt 0 view .LVU16
  82 0000 0023     		movs	r3, #0
  76:../firmware/n32g430_std_periph_driver/src/n32g430_comp.c ****     /* Initialize the PolRev */
  83              		.loc 1 76 40 view .LVU17
ARM GAS  C:\Users\Dawn\AppData\Local\Temp\ccGZo2O0.s 			page 4


  84 0002 C0E90033 		strd	r3, r3, [r0]
  80:../firmware/n32g430_std_periph_driver/src/n32g430_comp.c ****     /* Initialize the InpSel */
  85              		.loc 1 80 40 view .LVU18
  86 0006 C0E90233 		strd	r3, r3, [r0, #8]
  84:../firmware/n32g430_std_periph_driver/src/n32g430_comp.c ****     /* Initialize the FilterEn */
  87              		.loc 1 84 40 view .LVU19
  88 000a C0E90433 		strd	r3, r3, [r0, #16]
  89              		.loc 1 88 40 view .LVU20
  90 000e 0384     		strh	r3, [r0, #32]	@ movhi
  89:../firmware/n32g430_std_periph_driver/src/n32g430_comp.c ****     /* Initialize the SampWindow */
  90:../firmware/n32g430_std_periph_driver/src/n32g430_comp.c ****     COMP_initstruct->SampWindow        = 0;
  91              		.loc 1 90 5 is_stmt 1 view .LVU21
  91:../firmware/n32g430_std_periph_driver/src/n32g430_comp.c ****     /* Initialize the Threshold */
  92:../firmware/n32g430_std_periph_driver/src/n32g430_comp.c ****     COMP_initstruct->Threshold         = 0;
  92              		.loc 1 92 5 view .LVU22
  93:../firmware/n32g430_std_periph_driver/src/n32g430_comp.c ****     /* Initialize the En */
  94:../firmware/n32g430_std_periph_driver/src/n32g430_comp.c ****     COMP_initstruct->En                = DISABLE;
  93              		.loc 1 94 5 view .LVU23
  94              		.loc 1 94 40 is_stmt 0 view .LVU24
  95 0010 8361     		str	r3, [r0, #24]
  90:../firmware/n32g430_std_periph_driver/src/n32g430_comp.c ****     /* Initialize the Threshold */
  96              		.loc 1 90 40 view .LVU25
  97 0012 8383     		strh	r3, [r0, #28]	@ movhi
  86:../firmware/n32g430_std_periph_driver/src/n32g430_comp.c ****     /* Initialize the ClkPsc */
  98              		.loc 1 86 40 view .LVU26
  99 0014 8377     		strb	r3, [r0, #30]
  95:../firmware/n32g430_std_periph_driver/src/n32g430_comp.c **** }
 100              		.loc 1 95 1 view .LVU27
 101 0016 7047     		bx	lr
 102              		.cfi_endproc
 103              	.LFE131:
 105              		.section	.text.COMP_Filter_SampWindow_Config,"ax",%progbits
 106              		.align	1
 107              		.global	COMP_Filter_SampWindow_Config
 108              		.syntax unified
 109              		.thumb
 110              		.thumb_func
 112              	COMP_Filter_SampWindow_Config:
 113              	.LVL3:
 114              	.LFB132:
  96:../firmware/n32g430_std_periph_driver/src/n32g430_comp.c **** 
  97:../firmware/n32g430_std_periph_driver/src/n32g430_comp.c **** /**
  98:../firmware/n32g430_std_periph_driver/src/n32g430_comp.c **** *\*\name    COMP_Filter_SampWindow_Config.
  99:../firmware/n32g430_std_periph_driver/src/n32g430_comp.c **** *\*\fun     Configures the COMPx filter sampwindow with a correct value. 
 100:../firmware/n32g430_std_periph_driver/src/n32g430_comp.c **** *\*\param   COMPx :
 101:../firmware/n32g430_std_periph_driver/src/n32g430_comp.c **** *\*\          - COMP1
 102:../firmware/n32g430_std_periph_driver/src/n32g430_comp.c **** *\*\          - COMP2
 103:../firmware/n32g430_std_periph_driver/src/n32g430_comp.c **** *\*\          - COMP3
 104:../firmware/n32g430_std_periph_driver/src/n32g430_comp.c **** *\*\param   sampwin;_value:
 105:../firmware/n32g430_std_periph_driver/src/n32g430_comp.c **** *\*\          - from 0 to 31.
 106:../firmware/n32g430_std_periph_driver/src/n32g430_comp.c **** *\*\return  none
 107:../firmware/n32g430_std_periph_driver/src/n32g430_comp.c **** **/
 108:../firmware/n32g430_std_periph_driver/src/n32g430_comp.c **** void COMP_Filter_SampWindow_Config(COMPX COMPx, uint8_t sampwin_value)
 109:../firmware/n32g430_std_periph_driver/src/n32g430_comp.c **** {
 115              		.loc 1 109 1 is_stmt 1 view -0
 116              		.cfi_startproc
 117              		@ args = 0, pretend = 0, frame = 0
ARM GAS  C:\Users\Dawn\AppData\Local\Temp\ccGZo2O0.s 			page 5


 118              		@ frame_needed = 0, uses_anonymous_args = 0
 119              		@ link register save eliminated.
 110:../firmware/n32g430_std_periph_driver/src/n32g430_comp.c ****     switch (COMPx)
 120              		.loc 1 110 5 view .LVU29
 121 0000 0128     		cmp	r0, #1
 122 0002 0ED0     		beq	.L4
 123 0004 0228     		cmp	r0, #2
 124 0006 18D0     		beq	.L5
 125 0008 10BB     		cbnz	r0, .L3
 111:../firmware/n32g430_std_periph_driver/src/n32g430_comp.c ****     {
 112:../firmware/n32g430_std_periph_driver/src/n32g430_comp.c ****         case  COMP1:
 113:../firmware/n32g430_std_periph_driver/src/n32g430_comp.c ****             /* Clear COMPx_FILC SAMPW[4:0] bits */
 114:../firmware/n32g430_std_periph_driver/src/n32g430_comp.c ****             COMP->Cmp1.FILC &= COMP_FILTER_SAMPW_MASK;
 126              		.loc 1 114 13 view .LVU30
 127              		.loc 1 114 23 is_stmt 0 view .LVU31
 128 000a 124B     		ldr	r3, .L7
 129 000c 5A69     		ldr	r2, [r3, #20]
 130              		.loc 1 114 29 view .LVU32
 131 000e 22F4F862 		bic	r2, r2, #1984
 132 0012 1204     		lsls	r2, r2, #16
 133 0014 120C     		lsrs	r2, r2, #16
 134 0016 5A61     		str	r2, [r3, #20]
 115:../firmware/n32g430_std_periph_driver/src/n32g430_comp.c ****             /* Set COMPx_FILC SAMPW[4:0] bits */
 116:../firmware/n32g430_std_periph_driver/src/n32g430_comp.c ****             COMP->Cmp1.FILC |= sampwin_value << REG_BIT6_OFFSET;
 135              		.loc 1 116 13 is_stmt 1 view .LVU33
 136              		.loc 1 116 23 is_stmt 0 view .LVU34
 137 0018 5A69     		ldr	r2, [r3, #20]
 138              		.loc 1 116 29 view .LVU35
 139 001a 42EA8112 		orr	r2, r2, r1, lsl #6
 140 001e 5A61     		str	r2, [r3, #20]
 117:../firmware/n32g430_std_periph_driver/src/n32g430_comp.c ****             break;
 141              		.loc 1 117 13 is_stmt 1 view .LVU36
 142 0020 7047     		bx	lr
 143              	.L4:
 118:../firmware/n32g430_std_periph_driver/src/n32g430_comp.c ****         case  COMP2:
 119:../firmware/n32g430_std_periph_driver/src/n32g430_comp.c ****             /* Clear COMPx_FILC SAMPW[4:0] bits */
 120:../firmware/n32g430_std_periph_driver/src/n32g430_comp.c ****             COMP->Cmp2.FILC &= COMP_FILTER_SAMPW_MASK;
 144              		.loc 1 120 13 view .LVU37
 145              		.loc 1 120 23 is_stmt 0 view .LVU38
 146 0022 0C4B     		ldr	r3, .L7
 147 0024 5A6A     		ldr	r2, [r3, #36]
 148              		.loc 1 120 29 view .LVU39
 149 0026 22F4F862 		bic	r2, r2, #1984
 150 002a 1204     		lsls	r2, r2, #16
 151 002c 120C     		lsrs	r2, r2, #16
 152 002e 5A62     		str	r2, [r3, #36]
 121:../firmware/n32g430_std_periph_driver/src/n32g430_comp.c ****             /* Set COMPx_FILC SAMPW[4:0] bits */
 122:../firmware/n32g430_std_periph_driver/src/n32g430_comp.c ****             COMP->Cmp2.FILC |= sampwin_value << REG_BIT6_OFFSET;
 153              		.loc 1 122 13 is_stmt 1 view .LVU40
 154              		.loc 1 122 23 is_stmt 0 view .LVU41
 155 0030 5A6A     		ldr	r2, [r3, #36]
 156              		.loc 1 122 29 view .LVU42
 157 0032 42EA8112 		orr	r2, r2, r1, lsl #6
 158 0036 5A62     		str	r2, [r3, #36]
 123:../firmware/n32g430_std_periph_driver/src/n32g430_comp.c ****             break;
 159              		.loc 1 123 13 is_stmt 1 view .LVU43
 160 0038 7047     		bx	lr
ARM GAS  C:\Users\Dawn\AppData\Local\Temp\ccGZo2O0.s 			page 6


 161              	.L5:
 124:../firmware/n32g430_std_periph_driver/src/n32g430_comp.c ****         case  COMP3:
 125:../firmware/n32g430_std_periph_driver/src/n32g430_comp.c ****             /* Clear COMPx_FILC SAMPW[4:0] bits */
 126:../firmware/n32g430_std_periph_driver/src/n32g430_comp.c ****             COMP->Cmp3.FILC &= COMP_FILTER_SAMPW_MASK;
 162              		.loc 1 126 13 view .LVU44
 163              		.loc 1 126 23 is_stmt 0 view .LVU45
 164 003a 064B     		ldr	r3, .L7
 165 003c 5A6B     		ldr	r2, [r3, #52]
 166              		.loc 1 126 29 view .LVU46
 167 003e 22F4F862 		bic	r2, r2, #1984
 168 0042 1204     		lsls	r2, r2, #16
 169 0044 120C     		lsrs	r2, r2, #16
 170 0046 5A63     		str	r2, [r3, #52]
 127:../firmware/n32g430_std_periph_driver/src/n32g430_comp.c ****             /* Set COMPx_FILC SAMPW[4:0] bits */
 128:../firmware/n32g430_std_periph_driver/src/n32g430_comp.c ****             COMP->Cmp3.FILC |= sampwin_value << REG_BIT6_OFFSET;
 171              		.loc 1 128 13 is_stmt 1 view .LVU47
 172              		.loc 1 128 23 is_stmt 0 view .LVU48
 173 0048 5A6B     		ldr	r2, [r3, #52]
 174              		.loc 1 128 29 view .LVU49
 175 004a 42EA8112 		orr	r2, r2, r1, lsl #6
 176 004e 5A63     		str	r2, [r3, #52]
 129:../firmware/n32g430_std_periph_driver/src/n32g430_comp.c ****             break;
 177              		.loc 1 129 13 is_stmt 1 view .LVU50
 178              	.L3:
 130:../firmware/n32g430_std_periph_driver/src/n32g430_comp.c ****         default:
 131:../firmware/n32g430_std_periph_driver/src/n32g430_comp.c ****             break;
 132:../firmware/n32g430_std_periph_driver/src/n32g430_comp.c ****     }
 133:../firmware/n32g430_std_periph_driver/src/n32g430_comp.c **** }
 179              		.loc 1 133 1 is_stmt 0 view .LVU51
 180 0050 7047     		bx	lr
 181              	.L8:
 182 0052 00BF     		.align	2
 183              	.L7:
 184 0054 00240040 		.word	1073751040
 185              		.cfi_endproc
 186              	.LFE132:
 188              		.section	.text.COMP_Filter_Threshold_Config,"ax",%progbits
 189              		.align	1
 190              		.global	COMP_Filter_Threshold_Config
 191              		.syntax unified
 192              		.thumb
 193              		.thumb_func
 195              	COMP_Filter_Threshold_Config:
 196              	.LVL4:
 197              	.LFB133:
 134:../firmware/n32g430_std_periph_driver/src/n32g430_comp.c **** 
 135:../firmware/n32g430_std_periph_driver/src/n32g430_comp.c **** /**
 136:../firmware/n32g430_std_periph_driver/src/n32g430_comp.c **** *\*\name    COMP_Filter_Threshold_Config.
 137:../firmware/n32g430_std_periph_driver/src/n32g430_comp.c **** *\*\fun     Configures the COMPx filter Threshold with a correct value. 
 138:../firmware/n32g430_std_periph_driver/src/n32g430_comp.c **** *\*\param   COMPx :
 139:../firmware/n32g430_std_periph_driver/src/n32g430_comp.c **** *\*\          - COMP1
 140:../firmware/n32g430_std_periph_driver/src/n32g430_comp.c **** *\*\          - COMP2
 141:../firmware/n32g430_std_periph_driver/src/n32g430_comp.c **** *\*\          - COMP3
 142:../firmware/n32g430_std_periph_driver/src/n32g430_comp.c **** *\*\param   Threshold_value:
 143:../firmware/n32g430_std_periph_driver/src/n32g430_comp.c **** *\*\          - Value must be greater than SAMPW / 2 .
 144:../firmware/n32g430_std_periph_driver/src/n32g430_comp.c **** *\*\return  none
 145:../firmware/n32g430_std_periph_driver/src/n32g430_comp.c **** **/
ARM GAS  C:\Users\Dawn\AppData\Local\Temp\ccGZo2O0.s 			page 7


 146:../firmware/n32g430_std_periph_driver/src/n32g430_comp.c **** void COMP_Filter_Threshold_Config(COMPX COMPx, uint8_t Threshold_value)
 147:../firmware/n32g430_std_periph_driver/src/n32g430_comp.c **** {
 198              		.loc 1 147 1 is_stmt 1 view -0
 199              		.cfi_startproc
 200              		@ args = 0, pretend = 0, frame = 0
 201              		@ frame_needed = 0, uses_anonymous_args = 0
 202              		@ link register save eliminated.
 148:../firmware/n32g430_std_periph_driver/src/n32g430_comp.c ****     switch (COMPx)
 203              		.loc 1 148 5 view .LVU53
 204 0000 0128     		cmp	r0, #1
 205 0002 0ED0     		beq	.L10
 206 0004 0228     		cmp	r0, #2
 207 0006 18D0     		beq	.L11
 208 0008 10BB     		cbnz	r0, .L9
 149:../firmware/n32g430_std_periph_driver/src/n32g430_comp.c ****     {
 150:../firmware/n32g430_std_periph_driver/src/n32g430_comp.c ****         case  COMP1:
 151:../firmware/n32g430_std_periph_driver/src/n32g430_comp.c ****             /* Clear COMPx_FILC THRESH[4:0] bits */
 152:../firmware/n32g430_std_periph_driver/src/n32g430_comp.c ****             COMP->Cmp1.FILC &= COMP_FILTER_THRESHOLD_MASK;
 209              		.loc 1 152 13 view .LVU54
 210              		.loc 1 152 23 is_stmt 0 view .LVU55
 211 000a 124B     		ldr	r3, .L13
 212 000c 5A69     		ldr	r2, [r3, #20]
 213              		.loc 1 152 29 view .LVU56
 214 000e 22F03E02 		bic	r2, r2, #62
 215 0012 1204     		lsls	r2, r2, #16
 216 0014 120C     		lsrs	r2, r2, #16
 217 0016 5A61     		str	r2, [r3, #20]
 153:../firmware/n32g430_std_periph_driver/src/n32g430_comp.c ****             /* Set COMPx_FILC THRESH[4:0] bits */
 154:../firmware/n32g430_std_periph_driver/src/n32g430_comp.c ****             COMP->Cmp1.FILC |= Threshold_value << REG_BIT1_OFFSET;
 218              		.loc 1 154 13 is_stmt 1 view .LVU57
 219              		.loc 1 154 23 is_stmt 0 view .LVU58
 220 0018 5A69     		ldr	r2, [r3, #20]
 221              		.loc 1 154 29 view .LVU59
 222 001a 42EA4102 		orr	r2, r2, r1, lsl #1
 223 001e 5A61     		str	r2, [r3, #20]
 155:../firmware/n32g430_std_periph_driver/src/n32g430_comp.c ****             break;
 224              		.loc 1 155 13 is_stmt 1 view .LVU60
 225 0020 7047     		bx	lr
 226              	.L10:
 156:../firmware/n32g430_std_periph_driver/src/n32g430_comp.c ****         case  COMP2:
 157:../firmware/n32g430_std_periph_driver/src/n32g430_comp.c ****             /* Clear COMPx_FILC THRESH[4:0] bits */
 158:../firmware/n32g430_std_periph_driver/src/n32g430_comp.c ****             COMP->Cmp2.FILC &= COMP_FILTER_THRESHOLD_MASK;
 227              		.loc 1 158 13 view .LVU61
 228              		.loc 1 158 23 is_stmt 0 view .LVU62
 229 0022 0C4B     		ldr	r3, .L13
 230 0024 5A6A     		ldr	r2, [r3, #36]
 231              		.loc 1 158 29 view .LVU63
 232 0026 22F03E02 		bic	r2, r2, #62
 233 002a 1204     		lsls	r2, r2, #16
 234 002c 120C     		lsrs	r2, r2, #16
 235 002e 5A62     		str	r2, [r3, #36]
 159:../firmware/n32g430_std_periph_driver/src/n32g430_comp.c ****             /* Set COMPx_FILC THRESH[4:0] bits */
 160:../firmware/n32g430_std_periph_driver/src/n32g430_comp.c ****             COMP->Cmp2.FILC |= Threshold_value << REG_BIT1_OFFSET;
 236              		.loc 1 160 13 is_stmt 1 view .LVU64
 237              		.loc 1 160 23 is_stmt 0 view .LVU65
 238 0030 5A6A     		ldr	r2, [r3, #36]
 239              		.loc 1 160 29 view .LVU66
ARM GAS  C:\Users\Dawn\AppData\Local\Temp\ccGZo2O0.s 			page 8


 240 0032 42EA4102 		orr	r2, r2, r1, lsl #1
 241 0036 5A62     		str	r2, [r3, #36]
 161:../firmware/n32g430_std_periph_driver/src/n32g430_comp.c ****             break;
 242              		.loc 1 161 13 is_stmt 1 view .LVU67
 243 0038 7047     		bx	lr
 244              	.L11:
 162:../firmware/n32g430_std_periph_driver/src/n32g430_comp.c ****         case  COMP3:
 163:../firmware/n32g430_std_periph_driver/src/n32g430_comp.c ****             /* Clear COMPx_FILC THRESH[4:0] bits */
 164:../firmware/n32g430_std_periph_driver/src/n32g430_comp.c ****             COMP->Cmp3.FILC &= COMP_FILTER_THRESHOLD_MASK;
 245              		.loc 1 164 13 view .LVU68
 246              		.loc 1 164 23 is_stmt 0 view .LVU69
 247 003a 064B     		ldr	r3, .L13
 248 003c 5A6B     		ldr	r2, [r3, #52]
 249              		.loc 1 164 29 view .LVU70
 250 003e 22F03E02 		bic	r2, r2, #62
 251 0042 1204     		lsls	r2, r2, #16
 252 0044 120C     		lsrs	r2, r2, #16
 253 0046 5A63     		str	r2, [r3, #52]
 165:../firmware/n32g430_std_periph_driver/src/n32g430_comp.c ****             /* Set COMPx_FILC THRESH[4:0] bits */
 166:../firmware/n32g430_std_periph_driver/src/n32g430_comp.c ****             COMP->Cmp3.FILC |= Threshold_value << REG_BIT1_OFFSET;
 254              		.loc 1 166 13 is_stmt 1 view .LVU71
 255              		.loc 1 166 23 is_stmt 0 view .LVU72
 256 0048 5A6B     		ldr	r2, [r3, #52]
 257              		.loc 1 166 29 view .LVU73
 258 004a 42EA4102 		orr	r2, r2, r1, lsl #1
 259 004e 5A63     		str	r2, [r3, #52]
 167:../firmware/n32g430_std_periph_driver/src/n32g430_comp.c ****             break;
 260              		.loc 1 167 13 is_stmt 1 view .LVU74
 261              	.L9:
 168:../firmware/n32g430_std_periph_driver/src/n32g430_comp.c ****         default:
 169:../firmware/n32g430_std_periph_driver/src/n32g430_comp.c ****             break;
 170:../firmware/n32g430_std_periph_driver/src/n32g430_comp.c ****     }
 171:../firmware/n32g430_std_periph_driver/src/n32g430_comp.c **** }
 262              		.loc 1 171 1 is_stmt 0 view .LVU75
 263 0050 7047     		bx	lr
 264              	.L14:
 265 0052 00BF     		.align	2
 266              	.L13:
 267 0054 00240040 		.word	1073751040
 268              		.cfi_endproc
 269              	.LFE133:
 271              		.section	.text.COMP_Filter_Enable,"ax",%progbits
 272              		.align	1
 273              		.global	COMP_Filter_Enable
 274              		.syntax unified
 275              		.thumb
 276              		.thumb_func
 278              	COMP_Filter_Enable:
 279              	.LVL5:
 280              	.LFB134:
 172:../firmware/n32g430_std_periph_driver/src/n32g430_comp.c **** 
 173:../firmware/n32g430_std_periph_driver/src/n32g430_comp.c **** /**
 174:../firmware/n32g430_std_periph_driver/src/n32g430_comp.c **** *\*\name    COMP_Filter_Enable.
 175:../firmware/n32g430_std_periph_driver/src/n32g430_comp.c **** *\*\fun     Configures COMPx filter enable.
 176:../firmware/n32g430_std_periph_driver/src/n32g430_comp.c **** *\*\param   COMPx :
 177:../firmware/n32g430_std_periph_driver/src/n32g430_comp.c **** *\*\          - COMP1
 178:../firmware/n32g430_std_periph_driver/src/n32g430_comp.c **** *\*\          - COMP2
ARM GAS  C:\Users\Dawn\AppData\Local\Temp\ccGZo2O0.s 			page 9


 179:../firmware/n32g430_std_periph_driver/src/n32g430_comp.c **** *\*\          - COMP3
 180:../firmware/n32g430_std_periph_driver/src/n32g430_comp.c **** *\*\return  none
 181:../firmware/n32g430_std_periph_driver/src/n32g430_comp.c **** **/
 182:../firmware/n32g430_std_periph_driver/src/n32g430_comp.c **** void COMP_Filter_Enable(COMPX COMPx)
 183:../firmware/n32g430_std_periph_driver/src/n32g430_comp.c **** {
 281              		.loc 1 183 1 is_stmt 1 view -0
 282              		.cfi_startproc
 283              		@ args = 0, pretend = 0, frame = 0
 284              		@ frame_needed = 0, uses_anonymous_args = 0
 285              		@ link register save eliminated.
 184:../firmware/n32g430_std_periph_driver/src/n32g430_comp.c ****     switch (COMPx)
 286              		.loc 1 184 5 view .LVU77
 287 0000 0128     		cmp	r0, #1
 288 0002 08D0     		beq	.L16
 289 0004 0228     		cmp	r0, #2
 290 0006 0CD0     		beq	.L17
 291 0008 80B9     		cbnz	r0, .L15
 292              	.LBB4:
 293              	.LBI4:
 182:../firmware/n32g430_std_periph_driver/src/n32g430_comp.c **** {
 294              		.loc 1 182 6 view .LVU78
 295              	.LVL6:
 296              	.LBB5:
 185:../firmware/n32g430_std_periph_driver/src/n32g430_comp.c ****     {
 186:../firmware/n32g430_std_periph_driver/src/n32g430_comp.c ****         case COMP1:
 187:../firmware/n32g430_std_periph_driver/src/n32g430_comp.c ****             /* Set COMPx_FILC FILTER bits */
 188:../firmware/n32g430_std_periph_driver/src/n32g430_comp.c ****             COMP->Cmp1.FILC |= COMP_FILTER_ENBALE;
 297              		.loc 1 188 13 view .LVU79
 298              		.loc 1 188 23 is_stmt 0 view .LVU80
 299 000a 094A     		ldr	r2, .L19
 300 000c 5369     		ldr	r3, [r2, #20]
 301              		.loc 1 188 29 view .LVU81
 302 000e 43F00103 		orr	r3, r3, #1
 303 0012 5361     		str	r3, [r2, #20]
 189:../firmware/n32g430_std_periph_driver/src/n32g430_comp.c ****             break;
 304              		.loc 1 189 13 is_stmt 1 view .LVU82
 305              	.LVL7:
 190:../firmware/n32g430_std_periph_driver/src/n32g430_comp.c ****         case COMP2:
 191:../firmware/n32g430_std_periph_driver/src/n32g430_comp.c ****             /* Set COMPx_FILC FILTER bits */
 192:../firmware/n32g430_std_periph_driver/src/n32g430_comp.c ****             COMP->Cmp2.FILC |= COMP_FILTER_ENBALE;
 193:../firmware/n32g430_std_periph_driver/src/n32g430_comp.c ****             break;
 194:../firmware/n32g430_std_periph_driver/src/n32g430_comp.c ****         case COMP3:
 195:../firmware/n32g430_std_periph_driver/src/n32g430_comp.c ****             /* Set COMPx_FILC FILTER bits */
 196:../firmware/n32g430_std_periph_driver/src/n32g430_comp.c ****             COMP->Cmp3.FILC |= COMP_FILTER_ENBALE;
 197:../firmware/n32g430_std_periph_driver/src/n32g430_comp.c ****             break;
 198:../firmware/n32g430_std_periph_driver/src/n32g430_comp.c ****         default:
 199:../firmware/n32g430_std_periph_driver/src/n32g430_comp.c ****             break;
 200:../firmware/n32g430_std_periph_driver/src/n32g430_comp.c ****     }
 201:../firmware/n32g430_std_periph_driver/src/n32g430_comp.c **** }
 306              		.loc 1 201 1 is_stmt 0 view .LVU83
 307 0014 7047     		bx	lr
 308              	.L16:
 309              	.LBE5:
 310              	.LBE4:
 192:../firmware/n32g430_std_periph_driver/src/n32g430_comp.c ****             break;
 311              		.loc 1 192 13 is_stmt 1 view .LVU84
 192:../firmware/n32g430_std_periph_driver/src/n32g430_comp.c ****             break;
ARM GAS  C:\Users\Dawn\AppData\Local\Temp\ccGZo2O0.s 			page 10


 312              		.loc 1 192 23 is_stmt 0 view .LVU85
 313 0016 064A     		ldr	r2, .L19
 314 0018 536A     		ldr	r3, [r2, #36]
 192:../firmware/n32g430_std_periph_driver/src/n32g430_comp.c ****             break;
 315              		.loc 1 192 29 view .LVU86
 316 001a 43F00103 		orr	r3, r3, #1
 317 001e 5362     		str	r3, [r2, #36]
 193:../firmware/n32g430_std_periph_driver/src/n32g430_comp.c ****         case COMP3:
 318              		.loc 1 193 13 is_stmt 1 view .LVU87
 319 0020 7047     		bx	lr
 320              	.L17:
 196:../firmware/n32g430_std_periph_driver/src/n32g430_comp.c ****             break;
 321              		.loc 1 196 13 view .LVU88
 196:../firmware/n32g430_std_periph_driver/src/n32g430_comp.c ****             break;
 322              		.loc 1 196 23 is_stmt 0 view .LVU89
 323 0022 034A     		ldr	r2, .L19
 324 0024 536B     		ldr	r3, [r2, #52]
 196:../firmware/n32g430_std_periph_driver/src/n32g430_comp.c ****             break;
 325              		.loc 1 196 29 view .LVU90
 326 0026 43F00103 		orr	r3, r3, #1
 327 002a 5363     		str	r3, [r2, #52]
 197:../firmware/n32g430_std_periph_driver/src/n32g430_comp.c ****         default:
 328              		.loc 1 197 13 is_stmt 1 view .LVU91
 329              	.L15:
 330              		.loc 1 201 1 is_stmt 0 view .LVU92
 331 002c 7047     		bx	lr
 332              	.L20:
 333 002e 00BF     		.align	2
 334              	.L19:
 335 0030 00240040 		.word	1073751040
 336              		.cfi_endproc
 337              	.LFE134:
 339              		.section	.text.COMP_Filter_Disable,"ax",%progbits
 340              		.align	1
 341              		.global	COMP_Filter_Disable
 342              		.syntax unified
 343              		.thumb
 344              		.thumb_func
 346              	COMP_Filter_Disable:
 347              	.LVL8:
 348              	.LFB135:
 202:../firmware/n32g430_std_periph_driver/src/n32g430_comp.c **** 
 203:../firmware/n32g430_std_periph_driver/src/n32g430_comp.c **** /**
 204:../firmware/n32g430_std_periph_driver/src/n32g430_comp.c **** *\*\name    COMP_Filter_Disable.
 205:../firmware/n32g430_std_periph_driver/src/n32g430_comp.c **** *\*\fun     Configures COMPx filter disable.
 206:../firmware/n32g430_std_periph_driver/src/n32g430_comp.c **** *\*\param   COMPx :
 207:../firmware/n32g430_std_periph_driver/src/n32g430_comp.c **** *\*\          - COMP1
 208:../firmware/n32g430_std_periph_driver/src/n32g430_comp.c **** *\*\          - COMP2
 209:../firmware/n32g430_std_periph_driver/src/n32g430_comp.c **** *\*\          - COMP3
 210:../firmware/n32g430_std_periph_driver/src/n32g430_comp.c **** *\*\return  none
 211:../firmware/n32g430_std_periph_driver/src/n32g430_comp.c **** **/
 212:../firmware/n32g430_std_periph_driver/src/n32g430_comp.c **** void COMP_Filter_Disable(COMPX COMPx)
 213:../firmware/n32g430_std_periph_driver/src/n32g430_comp.c **** {
 349              		.loc 1 213 1 is_stmt 1 view -0
 350              		.cfi_startproc
 351              		@ args = 0, pretend = 0, frame = 0
 352              		@ frame_needed = 0, uses_anonymous_args = 0
ARM GAS  C:\Users\Dawn\AppData\Local\Temp\ccGZo2O0.s 			page 11


 353              		@ link register save eliminated.
 214:../firmware/n32g430_std_periph_driver/src/n32g430_comp.c ****     switch (COMPx)
 354              		.loc 1 214 5 view .LVU94
 355 0000 0128     		cmp	r0, #1
 356 0002 0AD0     		beq	.L22
 357 0004 0228     		cmp	r0, #2
 358 0006 10D0     		beq	.L23
 359 0008 B0B9     		cbnz	r0, .L21
 360              	.LBB8:
 361              	.LBI8:
 212:../firmware/n32g430_std_periph_driver/src/n32g430_comp.c **** {
 362              		.loc 1 212 6 view .LVU95
 363              	.LVL9:
 364              	.LBB9:
 215:../firmware/n32g430_std_periph_driver/src/n32g430_comp.c ****     {
 216:../firmware/n32g430_std_periph_driver/src/n32g430_comp.c ****         case COMP1:
 217:../firmware/n32g430_std_periph_driver/src/n32g430_comp.c ****             /* Clear COMPx_FILC FILTER bits */
 218:../firmware/n32g430_std_periph_driver/src/n32g430_comp.c ****             COMP->Cmp1.FILC &= COMP_FILTER_DISABLE;
 365              		.loc 1 218 13 view .LVU96
 366              		.loc 1 218 23 is_stmt 0 view .LVU97
 367 000a 0C4A     		ldr	r2, .L25
 368 000c 5369     		ldr	r3, [r2, #20]
 369              		.loc 1 218 29 view .LVU98
 370 000e 23F00103 		bic	r3, r3, #1
 371 0012 1B04     		lsls	r3, r3, #16
 372 0014 1B0C     		lsrs	r3, r3, #16
 373 0016 5361     		str	r3, [r2, #20]
 219:../firmware/n32g430_std_periph_driver/src/n32g430_comp.c ****             break;
 374              		.loc 1 219 13 is_stmt 1 view .LVU99
 375              	.LVL10:
 220:../firmware/n32g430_std_periph_driver/src/n32g430_comp.c ****         case COMP2:
 221:../firmware/n32g430_std_periph_driver/src/n32g430_comp.c ****             /* Clear COMPx_FILC FILTER bits */
 222:../firmware/n32g430_std_periph_driver/src/n32g430_comp.c ****             COMP->Cmp2.FILC &= COMP_FILTER_DISABLE;
 223:../firmware/n32g430_std_periph_driver/src/n32g430_comp.c ****             break;
 224:../firmware/n32g430_std_periph_driver/src/n32g430_comp.c ****         case COMP3:
 225:../firmware/n32g430_std_periph_driver/src/n32g430_comp.c ****             /* Clear COMPx_FILC FILTER bits */
 226:../firmware/n32g430_std_periph_driver/src/n32g430_comp.c ****             COMP->Cmp3.FILC &= COMP_FILTER_DISABLE;
 227:../firmware/n32g430_std_periph_driver/src/n32g430_comp.c ****             break;
 228:../firmware/n32g430_std_periph_driver/src/n32g430_comp.c ****         default:
 229:../firmware/n32g430_std_periph_driver/src/n32g430_comp.c ****             break;
 230:../firmware/n32g430_std_periph_driver/src/n32g430_comp.c ****     }
 231:../firmware/n32g430_std_periph_driver/src/n32g430_comp.c **** }
 376              		.loc 1 231 1 is_stmt 0 view .LVU100
 377 0018 7047     		bx	lr
 378              	.L22:
 379              	.LBE9:
 380              	.LBE8:
 222:../firmware/n32g430_std_periph_driver/src/n32g430_comp.c ****             break;
 381              		.loc 1 222 13 is_stmt 1 view .LVU101
 222:../firmware/n32g430_std_periph_driver/src/n32g430_comp.c ****             break;
 382              		.loc 1 222 23 is_stmt 0 view .LVU102
 383 001a 084A     		ldr	r2, .L25
 384 001c 536A     		ldr	r3, [r2, #36]
 222:../firmware/n32g430_std_periph_driver/src/n32g430_comp.c ****             break;
 385              		.loc 1 222 29 view .LVU103
 386 001e 23F00103 		bic	r3, r3, #1
 387 0022 1B04     		lsls	r3, r3, #16
ARM GAS  C:\Users\Dawn\AppData\Local\Temp\ccGZo2O0.s 			page 12


 388 0024 1B0C     		lsrs	r3, r3, #16
 389 0026 5362     		str	r3, [r2, #36]
 223:../firmware/n32g430_std_periph_driver/src/n32g430_comp.c ****         case COMP3:
 390              		.loc 1 223 13 is_stmt 1 view .LVU104
 391 0028 7047     		bx	lr
 392              	.L23:
 226:../firmware/n32g430_std_periph_driver/src/n32g430_comp.c ****             break;
 393              		.loc 1 226 13 view .LVU105
 226:../firmware/n32g430_std_periph_driver/src/n32g430_comp.c ****             break;
 394              		.loc 1 226 23 is_stmt 0 view .LVU106
 395 002a 044A     		ldr	r2, .L25
 396 002c 536B     		ldr	r3, [r2, #52]
 226:../firmware/n32g430_std_periph_driver/src/n32g430_comp.c ****             break;
 397              		.loc 1 226 29 view .LVU107
 398 002e 23F00103 		bic	r3, r3, #1
 399 0032 1B04     		lsls	r3, r3, #16
 400 0034 1B0C     		lsrs	r3, r3, #16
 401 0036 5363     		str	r3, [r2, #52]
 227:../firmware/n32g430_std_periph_driver/src/n32g430_comp.c ****         default:
 402              		.loc 1 227 13 is_stmt 1 view .LVU108
 403              	.L21:
 404              		.loc 1 231 1 is_stmt 0 view .LVU109
 405 0038 7047     		bx	lr
 406              	.L26:
 407 003a 00BF     		.align	2
 408              	.L25:
 409 003c 00240040 		.word	1073751040
 410              		.cfi_endproc
 411              	.LFE135:
 413              		.section	.text.COMP_Filter_Clock_Prescale_Config,"ax",%progbits
 414              		.align	1
 415              		.global	COMP_Filter_Clock_Prescale_Config
 416              		.syntax unified
 417              		.thumb
 418              		.thumb_func
 420              	COMP_Filter_Clock_Prescale_Config:
 421              	.LVL11:
 422              	.LFB136:
 232:../firmware/n32g430_std_periph_driver/src/n32g430_comp.c **** 
 233:../firmware/n32g430_std_periph_driver/src/n32g430_comp.c **** /**
 234:../firmware/n32g430_std_periph_driver/src/n32g430_comp.c **** *\*\name    COMP_Filter_Clock_Prescale_Config.
 235:../firmware/n32g430_std_periph_driver/src/n32g430_comp.c **** *\*\fun     Configures The COMPx low filter prescale . 
 236:../firmware/n32g430_std_periph_driver/src/n32g430_comp.c **** *\*\param   COMPx :
 237:../firmware/n32g430_std_periph_driver/src/n32g430_comp.c **** *\*\          - COMP1
 238:../firmware/n32g430_std_periph_driver/src/n32g430_comp.c **** *\*\          - COMP2
 239:../firmware/n32g430_std_periph_driver/src/n32g430_comp.c **** *\*\          - COMP3
 240:../firmware/n32g430_std_periph_driver/src/n32g430_comp.c **** *\*\param   clkpsc_value:
 241:../firmware/n32g430_std_periph_driver/src/n32g430_comp.c **** *\*\        Value can be set from 0 to 32767.
 242:../firmware/n32g430_std_periph_driver/src/n32g430_comp.c **** *\*\return  none
 243:../firmware/n32g430_std_periph_driver/src/n32g430_comp.c **** **/
 244:../firmware/n32g430_std_periph_driver/src/n32g430_comp.c **** void COMP_Filter_Clock_Prescale_Config(COMPX COMPx, uint16_t clkpsc_value)
 245:../firmware/n32g430_std_periph_driver/src/n32g430_comp.c **** {
 423              		.loc 1 245 1 is_stmt 1 view -0
 424              		.cfi_startproc
 425              		@ args = 0, pretend = 0, frame = 0
 426              		@ frame_needed = 0, uses_anonymous_args = 0
 427              		@ link register save eliminated.
ARM GAS  C:\Users\Dawn\AppData\Local\Temp\ccGZo2O0.s 			page 13


 246:../firmware/n32g430_std_periph_driver/src/n32g430_comp.c ****     switch (COMPx)
 428              		.loc 1 246 5 view .LVU111
 429 0000 0128     		cmp	r0, #1
 430 0002 09D0     		beq	.L28
 431 0004 0228     		cmp	r0, #2
 432 0006 0FD0     		beq	.L29
 433 0008 A8B9     		cbnz	r0, .L27
 434              	.LVL12:
 435              	.LBB12:
 436              	.LBI12:
 244:../firmware/n32g430_std_periph_driver/src/n32g430_comp.c **** {
 437              		.loc 1 244 6 view .LVU112
 438              	.LBB13:
 247:../firmware/n32g430_std_periph_driver/src/n32g430_comp.c ****     {
 248:../firmware/n32g430_std_periph_driver/src/n32g430_comp.c ****         case COMP1:
 249:../firmware/n32g430_std_periph_driver/src/n32g430_comp.c ****             /* Clear COMPx_FILP CLKPSC[15:0] bits */
 250:../firmware/n32g430_std_periph_driver/src/n32g430_comp.c ****             COMP->Cmp1.FILP &= COMP_FILTER_CLKPSC_MASK;
 439              		.loc 1 250 13 view .LVU113
 440              		.loc 1 250 23 is_stmt 0 view .LVU114
 441 000a 0B4B     		ldr	r3, .L31
 442 000c 9A69     		ldr	r2, [r3, #24]
 443              		.loc 1 250 29 view .LVU115
 444 000e 9861     		str	r0, [r3, #24]
 251:../firmware/n32g430_std_periph_driver/src/n32g430_comp.c ****             /* Set COMPx_FILP CLKPSC[15:0] bits */
 252:../firmware/n32g430_std_periph_driver/src/n32g430_comp.c ****             COMP->Cmp1.FILP |= clkpsc_value;
 445              		.loc 1 252 13 is_stmt 1 view .LVU116
 446              		.loc 1 252 23 is_stmt 0 view .LVU117
 447 0010 9A69     		ldr	r2, [r3, #24]
 448              		.loc 1 252 29 view .LVU118
 449 0012 1143     		orrs	r1, r1, r2
 450              	.LVL13:
 451              		.loc 1 252 29 view .LVU119
 452 0014 9961     		str	r1, [r3, #24]
 253:../firmware/n32g430_std_periph_driver/src/n32g430_comp.c ****             break;
 453              		.loc 1 253 13 is_stmt 1 view .LVU120
 454              	.LVL14:
 254:../firmware/n32g430_std_periph_driver/src/n32g430_comp.c ****         case COMP2:
 255:../firmware/n32g430_std_periph_driver/src/n32g430_comp.c ****             /* Clear COMPx_FILP CLKPSC[15:0] bits */
 256:../firmware/n32g430_std_periph_driver/src/n32g430_comp.c ****             COMP->Cmp2.FILP &= COMP_FILTER_CLKPSC_MASK;
 257:../firmware/n32g430_std_periph_driver/src/n32g430_comp.c ****             /* Set COMPx_FILP CLKPSC[15:0] bits */
 258:../firmware/n32g430_std_periph_driver/src/n32g430_comp.c ****             COMP->Cmp2.FILP |= clkpsc_value;
 259:../firmware/n32g430_std_periph_driver/src/n32g430_comp.c ****             break;
 260:../firmware/n32g430_std_periph_driver/src/n32g430_comp.c ****         case COMP3:
 261:../firmware/n32g430_std_periph_driver/src/n32g430_comp.c ****             /* Clear COMPx_FILP CLKPSC[15:0] bits */
 262:../firmware/n32g430_std_periph_driver/src/n32g430_comp.c ****             COMP->Cmp3.FILP &= COMP_FILTER_CLKPSC_MASK;
 263:../firmware/n32g430_std_periph_driver/src/n32g430_comp.c ****             /* Set COMPx_FILP CLKPSC[15:0] bits */
 264:../firmware/n32g430_std_periph_driver/src/n32g430_comp.c ****             COMP->Cmp3.FILP |= clkpsc_value;
 265:../firmware/n32g430_std_periph_driver/src/n32g430_comp.c ****             break;
 266:../firmware/n32g430_std_periph_driver/src/n32g430_comp.c ****         default:
 267:../firmware/n32g430_std_periph_driver/src/n32g430_comp.c ****             break;
 268:../firmware/n32g430_std_periph_driver/src/n32g430_comp.c ****     }
 269:../firmware/n32g430_std_periph_driver/src/n32g430_comp.c **** }
 455              		.loc 1 269 1 is_stmt 0 view .LVU121
 456 0016 7047     		bx	lr
 457              	.LVL15:
 458              	.L28:
 459              		.loc 1 269 1 view .LVU122
ARM GAS  C:\Users\Dawn\AppData\Local\Temp\ccGZo2O0.s 			page 14


 460              	.LBE13:
 461              	.LBE12:
 256:../firmware/n32g430_std_periph_driver/src/n32g430_comp.c ****             /* Set COMPx_FILP CLKPSC[15:0] bits */
 462              		.loc 1 256 13 is_stmt 1 view .LVU123
 256:../firmware/n32g430_std_periph_driver/src/n32g430_comp.c ****             /* Set COMPx_FILP CLKPSC[15:0] bits */
 463              		.loc 1 256 23 is_stmt 0 view .LVU124
 464 0018 074B     		ldr	r3, .L31
 465 001a 9A6A     		ldr	r2, [r3, #40]
 256:../firmware/n32g430_std_periph_driver/src/n32g430_comp.c ****             /* Set COMPx_FILP CLKPSC[15:0] bits */
 466              		.loc 1 256 29 view .LVU125
 467 001c 0022     		movs	r2, #0
 468 001e 9A62     		str	r2, [r3, #40]
 258:../firmware/n32g430_std_periph_driver/src/n32g430_comp.c ****             break;
 469              		.loc 1 258 13 is_stmt 1 view .LVU126
 258:../firmware/n32g430_std_periph_driver/src/n32g430_comp.c ****             break;
 470              		.loc 1 258 23 is_stmt 0 view .LVU127
 471 0020 9A6A     		ldr	r2, [r3, #40]
 258:../firmware/n32g430_std_periph_driver/src/n32g430_comp.c ****             break;
 472              		.loc 1 258 29 view .LVU128
 473 0022 1143     		orrs	r1, r1, r2
 474              	.LVL16:
 258:../firmware/n32g430_std_periph_driver/src/n32g430_comp.c ****             break;
 475              		.loc 1 258 29 view .LVU129
 476 0024 9962     		str	r1, [r3, #40]
 259:../firmware/n32g430_std_periph_driver/src/n32g430_comp.c ****         case COMP3:
 477              		.loc 1 259 13 is_stmt 1 view .LVU130
 478 0026 7047     		bx	lr
 479              	.LVL17:
 480              	.L29:
 262:../firmware/n32g430_std_periph_driver/src/n32g430_comp.c ****             /* Set COMPx_FILP CLKPSC[15:0] bits */
 481              		.loc 1 262 13 view .LVU131
 262:../firmware/n32g430_std_periph_driver/src/n32g430_comp.c ****             /* Set COMPx_FILP CLKPSC[15:0] bits */
 482              		.loc 1 262 23 is_stmt 0 view .LVU132
 483 0028 034B     		ldr	r3, .L31
 484 002a 9A6B     		ldr	r2, [r3, #56]
 262:../firmware/n32g430_std_periph_driver/src/n32g430_comp.c ****             /* Set COMPx_FILP CLKPSC[15:0] bits */
 485              		.loc 1 262 29 view .LVU133
 486 002c 0022     		movs	r2, #0
 487 002e 9A63     		str	r2, [r3, #56]
 264:../firmware/n32g430_std_periph_driver/src/n32g430_comp.c ****             break;
 488              		.loc 1 264 13 is_stmt 1 view .LVU134
 264:../firmware/n32g430_std_periph_driver/src/n32g430_comp.c ****             break;
 489              		.loc 1 264 23 is_stmt 0 view .LVU135
 490 0030 9A6B     		ldr	r2, [r3, #56]
 264:../firmware/n32g430_std_periph_driver/src/n32g430_comp.c ****             break;
 491              		.loc 1 264 29 view .LVU136
 492 0032 1143     		orrs	r1, r1, r2
 493              	.LVL18:
 264:../firmware/n32g430_std_periph_driver/src/n32g430_comp.c ****             break;
 494              		.loc 1 264 29 view .LVU137
 495 0034 9963     		str	r1, [r3, #56]
 265:../firmware/n32g430_std_periph_driver/src/n32g430_comp.c ****         default:
 496              		.loc 1 265 13 is_stmt 1 view .LVU138
 497              	.L27:
 498              		.loc 1 269 1 is_stmt 0 view .LVU139
 499 0036 7047     		bx	lr
 500              	.L32:
ARM GAS  C:\Users\Dawn\AppData\Local\Temp\ccGZo2O0.s 			page 15


 501              		.align	2
 502              	.L31:
 503 0038 00240040 		.word	1073751040
 504              		.cfi_endproc
 505              	.LFE136:
 507              		.section	.text.COMP_Blking_Soucre_Config,"ax",%progbits
 508              		.align	1
 509              		.global	COMP_Blking_Soucre_Config
 510              		.syntax unified
 511              		.thumb
 512              		.thumb_func
 514              	COMP_Blking_Soucre_Config:
 515              	.LVL19:
 516              	.LFB137:
 270:../firmware/n32g430_std_periph_driver/src/n32g430_comp.c **** 
 271:../firmware/n32g430_std_periph_driver/src/n32g430_comp.c **** /**
 272:../firmware/n32g430_std_periph_driver/src/n32g430_comp.c **** *\*\name    COMP_Blking_Soucre_Config.
 273:../firmware/n32g430_std_periph_driver/src/n32g430_comp.c **** *\*\fun     Configures which TIMx output signal to control COMPx Blking. 
 274:../firmware/n32g430_std_periph_driver/src/n32g430_comp.c **** *\*\param   COMPx :
 275:../firmware/n32g430_std_periph_driver/src/n32g430_comp.c **** *\*\          - COMP1
 276:../firmware/n32g430_std_periph_driver/src/n32g430_comp.c **** *\*\          - COMP2
 277:../firmware/n32g430_std_periph_driver/src/n32g430_comp.c **** *\*\          - COMP3
 278:../firmware/n32g430_std_periph_driver/src/n32g430_comp.c **** *\*\param   blking_mode :
 279:../firmware/n32g430_std_periph_driver/src/n32g430_comp.c **** *\*\          - COMP_BLANKING_NO
 280:../firmware/n32g430_std_periph_driver/src/n32g430_comp.c **** *\*\          - COMP_BLANKING_TIM1_OC5
 281:../firmware/n32g430_std_periph_driver/src/n32g430_comp.c **** *\*\          - COMP_BLANKING_TIM8_OC5
 282:../firmware/n32g430_std_periph_driver/src/n32g430_comp.c **** *\*\return  none
 283:../firmware/n32g430_std_periph_driver/src/n32g430_comp.c **** **/
 284:../firmware/n32g430_std_periph_driver/src/n32g430_comp.c **** void COMP_Blking_Soucre_Config(COMPX COMPx, uint32_t blking_mode)
 285:../firmware/n32g430_std_periph_driver/src/n32g430_comp.c **** {
 517              		.loc 1 285 1 is_stmt 1 view -0
 518              		.cfi_startproc
 519              		@ args = 0, pretend = 0, frame = 0
 520              		@ frame_needed = 0, uses_anonymous_args = 0
 521              		@ link register save eliminated.
 286:../firmware/n32g430_std_periph_driver/src/n32g430_comp.c ****     switch (COMPx)
 522              		.loc 1 286 5 view .LVU141
 523 0000 0128     		cmp	r0, #1
 524 0002 0BD0     		beq	.L34
 525 0004 0228     		cmp	r0, #2
 526 0006 12D0     		beq	.L35
 527 0008 C8B9     		cbnz	r0, .L33
 528              	.LVL20:
 529              	.LBB16:
 530              	.LBI16:
 284:../firmware/n32g430_std_periph_driver/src/n32g430_comp.c **** {
 531              		.loc 1 284 6 view .LVU142
 532              	.LBB17:
 287:../firmware/n32g430_std_periph_driver/src/n32g430_comp.c ****     {
 288:../firmware/n32g430_std_periph_driver/src/n32g430_comp.c ****         case COMP1:
 289:../firmware/n32g430_std_periph_driver/src/n32g430_comp.c ****             /* Clear COMPx_CTRL BLKING[2:0] bits */
 290:../firmware/n32g430_std_periph_driver/src/n32g430_comp.c ****             COMP->Cmp1.CTRL &= COMP_BLANKING_MASK;
 533              		.loc 1 290 13 view .LVU143
 534              		.loc 1 290 23 is_stmt 0 view .LVU144
 535 000a 0D4B     		ldr	r3, .L37
 536 000c 1A69     		ldr	r2, [r3, #16]
 537              		.loc 1 290 29 view .LVU145
ARM GAS  C:\Users\Dawn\AppData\Local\Temp\ccGZo2O0.s 			page 16


 538 000e 22F4E022 		bic	r2, r2, #458752
 539 0012 1A61     		str	r2, [r3, #16]
 291:../firmware/n32g430_std_periph_driver/src/n32g430_comp.c ****             /* Set COMPx_CTRL BLKING[2:0] bits */
 292:../firmware/n32g430_std_periph_driver/src/n32g430_comp.c ****             COMP->Cmp1.CTRL |= blking_mode;
 540              		.loc 1 292 13 is_stmt 1 view .LVU146
 541              		.loc 1 292 23 is_stmt 0 view .LVU147
 542 0014 1A69     		ldr	r2, [r3, #16]
 543              		.loc 1 292 29 view .LVU148
 544 0016 1143     		orrs	r1, r1, r2
 545              	.LVL21:
 546              		.loc 1 292 29 view .LVU149
 547 0018 1961     		str	r1, [r3, #16]
 293:../firmware/n32g430_std_periph_driver/src/n32g430_comp.c ****             break;
 548              		.loc 1 293 13 is_stmt 1 view .LVU150
 549              	.LVL22:
 294:../firmware/n32g430_std_periph_driver/src/n32g430_comp.c ****         case COMP2:
 295:../firmware/n32g430_std_periph_driver/src/n32g430_comp.c ****             /* Clear COMPx_CTRL BLKING[2:0] bits */
 296:../firmware/n32g430_std_periph_driver/src/n32g430_comp.c ****             COMP->Cmp2.CTRL &= COMP_BLANKING_MASK;
 297:../firmware/n32g430_std_periph_driver/src/n32g430_comp.c ****             /* Set COMPx_CTRL BLKING[2:0] bits */
 298:../firmware/n32g430_std_periph_driver/src/n32g430_comp.c ****             COMP->Cmp2.CTRL |= blking_mode;
 299:../firmware/n32g430_std_periph_driver/src/n32g430_comp.c ****             break;
 300:../firmware/n32g430_std_periph_driver/src/n32g430_comp.c ****         case COMP3:
 301:../firmware/n32g430_std_periph_driver/src/n32g430_comp.c ****             /* Clear COMPx_CTRL BLKING[2:0] bits */
 302:../firmware/n32g430_std_periph_driver/src/n32g430_comp.c ****             COMP->Cmp3.CTRL &= COMP_BLANKING_MASK;
 303:../firmware/n32g430_std_periph_driver/src/n32g430_comp.c ****             /* Set COMPx_CTRL BLKING[2:0] bits */
 304:../firmware/n32g430_std_periph_driver/src/n32g430_comp.c ****             COMP->Cmp3.CTRL |= blking_mode;
 305:../firmware/n32g430_std_periph_driver/src/n32g430_comp.c ****             break;
 306:../firmware/n32g430_std_periph_driver/src/n32g430_comp.c ****         default:
 307:../firmware/n32g430_std_periph_driver/src/n32g430_comp.c ****             break;
 308:../firmware/n32g430_std_periph_driver/src/n32g430_comp.c ****     }
 309:../firmware/n32g430_std_periph_driver/src/n32g430_comp.c **** }
 550              		.loc 1 309 1 is_stmt 0 view .LVU151
 551 001a 7047     		bx	lr
 552              	.LVL23:
 553              	.L34:
 554              		.loc 1 309 1 view .LVU152
 555              	.LBE17:
 556              	.LBE16:
 296:../firmware/n32g430_std_periph_driver/src/n32g430_comp.c ****             /* Set COMPx_CTRL BLKING[2:0] bits */
 557              		.loc 1 296 13 is_stmt 1 view .LVU153
 296:../firmware/n32g430_std_periph_driver/src/n32g430_comp.c ****             /* Set COMPx_CTRL BLKING[2:0] bits */
 558              		.loc 1 296 23 is_stmt 0 view .LVU154
 559 001c 084B     		ldr	r3, .L37
 560 001e 1A6A     		ldr	r2, [r3, #32]
 296:../firmware/n32g430_std_periph_driver/src/n32g430_comp.c ****             /* Set COMPx_CTRL BLKING[2:0] bits */
 561              		.loc 1 296 29 view .LVU155
 562 0020 22F4E022 		bic	r2, r2, #458752
 563 0024 1A62     		str	r2, [r3, #32]
 298:../firmware/n32g430_std_periph_driver/src/n32g430_comp.c ****             break;
 564              		.loc 1 298 13 is_stmt 1 view .LVU156
 298:../firmware/n32g430_std_periph_driver/src/n32g430_comp.c ****             break;
 565              		.loc 1 298 23 is_stmt 0 view .LVU157
 566 0026 1A6A     		ldr	r2, [r3, #32]
 298:../firmware/n32g430_std_periph_driver/src/n32g430_comp.c ****             break;
 567              		.loc 1 298 29 view .LVU158
 568 0028 0A43     		orrs	r2, r2, r1
 569 002a 1A62     		str	r2, [r3, #32]
ARM GAS  C:\Users\Dawn\AppData\Local\Temp\ccGZo2O0.s 			page 17


 299:../firmware/n32g430_std_periph_driver/src/n32g430_comp.c ****         case COMP3:
 570              		.loc 1 299 13 is_stmt 1 view .LVU159
 571 002c 7047     		bx	lr
 572              	.L35:
 302:../firmware/n32g430_std_periph_driver/src/n32g430_comp.c ****             /* Set COMPx_CTRL BLKING[2:0] bits */
 573              		.loc 1 302 13 view .LVU160
 302:../firmware/n32g430_std_periph_driver/src/n32g430_comp.c ****             /* Set COMPx_CTRL BLKING[2:0] bits */
 574              		.loc 1 302 23 is_stmt 0 view .LVU161
 575 002e 044B     		ldr	r3, .L37
 576 0030 1A6B     		ldr	r2, [r3, #48]
 302:../firmware/n32g430_std_periph_driver/src/n32g430_comp.c ****             /* Set COMPx_CTRL BLKING[2:0] bits */
 577              		.loc 1 302 29 view .LVU162
 578 0032 22F4E022 		bic	r2, r2, #458752
 579 0036 1A63     		str	r2, [r3, #48]
 304:../firmware/n32g430_std_periph_driver/src/n32g430_comp.c ****             break;
 580              		.loc 1 304 13 is_stmt 1 view .LVU163
 304:../firmware/n32g430_std_periph_driver/src/n32g430_comp.c ****             break;
 581              		.loc 1 304 23 is_stmt 0 view .LVU164
 582 0038 1A6B     		ldr	r2, [r3, #48]
 304:../firmware/n32g430_std_periph_driver/src/n32g430_comp.c ****             break;
 583              		.loc 1 304 29 view .LVU165
 584 003a 0A43     		orrs	r2, r2, r1
 585 003c 1A63     		str	r2, [r3, #48]
 305:../firmware/n32g430_std_periph_driver/src/n32g430_comp.c ****         default:
 586              		.loc 1 305 13 is_stmt 1 view .LVU166
 587              	.L33:
 588              		.loc 1 309 1 is_stmt 0 view .LVU167
 589 003e 7047     		bx	lr
 590              	.L38:
 591              		.align	2
 592              	.L37:
 593 0040 00240040 		.word	1073751040
 594              		.cfi_endproc
 595              	.LFE137:
 597              		.section	.text.COMP_Hysteresis_Level_Config,"ax",%progbits
 598              		.align	1
 599              		.global	COMP_Hysteresis_Level_Config
 600              		.syntax unified
 601              		.thumb
 602              		.thumb_func
 604              	COMP_Hysteresis_Level_Config:
 605              	.LVL24:
 606              	.LFB138:
 310:../firmware/n32g430_std_periph_driver/src/n32g430_comp.c **** 
 311:../firmware/n32g430_std_periph_driver/src/n32g430_comp.c **** /**
 312:../firmware/n32g430_std_periph_driver/src/n32g430_comp.c **** *\*\name    COMP_Hysteresis_Level_Config.
 313:../firmware/n32g430_std_periph_driver/src/n32g430_comp.c **** *\*\fun     Configures COMPx hysteresis level.
 314:../firmware/n32g430_std_periph_driver/src/n32g430_comp.c **** *\*\param   COMPx :
 315:../firmware/n32g430_std_periph_driver/src/n32g430_comp.c **** *\*\          - COMP1
 316:../firmware/n32g430_std_periph_driver/src/n32g430_comp.c **** *\*\          - COMP2
 317:../firmware/n32g430_std_periph_driver/src/n32g430_comp.c **** *\*\          - COMP3
 318:../firmware/n32g430_std_periph_driver/src/n32g430_comp.c **** *\*\param   hyst_mode :
 319:../firmware/n32g430_std_periph_driver/src/n32g430_comp.c **** *\*\          - COMP_HYST_NO   
 320:../firmware/n32g430_std_periph_driver/src/n32g430_comp.c **** *\*\          - COMP_HYST_LOW     5.1mV-level
 321:../firmware/n32g430_std_periph_driver/src/n32g430_comp.c **** *\*\          - COMP_HYST_MID     15mV-level
 322:../firmware/n32g430_std_periph_driver/src/n32g430_comp.c **** *\*\          - COMP_HYST_HIGH    25mV-level   
 323:../firmware/n32g430_std_periph_driver/src/n32g430_comp.c **** *\*\return  none
ARM GAS  C:\Users\Dawn\AppData\Local\Temp\ccGZo2O0.s 			page 18


 324:../firmware/n32g430_std_periph_driver/src/n32g430_comp.c **** **/
 325:../firmware/n32g430_std_periph_driver/src/n32g430_comp.c **** void COMP_Hysteresis_Level_Config(COMPX COMPx, uint32_t hyst_mode)
 326:../firmware/n32g430_std_periph_driver/src/n32g430_comp.c **** {
 607              		.loc 1 326 1 is_stmt 1 view -0
 608              		.cfi_startproc
 609              		@ args = 0, pretend = 0, frame = 0
 610              		@ frame_needed = 0, uses_anonymous_args = 0
 611              		@ link register save eliminated.
 327:../firmware/n32g430_std_periph_driver/src/n32g430_comp.c ****     switch (COMPx)
 612              		.loc 1 327 5 view .LVU169
 613 0000 0128     		cmp	r0, #1
 614 0002 0BD0     		beq	.L40
 615 0004 0228     		cmp	r0, #2
 616 0006 12D0     		beq	.L41
 617 0008 C8B9     		cbnz	r0, .L39
 618              	.LVL25:
 619              	.LBB20:
 620              	.LBI20:
 325:../firmware/n32g430_std_periph_driver/src/n32g430_comp.c **** {
 621              		.loc 1 325 6 view .LVU170
 622              	.LBB21:
 328:../firmware/n32g430_std_periph_driver/src/n32g430_comp.c ****     {
 329:../firmware/n32g430_std_periph_driver/src/n32g430_comp.c ****         case COMP1:
 330:../firmware/n32g430_std_periph_driver/src/n32g430_comp.c ****             /* Clear COMPx_CTRL HYST[1:0] bits */
 331:../firmware/n32g430_std_periph_driver/src/n32g430_comp.c ****             COMP->Cmp1.CTRL &= COMP_HYST_MASK;
 623              		.loc 1 331 13 view .LVU171
 624              		.loc 1 331 23 is_stmt 0 view .LVU172
 625 000a 0D4B     		ldr	r3, .L43
 626 000c 1A69     		ldr	r2, [r3, #16]
 627              		.loc 1 331 29 view .LVU173
 628 000e 22F44042 		bic	r2, r2, #49152
 629 0012 1A61     		str	r2, [r3, #16]
 332:../firmware/n32g430_std_periph_driver/src/n32g430_comp.c ****             /* Set COMPx_CTRL HYST[1:0] bits */
 333:../firmware/n32g430_std_periph_driver/src/n32g430_comp.c ****             COMP->Cmp1.CTRL |= hyst_mode;
 630              		.loc 1 333 13 is_stmt 1 view .LVU174
 631              		.loc 1 333 23 is_stmt 0 view .LVU175
 632 0014 1A69     		ldr	r2, [r3, #16]
 633              		.loc 1 333 29 view .LVU176
 634 0016 1143     		orrs	r1, r1, r2
 635              	.LVL26:
 636              		.loc 1 333 29 view .LVU177
 637 0018 1961     		str	r1, [r3, #16]
 334:../firmware/n32g430_std_periph_driver/src/n32g430_comp.c ****             break;
 638              		.loc 1 334 13 is_stmt 1 view .LVU178
 639              	.LVL27:
 335:../firmware/n32g430_std_periph_driver/src/n32g430_comp.c ****         case COMP2:
 336:../firmware/n32g430_std_periph_driver/src/n32g430_comp.c ****             /* Clear COMPx_CTRL HYST[1:0] bits */
 337:../firmware/n32g430_std_periph_driver/src/n32g430_comp.c ****             COMP->Cmp2.CTRL &= COMP_HYST_MASK;
 338:../firmware/n32g430_std_periph_driver/src/n32g430_comp.c ****             /* Set COMPx_CTRL HYST[1:0] bits */
 339:../firmware/n32g430_std_periph_driver/src/n32g430_comp.c ****             COMP->Cmp2.CTRL |= hyst_mode;
 340:../firmware/n32g430_std_periph_driver/src/n32g430_comp.c ****             break;
 341:../firmware/n32g430_std_periph_driver/src/n32g430_comp.c ****         case COMP3:
 342:../firmware/n32g430_std_periph_driver/src/n32g430_comp.c ****             /* Clear COMPx_CTRL HYST[1:0] bits */
 343:../firmware/n32g430_std_periph_driver/src/n32g430_comp.c ****             COMP->Cmp3.CTRL &= COMP_HYST_MASK;
 344:../firmware/n32g430_std_periph_driver/src/n32g430_comp.c ****             /* Set COMPx_CTRL HYST[1:0] bits */
 345:../firmware/n32g430_std_periph_driver/src/n32g430_comp.c ****             COMP->Cmp3.CTRL |= hyst_mode;
 346:../firmware/n32g430_std_periph_driver/src/n32g430_comp.c ****             break;
ARM GAS  C:\Users\Dawn\AppData\Local\Temp\ccGZo2O0.s 			page 19


 347:../firmware/n32g430_std_periph_driver/src/n32g430_comp.c ****         default:
 348:../firmware/n32g430_std_periph_driver/src/n32g430_comp.c ****             break;
 349:../firmware/n32g430_std_periph_driver/src/n32g430_comp.c ****     }
 350:../firmware/n32g430_std_periph_driver/src/n32g430_comp.c **** }
 640              		.loc 1 350 1 is_stmt 0 view .LVU179
 641 001a 7047     		bx	lr
 642              	.LVL28:
 643              	.L40:
 644              		.loc 1 350 1 view .LVU180
 645              	.LBE21:
 646              	.LBE20:
 337:../firmware/n32g430_std_periph_driver/src/n32g430_comp.c ****             /* Set COMPx_CTRL HYST[1:0] bits */
 647              		.loc 1 337 13 is_stmt 1 view .LVU181
 337:../firmware/n32g430_std_periph_driver/src/n32g430_comp.c ****             /* Set COMPx_CTRL HYST[1:0] bits */
 648              		.loc 1 337 23 is_stmt 0 view .LVU182
 649 001c 084B     		ldr	r3, .L43
 650 001e 1A6A     		ldr	r2, [r3, #32]
 337:../firmware/n32g430_std_periph_driver/src/n32g430_comp.c ****             /* Set COMPx_CTRL HYST[1:0] bits */
 651              		.loc 1 337 29 view .LVU183
 652 0020 22F44042 		bic	r2, r2, #49152
 653 0024 1A62     		str	r2, [r3, #32]
 339:../firmware/n32g430_std_periph_driver/src/n32g430_comp.c ****             break;
 654              		.loc 1 339 13 is_stmt 1 view .LVU184
 339:../firmware/n32g430_std_periph_driver/src/n32g430_comp.c ****             break;
 655              		.loc 1 339 23 is_stmt 0 view .LVU185
 656 0026 1A6A     		ldr	r2, [r3, #32]
 339:../firmware/n32g430_std_periph_driver/src/n32g430_comp.c ****             break;
 657              		.loc 1 339 29 view .LVU186
 658 0028 0A43     		orrs	r2, r2, r1
 659 002a 1A62     		str	r2, [r3, #32]
 340:../firmware/n32g430_std_periph_driver/src/n32g430_comp.c ****         case COMP3:
 660              		.loc 1 340 13 is_stmt 1 view .LVU187
 661 002c 7047     		bx	lr
 662              	.L41:
 343:../firmware/n32g430_std_periph_driver/src/n32g430_comp.c ****             /* Set COMPx_CTRL HYST[1:0] bits */
 663              		.loc 1 343 13 view .LVU188
 343:../firmware/n32g430_std_periph_driver/src/n32g430_comp.c ****             /* Set COMPx_CTRL HYST[1:0] bits */
 664              		.loc 1 343 23 is_stmt 0 view .LVU189
 665 002e 044B     		ldr	r3, .L43
 666 0030 1A6B     		ldr	r2, [r3, #48]
 343:../firmware/n32g430_std_periph_driver/src/n32g430_comp.c ****             /* Set COMPx_CTRL HYST[1:0] bits */
 667              		.loc 1 343 29 view .LVU190
 668 0032 22F44042 		bic	r2, r2, #49152
 669 0036 1A63     		str	r2, [r3, #48]
 345:../firmware/n32g430_std_periph_driver/src/n32g430_comp.c ****             break;
 670              		.loc 1 345 13 is_stmt 1 view .LVU191
 345:../firmware/n32g430_std_periph_driver/src/n32g430_comp.c ****             break;
 671              		.loc 1 345 23 is_stmt 0 view .LVU192
 672 0038 1A6B     		ldr	r2, [r3, #48]
 345:../firmware/n32g430_std_periph_driver/src/n32g430_comp.c ****             break;
 673              		.loc 1 345 29 view .LVU193
 674 003a 0A43     		orrs	r2, r2, r1
 675 003c 1A63     		str	r2, [r3, #48]
 346:../firmware/n32g430_std_periph_driver/src/n32g430_comp.c ****         default:
 676              		.loc 1 346 13 is_stmt 1 view .LVU194
 677              	.L39:
 678              		.loc 1 350 1 is_stmt 0 view .LVU195
ARM GAS  C:\Users\Dawn\AppData\Local\Temp\ccGZo2O0.s 			page 20


 679 003e 7047     		bx	lr
 680              	.L44:
 681              		.align	2
 682              	.L43:
 683 0040 00240040 		.word	1073751040
 684              		.cfi_endproc
 685              	.LFE138:
 687              		.section	.text.COMP_Output_Polarity_Config,"ax",%progbits
 688              		.align	1
 689              		.global	COMP_Output_Polarity_Config
 690              		.syntax unified
 691              		.thumb
 692              		.thumb_func
 694              	COMP_Output_Polarity_Config:
 695              	.LVL29:
 696              	.LFB139:
 351:../firmware/n32g430_std_periph_driver/src/n32g430_comp.c **** 
 352:../firmware/n32g430_std_periph_driver/src/n32g430_comp.c **** /**
 353:../firmware/n32g430_std_periph_driver/src/n32g430_comp.c **** *\*\name    COMP_Output_Polarity_Config.
 354:../firmware/n32g430_std_periph_driver/src/n32g430_comp.c **** *\*\fun     Configures COMPx output signal polarity overturn or not.
 355:../firmware/n32g430_std_periph_driver/src/n32g430_comp.c **** *\*\param   COMPx :
 356:../firmware/n32g430_std_periph_driver/src/n32g430_comp.c **** *\*\          - COMP1
 357:../firmware/n32g430_std_periph_driver/src/n32g430_comp.c **** *\*\          - COMP2
 358:../firmware/n32g430_std_periph_driver/src/n32g430_comp.c **** *\*\          - COMP3
 359:../firmware/n32g430_std_periph_driver/src/n32g430_comp.c **** *\*\param   output_pol :
 360:../firmware/n32g430_std_periph_driver/src/n32g430_comp.c **** *\*\          - COMP_OUTPOL_FLIP   
 361:../firmware/n32g430_std_periph_driver/src/n32g430_comp.c **** *\*\          - COMP_OUTPOL_NFLIP   
 362:../firmware/n32g430_std_periph_driver/src/n32g430_comp.c **** *\*\return  none
 363:../firmware/n32g430_std_periph_driver/src/n32g430_comp.c **** **/
 364:../firmware/n32g430_std_periph_driver/src/n32g430_comp.c **** void COMP_Output_Polarity_Config(COMPX COMPx, uint32_t output_pol)
 365:../firmware/n32g430_std_periph_driver/src/n32g430_comp.c **** {
 697              		.loc 1 365 1 is_stmt 1 view -0
 698              		.cfi_startproc
 699              		@ args = 0, pretend = 0, frame = 0
 700              		@ frame_needed = 0, uses_anonymous_args = 0
 701              		@ link register save eliminated.
 366:../firmware/n32g430_std_periph_driver/src/n32g430_comp.c ****     switch (COMPx)
 702              		.loc 1 366 5 view .LVU197
 703 0000 0128     		cmp	r0, #1
 704 0002 0BD0     		beq	.L46
 705 0004 0228     		cmp	r0, #2
 706 0006 12D0     		beq	.L47
 707 0008 C8B9     		cbnz	r0, .L45
 708              	.LVL30:
 709              	.LBB24:
 710              	.LBI24:
 364:../firmware/n32g430_std_periph_driver/src/n32g430_comp.c **** {
 711              		.loc 1 364 6 view .LVU198
 712              	.LBB25:
 367:../firmware/n32g430_std_periph_driver/src/n32g430_comp.c ****     {
 368:../firmware/n32g430_std_periph_driver/src/n32g430_comp.c ****         case COMP1:
 369:../firmware/n32g430_std_periph_driver/src/n32g430_comp.c ****             /* Clear COMPx_CTRL POL bits */
 370:../firmware/n32g430_std_periph_driver/src/n32g430_comp.c ****             COMP->Cmp1.CTRL &= COMP_OUTPOL_MASK;
 713              		.loc 1 370 13 view .LVU199
 714              		.loc 1 370 23 is_stmt 0 view .LVU200
 715 000a 0D4B     		ldr	r3, .L49
 716 000c 1A69     		ldr	r2, [r3, #16]
ARM GAS  C:\Users\Dawn\AppData\Local\Temp\ccGZo2O0.s 			page 21


 717              		.loc 1 370 29 view .LVU201
 718 000e 22F40052 		bic	r2, r2, #8192
 719 0012 1A61     		str	r2, [r3, #16]
 371:../firmware/n32g430_std_periph_driver/src/n32g430_comp.c ****             /* Set COMPx_CTRL POL bits */
 372:../firmware/n32g430_std_periph_driver/src/n32g430_comp.c ****             COMP->Cmp1.CTRL |= output_pol;
 720              		.loc 1 372 13 is_stmt 1 view .LVU202
 721              		.loc 1 372 23 is_stmt 0 view .LVU203
 722 0014 1A69     		ldr	r2, [r3, #16]
 723              		.loc 1 372 29 view .LVU204
 724 0016 1143     		orrs	r1, r1, r2
 725              	.LVL31:
 726              		.loc 1 372 29 view .LVU205
 727 0018 1961     		str	r1, [r3, #16]
 373:../firmware/n32g430_std_periph_driver/src/n32g430_comp.c ****             break;
 728              		.loc 1 373 13 is_stmt 1 view .LVU206
 729              	.LVL32:
 374:../firmware/n32g430_std_periph_driver/src/n32g430_comp.c ****         case COMP2:
 375:../firmware/n32g430_std_periph_driver/src/n32g430_comp.c ****             /* Clear COMPx_CTRL POL bits */
 376:../firmware/n32g430_std_periph_driver/src/n32g430_comp.c ****             COMP->Cmp2.CTRL &= COMP_OUTPOL_MASK;
 377:../firmware/n32g430_std_periph_driver/src/n32g430_comp.c ****             /* Set COMPx_CTRL POL bits */
 378:../firmware/n32g430_std_periph_driver/src/n32g430_comp.c ****             COMP->Cmp2.CTRL |= output_pol;
 379:../firmware/n32g430_std_periph_driver/src/n32g430_comp.c ****             break;
 380:../firmware/n32g430_std_periph_driver/src/n32g430_comp.c ****         case COMP3:
 381:../firmware/n32g430_std_periph_driver/src/n32g430_comp.c ****             /* Clear COMPx_CTRL POL bits */
 382:../firmware/n32g430_std_periph_driver/src/n32g430_comp.c ****             COMP->Cmp3.CTRL &= COMP_OUTPOL_MASK;
 383:../firmware/n32g430_std_periph_driver/src/n32g430_comp.c ****             /* Set COMPx_CTRL POL bits */
 384:../firmware/n32g430_std_periph_driver/src/n32g430_comp.c ****             COMP->Cmp3.CTRL |= output_pol;
 385:../firmware/n32g430_std_periph_driver/src/n32g430_comp.c ****             break;
 386:../firmware/n32g430_std_periph_driver/src/n32g430_comp.c ****         default:
 387:../firmware/n32g430_std_periph_driver/src/n32g430_comp.c ****             break;
 388:../firmware/n32g430_std_periph_driver/src/n32g430_comp.c ****     }
 389:../firmware/n32g430_std_periph_driver/src/n32g430_comp.c **** }
 730              		.loc 1 389 1 is_stmt 0 view .LVU207
 731 001a 7047     		bx	lr
 732              	.LVL33:
 733              	.L46:
 734              		.loc 1 389 1 view .LVU208
 735              	.LBE25:
 736              	.LBE24:
 376:../firmware/n32g430_std_periph_driver/src/n32g430_comp.c ****             /* Set COMPx_CTRL POL bits */
 737              		.loc 1 376 13 is_stmt 1 view .LVU209
 376:../firmware/n32g430_std_periph_driver/src/n32g430_comp.c ****             /* Set COMPx_CTRL POL bits */
 738              		.loc 1 376 23 is_stmt 0 view .LVU210
 739 001c 084B     		ldr	r3, .L49
 740 001e 1A6A     		ldr	r2, [r3, #32]
 376:../firmware/n32g430_std_periph_driver/src/n32g430_comp.c ****             /* Set COMPx_CTRL POL bits */
 741              		.loc 1 376 29 view .LVU211
 742 0020 22F40052 		bic	r2, r2, #8192
 743 0024 1A62     		str	r2, [r3, #32]
 378:../firmware/n32g430_std_periph_driver/src/n32g430_comp.c ****             break;
 744              		.loc 1 378 13 is_stmt 1 view .LVU212
 378:../firmware/n32g430_std_periph_driver/src/n32g430_comp.c ****             break;
 745              		.loc 1 378 23 is_stmt 0 view .LVU213
 746 0026 1A6A     		ldr	r2, [r3, #32]
 378:../firmware/n32g430_std_periph_driver/src/n32g430_comp.c ****             break;
 747              		.loc 1 378 29 view .LVU214
 748 0028 0A43     		orrs	r2, r2, r1
ARM GAS  C:\Users\Dawn\AppData\Local\Temp\ccGZo2O0.s 			page 22


 749 002a 1A62     		str	r2, [r3, #32]
 379:../firmware/n32g430_std_periph_driver/src/n32g430_comp.c ****         case COMP3:
 750              		.loc 1 379 13 is_stmt 1 view .LVU215
 751 002c 7047     		bx	lr
 752              	.L47:
 382:../firmware/n32g430_std_periph_driver/src/n32g430_comp.c ****             /* Set COMPx_CTRL POL bits */
 753              		.loc 1 382 13 view .LVU216
 382:../firmware/n32g430_std_periph_driver/src/n32g430_comp.c ****             /* Set COMPx_CTRL POL bits */
 754              		.loc 1 382 23 is_stmt 0 view .LVU217
 755 002e 044B     		ldr	r3, .L49
 756 0030 1A6B     		ldr	r2, [r3, #48]
 382:../firmware/n32g430_std_periph_driver/src/n32g430_comp.c ****             /* Set COMPx_CTRL POL bits */
 757              		.loc 1 382 29 view .LVU218
 758 0032 22F40052 		bic	r2, r2, #8192
 759 0036 1A63     		str	r2, [r3, #48]
 384:../firmware/n32g430_std_periph_driver/src/n32g430_comp.c ****             break;
 760              		.loc 1 384 13 is_stmt 1 view .LVU219
 384:../firmware/n32g430_std_periph_driver/src/n32g430_comp.c ****             break;
 761              		.loc 1 384 23 is_stmt 0 view .LVU220
 762 0038 1A6B     		ldr	r2, [r3, #48]
 384:../firmware/n32g430_std_periph_driver/src/n32g430_comp.c ****             break;
 763              		.loc 1 384 29 view .LVU221
 764 003a 0A43     		orrs	r2, r2, r1
 765 003c 1A63     		str	r2, [r3, #48]
 385:../firmware/n32g430_std_periph_driver/src/n32g430_comp.c ****         default:
 766              		.loc 1 385 13 is_stmt 1 view .LVU222
 767              	.L45:
 768              		.loc 1 389 1 is_stmt 0 view .LVU223
 769 003e 7047     		bx	lr
 770              	.L50:
 771              		.align	2
 772              	.L49:
 773 0040 00240040 		.word	1073751040
 774              		.cfi_endproc
 775              	.LFE139:
 777              		.section	.text.COMP_InpSel_Config,"ax",%progbits
 778              		.align	1
 779              		.global	COMP_InpSel_Config
 780              		.syntax unified
 781              		.thumb
 782              		.thumb_func
 784              	COMP_InpSel_Config:
 785              	.LVL34:
 786              	.LFB140:
 390:../firmware/n32g430_std_periph_driver/src/n32g430_comp.c **** 
 391:../firmware/n32g430_std_periph_driver/src/n32g430_comp.c **** /**
 392:../firmware/n32g430_std_periph_driver/src/n32g430_comp.c **** *\*\name    COMP_InpSel_Config.
 393:../firmware/n32g430_std_periph_driver/src/n32g430_comp.c **** *\*\fun     Configures COMPx inpsel.
 394:../firmware/n32g430_std_periph_driver/src/n32g430_comp.c **** *\*\param   COMPx :
 395:../firmware/n32g430_std_periph_driver/src/n32g430_comp.c **** *\*\          - COMP1
 396:../firmware/n32g430_std_periph_driver/src/n32g430_comp.c **** *\*\          - COMP2
 397:../firmware/n32g430_std_periph_driver/src/n32g430_comp.c **** *\*\          - COMP3
 398:../firmware/n32g430_std_periph_driver/src/n32g430_comp.c **** *\*\param   vpsel :
 399:../firmware/n32g430_std_periph_driver/src/n32g430_comp.c **** *\*\             comp1 inp sel 
 400:../firmware/n32g430_std_periph_driver/src/n32g430_comp.c **** *\*\            - COMP1_INPSEL_PA0                   
 401:../firmware/n32g430_std_periph_driver/src/n32g430_comp.c **** *\*\            - COMP1_INPSEL_PA2                   
 402:../firmware/n32g430_std_periph_driver/src/n32g430_comp.c **** *\*\            - COMP1_INPSEL_PA12                  
ARM GAS  C:\Users\Dawn\AppData\Local\Temp\ccGZo2O0.s 			page 23


 403:../firmware/n32g430_std_periph_driver/src/n32g430_comp.c **** *\*\            - COMP1_INPSEL_PB3                   
 404:../firmware/n32g430_std_periph_driver/src/n32g430_comp.c **** *\*\            - COMP1_INPSEL_PB4                   
 405:../firmware/n32g430_std_periph_driver/src/n32g430_comp.c **** *\*\            - COMP1_INPSEL_PB10                  
 406:../firmware/n32g430_std_periph_driver/src/n32g430_comp.c **** *\*\            - COMP1_INPSEL_PA1                   
 407:../firmware/n32g430_std_periph_driver/src/n32g430_comp.c **** *\*\            - COMP1_INPSEL_FLOAT              
 408:../firmware/n32g430_std_periph_driver/src/n32g430_comp.c **** *\*\             comp2 inp sel 
 409:../firmware/n32g430_std_periph_driver/src/n32g430_comp.c **** *\*\            - COMP2_INPSEL_PA1                   
 410:../firmware/n32g430_std_periph_driver/src/n32g430_comp.c **** *\*\            - COMP2_INPSEL_PA3                  
 411:../firmware/n32g430_std_periph_driver/src/n32g430_comp.c **** *\*\            - COMP2_INPSEL_PA6                  
 412:../firmware/n32g430_std_periph_driver/src/n32g430_comp.c **** *\*\            - COMP2_INPSEL_PA7                  
 413:../firmware/n32g430_std_periph_driver/src/n32g430_comp.c **** *\*\            - COMP2_INPSEL_PA11                
 414:../firmware/n32g430_std_periph_driver/src/n32g430_comp.c **** *\*\            - COMP2_INPSEL_PA15                
 415:../firmware/n32g430_std_periph_driver/src/n32g430_comp.c **** *\*\            - COMP2_INPSEL_PB7                 
 416:../firmware/n32g430_std_periph_driver/src/n32g430_comp.c **** *\*\            - COMP2_INPSEL_FLOAT                               
 417:../firmware/n32g430_std_periph_driver/src/n32g430_comp.c **** *\*\             comp3 inp sel 
 418:../firmware/n32g430_std_periph_driver/src/n32g430_comp.c **** *\*\            - COMP3_INPSEL_PA0               
 419:../firmware/n32g430_std_periph_driver/src/n32g430_comp.c **** *\*\            - COMP3_INPSEL_PB1                   
 420:../firmware/n32g430_std_periph_driver/src/n32g430_comp.c **** *\*\            - COMP3_INPSEL_PB11                  
 421:../firmware/n32g430_std_periph_driver/src/n32g430_comp.c **** *\*\            - COMP3_INPSEL_PB15                  
 422:../firmware/n32g430_std_periph_driver/src/n32g430_comp.c **** *\*\            - COMP3_INPSEL_PB3                   
 423:../firmware/n32g430_std_periph_driver/src/n32g430_comp.c **** *\*\            - COMP3_INPSEL_PB5                   
 424:../firmware/n32g430_std_periph_driver/src/n32g430_comp.c **** *\*\            - COMP3_INPSEL_FLOAT                 
 425:../firmware/n32g430_std_periph_driver/src/n32g430_comp.c **** *\*\            - COMP3_INPSEL_FLOAT                               
 426:../firmware/n32g430_std_periph_driver/src/n32g430_comp.c **** *\*\return  none
 427:../firmware/n32g430_std_periph_driver/src/n32g430_comp.c **** **/
 428:../firmware/n32g430_std_periph_driver/src/n32g430_comp.c **** void COMP_InpSel_Config(COMPX COMPx, uint32_t vpsel)
 429:../firmware/n32g430_std_periph_driver/src/n32g430_comp.c **** {
 787              		.loc 1 429 1 is_stmt 1 view -0
 788              		.cfi_startproc
 789              		@ args = 0, pretend = 0, frame = 0
 790              		@ frame_needed = 0, uses_anonymous_args = 0
 791              		@ link register save eliminated.
 430:../firmware/n32g430_std_periph_driver/src/n32g430_comp.c ****     switch (COMPx)
 792              		.loc 1 430 5 view .LVU225
 793 0000 0128     		cmp	r0, #1
 794 0002 0BD0     		beq	.L52
 795 0004 0228     		cmp	r0, #2
 796 0006 12D0     		beq	.L53
 797 0008 C8B9     		cbnz	r0, .L51
 798              	.LVL35:
 799              	.LBB28:
 800              	.LBI28:
 428:../firmware/n32g430_std_periph_driver/src/n32g430_comp.c **** {
 801              		.loc 1 428 6 view .LVU226
 802              	.LBB29:
 431:../firmware/n32g430_std_periph_driver/src/n32g430_comp.c ****     {
 432:../firmware/n32g430_std_periph_driver/src/n32g430_comp.c ****         case COMP1:
 433:../firmware/n32g430_std_periph_driver/src/n32g430_comp.c ****             /* Clear COMPx_CTRL INPSEL[2:0] bits */
 434:../firmware/n32g430_std_periph_driver/src/n32g430_comp.c ****             COMP->Cmp1.CTRL &= COMP_INPSEL_MASK;
 803              		.loc 1 434 13 view .LVU227
 804              		.loc 1 434 23 is_stmt 0 view .LVU228
 805 000a 0D4B     		ldr	r3, .L55
 806 000c 1A69     		ldr	r2, [r3, #16]
 807              		.loc 1 434 29 view .LVU229
 808 000e 22F0E002 		bic	r2, r2, #224
 809 0012 1A61     		str	r2, [r3, #16]
 435:../firmware/n32g430_std_periph_driver/src/n32g430_comp.c ****             /* Set COMPx_CTRL INPSEL[2:0] bits */
ARM GAS  C:\Users\Dawn\AppData\Local\Temp\ccGZo2O0.s 			page 24


 436:../firmware/n32g430_std_periph_driver/src/n32g430_comp.c ****             COMP->Cmp1.CTRL |= vpsel;
 810              		.loc 1 436 13 is_stmt 1 view .LVU230
 811              		.loc 1 436 23 is_stmt 0 view .LVU231
 812 0014 1A69     		ldr	r2, [r3, #16]
 813              		.loc 1 436 29 view .LVU232
 814 0016 1143     		orrs	r1, r1, r2
 815              	.LVL36:
 816              		.loc 1 436 29 view .LVU233
 817 0018 1961     		str	r1, [r3, #16]
 437:../firmware/n32g430_std_periph_driver/src/n32g430_comp.c ****             break;
 818              		.loc 1 437 13 is_stmt 1 view .LVU234
 819              	.LVL37:
 438:../firmware/n32g430_std_periph_driver/src/n32g430_comp.c ****         case COMP2:
 439:../firmware/n32g430_std_periph_driver/src/n32g430_comp.c ****             /* Clear COMPx_CTRL INPSEL[2:0] bits */
 440:../firmware/n32g430_std_periph_driver/src/n32g430_comp.c ****             COMP->Cmp2.CTRL &= COMP_INPSEL_MASK;
 441:../firmware/n32g430_std_periph_driver/src/n32g430_comp.c ****             /* Set COMPx_CTRL INPSEL[2:0] bits */
 442:../firmware/n32g430_std_periph_driver/src/n32g430_comp.c ****             COMP->Cmp2.CTRL |= vpsel;
 443:../firmware/n32g430_std_periph_driver/src/n32g430_comp.c ****             break;
 444:../firmware/n32g430_std_periph_driver/src/n32g430_comp.c ****         case COMP3:
 445:../firmware/n32g430_std_periph_driver/src/n32g430_comp.c ****             /* Clear COMPx_CTRL INPSEL[2:0] bits */
 446:../firmware/n32g430_std_periph_driver/src/n32g430_comp.c ****             COMP->Cmp3.CTRL &= COMP_INPSEL_MASK;
 447:../firmware/n32g430_std_periph_driver/src/n32g430_comp.c ****             /* Set COMPx_CTRL INPSEL[2:0] bits */
 448:../firmware/n32g430_std_periph_driver/src/n32g430_comp.c ****             COMP->Cmp3.CTRL |= vpsel;
 449:../firmware/n32g430_std_periph_driver/src/n32g430_comp.c ****             break;
 450:../firmware/n32g430_std_periph_driver/src/n32g430_comp.c ****         default:
 451:../firmware/n32g430_std_periph_driver/src/n32g430_comp.c ****             break;
 452:../firmware/n32g430_std_periph_driver/src/n32g430_comp.c ****     }
 453:../firmware/n32g430_std_periph_driver/src/n32g430_comp.c **** }
 820              		.loc 1 453 1 is_stmt 0 view .LVU235
 821 001a 7047     		bx	lr
 822              	.LVL38:
 823              	.L52:
 824              		.loc 1 453 1 view .LVU236
 825              	.LBE29:
 826              	.LBE28:
 440:../firmware/n32g430_std_periph_driver/src/n32g430_comp.c ****             /* Set COMPx_CTRL INPSEL[2:0] bits */
 827              		.loc 1 440 13 is_stmt 1 view .LVU237
 440:../firmware/n32g430_std_periph_driver/src/n32g430_comp.c ****             /* Set COMPx_CTRL INPSEL[2:0] bits */
 828              		.loc 1 440 23 is_stmt 0 view .LVU238
 829 001c 084B     		ldr	r3, .L55
 830 001e 1A6A     		ldr	r2, [r3, #32]
 440:../firmware/n32g430_std_periph_driver/src/n32g430_comp.c ****             /* Set COMPx_CTRL INPSEL[2:0] bits */
 831              		.loc 1 440 29 view .LVU239
 832 0020 22F0E002 		bic	r2, r2, #224
 833 0024 1A62     		str	r2, [r3, #32]
 442:../firmware/n32g430_std_periph_driver/src/n32g430_comp.c ****             break;
 834              		.loc 1 442 13 is_stmt 1 view .LVU240
 442:../firmware/n32g430_std_periph_driver/src/n32g430_comp.c ****             break;
 835              		.loc 1 442 23 is_stmt 0 view .LVU241
 836 0026 1A6A     		ldr	r2, [r3, #32]
 442:../firmware/n32g430_std_periph_driver/src/n32g430_comp.c ****             break;
 837              		.loc 1 442 29 view .LVU242
 838 0028 0A43     		orrs	r2, r2, r1
 839 002a 1A62     		str	r2, [r3, #32]
 443:../firmware/n32g430_std_periph_driver/src/n32g430_comp.c ****         case COMP3:
 840              		.loc 1 443 13 is_stmt 1 view .LVU243
 841 002c 7047     		bx	lr
ARM GAS  C:\Users\Dawn\AppData\Local\Temp\ccGZo2O0.s 			page 25


 842              	.L53:
 446:../firmware/n32g430_std_periph_driver/src/n32g430_comp.c ****             /* Set COMPx_CTRL INPSEL[2:0] bits */
 843              		.loc 1 446 13 view .LVU244
 446:../firmware/n32g430_std_periph_driver/src/n32g430_comp.c ****             /* Set COMPx_CTRL INPSEL[2:0] bits */
 844              		.loc 1 446 23 is_stmt 0 view .LVU245
 845 002e 044B     		ldr	r3, .L55
 846 0030 1A6B     		ldr	r2, [r3, #48]
 446:../firmware/n32g430_std_periph_driver/src/n32g430_comp.c ****             /* Set COMPx_CTRL INPSEL[2:0] bits */
 847              		.loc 1 446 29 view .LVU246
 848 0032 22F0E002 		bic	r2, r2, #224
 849 0036 1A63     		str	r2, [r3, #48]
 448:../firmware/n32g430_std_periph_driver/src/n32g430_comp.c ****             break;
 850              		.loc 1 448 13 is_stmt 1 view .LVU247
 448:../firmware/n32g430_std_periph_driver/src/n32g430_comp.c ****             break;
 851              		.loc 1 448 23 is_stmt 0 view .LVU248
 852 0038 1A6B     		ldr	r2, [r3, #48]
 448:../firmware/n32g430_std_periph_driver/src/n32g430_comp.c ****             break;
 853              		.loc 1 448 29 view .LVU249
 854 003a 0A43     		orrs	r2, r2, r1
 855 003c 1A63     		str	r2, [r3, #48]
 449:../firmware/n32g430_std_periph_driver/src/n32g430_comp.c ****         default:
 856              		.loc 1 449 13 is_stmt 1 view .LVU250
 857              	.L51:
 858              		.loc 1 453 1 is_stmt 0 view .LVU251
 859 003e 7047     		bx	lr
 860              	.L56:
 861              		.align	2
 862              	.L55:
 863 0040 00240040 		.word	1073751040
 864              		.cfi_endproc
 865              	.LFE140:
 867              		.section	.text.COMP_InmSel_Config,"ax",%progbits
 868              		.align	1
 869              		.global	COMP_InmSel_Config
 870              		.syntax unified
 871              		.thumb
 872              		.thumb_func
 874              	COMP_InmSel_Config:
 875              	.LVL39:
 876              	.LFB141:
 454:../firmware/n32g430_std_periph_driver/src/n32g430_comp.c **** 
 455:../firmware/n32g430_std_periph_driver/src/n32g430_comp.c **** /**
 456:../firmware/n32g430_std_periph_driver/src/n32g430_comp.c **** *\*\name    COMP_InmSel_Config.
 457:../firmware/n32g430_std_periph_driver/src/n32g430_comp.c **** *\*\fun     Configures COMPx inmsel.
 458:../firmware/n32g430_std_periph_driver/src/n32g430_comp.c **** *\*\param   COMPx :
 459:../firmware/n32g430_std_periph_driver/src/n32g430_comp.c **** *\*\          - COMP1
 460:../firmware/n32g430_std_periph_driver/src/n32g430_comp.c **** *\*\          - COMP2
 461:../firmware/n32g430_std_periph_driver/src/n32g430_comp.c **** *\*\          - COMP3
 462:../firmware/n32g430_std_periph_driver/src/n32g430_comp.c **** *\*\param   vmsel :
 463:../firmware/n32g430_std_periph_driver/src/n32g430_comp.c **** *\*\             comp1 inm sel 
 464:../firmware/n32g430_std_periph_driver/src/n32g430_comp.c **** *\*\            - COMP1_INMSEL_VREF_VC1              
 465:../firmware/n32g430_std_periph_driver/src/n32g430_comp.c **** *\*\            - COMP1_INMSEL_PA4                   
 466:../firmware/n32g430_std_periph_driver/src/n32g430_comp.c **** *\*\            - COMP1_INMSEL_PA0                   
 467:../firmware/n32g430_std_periph_driver/src/n32g430_comp.c **** *\*\            - COMP1_INMSEL_PA5                   
 468:../firmware/n32g430_std_periph_driver/src/n32g430_comp.c **** *\*\            - COMP1_INMSEL_PB5                   
 469:../firmware/n32g430_std_periph_driver/src/n32g430_comp.c **** *\*\            - COMP1_INMSEL_FLOAT                 
 470:../firmware/n32g430_std_periph_driver/src/n32g430_comp.c **** *\*\            - COMP1_INMSEL_FLOAT                 
ARM GAS  C:\Users\Dawn\AppData\Local\Temp\ccGZo2O0.s 			page 26


 471:../firmware/n32g430_std_periph_driver/src/n32g430_comp.c **** *\*\            - COMP1_INMSEL_FLOAT                            
 472:../firmware/n32g430_std_periph_driver/src/n32g430_comp.c **** *\*\             comp2 inm sel 
 473:../firmware/n32g430_std_periph_driver/src/n32g430_comp.c **** *\*\            - COMP2_INMSEL_VERF_VC2              
 474:../firmware/n32g430_std_periph_driver/src/n32g430_comp.c **** *\*\            - COMP2_INMSEL_PA2                   
 475:../firmware/n32g430_std_periph_driver/src/n32g430_comp.c **** *\*\            - COMP2_INMSEL_PA5                   
 476:../firmware/n32g430_std_periph_driver/src/n32g430_comp.c **** *\*\            - COMP2_INMSEL_PA6                   
 477:../firmware/n32g430_std_periph_driver/src/n32g430_comp.c **** *\*\            - COMP2_INMSEL_PB3                   
 478:../firmware/n32g430_std_periph_driver/src/n32g430_comp.c **** *\*\            - COMP2_INMSEL_PA4                   
 479:../firmware/n32g430_std_periph_driver/src/n32g430_comp.c **** *\*\            - COMP2_INMSEL_FLOAT                 
 480:../firmware/n32g430_std_periph_driver/src/n32g430_comp.c **** *\*\            - COMP2_INMSEL_FLOAT                          
 481:../firmware/n32g430_std_periph_driver/src/n32g430_comp.c **** *\*\             comp3 inm sel 
 482:../firmware/n32g430_std_periph_driver/src/n32g430_comp.c **** *\*\            - COMP3_INMSEL_VREF_VC3           
 483:../firmware/n32g430_std_periph_driver/src/n32g430_comp.c **** *\*\            - COMP3_INMSEL_PA3                 
 484:../firmware/n32g430_std_periph_driver/src/n32g430_comp.c **** *\*\            - COMP3_INMSEL_PB0                  
 485:../firmware/n32g430_std_periph_driver/src/n32g430_comp.c **** *\*\            - COMP3_INMSEL_PB2                
 486:../firmware/n32g430_std_periph_driver/src/n32g430_comp.c **** *\*\            - COMP3_INMSEL_PB14               
 487:../firmware/n32g430_std_periph_driver/src/n32g430_comp.c **** *\*\            - COMP3_INMSEL_FLOAT               
 488:../firmware/n32g430_std_periph_driver/src/n32g430_comp.c **** *\*\            - COMP3_INMSEL_FLOAT                
 489:../firmware/n32g430_std_periph_driver/src/n32g430_comp.c **** *\*\            - COMP3_INMSEL_FLOAT                               
 490:../firmware/n32g430_std_periph_driver/src/n32g430_comp.c **** *\*\return  none
 491:../firmware/n32g430_std_periph_driver/src/n32g430_comp.c **** **/
 492:../firmware/n32g430_std_periph_driver/src/n32g430_comp.c **** void COMP_InmSel_Config(COMPX COMPx, uint32_t vmsel)
 493:../firmware/n32g430_std_periph_driver/src/n32g430_comp.c **** {
 877              		.loc 1 493 1 is_stmt 1 view -0
 878              		.cfi_startproc
 879              		@ args = 0, pretend = 0, frame = 0
 880              		@ frame_needed = 0, uses_anonymous_args = 0
 881              		@ link register save eliminated.
 494:../firmware/n32g430_std_periph_driver/src/n32g430_comp.c ****     switch (COMPx)
 882              		.loc 1 494 5 view .LVU253
 883 0000 0128     		cmp	r0, #1
 884 0002 0BD0     		beq	.L58
 885 0004 0228     		cmp	r0, #2
 886 0006 12D0     		beq	.L59
 887 0008 C8B9     		cbnz	r0, .L57
 888              	.LVL40:
 889              	.LBB32:
 890              	.LBI32:
 492:../firmware/n32g430_std_periph_driver/src/n32g430_comp.c **** {
 891              		.loc 1 492 6 view .LVU254
 892              	.LBB33:
 495:../firmware/n32g430_std_periph_driver/src/n32g430_comp.c ****     {
 496:../firmware/n32g430_std_periph_driver/src/n32g430_comp.c ****         case COMP1:
 497:../firmware/n32g430_std_periph_driver/src/n32g430_comp.c ****             /* Clear COMPx_CTRL INMSEL[2:0] bits */
 498:../firmware/n32g430_std_periph_driver/src/n32g430_comp.c ****             COMP->Cmp1.CTRL &= COMP_INMSEL_MASK;
 893              		.loc 1 498 13 view .LVU255
 894              		.loc 1 498 23 is_stmt 0 view .LVU256
 895 000a 0D4B     		ldr	r3, .L61
 896 000c 1A69     		ldr	r2, [r3, #16]
 897              		.loc 1 498 29 view .LVU257
 898 000e 22F00E02 		bic	r2, r2, #14
 899 0012 1A61     		str	r2, [r3, #16]
 499:../firmware/n32g430_std_periph_driver/src/n32g430_comp.c ****             /* Set COMPx_CTRL INMSEL[2:0] bits */
 500:../firmware/n32g430_std_periph_driver/src/n32g430_comp.c ****             COMP->Cmp1.CTRL |= vmsel;
 900              		.loc 1 500 13 is_stmt 1 view .LVU258
 901              		.loc 1 500 23 is_stmt 0 view .LVU259
 902 0014 1A69     		ldr	r2, [r3, #16]
ARM GAS  C:\Users\Dawn\AppData\Local\Temp\ccGZo2O0.s 			page 27


 903              		.loc 1 500 29 view .LVU260
 904 0016 1143     		orrs	r1, r1, r2
 905              	.LVL41:
 906              		.loc 1 500 29 view .LVU261
 907 0018 1961     		str	r1, [r3, #16]
 501:../firmware/n32g430_std_periph_driver/src/n32g430_comp.c ****             break;
 908              		.loc 1 501 13 is_stmt 1 view .LVU262
 909              	.LVL42:
 502:../firmware/n32g430_std_periph_driver/src/n32g430_comp.c ****         case COMP2:
 503:../firmware/n32g430_std_periph_driver/src/n32g430_comp.c ****             /* Clear COMPx_CTRL INMSEL[2:0] bits */
 504:../firmware/n32g430_std_periph_driver/src/n32g430_comp.c ****             COMP->Cmp2.CTRL &= COMP_INMSEL_MASK;
 505:../firmware/n32g430_std_periph_driver/src/n32g430_comp.c ****             /* Set COMPx_CTRL INMSEL[2:0] bits */
 506:../firmware/n32g430_std_periph_driver/src/n32g430_comp.c ****             COMP->Cmp2.CTRL |= vmsel;
 507:../firmware/n32g430_std_periph_driver/src/n32g430_comp.c ****             break;
 508:../firmware/n32g430_std_periph_driver/src/n32g430_comp.c ****         case COMP3:
 509:../firmware/n32g430_std_periph_driver/src/n32g430_comp.c ****             /* Clear COMPx_CTRL INMSEL[2:0] bits */
 510:../firmware/n32g430_std_periph_driver/src/n32g430_comp.c ****             COMP->Cmp3.CTRL &= COMP_INMSEL_MASK;
 511:../firmware/n32g430_std_periph_driver/src/n32g430_comp.c ****             /* Set COMPx_CTRL INMSEL[2:0] bits */
 512:../firmware/n32g430_std_periph_driver/src/n32g430_comp.c ****             COMP->Cmp3.CTRL |= vmsel;
 513:../firmware/n32g430_std_periph_driver/src/n32g430_comp.c ****             break;
 514:../firmware/n32g430_std_periph_driver/src/n32g430_comp.c ****         default:
 515:../firmware/n32g430_std_periph_driver/src/n32g430_comp.c ****             break;
 516:../firmware/n32g430_std_periph_driver/src/n32g430_comp.c ****     }
 517:../firmware/n32g430_std_periph_driver/src/n32g430_comp.c **** }
 910              		.loc 1 517 1 is_stmt 0 view .LVU263
 911 001a 7047     		bx	lr
 912              	.LVL43:
 913              	.L58:
 914              		.loc 1 517 1 view .LVU264
 915              	.LBE33:
 916              	.LBE32:
 504:../firmware/n32g430_std_periph_driver/src/n32g430_comp.c ****             /* Set COMPx_CTRL INMSEL[2:0] bits */
 917              		.loc 1 504 13 is_stmt 1 view .LVU265
 504:../firmware/n32g430_std_periph_driver/src/n32g430_comp.c ****             /* Set COMPx_CTRL INMSEL[2:0] bits */
 918              		.loc 1 504 23 is_stmt 0 view .LVU266
 919 001c 084B     		ldr	r3, .L61
 920 001e 1A6A     		ldr	r2, [r3, #32]
 504:../firmware/n32g430_std_periph_driver/src/n32g430_comp.c ****             /* Set COMPx_CTRL INMSEL[2:0] bits */
 921              		.loc 1 504 29 view .LVU267
 922 0020 22F00E02 		bic	r2, r2, #14
 923 0024 1A62     		str	r2, [r3, #32]
 506:../firmware/n32g430_std_periph_driver/src/n32g430_comp.c ****             break;
 924              		.loc 1 506 13 is_stmt 1 view .LVU268
 506:../firmware/n32g430_std_periph_driver/src/n32g430_comp.c ****             break;
 925              		.loc 1 506 23 is_stmt 0 view .LVU269
 926 0026 1A6A     		ldr	r2, [r3, #32]
 506:../firmware/n32g430_std_periph_driver/src/n32g430_comp.c ****             break;
 927              		.loc 1 506 29 view .LVU270
 928 0028 0A43     		orrs	r2, r2, r1
 929 002a 1A62     		str	r2, [r3, #32]
 507:../firmware/n32g430_std_periph_driver/src/n32g430_comp.c ****         case COMP3:
 930              		.loc 1 507 13 is_stmt 1 view .LVU271
 931 002c 7047     		bx	lr
 932              	.L59:
 510:../firmware/n32g430_std_periph_driver/src/n32g430_comp.c ****             /* Set COMPx_CTRL INMSEL[2:0] bits */
 933              		.loc 1 510 13 view .LVU272
 510:../firmware/n32g430_std_periph_driver/src/n32g430_comp.c ****             /* Set COMPx_CTRL INMSEL[2:0] bits */
ARM GAS  C:\Users\Dawn\AppData\Local\Temp\ccGZo2O0.s 			page 28


 934              		.loc 1 510 23 is_stmt 0 view .LVU273
 935 002e 044B     		ldr	r3, .L61
 936 0030 1A6B     		ldr	r2, [r3, #48]
 510:../firmware/n32g430_std_periph_driver/src/n32g430_comp.c ****             /* Set COMPx_CTRL INMSEL[2:0] bits */
 937              		.loc 1 510 29 view .LVU274
 938 0032 22F00E02 		bic	r2, r2, #14
 939 0036 1A63     		str	r2, [r3, #48]
 512:../firmware/n32g430_std_periph_driver/src/n32g430_comp.c ****             break;
 940              		.loc 1 512 13 is_stmt 1 view .LVU275
 512:../firmware/n32g430_std_periph_driver/src/n32g430_comp.c ****             break;
 941              		.loc 1 512 23 is_stmt 0 view .LVU276
 942 0038 1A6B     		ldr	r2, [r3, #48]
 512:../firmware/n32g430_std_periph_driver/src/n32g430_comp.c ****             break;
 943              		.loc 1 512 29 view .LVU277
 944 003a 0A43     		orrs	r2, r2, r1
 945 003c 1A63     		str	r2, [r3, #48]
 513:../firmware/n32g430_std_periph_driver/src/n32g430_comp.c ****         default:
 946              		.loc 1 513 13 is_stmt 1 view .LVU278
 947              	.L57:
 948              		.loc 1 517 1 is_stmt 0 view .LVU279
 949 003e 7047     		bx	lr
 950              	.L62:
 951              		.align	2
 952              	.L61:
 953 0040 00240040 		.word	1073751040
 954              		.cfi_endproc
 955              	.LFE141:
 957              		.section	.text.COMP_Output_Trigger_Config,"ax",%progbits
 958              		.align	1
 959              		.global	COMP_Output_Trigger_Config
 960              		.syntax unified
 961              		.thumb
 962              		.thumb_func
 964              	COMP_Output_Trigger_Config:
 965              	.LVL44:
 966              	.LFB142:
 518:../firmware/n32g430_std_periph_driver/src/n32g430_comp.c **** 
 519:../firmware/n32g430_std_periph_driver/src/n32g430_comp.c **** /**
 520:../firmware/n32g430_std_periph_driver/src/n32g430_comp.c **** *\*\name    COMP_Output_Trigger_Config.
 521:../firmware/n32g430_std_periph_driver/src/n32g430_comp.c **** *\*\fun     Configures which Timer input must be connected with the comparator output.
 522:../firmware/n32g430_std_periph_driver/src/n32g430_comp.c **** *\*\param   COMPx :
 523:../firmware/n32g430_std_periph_driver/src/n32g430_comp.c **** *\*\          - COMP1
 524:../firmware/n32g430_std_periph_driver/src/n32g430_comp.c **** *\*\          - COMP2
 525:../firmware/n32g430_std_periph_driver/src/n32g430_comp.c **** *\*\          - COMP3
 526:../firmware/n32g430_std_periph_driver/src/n32g430_comp.c **** *\*\param   outtrgsel :
 527:../firmware/n32g430_std_periph_driver/src/n32g430_comp.c **** *\*\             comp1 out trig 
 528:../firmware/n32g430_std_periph_driver/src/n32g430_comp.c **** *\*\            - COMP1_OUTSEL_TIM1_BKIN             
 529:../firmware/n32g430_std_periph_driver/src/n32g430_comp.c **** *\*\            - COMP1_OUTSEL_TIM1_OCREFCLEAR       
 530:../firmware/n32g430_std_periph_driver/src/n32g430_comp.c **** *\*\            - COMP1_OUTSEL_TIM1_IC1              
 531:../firmware/n32g430_std_periph_driver/src/n32g430_comp.c **** *\*\            - COMP1_OUTSEL_TIM2_IC1              
 532:../firmware/n32g430_std_periph_driver/src/n32g430_comp.c **** *\*\            - COMP1_OUTSEL_TIM2_OCREFCLEAR       
 533:../firmware/n32g430_std_periph_driver/src/n32g430_comp.c **** *\*\            - COMP1_OUTSEL_TIM3_IC1              
 534:../firmware/n32g430_std_periph_driver/src/n32g430_comp.c **** *\*\            - COMP1_OUTSEL_TIM3_OCREFCLEAR       
 535:../firmware/n32g430_std_periph_driver/src/n32g430_comp.c **** *\*\            - COMP1_OUTSEL_TIM4_OCREFCLEAR       
 536:../firmware/n32g430_std_periph_driver/src/n32g430_comp.c **** *\*\            - COMP1_OUTSEL_TIM5_IC1              
 537:../firmware/n32g430_std_periph_driver/src/n32g430_comp.c **** *\*\            - COMP1_OUTSEL_TIM8_IC1              
 538:../firmware/n32g430_std_periph_driver/src/n32g430_comp.c **** *\*\            - COMP1_OUTSEL_TIM8_OCREFCLEAR       
ARM GAS  C:\Users\Dawn\AppData\Local\Temp\ccGZo2O0.s 			page 29


 539:../firmware/n32g430_std_periph_driver/src/n32g430_comp.c **** *\*\            - COMP1_OUTSEL_TIM8_BKIN             
 540:../firmware/n32g430_std_periph_driver/src/n32g430_comp.c **** *\*\            - COMP1_OUTSEL_TIM1_BKIN_TIM8_BKIN   
 541:../firmware/n32g430_std_periph_driver/src/n32g430_comp.c **** *\*\            - COMP1_OUTSEL_LPTIM_ETR                 
 542:../firmware/n32g430_std_periph_driver/src/n32g430_comp.c **** *\*\             comp2 out trig 
 543:../firmware/n32g430_std_periph_driver/src/n32g430_comp.c **** *\*\            - COMP2_OUTSEL_TIM1_BKIN             
 544:../firmware/n32g430_std_periph_driver/src/n32g430_comp.c **** *\*\            - COMP2_OUTSEL_TIM1_OCREFCLEAR       
 545:../firmware/n32g430_std_periph_driver/src/n32g430_comp.c **** *\*\            - COMP2_OUTSEL_TIM1_IC1              
 546:../firmware/n32g430_std_periph_driver/src/n32g430_comp.c **** *\*\            - COMP2_OUTSEL_TIM2_OCREFCLEAR       
 547:../firmware/n32g430_std_periph_driver/src/n32g430_comp.c **** *\*\            - COMP2_OUTSEL_TIM3_OCREFCLEAR       
 548:../firmware/n32g430_std_periph_driver/src/n32g430_comp.c **** *\*\            - COMP2_OUTSEL_TIM4_IC1              
 549:../firmware/n32g430_std_periph_driver/src/n32g430_comp.c **** *\*\            - COMP2_OUTSEL_TIM4_OCREFCLEAR       
 550:../firmware/n32g430_std_periph_driver/src/n32g430_comp.c **** *\*\            - COMP2_OUTSEL_TIM5_IC1              
 551:../firmware/n32g430_std_periph_driver/src/n32g430_comp.c **** *\*\            - COMP2_OUTSEL_TIM8_IC1              
 552:../firmware/n32g430_std_periph_driver/src/n32g430_comp.c **** *\*\            - COMP2_OUTSEL_TIM8_OCREFCLEAR       
 553:../firmware/n32g430_std_periph_driver/src/n32g430_comp.c **** *\*\            - COMP2_OUTSEL_TIM8_BKIN             
 554:../firmware/n32g430_std_periph_driver/src/n32g430_comp.c **** *\*\            - COMP2_OUTSEL_TIM1_BKIN_TIM8_BKIN   
 555:../firmware/n32g430_std_periph_driver/src/n32g430_comp.c **** *\*\            - COMP2_OUTSEL_LPTIM_ETR             
 556:../firmware/n32g430_std_periph_driver/src/n32g430_comp.c **** *\*\             comp3 out trig 
 557:../firmware/n32g430_std_periph_driver/src/n32g430_comp.c **** *\*\            - COMP3_OUTSEL_TIM1_BKIN             
 558:../firmware/n32g430_std_periph_driver/src/n32g430_comp.c **** *\*\            - COMP3_OUTSEL_TIM1_OCREFCLEAR       
 559:../firmware/n32g430_std_periph_driver/src/n32g430_comp.c **** *\*\            - COMP3_OUTSEL_TIM1_IC1              
 560:../firmware/n32g430_std_periph_driver/src/n32g430_comp.c **** *\*\            - COMP3_OUTSEL_TIM2_IC1              
 561:../firmware/n32g430_std_periph_driver/src/n32g430_comp.c **** *\*\            - COMP3_OUTSEL_TIM5_OCREFCLEAR       
 562:../firmware/n32g430_std_periph_driver/src/n32g430_comp.c **** *\*\            - COMP3_OUTSEL_TIM3_IC1              
 563:../firmware/n32g430_std_periph_driver/src/n32g430_comp.c **** *\*\            - COMP3_OUTSEL_TIM3_OCREFCLEAR       
 564:../firmware/n32g430_std_periph_driver/src/n32g430_comp.c **** *\*\            - COMP3_OUTSEL_TIM4_OCREFCLEAR       
 565:../firmware/n32g430_std_periph_driver/src/n32g430_comp.c **** *\*\            - COMP3_OUTSEL_TIM5_IC1              
 566:../firmware/n32g430_std_periph_driver/src/n32g430_comp.c **** *\*\            - COMP3_OUTSEL_TIM8_IC1              
 567:../firmware/n32g430_std_periph_driver/src/n32g430_comp.c **** *\*\            - COMP3_OUTSEL_TIM8_OCREFCLEAR       
 568:../firmware/n32g430_std_periph_driver/src/n32g430_comp.c **** *\*\            - COMP3_OUTSEL_TIM8_BKIN             
 569:../firmware/n32g430_std_periph_driver/src/n32g430_comp.c **** *\*\            - COMP3_OUTSEL_TIM1_BKIN_TIM8_BKIN   
 570:../firmware/n32g430_std_periph_driver/src/n32g430_comp.c **** *\*\            - COMP3_OUTSEL_LPTIM_ETR             
 571:../firmware/n32g430_std_periph_driver/src/n32g430_comp.c **** *\*\return  none
 572:../firmware/n32g430_std_periph_driver/src/n32g430_comp.c **** **/
 573:../firmware/n32g430_std_periph_driver/src/n32g430_comp.c **** void COMP_Output_Trigger_Config(COMPX COMPx, uint32_t outtrgsel)
 574:../firmware/n32g430_std_periph_driver/src/n32g430_comp.c **** {
 967              		.loc 1 574 1 is_stmt 1 view -0
 968              		.cfi_startproc
 969              		@ args = 0, pretend = 0, frame = 0
 970              		@ frame_needed = 0, uses_anonymous_args = 0
 971              		@ link register save eliminated.
 575:../firmware/n32g430_std_periph_driver/src/n32g430_comp.c ****     switch (COMPx)
 972              		.loc 1 575 5 view .LVU281
 973 0000 0128     		cmp	r0, #1
 974 0002 0BD0     		beq	.L64
 975 0004 0228     		cmp	r0, #2
 976 0006 12D0     		beq	.L65
 977 0008 C8B9     		cbnz	r0, .L63
 978              	.LVL45:
 979              	.LBB36:
 980              	.LBI36:
 573:../firmware/n32g430_std_periph_driver/src/n32g430_comp.c **** {
 981              		.loc 1 573 6 view .LVU282
 982              	.LBB37:
 576:../firmware/n32g430_std_periph_driver/src/n32g430_comp.c ****     {
 577:../firmware/n32g430_std_periph_driver/src/n32g430_comp.c ****         case COMP1:
 578:../firmware/n32g430_std_periph_driver/src/n32g430_comp.c ****             /* Clear COMPx_CTRL OUTTRG[4:0] bits */
ARM GAS  C:\Users\Dawn\AppData\Local\Temp\ccGZo2O0.s 			page 30


 579:../firmware/n32g430_std_periph_driver/src/n32g430_comp.c ****             COMP->Cmp1.CTRL &= COMP_OUTSEL_MASK;
 983              		.loc 1 579 13 view .LVU283
 984              		.loc 1 579 23 is_stmt 0 view .LVU284
 985 000a 0D4B     		ldr	r3, .L67
 986 000c 1A69     		ldr	r2, [r3, #16]
 987              		.loc 1 579 29 view .LVU285
 988 000e 22F4F052 		bic	r2, r2, #7680
 989 0012 1A61     		str	r2, [r3, #16]
 580:../firmware/n32g430_std_periph_driver/src/n32g430_comp.c ****             /* Set COMPx_CTRL OUTTRG[4:0] bits */ 
 581:../firmware/n32g430_std_periph_driver/src/n32g430_comp.c ****             COMP->Cmp1.CTRL |= outtrgsel;
 990              		.loc 1 581 13 is_stmt 1 view .LVU286
 991              		.loc 1 581 23 is_stmt 0 view .LVU287
 992 0014 1A69     		ldr	r2, [r3, #16]
 993              		.loc 1 581 29 view .LVU288
 994 0016 1143     		orrs	r1, r1, r2
 995              	.LVL46:
 996              		.loc 1 581 29 view .LVU289
 997 0018 1961     		str	r1, [r3, #16]
 582:../firmware/n32g430_std_periph_driver/src/n32g430_comp.c ****             break;
 998              		.loc 1 582 13 is_stmt 1 view .LVU290
 999              	.LVL47:
 583:../firmware/n32g430_std_periph_driver/src/n32g430_comp.c ****         case COMP2:
 584:../firmware/n32g430_std_periph_driver/src/n32g430_comp.c ****             /* Clear COMPx_CTRL INMSEL[2:0] bits */
 585:../firmware/n32g430_std_periph_driver/src/n32g430_comp.c ****             /* Clear COMPx_CTRL OUTTRG[4:0] bits */
 586:../firmware/n32g430_std_periph_driver/src/n32g430_comp.c ****             COMP->Cmp2.CTRL &= COMP_OUTSEL_MASK;
 587:../firmware/n32g430_std_periph_driver/src/n32g430_comp.c ****             /* Set COMPx_CTRL OUTTRG[4:0] bits */ 
 588:../firmware/n32g430_std_periph_driver/src/n32g430_comp.c ****             COMP->Cmp2.CTRL |= outtrgsel;
 589:../firmware/n32g430_std_periph_driver/src/n32g430_comp.c ****             break;
 590:../firmware/n32g430_std_periph_driver/src/n32g430_comp.c ****         case COMP3:
 591:../firmware/n32g430_std_periph_driver/src/n32g430_comp.c ****             /* Clear COMPx_CTRL OUTTRG[4:0] bits */
 592:../firmware/n32g430_std_periph_driver/src/n32g430_comp.c ****             COMP->Cmp3.CTRL &= COMP_OUTSEL_MASK;
 593:../firmware/n32g430_std_periph_driver/src/n32g430_comp.c ****             /* Set COMPx_CTRL OUTTRG[4:0] bits */ 
 594:../firmware/n32g430_std_periph_driver/src/n32g430_comp.c ****             COMP->Cmp3.CTRL |= outtrgsel;
 595:../firmware/n32g430_std_periph_driver/src/n32g430_comp.c ****             break;
 596:../firmware/n32g430_std_periph_driver/src/n32g430_comp.c ****         default:
 597:../firmware/n32g430_std_periph_driver/src/n32g430_comp.c ****             break;
 598:../firmware/n32g430_std_periph_driver/src/n32g430_comp.c ****     }
 599:../firmware/n32g430_std_periph_driver/src/n32g430_comp.c **** }
 1000              		.loc 1 599 1 is_stmt 0 view .LVU291
 1001 001a 7047     		bx	lr
 1002              	.LVL48:
 1003              	.L64:
 1004              		.loc 1 599 1 view .LVU292
 1005              	.LBE37:
 1006              	.LBE36:
 586:../firmware/n32g430_std_periph_driver/src/n32g430_comp.c ****             /* Set COMPx_CTRL OUTTRG[4:0] bits */ 
 1007              		.loc 1 586 13 is_stmt 1 view .LVU293
 586:../firmware/n32g430_std_periph_driver/src/n32g430_comp.c ****             /* Set COMPx_CTRL OUTTRG[4:0] bits */ 
 1008              		.loc 1 586 23 is_stmt 0 view .LVU294
 1009 001c 084B     		ldr	r3, .L67
 1010 001e 1A6A     		ldr	r2, [r3, #32]
 586:../firmware/n32g430_std_periph_driver/src/n32g430_comp.c ****             /* Set COMPx_CTRL OUTTRG[4:0] bits */ 
 1011              		.loc 1 586 29 view .LVU295
 1012 0020 22F4F052 		bic	r2, r2, #7680
 1013 0024 1A62     		str	r2, [r3, #32]
 588:../firmware/n32g430_std_periph_driver/src/n32g430_comp.c ****             break;
 1014              		.loc 1 588 13 is_stmt 1 view .LVU296
ARM GAS  C:\Users\Dawn\AppData\Local\Temp\ccGZo2O0.s 			page 31


 588:../firmware/n32g430_std_periph_driver/src/n32g430_comp.c ****             break;
 1015              		.loc 1 588 23 is_stmt 0 view .LVU297
 1016 0026 1A6A     		ldr	r2, [r3, #32]
 588:../firmware/n32g430_std_periph_driver/src/n32g430_comp.c ****             break;
 1017              		.loc 1 588 29 view .LVU298
 1018 0028 0A43     		orrs	r2, r2, r1
 1019 002a 1A62     		str	r2, [r3, #32]
 589:../firmware/n32g430_std_periph_driver/src/n32g430_comp.c ****         case COMP3:
 1020              		.loc 1 589 13 is_stmt 1 view .LVU299
 1021 002c 7047     		bx	lr
 1022              	.L65:
 592:../firmware/n32g430_std_periph_driver/src/n32g430_comp.c ****             /* Set COMPx_CTRL OUTTRG[4:0] bits */ 
 1023              		.loc 1 592 13 view .LVU300
 592:../firmware/n32g430_std_periph_driver/src/n32g430_comp.c ****             /* Set COMPx_CTRL OUTTRG[4:0] bits */ 
 1024              		.loc 1 592 23 is_stmt 0 view .LVU301
 1025 002e 044B     		ldr	r3, .L67
 1026 0030 1A6B     		ldr	r2, [r3, #48]
 592:../firmware/n32g430_std_periph_driver/src/n32g430_comp.c ****             /* Set COMPx_CTRL OUTTRG[4:0] bits */ 
 1027              		.loc 1 592 29 view .LVU302
 1028 0032 22F4F052 		bic	r2, r2, #7680
 1029 0036 1A63     		str	r2, [r3, #48]
 594:../firmware/n32g430_std_periph_driver/src/n32g430_comp.c ****             break;
 1030              		.loc 1 594 13 is_stmt 1 view .LVU303
 594:../firmware/n32g430_std_periph_driver/src/n32g430_comp.c ****             break;
 1031              		.loc 1 594 23 is_stmt 0 view .LVU304
 1032 0038 1A6B     		ldr	r2, [r3, #48]
 594:../firmware/n32g430_std_periph_driver/src/n32g430_comp.c ****             break;
 1033              		.loc 1 594 29 view .LVU305
 1034 003a 0A43     		orrs	r2, r2, r1
 1035 003c 1A63     		str	r2, [r3, #48]
 595:../firmware/n32g430_std_periph_driver/src/n32g430_comp.c ****         default:
 1036              		.loc 1 595 13 is_stmt 1 view .LVU306
 1037              	.L63:
 1038              		.loc 1 599 1 is_stmt 0 view .LVU307
 1039 003e 7047     		bx	lr
 1040              	.L68:
 1041              		.align	2
 1042              	.L67:
 1043 0040 00240040 		.word	1073751040
 1044              		.cfi_endproc
 1045              	.LFE142:
 1047              		.section	.text.COMP_ON,"ax",%progbits
 1048              		.align	1
 1049              		.global	COMP_ON
 1050              		.syntax unified
 1051              		.thumb
 1052              		.thumb_func
 1054              	COMP_ON:
 1055              	.LVL49:
 1056              	.LFB143:
 600:../firmware/n32g430_std_periph_driver/src/n32g430_comp.c **** 
 601:../firmware/n32g430_std_periph_driver/src/n32g430_comp.c **** /**
 602:../firmware/n32g430_std_periph_driver/src/n32g430_comp.c **** *\*\name    COMP_ON.
 603:../firmware/n32g430_std_periph_driver/src/n32g430_comp.c **** *\*\fun     Enable COMP.
 604:../firmware/n32g430_std_periph_driver/src/n32g430_comp.c **** *\*\param   COMPx :
 605:../firmware/n32g430_std_periph_driver/src/n32g430_comp.c **** *\*\          - COMP1
 606:../firmware/n32g430_std_periph_driver/src/n32g430_comp.c **** *\*\          - COMP2
ARM GAS  C:\Users\Dawn\AppData\Local\Temp\ccGZo2O0.s 			page 32


 607:../firmware/n32g430_std_periph_driver/src/n32g430_comp.c **** *\*\          - COMP3
 608:../firmware/n32g430_std_periph_driver/src/n32g430_comp.c **** *\*\return  none
 609:../firmware/n32g430_std_periph_driver/src/n32g430_comp.c **** **/
 610:../firmware/n32g430_std_periph_driver/src/n32g430_comp.c **** void COMP_ON(COMPX COMPx)
 611:../firmware/n32g430_std_periph_driver/src/n32g430_comp.c **** {
 1057              		.loc 1 611 1 is_stmt 1 view -0
 1058              		.cfi_startproc
 1059              		@ args = 0, pretend = 0, frame = 0
 1060              		@ frame_needed = 0, uses_anonymous_args = 0
 1061              		@ link register save eliminated.
 612:../firmware/n32g430_std_periph_driver/src/n32g430_comp.c ****     switch (COMPx)
 1062              		.loc 1 612 5 view .LVU309
 1063 0000 0128     		cmp	r0, #1
 1064 0002 08D0     		beq	.L70
 1065 0004 0228     		cmp	r0, #2
 1066 0006 0CD0     		beq	.L71
 1067 0008 80B9     		cbnz	r0, .L69
 1068              	.LBB40:
 1069              	.LBI40:
 610:../firmware/n32g430_std_periph_driver/src/n32g430_comp.c **** {
 1070              		.loc 1 610 6 view .LVU310
 1071              	.LVL50:
 1072              	.LBB41:
 613:../firmware/n32g430_std_periph_driver/src/n32g430_comp.c ****     {
 614:../firmware/n32g430_std_periph_driver/src/n32g430_comp.c ****         case COMP1:
 615:../firmware/n32g430_std_periph_driver/src/n32g430_comp.c ****             /* Set the COMPx_CTRL EN bit to wake up the COMPx from power down mode */
 616:../firmware/n32g430_std_periph_driver/src/n32g430_comp.c ****             COMP->Cmp1.CTRL |= COMP_ENABLE;
 1073              		.loc 1 616 13 view .LVU311
 1074              		.loc 1 616 23 is_stmt 0 view .LVU312
 1075 000a 094A     		ldr	r2, .L73
 1076 000c 1369     		ldr	r3, [r2, #16]
 1077              		.loc 1 616 29 view .LVU313
 1078 000e 43F00103 		orr	r3, r3, #1
 1079 0012 1361     		str	r3, [r2, #16]
 617:../firmware/n32g430_std_periph_driver/src/n32g430_comp.c ****             break;
 1080              		.loc 1 617 13 is_stmt 1 view .LVU314
 1081              	.LVL51:
 618:../firmware/n32g430_std_periph_driver/src/n32g430_comp.c ****         case COMP2:
 619:../firmware/n32g430_std_periph_driver/src/n32g430_comp.c ****             /* Set the COMPx_CTRL EN bit to wake up the COMPx from power down mode */
 620:../firmware/n32g430_std_periph_driver/src/n32g430_comp.c ****             COMP->Cmp2.CTRL |= COMP_ENABLE;
 621:../firmware/n32g430_std_periph_driver/src/n32g430_comp.c ****             break;
 622:../firmware/n32g430_std_periph_driver/src/n32g430_comp.c ****         case COMP3:
 623:../firmware/n32g430_std_periph_driver/src/n32g430_comp.c ****             /* Set the COMPx_CTRL EN bit to wake up the COMPx from power down mode */
 624:../firmware/n32g430_std_periph_driver/src/n32g430_comp.c ****             COMP->Cmp3.CTRL |= COMP_ENABLE;
 625:../firmware/n32g430_std_periph_driver/src/n32g430_comp.c ****             break;
 626:../firmware/n32g430_std_periph_driver/src/n32g430_comp.c ****         default:
 627:../firmware/n32g430_std_periph_driver/src/n32g430_comp.c ****             break;
 628:../firmware/n32g430_std_periph_driver/src/n32g430_comp.c ****     }
 629:../firmware/n32g430_std_periph_driver/src/n32g430_comp.c **** }
 1082              		.loc 1 629 1 is_stmt 0 view .LVU315
 1083 0014 7047     		bx	lr
 1084              	.L70:
 1085              	.LBE41:
 1086              	.LBE40:
 620:../firmware/n32g430_std_periph_driver/src/n32g430_comp.c ****             break;
 1087              		.loc 1 620 13 is_stmt 1 view .LVU316
 620:../firmware/n32g430_std_periph_driver/src/n32g430_comp.c ****             break;
ARM GAS  C:\Users\Dawn\AppData\Local\Temp\ccGZo2O0.s 			page 33


 1088              		.loc 1 620 23 is_stmt 0 view .LVU317
 1089 0016 064A     		ldr	r2, .L73
 1090 0018 136A     		ldr	r3, [r2, #32]
 620:../firmware/n32g430_std_periph_driver/src/n32g430_comp.c ****             break;
 1091              		.loc 1 620 29 view .LVU318
 1092 001a 43F00103 		orr	r3, r3, #1
 1093 001e 1362     		str	r3, [r2, #32]
 621:../firmware/n32g430_std_periph_driver/src/n32g430_comp.c ****         case COMP3:
 1094              		.loc 1 621 13 is_stmt 1 view .LVU319
 1095 0020 7047     		bx	lr
 1096              	.L71:
 624:../firmware/n32g430_std_periph_driver/src/n32g430_comp.c ****             break;
 1097              		.loc 1 624 13 view .LVU320
 624:../firmware/n32g430_std_periph_driver/src/n32g430_comp.c ****             break;
 1098              		.loc 1 624 23 is_stmt 0 view .LVU321
 1099 0022 034A     		ldr	r2, .L73
 1100 0024 136B     		ldr	r3, [r2, #48]
 624:../firmware/n32g430_std_periph_driver/src/n32g430_comp.c ****             break;
 1101              		.loc 1 624 29 view .LVU322
 1102 0026 43F00103 		orr	r3, r3, #1
 1103 002a 1363     		str	r3, [r2, #48]
 625:../firmware/n32g430_std_periph_driver/src/n32g430_comp.c ****         default:
 1104              		.loc 1 625 13 is_stmt 1 view .LVU323
 1105              	.L69:
 1106              		.loc 1 629 1 is_stmt 0 view .LVU324
 1107 002c 7047     		bx	lr
 1108              	.L74:
 1109 002e 00BF     		.align	2
 1110              	.L73:
 1111 0030 00240040 		.word	1073751040
 1112              		.cfi_endproc
 1113              	.LFE143:
 1115              		.section	.text.COMP_OFF,"ax",%progbits
 1116              		.align	1
 1117              		.global	COMP_OFF
 1118              		.syntax unified
 1119              		.thumb
 1120              		.thumb_func
 1122              	COMP_OFF:
 1123              	.LVL52:
 1124              	.LFB144:
 630:../firmware/n32g430_std_periph_driver/src/n32g430_comp.c **** 
 631:../firmware/n32g430_std_periph_driver/src/n32g430_comp.c **** /**
 632:../firmware/n32g430_std_periph_driver/src/n32g430_comp.c **** *\*\name    COMP_OFF.
 633:../firmware/n32g430_std_periph_driver/src/n32g430_comp.c **** *\*\fun     Disable COMP.
 634:../firmware/n32g430_std_periph_driver/src/n32g430_comp.c **** *\*\param   COMPx :
 635:../firmware/n32g430_std_periph_driver/src/n32g430_comp.c **** *\*\          - COMP1
 636:../firmware/n32g430_std_periph_driver/src/n32g430_comp.c **** *\*\          - COMP2
 637:../firmware/n32g430_std_periph_driver/src/n32g430_comp.c **** *\*\          - COMP3
 638:../firmware/n32g430_std_periph_driver/src/n32g430_comp.c **** *\*\return  none
 639:../firmware/n32g430_std_periph_driver/src/n32g430_comp.c **** **/
 640:../firmware/n32g430_std_periph_driver/src/n32g430_comp.c **** void COMP_OFF(COMPX COMPx)
 641:../firmware/n32g430_std_periph_driver/src/n32g430_comp.c **** {
 1125              		.loc 1 641 1 is_stmt 1 view -0
 1126              		.cfi_startproc
 1127              		@ args = 0, pretend = 0, frame = 0
 1128              		@ frame_needed = 0, uses_anonymous_args = 0
ARM GAS  C:\Users\Dawn\AppData\Local\Temp\ccGZo2O0.s 			page 34


 1129              		@ link register save eliminated.
 642:../firmware/n32g430_std_periph_driver/src/n32g430_comp.c ****     switch (COMPx)
 1130              		.loc 1 642 5 view .LVU326
 1131 0000 0128     		cmp	r0, #1
 1132 0002 08D0     		beq	.L76
 1133 0004 0228     		cmp	r0, #2
 1134 0006 0CD0     		beq	.L77
 1135 0008 80B9     		cbnz	r0, .L75
 1136              	.LBB44:
 1137              	.LBI44:
 640:../firmware/n32g430_std_periph_driver/src/n32g430_comp.c **** {
 1138              		.loc 1 640 6 view .LVU327
 1139              	.LVL53:
 1140              	.LBB45:
 643:../firmware/n32g430_std_periph_driver/src/n32g430_comp.c ****     {
 644:../firmware/n32g430_std_periph_driver/src/n32g430_comp.c ****         case COMP1:
 645:../firmware/n32g430_std_periph_driver/src/n32g430_comp.c ****             /* Clear the COMPx_CTRL EN bit, The COMPx go to power down mode */
 646:../firmware/n32g430_std_periph_driver/src/n32g430_comp.c ****             COMP->Cmp1.CTRL &= COMP_DISABLE;
 1141              		.loc 1 646 13 view .LVU328
 1142              		.loc 1 646 23 is_stmt 0 view .LVU329
 1143 000a 094A     		ldr	r2, .L79
 1144 000c 1369     		ldr	r3, [r2, #16]
 1145              		.loc 1 646 29 view .LVU330
 1146 000e 23F00103 		bic	r3, r3, #1
 1147 0012 1361     		str	r3, [r2, #16]
 647:../firmware/n32g430_std_periph_driver/src/n32g430_comp.c ****             break;
 1148              		.loc 1 647 13 is_stmt 1 view .LVU331
 1149              	.LVL54:
 648:../firmware/n32g430_std_periph_driver/src/n32g430_comp.c ****         case COMP2:
 649:../firmware/n32g430_std_periph_driver/src/n32g430_comp.c ****             /* Clear the COMPx_CTRL EN bit, The COMPx go to power down mode */
 650:../firmware/n32g430_std_periph_driver/src/n32g430_comp.c ****             COMP->Cmp2.CTRL &= COMP_DISABLE;
 651:../firmware/n32g430_std_periph_driver/src/n32g430_comp.c ****             break;
 652:../firmware/n32g430_std_periph_driver/src/n32g430_comp.c ****         case COMP3:
 653:../firmware/n32g430_std_periph_driver/src/n32g430_comp.c ****             /* Clear the COMPx_CTRL EN bit, The COMPx go to power down mode */
 654:../firmware/n32g430_std_periph_driver/src/n32g430_comp.c ****             COMP->Cmp3.CTRL &= COMP_DISABLE;
 655:../firmware/n32g430_std_periph_driver/src/n32g430_comp.c ****             break;
 656:../firmware/n32g430_std_periph_driver/src/n32g430_comp.c ****         default:
 657:../firmware/n32g430_std_periph_driver/src/n32g430_comp.c ****             break;
 658:../firmware/n32g430_std_periph_driver/src/n32g430_comp.c ****     }
 659:../firmware/n32g430_std_periph_driver/src/n32g430_comp.c **** }
 1150              		.loc 1 659 1 is_stmt 0 view .LVU332
 1151 0014 7047     		bx	lr
 1152              	.L76:
 1153              	.LBE45:
 1154              	.LBE44:
 650:../firmware/n32g430_std_periph_driver/src/n32g430_comp.c ****             break;
 1155              		.loc 1 650 13 is_stmt 1 view .LVU333
 650:../firmware/n32g430_std_periph_driver/src/n32g430_comp.c ****             break;
 1156              		.loc 1 650 23 is_stmt 0 view .LVU334
 1157 0016 064A     		ldr	r2, .L79
 1158 0018 136A     		ldr	r3, [r2, #32]
 650:../firmware/n32g430_std_periph_driver/src/n32g430_comp.c ****             break;
 1159              		.loc 1 650 29 view .LVU335
 1160 001a 23F00103 		bic	r3, r3, #1
 1161 001e 1362     		str	r3, [r2, #32]
 651:../firmware/n32g430_std_periph_driver/src/n32g430_comp.c ****         case COMP3:
 1162              		.loc 1 651 13 is_stmt 1 view .LVU336
ARM GAS  C:\Users\Dawn\AppData\Local\Temp\ccGZo2O0.s 			page 35


 1163 0020 7047     		bx	lr
 1164              	.L77:
 654:../firmware/n32g430_std_periph_driver/src/n32g430_comp.c ****             break;
 1165              		.loc 1 654 13 view .LVU337
 654:../firmware/n32g430_std_periph_driver/src/n32g430_comp.c ****             break;
 1166              		.loc 1 654 23 is_stmt 0 view .LVU338
 1167 0022 034A     		ldr	r2, .L79
 1168 0024 136B     		ldr	r3, [r2, #48]
 654:../firmware/n32g430_std_periph_driver/src/n32g430_comp.c ****             break;
 1169              		.loc 1 654 29 view .LVU339
 1170 0026 23F00103 		bic	r3, r3, #1
 1171 002a 1363     		str	r3, [r2, #48]
 655:../firmware/n32g430_std_periph_driver/src/n32g430_comp.c ****         default:
 1172              		.loc 1 655 13 is_stmt 1 view .LVU340
 1173              	.L75:
 1174              		.loc 1 659 1 is_stmt 0 view .LVU341
 1175 002c 7047     		bx	lr
 1176              	.L80:
 1177 002e 00BF     		.align	2
 1178              	.L79:
 1179 0030 00240040 		.word	1073751040
 1180              		.cfi_endproc
 1181              	.LFE144:
 1183              		.section	.text.COMP_Lock_Config,"ax",%progbits
 1184              		.align	1
 1185              		.global	COMP_Lock_Config
 1186              		.syntax unified
 1187              		.thumb
 1188              		.thumb_func
 1190              	COMP_Lock_Config:
 1191              	.LVL55:
 1192              	.LFB145:
 660:../firmware/n32g430_std_periph_driver/src/n32g430_comp.c **** 
 661:../firmware/n32g430_std_periph_driver/src/n32g430_comp.c **** /**
 662:../firmware/n32g430_std_periph_driver/src/n32g430_comp.c **** *\*\name    COMP_Lock_Config.
 663:../firmware/n32g430_std_periph_driver/src/n32g430_comp.c **** *\*\fun     Configures which COMPx will be Locked.
 664:../firmware/n32g430_std_periph_driver/src/n32g430_comp.c **** *\*\param   Lock :
 665:../firmware/n32g430_std_periph_driver/src/n32g430_comp.c **** *\*\          - COMP1_LOCK_MSK
 666:../firmware/n32g430_std_periph_driver/src/n32g430_comp.c **** *\*\          - COMP2_LOCK_MSK
 667:../firmware/n32g430_std_periph_driver/src/n32g430_comp.c **** *\*\          - COMP3_LOCK_MSK
 668:../firmware/n32g430_std_periph_driver/src/n32g430_comp.c **** *\*\return  none
 669:../firmware/n32g430_std_periph_driver/src/n32g430_comp.c **** **/
 670:../firmware/n32g430_std_periph_driver/src/n32g430_comp.c **** void COMP_Lock_Config(uint32_t lock)
 671:../firmware/n32g430_std_periph_driver/src/n32g430_comp.c **** {
 1193              		.loc 1 671 1 is_stmt 1 view -0
 1194              		.cfi_startproc
 1195              		@ args = 0, pretend = 0, frame = 0
 1196              		@ frame_needed = 0, uses_anonymous_args = 0
 1197              		@ link register save eliminated.
 672:../firmware/n32g430_std_periph_driver/src/n32g430_comp.c ****     COMP->LOCK |= lock;
 1198              		.loc 1 672 5 view .LVU343
 1199              		.loc 1 672 9 is_stmt 0 view .LVU344
 1200 0000 024A     		ldr	r2, .L82
 1201 0002 D368     		ldr	r3, [r2, #12]
 1202              		.loc 1 672 16 view .LVU345
 1203 0004 0343     		orrs	r3, r3, r0
 1204 0006 D360     		str	r3, [r2, #12]
ARM GAS  C:\Users\Dawn\AppData\Local\Temp\ccGZo2O0.s 			page 36


 673:../firmware/n32g430_std_periph_driver/src/n32g430_comp.c **** }
 1205              		.loc 1 673 1 view .LVU346
 1206 0008 7047     		bx	lr
 1207              	.L83:
 1208 000a 00BF     		.align	2
 1209              	.L82:
 1210 000c 00240040 		.word	1073751040
 1211              		.cfi_endproc
 1212              	.LFE145:
 1214              		.section	.text.COMP_LowPower_Clock_Select,"ax",%progbits
 1215              		.align	1
 1216              		.global	COMP_LowPower_Clock_Select
 1217              		.syntax unified
 1218              		.thumb
 1219              		.thumb_func
 1221              	COMP_LowPower_Clock_Select:
 1222              	.LVL56:
 1223              	.LFB146:
 674:../firmware/n32g430_std_periph_driver/src/n32g430_comp.c **** 
 675:../firmware/n32g430_std_periph_driver/src/n32g430_comp.c **** /**
 676:../firmware/n32g430_std_periph_driver/src/n32g430_comp.c **** *\*\name    COMP_LowPower_Clock_Select.
 677:../firmware/n32g430_std_periph_driver/src/n32g430_comp.c **** *\*\fun     Configures comp.
 678:../firmware/n32g430_std_periph_driver/src/n32g430_comp.c **** *\*\param   lpcksel :
 679:../firmware/n32g430_std_periph_driver/src/n32g430_comp.c **** *\*\          - COMP_NORMAL_MODE
 680:../firmware/n32g430_std_periph_driver/src/n32g430_comp.c **** *\*\          - COMP_LOWPOWER_MODE
 681:../firmware/n32g430_std_periph_driver/src/n32g430_comp.c **** *\*\return  none
 682:../firmware/n32g430_std_periph_driver/src/n32g430_comp.c **** **/
 683:../firmware/n32g430_std_periph_driver/src/n32g430_comp.c **** void COMP_LowPower_Clock_Select(uint32_t lpcksel)
 684:../firmware/n32g430_std_periph_driver/src/n32g430_comp.c **** {
 1224              		.loc 1 684 1 is_stmt 1 view -0
 1225              		.cfi_startproc
 1226              		@ args = 0, pretend = 0, frame = 0
 1227              		@ frame_needed = 0, uses_anonymous_args = 0
 1228              		@ link register save eliminated.
 685:../firmware/n32g430_std_periph_driver/src/n32g430_comp.c ****     COMP->LPCKSEL &= COMP_LPCKSEL_MSK;	
 1229              		.loc 1 685 5 view .LVU348
 1230              		.loc 1 685 9 is_stmt 0 view .LVU349
 1231 0000 054B     		ldr	r3, .L85
 1232 0002 5A68     		ldr	r2, [r3, #4]
 1233              		.loc 1 685 19 view .LVU350
 1234 0004 22F00102 		bic	r2, r2, #1
 1235 0008 1204     		lsls	r2, r2, #16
 1236 000a 120C     		lsrs	r2, r2, #16
 1237 000c 5A60     		str	r2, [r3, #4]
 686:../firmware/n32g430_std_periph_driver/src/n32g430_comp.c ****     COMP->LPCKSEL |= lpcksel;
 1238              		.loc 1 686 5 is_stmt 1 view .LVU351
 1239              		.loc 1 686 9 is_stmt 0 view .LVU352
 1240 000e 5A68     		ldr	r2, [r3, #4]
 1241              		.loc 1 686 19 view .LVU353
 1242 0010 0243     		orrs	r2, r2, r0
 1243 0012 5A60     		str	r2, [r3, #4]
 687:../firmware/n32g430_std_periph_driver/src/n32g430_comp.c **** }
 1244              		.loc 1 687 1 view .LVU354
 1245 0014 7047     		bx	lr
 1246              	.L86:
 1247 0016 00BF     		.align	2
 1248              	.L85:
ARM GAS  C:\Users\Dawn\AppData\Local\Temp\ccGZo2O0.s 			page 37


 1249 0018 00240040 		.word	1073751040
 1250              		.cfi_endproc
 1251              	.LFE146:
 1253              		.section	.text.COMP_Interrupt_Enable,"ax",%progbits
 1254              		.align	1
 1255              		.global	COMP_Interrupt_Enable
 1256              		.syntax unified
 1257              		.thumb
 1258              		.thumb_func
 1260              	COMP_Interrupt_Enable:
 1261              	.LVL57:
 1262              	.LFB147:
 688:../firmware/n32g430_std_periph_driver/src/n32g430_comp.c **** 
 689:../firmware/n32g430_std_periph_driver/src/n32g430_comp.c **** /**
 690:../firmware/n32g430_std_periph_driver/src/n32g430_comp.c **** *\*\name    COMP_Interrupt_Enable.
 691:../firmware/n32g430_std_periph_driver/src/n32g430_comp.c **** *\*\fun     Configures COMPx interrupt enable.
 692:../firmware/n32g430_std_periph_driver/src/n32g430_comp.c **** *\*\param   IntEn :
 693:../firmware/n32g430_std_periph_driver/src/n32g430_comp.c **** *\*\          - COMP1_INTEN
 694:../firmware/n32g430_std_periph_driver/src/n32g430_comp.c **** *\*\          - COMP2_INTEN
 695:../firmware/n32g430_std_periph_driver/src/n32g430_comp.c **** *\*\          - COMP3_INTEN
 696:../firmware/n32g430_std_periph_driver/src/n32g430_comp.c **** *\*\return  none
 697:../firmware/n32g430_std_periph_driver/src/n32g430_comp.c **** **/
 698:../firmware/n32g430_std_periph_driver/src/n32g430_comp.c **** void COMP_Interrupt_Enable(uint32_t inten)
 699:../firmware/n32g430_std_periph_driver/src/n32g430_comp.c **** {
 1263              		.loc 1 699 1 is_stmt 1 view -0
 1264              		.cfi_startproc
 1265              		@ args = 0, pretend = 0, frame = 0
 1266              		@ frame_needed = 0, uses_anonymous_args = 0
 1267              		@ link register save eliminated.
 700:../firmware/n32g430_std_periph_driver/src/n32g430_comp.c ****     COMP->INTEN |= inten;
 1268              		.loc 1 700 5 view .LVU356
 1269              		.loc 1 700 9 is_stmt 0 view .LVU357
 1270 0000 024A     		ldr	r2, .L88
 1271 0002 1368     		ldr	r3, [r2]
 1272              		.loc 1 700 17 view .LVU358
 1273 0004 0343     		orrs	r3, r3, r0
 1274 0006 1360     		str	r3, [r2]
 701:../firmware/n32g430_std_periph_driver/src/n32g430_comp.c **** }
 1275              		.loc 1 701 1 view .LVU359
 1276 0008 7047     		bx	lr
 1277              	.L89:
 1278 000a 00BF     		.align	2
 1279              	.L88:
 1280 000c 00240040 		.word	1073751040
 1281              		.cfi_endproc
 1282              	.LFE147:
 1284              		.section	.text.COMP_Interrupt_Disable,"ax",%progbits
 1285              		.align	1
 1286              		.global	COMP_Interrupt_Disable
 1287              		.syntax unified
 1288              		.thumb
 1289              		.thumb_func
 1291              	COMP_Interrupt_Disable:
 1292              	.LVL58:
 1293              	.LFB148:
 702:../firmware/n32g430_std_periph_driver/src/n32g430_comp.c **** 
 703:../firmware/n32g430_std_periph_driver/src/n32g430_comp.c **** /**
ARM GAS  C:\Users\Dawn\AppData\Local\Temp\ccGZo2O0.s 			page 38


 704:../firmware/n32g430_std_periph_driver/src/n32g430_comp.c **** *\*\name    COMP_Interrupt_Disable.
 705:../firmware/n32g430_std_periph_driver/src/n32g430_comp.c **** *\*\fun     Configures COMPx interrupt disable.
 706:../firmware/n32g430_std_periph_driver/src/n32g430_comp.c **** *\*\param   IntEn :
 707:../firmware/n32g430_std_periph_driver/src/n32g430_comp.c **** *\*\          - COMP1_INTEN
 708:../firmware/n32g430_std_periph_driver/src/n32g430_comp.c **** *\*\          - COMP2_INTEN
 709:../firmware/n32g430_std_periph_driver/src/n32g430_comp.c **** *\*\          - COMP3_INTEN
 710:../firmware/n32g430_std_periph_driver/src/n32g430_comp.c **** *\*\return  none
 711:../firmware/n32g430_std_periph_driver/src/n32g430_comp.c **** **/
 712:../firmware/n32g430_std_periph_driver/src/n32g430_comp.c **** void COMP_Interrupt_Disable(uint32_t inten)
 713:../firmware/n32g430_std_periph_driver/src/n32g430_comp.c **** {
 1294              		.loc 1 713 1 is_stmt 1 view -0
 1295              		.cfi_startproc
 1296              		@ args = 0, pretend = 0, frame = 0
 1297              		@ frame_needed = 0, uses_anonymous_args = 0
 1298              		@ link register save eliminated.
 714:../firmware/n32g430_std_periph_driver/src/n32g430_comp.c ****     COMP->INTEN &= ~inten;
 1299              		.loc 1 714 5 view .LVU361
 1300              		.loc 1 714 9 is_stmt 0 view .LVU362
 1301 0000 024A     		ldr	r2, .L91
 1302 0002 1368     		ldr	r3, [r2]
 1303              		.loc 1 714 17 view .LVU363
 1304 0004 23EA0003 		bic	r3, r3, r0
 1305 0008 1360     		str	r3, [r2]
 715:../firmware/n32g430_std_periph_driver/src/n32g430_comp.c **** }
 1306              		.loc 1 715 1 view .LVU364
 1307 000a 7047     		bx	lr
 1308              	.L92:
 1309              		.align	2
 1310              	.L91:
 1311 000c 00240040 		.word	1073751040
 1312              		.cfi_endproc
 1313              	.LFE148:
 1315              		.section	.text.COMP_Interrupt_Status_Get,"ax",%progbits
 1316              		.align	1
 1317              		.global	COMP_Interrupt_Status_Get
 1318              		.syntax unified
 1319              		.thumb
 1320              		.thumb_func
 1322              	COMP_Interrupt_Status_Get:
 1323              	.LFB149:
 716:../firmware/n32g430_std_periph_driver/src/n32g430_comp.c **** 
 717:../firmware/n32g430_std_periph_driver/src/n32g430_comp.c **** /**
 718:../firmware/n32g430_std_periph_driver/src/n32g430_comp.c **** *\*\name    COMP_Interrupt_Status_Get.
 719:../firmware/n32g430_std_periph_driver/src/n32g430_comp.c **** *\*\fun     Get COMPx interrupt Status.
 720:../firmware/n32g430_std_periph_driver/src/n32g430_comp.c **** *\*\return 
 721:../firmware/n32g430_std_periph_driver/src/n32g430_comp.c **** *\*\          - COMP1_INTSTS
 722:../firmware/n32g430_std_periph_driver/src/n32g430_comp.c **** *\*\          - COMP2_INTSTS
 723:../firmware/n32g430_std_periph_driver/src/n32g430_comp.c **** *\*\          - COMP3_INTSTS
 724:../firmware/n32g430_std_periph_driver/src/n32g430_comp.c **** **/
 725:../firmware/n32g430_std_periph_driver/src/n32g430_comp.c **** uint8_t COMP_Interrupt_Status_Get(void)
 726:../firmware/n32g430_std_periph_driver/src/n32g430_comp.c **** {
 1324              		.loc 1 726 1 is_stmt 1 view -0
 1325              		.cfi_startproc
 1326              		@ args = 0, pretend = 0, frame = 0
 1327              		@ frame_needed = 0, uses_anonymous_args = 0
 1328              		@ link register save eliminated.
 727:../firmware/n32g430_std_periph_driver/src/n32g430_comp.c ****     return COMP->INTSTS;
ARM GAS  C:\Users\Dawn\AppData\Local\Temp\ccGZo2O0.s 			page 39


 1329              		.loc 1 727 5 view .LVU366
 1330              		.loc 1 727 16 is_stmt 0 view .LVU367
 1331 0000 014B     		ldr	r3, .L94
 1332 0002 986C     		ldr	r0, [r3, #72]
 728:../firmware/n32g430_std_periph_driver/src/n32g430_comp.c **** }
 1333              		.loc 1 728 1 view .LVU368
 1334 0004 C0B2     		uxtb	r0, r0
 1335 0006 7047     		bx	lr
 1336              	.L95:
 1337              		.align	2
 1338              	.L94:
 1339 0008 00240040 		.word	1073751040
 1340              		.cfi_endproc
 1341              	.LFE149:
 1343              		.section	.text.COMP_Voltage_Reference_Config,"ax",%progbits
 1344              		.align	1
 1345              		.global	COMP_Voltage_Reference_Config
 1346              		.syntax unified
 1347              		.thumb
 1348              		.thumb_func
 1350              	COMP_Voltage_Reference_Config:
 1351              	.LVL59:
 1352              	.LFB150:
 729:../firmware/n32g430_std_periph_driver/src/n32g430_comp.c **** 
 730:../firmware/n32g430_std_periph_driver/src/n32g430_comp.c **** /**
 731:../firmware/n32g430_std_periph_driver/src/n32g430_comp.c **** *\*\name    COMP_Reference_Voltage_Config.
 732:../firmware/n32g430_std_periph_driver/src/n32g430_comp.c **** *\*\fun     Configures the COMP reference voltage. 
 733:../firmware/n32g430_std_periph_driver/src/n32g430_comp.c **** *\*\param   Vv3Trim :
 734:../firmware/n32g430_std_periph_driver/src/n32g430_comp.c **** *\*\          - Value can be set from 0 to 63.
 735:../firmware/n32g430_std_periph_driver/src/n32g430_comp.c **** *\*\param   Vv3En :
 736:../firmware/n32g430_std_periph_driver/src/n32g430_comp.c **** *\*\          - false
 737:../firmware/n32g430_std_periph_driver/src/n32g430_comp.c **** *\*\          - true
 738:../firmware/n32g430_std_periph_driver/src/n32g430_comp.c **** *\*\param   Vv2Trim :
 739:../firmware/n32g430_std_periph_driver/src/n32g430_comp.c **** *\*\          - Value can be set from 0 to 63.
 740:../firmware/n32g430_std_periph_driver/src/n32g430_comp.c **** *\*\param   Vv2En :
 741:../firmware/n32g430_std_periph_driver/src/n32g430_comp.c **** *\*\          - false
 742:../firmware/n32g430_std_periph_driver/src/n32g430_comp.c **** *\*\          - true
 743:../firmware/n32g430_std_periph_driver/src/n32g430_comp.c **** *\*\param   Vv1Trim :
 744:../firmware/n32g430_std_periph_driver/src/n32g430_comp.c **** *\*\           - Value can be set from 0 to 63.     
 745:../firmware/n32g430_std_periph_driver/src/n32g430_comp.c **** *\*\param   Vv1En :
 746:../firmware/n32g430_std_periph_driver/src/n32g430_comp.c **** *\*\          - false
 747:../firmware/n32g430_std_periph_driver/src/n32g430_comp.c **** *\*\          - true
 748:../firmware/n32g430_std_periph_driver/src/n32g430_comp.c **** *\*\return  none
 749:../firmware/n32g430_std_periph_driver/src/n32g430_comp.c **** **/
 750:../firmware/n32g430_std_periph_driver/src/n32g430_comp.c **** void COMP_Voltage_Reference_Config(uint8_t vv3trim, bool vv3en, uint8_t vv2trim, bool vv2en, uint8_
 751:../firmware/n32g430_std_periph_driver/src/n32g430_comp.c **** {
 1353              		.loc 1 751 1 is_stmt 1 view -0
 1354              		.cfi_startproc
 1355              		@ args = 8, pretend = 0, frame = 8
 1356              		@ frame_needed = 0, uses_anonymous_args = 0
 752:../firmware/n32g430_std_periph_driver/src/n32g430_comp.c ****     __IO uint32_t temp_value = 0;
 1357              		.loc 1 752 5 view .LVU370
 751:../firmware/n32g430_std_periph_driver/src/n32g430_comp.c ****     __IO uint32_t temp_value = 0;
 1358              		.loc 1 751 1 is_stmt 0 view .LVU371
 1359 0000 13B5     		push	{r0, r1, r4, lr}
 1360              	.LCFI2:
 1361              		.cfi_def_cfa_offset 16
ARM GAS  C:\Users\Dawn\AppData\Local\Temp\ccGZo2O0.s 			page 40


 1362              		.cfi_offset 4, -8
 1363              		.cfi_offset 14, -4
 1364              		.loc 1 752 19 view .LVU372
 1365 0002 0024     		movs	r4, #0
 1366 0004 0194     		str	r4, [sp, #4]
 753:../firmware/n32g430_std_periph_driver/src/n32g430_comp.c **** 
 754:../firmware/n32g430_std_periph_driver/src/n32g430_comp.c ****     SetBitMsk(temp_value, vv3trim << REG_BIT15_OFFSET, COMP_VREFSCL_VV3TRM_MSK);
 1367              		.loc 1 754 5 is_stmt 1 view .LVU373
 1368 0006 019C     		ldr	r4, [sp, #4]
 1369 0008 24F4FC14 		bic	r4, r4, #2064384
 1370 000c 44EAC034 		orr	r4, r4, r0, lsl #15
 1371 0010 0194     		str	r4, [sp, #4]
 755:../firmware/n32g430_std_periph_driver/src/n32g430_comp.c ****     SetBitMsk(temp_value, vv3en << REG_BIT14_OFFSET, COMP_VREFSCL_VV3EN_MSK);
 1372              		.loc 1 755 5 view .LVU374
 1373 0012 0198     		ldr	r0, [sp, #4]
 1374              	.LVL60:
 1375              		.loc 1 755 5 is_stmt 0 view .LVU375
 1376 0014 20F48040 		bic	r0, r0, #16384
 1377 0018 40EA8130 		orr	r0, r0, r1, lsl #14
 1378 001c 0190     		str	r0, [sp, #4]
 756:../firmware/n32g430_std_periph_driver/src/n32g430_comp.c ****     SetBitMsk(temp_value, vv2trim << REG_BIT8_OFFSET, COMP_VREFSCL_VV2TRM_MSK);
 1379              		.loc 1 756 5 is_stmt 1 view .LVU376
 1380 001e 0199     		ldr	r1, [sp, #4]
 1381              	.LVL61:
 1382              		.loc 1 756 5 is_stmt 0 view .LVU377
 1383 0020 21F47C51 		bic	r1, r1, #16128
 1384 0024 41EA0221 		orr	r1, r1, r2, lsl #8
 1385 0028 0191     		str	r1, [sp, #4]
 757:../firmware/n32g430_std_periph_driver/src/n32g430_comp.c ****     SetBitMsk(temp_value, vv2en << REG_BIT7_OFFSET, COMP_VREFSCL_VV2EN_MSK);
 1386              		.loc 1 757 5 is_stmt 1 view .LVU378
 1387 002a 019A     		ldr	r2, [sp, #4]
 1388              	.LVL62:
 1389              		.loc 1 757 5 is_stmt 0 view .LVU379
 1390 002c 22F08002 		bic	r2, r2, #128
 1391 0030 42EAC312 		orr	r2, r2, r3, lsl #7
 1392 0034 0192     		str	r2, [sp, #4]
 758:../firmware/n32g430_std_periph_driver/src/n32g430_comp.c ****     SetBitMsk(temp_value, vv1trim << REG_BIT1_OFFSET, COMP_VREFSCL_VV1TRM_MSK);
 1393              		.loc 1 758 5 is_stmt 1 view .LVU380
 1394 0036 019B     		ldr	r3, [sp, #4]
 1395              	.LVL63:
 1396              		.loc 1 758 5 is_stmt 0 view .LVU381
 1397 0038 9DF81020 		ldrb	r2, [sp, #16]	@ zero_extendqisi2
 1398 003c 23F07E03 		bic	r3, r3, #126
 1399 0040 43EA4203 		orr	r3, r3, r2, lsl #1
 1400 0044 0193     		str	r3, [sp, #4]
 759:../firmware/n32g430_std_periph_driver/src/n32g430_comp.c ****     SetBitMsk(temp_value, vv1en, COMP_VREFSCL_VV1EN_MSK);
 1401              		.loc 1 759 5 is_stmt 1 view .LVU382
 1402 0046 019B     		ldr	r3, [sp, #4]
 1403 0048 9DF81420 		ldrb	r2, [sp, #20]	@ zero_extendqisi2
 1404 004c 23F00103 		bic	r3, r3, #1
 1405 0050 1343     		orrs	r3, r3, r2
 1406 0052 0193     		str	r3, [sp, #4]
 760:../firmware/n32g430_std_periph_driver/src/n32g430_comp.c **** 
 761:../firmware/n32g430_std_periph_driver/src/n32g430_comp.c ****     COMP->VREFSCL = temp_value;
 1407              		.loc 1 761 5 view .LVU383
 1408              		.loc 1 761 19 is_stmt 0 view .LVU384
 1409 0054 019A     		ldr	r2, [sp, #4]
ARM GAS  C:\Users\Dawn\AppData\Local\Temp\ccGZo2O0.s 			page 41


 1410 0056 024B     		ldr	r3, .L97
 1411 0058 1A64     		str	r2, [r3, #64]
 1412              	.LVL64:
 762:../firmware/n32g430_std_periph_driver/src/n32g430_comp.c **** }
 1413              		.loc 1 762 1 view .LVU385
 1414 005a 02B0     		add	sp, sp, #8
 1415              	.LCFI3:
 1416              		.cfi_def_cfa_offset 8
 1417              		@ sp needed
 1418 005c 10BD     		pop	{r4, pc}
 1419              	.LVL65:
 1420              	.L98:
 1421              		.loc 1 762 1 view .LVU386
 1422 005e 00BF     		.align	2
 1423              	.L97:
 1424 0060 00240040 		.word	1073751040
 1425              		.cfi_endproc
 1426              	.LFE150:
 1428              		.section	.text.COMP_Window_Mode_Enable,"ax",%progbits
 1429              		.align	1
 1430              		.global	COMP_Window_Mode_Enable
 1431              		.syntax unified
 1432              		.thumb
 1433              		.thumb_func
 1435              	COMP_Window_Mode_Enable:
 1436              	.LFB151:
 763:../firmware/n32g430_std_periph_driver/src/n32g430_comp.c **** 
 764:../firmware/n32g430_std_periph_driver/src/n32g430_comp.c **** /**
 765:../firmware/n32g430_std_periph_driver/src/n32g430_comp.c **** *\*\name    COMP_Window_Mode_Enable.
 766:../firmware/n32g430_std_periph_driver/src/n32g430_comp.c **** *\*\fun     Enable Comp Window Mode (input comparison of COMP1&2 by PA1).
 767:../firmware/n32g430_std_periph_driver/src/n32g430_comp.c **** *\*\return  none
 768:../firmware/n32g430_std_periph_driver/src/n32g430_comp.c **** **/
 769:../firmware/n32g430_std_periph_driver/src/n32g430_comp.c **** void COMP_Window_Mode_Enable(void)
 770:../firmware/n32g430_std_periph_driver/src/n32g430_comp.c **** {
 1437              		.loc 1 770 1 is_stmt 1 view -0
 1438              		.cfi_startproc
 1439              		@ args = 0, pretend = 0, frame = 0
 1440              		@ frame_needed = 0, uses_anonymous_args = 0
 1441              		@ link register save eliminated.
 771:../firmware/n32g430_std_periph_driver/src/n32g430_comp.c ****     COMP->WINMODE = COMP_CMP12MD_ENABLE;
 1442              		.loc 1 771 5 view .LVU388
 1443              		.loc 1 771 19 is_stmt 0 view .LVU389
 1444 0000 014B     		ldr	r3, .L100
 1445 0002 0122     		movs	r2, #1
 1446 0004 9A60     		str	r2, [r3, #8]
 772:../firmware/n32g430_std_periph_driver/src/n32g430_comp.c **** }
 1447              		.loc 1 772 1 view .LVU390
 1448 0006 7047     		bx	lr
 1449              	.L101:
 1450              		.align	2
 1451              	.L100:
 1452 0008 00240040 		.word	1073751040
 1453              		.cfi_endproc
 1454              	.LFE151:
 1456              		.section	.text.COMP_Window_Mode_Disable,"ax",%progbits
 1457              		.align	1
 1458              		.global	COMP_Window_Mode_Disable
ARM GAS  C:\Users\Dawn\AppData\Local\Temp\ccGZo2O0.s 			page 42


 1459              		.syntax unified
 1460              		.thumb
 1461              		.thumb_func
 1463              	COMP_Window_Mode_Disable:
 1464              	.LFB152:
 773:../firmware/n32g430_std_periph_driver/src/n32g430_comp.c **** 
 774:../firmware/n32g430_std_periph_driver/src/n32g430_comp.c **** /**
 775:../firmware/n32g430_std_periph_driver/src/n32g430_comp.c **** *\*\name    COMP_Window_Mode_Disable.
 776:../firmware/n32g430_std_periph_driver/src/n32g430_comp.c **** *\*\fun     Disable Comp Window Mode (input comparison of COMP1&2 by PA1).
 777:../firmware/n32g430_std_periph_driver/src/n32g430_comp.c **** *\*\return  none
 778:../firmware/n32g430_std_periph_driver/src/n32g430_comp.c **** **/
 779:../firmware/n32g430_std_periph_driver/src/n32g430_comp.c **** void COMP_Window_Mode_Disable(void)
 780:../firmware/n32g430_std_periph_driver/src/n32g430_comp.c **** {
 1465              		.loc 1 780 1 is_stmt 1 view -0
 1466              		.cfi_startproc
 1467              		@ args = 0, pretend = 0, frame = 0
 1468              		@ frame_needed = 0, uses_anonymous_args = 0
 1469              		@ link register save eliminated.
 781:../firmware/n32g430_std_periph_driver/src/n32g430_comp.c ****     COMP->WINMODE = COMP_CMP12MD_DISABLE;
 1470              		.loc 1 781 5 view .LVU392
 1471              		.loc 1 781 19 is_stmt 0 view .LVU393
 1472 0000 014B     		ldr	r3, .L103
 1473 0002 0022     		movs	r2, #0
 1474 0004 9A60     		str	r2, [r3, #8]
 782:../firmware/n32g430_std_periph_driver/src/n32g430_comp.c **** }
 1475              		.loc 1 782 1 view .LVU394
 1476 0006 7047     		bx	lr
 1477              	.L104:
 1478              		.align	2
 1479              	.L103:
 1480 0008 00240040 		.word	1073751040
 1481              		.cfi_endproc
 1482              	.LFE152:
 1484              		.section	.text.COMP2_Output_Xor_Enable,"ax",%progbits
 1485              		.align	1
 1486              		.global	COMP2_Output_Xor_Enable
 1487              		.syntax unified
 1488              		.thumb
 1489              		.thumb_func
 1491              	COMP2_Output_Xor_Enable:
 1492              	.LFB153:
 783:../firmware/n32g430_std_periph_driver/src/n32g430_comp.c **** 
 784:../firmware/n32g430_std_periph_driver/src/n32g430_comp.c **** /**
 785:../firmware/n32g430_std_periph_driver/src/n32g430_comp.c **** *\*\name    COMP2_Output_Xor_Enable.
 786:../firmware/n32g430_std_periph_driver/src/n32g430_comp.c **** *\*\fun     Enable the XOR output(comparison of COMP1&2).
 787:../firmware/n32g430_std_periph_driver/src/n32g430_comp.c **** *\*\return  none
 788:../firmware/n32g430_std_periph_driver/src/n32g430_comp.c **** **/
 789:../firmware/n32g430_std_periph_driver/src/n32g430_comp.c **** void COMP2_Output_Xor_Enable(void)
 790:../firmware/n32g430_std_periph_driver/src/n32g430_comp.c **** {
 1493              		.loc 1 790 1 is_stmt 1 view -0
 1494              		.cfi_startproc
 1495              		@ args = 0, pretend = 0, frame = 0
 1496              		@ frame_needed = 0, uses_anonymous_args = 0
 1497              		@ link register save eliminated.
 791:../firmware/n32g430_std_periph_driver/src/n32g430_comp.c ****     COMP->CMP2OSEL = COMP_CMP2XO_ENABLE;
 1498              		.loc 1 791 5 view .LVU396
 1499              		.loc 1 791 20 is_stmt 0 view .LVU397
ARM GAS  C:\Users\Dawn\AppData\Local\Temp\ccGZo2O0.s 			page 43


 1500 0000 014B     		ldr	r3, .L106
 1501 0002 0122     		movs	r2, #1
 1502 0004 DA62     		str	r2, [r3, #44]
 792:../firmware/n32g430_std_periph_driver/src/n32g430_comp.c **** }
 1503              		.loc 1 792 1 view .LVU398
 1504 0006 7047     		bx	lr
 1505              	.L107:
 1506              		.align	2
 1507              	.L106:
 1508 0008 00240040 		.word	1073751040
 1509              		.cfi_endproc
 1510              	.LFE153:
 1512              		.section	.text.COMP2_Output_Xor_Disable,"ax",%progbits
 1513              		.align	1
 1514              		.global	COMP2_Output_Xor_Disable
 1515              		.syntax unified
 1516              		.thumb
 1517              		.thumb_func
 1519              	COMP2_Output_Xor_Disable:
 1520              	.LFB154:
 793:../firmware/n32g430_std_periph_driver/src/n32g430_comp.c **** 
 794:../firmware/n32g430_std_periph_driver/src/n32g430_comp.c **** /**
 795:../firmware/n32g430_std_periph_driver/src/n32g430_comp.c **** *\*\name    COMP2_Output_Xor_Disable.
 796:../firmware/n32g430_std_periph_driver/src/n32g430_comp.c **** *\*\fun     Disable the XOR output(comparison of COMP1&2).
 797:../firmware/n32g430_std_periph_driver/src/n32g430_comp.c **** *\*\return  none
 798:../firmware/n32g430_std_periph_driver/src/n32g430_comp.c **** **/
 799:../firmware/n32g430_std_periph_driver/src/n32g430_comp.c **** void COMP2_Output_Xor_Disable(void)
 800:../firmware/n32g430_std_periph_driver/src/n32g430_comp.c **** {
 1521              		.loc 1 800 1 is_stmt 1 view -0
 1522              		.cfi_startproc
 1523              		@ args = 0, pretend = 0, frame = 0
 1524              		@ frame_needed = 0, uses_anonymous_args = 0
 1525              		@ link register save eliminated.
 801:../firmware/n32g430_std_periph_driver/src/n32g430_comp.c ****     COMP->CMP2OSEL = COMP_CMP2XO_DISABLE;
 1526              		.loc 1 801 5 view .LVU400
 1527              		.loc 1 801 20 is_stmt 0 view .LVU401
 1528 0000 014B     		ldr	r3, .L109
 1529 0002 0022     		movs	r2, #0
 1530 0004 DA62     		str	r2, [r3, #44]
 802:../firmware/n32g430_std_periph_driver/src/n32g430_comp.c **** }
 1531              		.loc 1 802 1 view .LVU402
 1532 0006 7047     		bx	lr
 1533              	.L110:
 1534              		.align	2
 1535              	.L109:
 1536 0008 00240040 		.word	1073751040
 1537              		.cfi_endproc
 1538              	.LFE154:
 1540              		.section	.text.COMP_Output_Status_Get,"ax",%progbits
 1541              		.align	1
 1542              		.global	COMP_Output_Status_Get
 1543              		.syntax unified
 1544              		.thumb
 1545              		.thumb_func
 1547              	COMP_Output_Status_Get:
 1548              	.LVL66:
 1549              	.LFB155:
ARM GAS  C:\Users\Dawn\AppData\Local\Temp\ccGZo2O0.s 			page 44


 803:../firmware/n32g430_std_periph_driver/src/n32g430_comp.c **** /**
 804:../firmware/n32g430_std_periph_driver/src/n32g430_comp.c **** *\*\name    COMP_Output_Status_Get.
 805:../firmware/n32g430_std_periph_driver/src/n32g430_comp.c **** *\*\fun     Get COMPx Output Status.
 806:../firmware/n32g430_std_periph_driver/src/n32g430_comp.c **** *\*\param   COMPx :
 807:../firmware/n32g430_std_periph_driver/src/n32g430_comp.c **** *\*\          - COMP1
 808:../firmware/n32g430_std_periph_driver/src/n32g430_comp.c **** *\*\          - COMP2
 809:../firmware/n32g430_std_periph_driver/src/n32g430_comp.c **** *\*\          - COMP3
 810:../firmware/n32g430_std_periph_driver/src/n32g430_comp.c **** *\*\return  FlagStatus:
 811:../firmware/n32g430_std_periph_driver/src/n32g430_comp.c **** *\*\          - SET
 812:../firmware/n32g430_std_periph_driver/src/n32g430_comp.c **** *\*\          - RESET
 813:../firmware/n32g430_std_periph_driver/src/n32g430_comp.c **** **/
 814:../firmware/n32g430_std_periph_driver/src/n32g430_comp.c **** FlagStatus COMP_Output_Status_Get(COMPX COMPx)
 815:../firmware/n32g430_std_periph_driver/src/n32g430_comp.c **** {
 1550              		.loc 1 815 1 is_stmt 1 view -0
 1551              		.cfi_startproc
 1552              		@ args = 0, pretend = 0, frame = 0
 1553              		@ frame_needed = 0, uses_anonymous_args = 0
 1554              		@ link register save eliminated.
 816:../firmware/n32g430_std_periph_driver/src/n32g430_comp.c ****     if(COMPx == COMP1)
 1555              		.loc 1 816 5 view .LVU404
 1556 0000 054B     		ldr	r3, .L116
 1557              		.loc 1 816 7 is_stmt 0 view .LVU405
 1558 0002 18B9     		cbnz	r0, .L112
 817:../firmware/n32g430_std_periph_driver/src/n32g430_comp.c ****     {
 818:../firmware/n32g430_std_periph_driver/src/n32g430_comp.c ****         return (COMP->Cmp1.CTRL & COMP_OUT_MASK) ? SET : RESET;
 1559              		.loc 1 818 9 is_stmt 1 view .LVU406
 1560              		.loc 1 818 27 is_stmt 0 view .LVU407
 1561 0004 1869     		ldr	r0, [r3, #16]
 1562              	.LVL67:
 1563              	.L115:
 819:../firmware/n32g430_std_periph_driver/src/n32g430_comp.c ****     }
 820:../firmware/n32g430_std_periph_driver/src/n32g430_comp.c ****     else if(COMPx == COMP2)
 821:../firmware/n32g430_std_periph_driver/src/n32g430_comp.c ****     {
 822:../firmware/n32g430_std_periph_driver/src/n32g430_comp.c ****         return (COMP->Cmp2.CTRL & COMP_OUT_MASK) ? SET : RESET;
 823:../firmware/n32g430_std_periph_driver/src/n32g430_comp.c ****     }
 824:../firmware/n32g430_std_periph_driver/src/n32g430_comp.c ****     else
 825:../firmware/n32g430_std_periph_driver/src/n32g430_comp.c ****     {
 826:../firmware/n32g430_std_periph_driver/src/n32g430_comp.c ****         return (COMP->Cmp3.CTRL & COMP_OUT_MASK) ? SET : RESET;
 1564              		.loc 1 826 56 view .LVU408
 1565 0006 C0F3C040 		ubfx	r0, r0, #19, #1
 827:../firmware/n32g430_std_periph_driver/src/n32g430_comp.c ****     }
 828:../firmware/n32g430_std_periph_driver/src/n32g430_comp.c **** }
 1566              		.loc 1 828 1 view .LVU409
 1567 000a 7047     		bx	lr
 1568              	.LVL68:
 1569              	.L112:
 820:../firmware/n32g430_std_periph_driver/src/n32g430_comp.c ****     {
 1570              		.loc 1 820 10 is_stmt 1 view .LVU410
 820:../firmware/n32g430_std_periph_driver/src/n32g430_comp.c ****     {
 1571              		.loc 1 820 12 is_stmt 0 view .LVU411
 1572 000c 0128     		cmp	r0, #1
 822:../firmware/n32g430_std_periph_driver/src/n32g430_comp.c ****     }
 1573              		.loc 1 822 9 is_stmt 1 view .LVU412
 822:../firmware/n32g430_std_periph_driver/src/n32g430_comp.c ****     }
 1574              		.loc 1 822 27 is_stmt 0 view .LVU413
 1575 000e 0CBF     		ite	eq
 1576 0010 186A     		ldreq	r0, [r3, #32]
ARM GAS  C:\Users\Dawn\AppData\Local\Temp\ccGZo2O0.s 			page 45


 1577              	.LVL69:
 826:../firmware/n32g430_std_periph_driver/src/n32g430_comp.c ****     }
 1578              		.loc 1 826 9 is_stmt 1 view .LVU414
 826:../firmware/n32g430_std_periph_driver/src/n32g430_comp.c ****     }
 1579              		.loc 1 826 27 is_stmt 0 view .LVU415
 1580 0012 186B     		ldrne	r0, [r3, #48]
 1581 0014 F7E7     		b	.L115
 1582              	.L117:
 1583 0016 00BF     		.align	2
 1584              	.L116:
 1585 0018 00240040 		.word	1073751040
 1586              		.cfi_endproc
 1587              	.LFE155:
 1589              		.section	.text.COMP_Interrupt_Status_OneComp_Get,"ax",%progbits
 1590              		.align	1
 1591              		.global	COMP_Interrupt_Status_OneComp_Get
 1592              		.syntax unified
 1593              		.thumb
 1594              		.thumb_func
 1596              	COMP_Interrupt_Status_OneComp_Get:
 1597              	.LVL70:
 1598              	.LFB156:
 829:../firmware/n32g430_std_periph_driver/src/n32g430_comp.c **** /**
 830:../firmware/n32g430_std_periph_driver/src/n32g430_comp.c **** *\*\name    COMP_Interrupt_Status_OneComp_Get.
 831:../firmware/n32g430_std_periph_driver/src/n32g430_comp.c **** *\*\fun     Get COMPx Output Status.
 832:../firmware/n32g430_std_periph_driver/src/n32g430_comp.c **** *\*\param   COMPx :
 833:../firmware/n32g430_std_periph_driver/src/n32g430_comp.c **** *\*\          - COMP1
 834:../firmware/n32g430_std_periph_driver/src/n32g430_comp.c **** *\*\          - COMP2
 835:../firmware/n32g430_std_periph_driver/src/n32g430_comp.c **** *\*\          - COMP3
 836:../firmware/n32g430_std_periph_driver/src/n32g430_comp.c **** *\*\return  FlagStatus:
 837:../firmware/n32g430_std_periph_driver/src/n32g430_comp.c **** *\*\          - SET
 838:../firmware/n32g430_std_periph_driver/src/n32g430_comp.c **** *\*\          - RESET
 839:../firmware/n32g430_std_periph_driver/src/n32g430_comp.c **** **/
 840:../firmware/n32g430_std_periph_driver/src/n32g430_comp.c **** FlagStatus COMP_Interrupt_Status_OneComp_Get(COMPX COMPx)
 841:../firmware/n32g430_std_periph_driver/src/n32g430_comp.c **** {
 1599              		.loc 1 841 1 is_stmt 1 view -0
 1600              		.cfi_startproc
 1601              		@ args = 0, pretend = 0, frame = 0
 1602              		@ frame_needed = 0, uses_anonymous_args = 0
 1603              		@ link register save eliminated.
 842:../firmware/n32g430_std_periph_driver/src/n32g430_comp.c ****     return (COMP->INTSTS & (REG_BIT1_OFFSET << COMPx)) ? SET : RESET;
 1604              		.loc 1 842 5 view .LVU417
 1605              		.loc 1 842 17 is_stmt 0 view .LVU418
 1606 0000 034B     		ldr	r3, .L119
 1607 0002 9B6C     		ldr	r3, [r3, #72]
 1608              		.loc 1 842 56 view .LVU419
 1609 0004 23FA00F0 		lsr	r0, r3, r0
 1610              	.LVL71:
 843:../firmware/n32g430_std_periph_driver/src/n32g430_comp.c **** }
 1611              		.loc 1 843 1 view .LVU420
 1612 0008 00F00100 		and	r0, r0, #1
 1613 000c 7047     		bx	lr
 1614              	.L120:
 1615 000e 00BF     		.align	2
 1616              	.L119:
 1617 0010 00240040 		.word	1073751040
 1618              		.cfi_endproc
ARM GAS  C:\Users\Dawn\AppData\Local\Temp\ccGZo2O0.s 			page 46


 1619              	.LFE156:
 1621              		.section	.text.COMP_Interrupt_Status_OneComp_Clear,"ax",%progbits
 1622              		.align	1
 1623              		.global	COMP_Interrupt_Status_OneComp_Clear
 1624              		.syntax unified
 1625              		.thumb
 1626              		.thumb_func
 1628              	COMP_Interrupt_Status_OneComp_Clear:
 1629              	.LVL72:
 1630              	.LFB157:
 844:../firmware/n32g430_std_periph_driver/src/n32g430_comp.c **** /**
 845:../firmware/n32g430_std_periph_driver/src/n32g430_comp.c **** *\*\name    COMP_Interrupt_Status_OneComp_Clear.
 846:../firmware/n32g430_std_periph_driver/src/n32g430_comp.c **** *\*\fun     Clear COMPx Output Status.
 847:../firmware/n32g430_std_periph_driver/src/n32g430_comp.c **** *\*\param   COMPx :
 848:../firmware/n32g430_std_periph_driver/src/n32g430_comp.c **** *\*\          - COMP1
 849:../firmware/n32g430_std_periph_driver/src/n32g430_comp.c **** *\*\          - COMP2
 850:../firmware/n32g430_std_periph_driver/src/n32g430_comp.c **** *\*\          - COMP3
 851:../firmware/n32g430_std_periph_driver/src/n32g430_comp.c **** *\*\return  none
 852:../firmware/n32g430_std_periph_driver/src/n32g430_comp.c **** **/
 853:../firmware/n32g430_std_periph_driver/src/n32g430_comp.c **** void COMP_Interrupt_Status_OneComp_Clear(COMPX COMPx)
 854:../firmware/n32g430_std_periph_driver/src/n32g430_comp.c **** {
 1631              		.loc 1 854 1 is_stmt 1 view -0
 1632              		.cfi_startproc
 1633              		@ args = 0, pretend = 0, frame = 0
 1634              		@ frame_needed = 0, uses_anonymous_args = 0
 1635              		@ link register save eliminated.
 855:../firmware/n32g430_std_periph_driver/src/n32g430_comp.c ****     COMP->INTSTS = (REG_BIT1_OFFSET << COMPx);
 1636              		.loc 1 855 5 view .LVU422
 1637              		.loc 1 855 18 is_stmt 0 view .LVU423
 1638 0000 024A     		ldr	r2, .L122
 1639              		.loc 1 855 37 view .LVU424
 1640 0002 0123     		movs	r3, #1
 1641 0004 8340     		lsls	r3, r3, r0
 1642              		.loc 1 855 18 view .LVU425
 1643 0006 9364     		str	r3, [r2, #72]
 856:../firmware/n32g430_std_periph_driver/src/n32g430_comp.c **** }
 1644              		.loc 1 856 1 view .LVU426
 1645 0008 7047     		bx	lr
 1646              	.L123:
 1647 000a 00BF     		.align	2
 1648              	.L122:
 1649 000c 00240040 		.word	1073751040
 1650              		.cfi_endproc
 1651              	.LFE157:
 1653              		.section	.text.COMP_Filter_Control_Config,"ax",%progbits
 1654              		.align	1
 1655              		.global	COMP_Filter_Control_Config
 1656              		.syntax unified
 1657              		.thumb
 1658              		.thumb_func
 1660              	COMP_Filter_Control_Config:
 1661              	.LVL73:
 1662              	.LFB158:
 857:../firmware/n32g430_std_periph_driver/src/n32g430_comp.c **** 
 858:../firmware/n32g430_std_periph_driver/src/n32g430_comp.c **** 
 859:../firmware/n32g430_std_periph_driver/src/n32g430_comp.c **** /**
 860:../firmware/n32g430_std_periph_driver/src/n32g430_comp.c **** *\*\name    COMP_Filter_Control_Config.
ARM GAS  C:\Users\Dawn\AppData\Local\Temp\ccGZo2O0.s 			page 47


 861:../firmware/n32g430_std_periph_driver/src/n32g430_comp.c **** *\*\fun     Configures the COMP filter control value.
 862:../firmware/n32g430_std_periph_driver/src/n32g430_comp.c **** *\*\param   COMPx :
 863:../firmware/n32g430_std_periph_driver/src/n32g430_comp.c **** *\*\          - COMP1
 864:../firmware/n32g430_std_periph_driver/src/n32g430_comp.c **** *\*\          - COMP2
 865:../firmware/n32g430_std_periph_driver/src/n32g430_comp.c **** *\*\          - COMP3
 866:../firmware/n32g430_std_periph_driver/src/n32g430_comp.c **** *\*\param   sw :
 867:../firmware/n32g430_std_periph_driver/src/n32g430_comp.c **** *\*\          - ENABLE
 868:../firmware/n32g430_std_periph_driver/src/n32g430_comp.c **** *\*\          - DISABLE
 869:../firmware/n32g430_std_periph_driver/src/n32g430_comp.c **** *\*\param   threshnum :
 870:../firmware/n32g430_std_periph_driver/src/n32g430_comp.c **** *\*\          - Threshold Value need > SampWindow/2.      
 871:../firmware/n32g430_std_periph_driver/src/n32g430_comp.c **** *\*\param   sampwindow :
 872:../firmware/n32g430_std_periph_driver/src/n32g430_comp.c **** *\*\          -  Value can be set from 0 to 31.
 873:../firmware/n32g430_std_periph_driver/src/n32g430_comp.c **** *\*\return  none
 874:../firmware/n32g430_std_periph_driver/src/n32g430_comp.c **** **/
 875:../firmware/n32g430_std_periph_driver/src/n32g430_comp.c **** void COMP_Filter_Control_Config(COMPX COMPx , uint32_t sw, uint8_t threshold , uint8_t sampwindow)
 876:../firmware/n32g430_std_periph_driver/src/n32g430_comp.c **** {
 1663              		.loc 1 876 1 is_stmt 1 view -0
 1664              		.cfi_startproc
 1665              		@ args = 0, pretend = 0, frame = 0
 1666              		@ frame_needed = 0, uses_anonymous_args = 0
 877:../firmware/n32g430_std_periph_driver/src/n32g430_comp.c ****     COMP_Filter_SampWindow_Config(COMPx, sampwindow);
 1667              		.loc 1 877 5 view .LVU428
 876:../firmware/n32g430_std_periph_driver/src/n32g430_comp.c ****     COMP_Filter_SampWindow_Config(COMPx, sampwindow);
 1668              		.loc 1 876 1 is_stmt 0 view .LVU429
 1669 0000 38B5     		push	{r3, r4, r5, lr}
 1670              	.LCFI4:
 1671              		.cfi_def_cfa_offset 16
 1672              		.cfi_offset 3, -16
 1673              		.cfi_offset 4, -12
 1674              		.cfi_offset 5, -8
 1675              		.cfi_offset 14, -4
 876:../firmware/n32g430_std_periph_driver/src/n32g430_comp.c ****     COMP_Filter_SampWindow_Config(COMPx, sampwindow);
 1676              		.loc 1 876 1 view .LVU430
 1677 0002 1546     		mov	r5, r2
 1678 0004 0C46     		mov	r4, r1
 1679              		.loc 1 877 5 view .LVU431
 1680 0006 1946     		mov	r1, r3
 1681              	.LVL74:
 1682              		.loc 1 877 5 view .LVU432
 1683 0008 FFF7FEFF 		bl	COMP_Filter_SampWindow_Config
 1684              	.LVL75:
 878:../firmware/n32g430_std_periph_driver/src/n32g430_comp.c ****     COMP_Filter_Threshold_Config(COMPx, threshold);
 1685              		.loc 1 878 5 is_stmt 1 view .LVU433
 1686 000c 2946     		mov	r1, r5
 1687              	.LVL76:
 1688              		.loc 1 878 5 is_stmt 0 view .LVU434
 1689 000e FFF7FEFF 		bl	COMP_Filter_Threshold_Config
 1690              	.LVL77:
 879:../firmware/n32g430_std_periph_driver/src/n32g430_comp.c ****     if(sw == ENABLE)
 1691              		.loc 1 879 5 is_stmt 1 view .LVU435
 1692              		.loc 1 879 7 is_stmt 0 view .LVU436
 1693 0012 012C     		cmp	r4, #1
 1694 0014 03D1     		bne	.L125
 880:../firmware/n32g430_std_periph_driver/src/n32g430_comp.c ****     {
 881:../firmware/n32g430_std_periph_driver/src/n32g430_comp.c ****         COMP_Filter_Enable(COMPx);
 1695              		.loc 1 881 9 is_stmt 1 view .LVU437
 882:../firmware/n32g430_std_periph_driver/src/n32g430_comp.c ****     }
ARM GAS  C:\Users\Dawn\AppData\Local\Temp\ccGZo2O0.s 			page 48


 883:../firmware/n32g430_std_periph_driver/src/n32g430_comp.c ****     else
 884:../firmware/n32g430_std_periph_driver/src/n32g430_comp.c ****     {
 885:../firmware/n32g430_std_periph_driver/src/n32g430_comp.c ****         COMP_Filter_Disable(COMPx);
 886:../firmware/n32g430_std_periph_driver/src/n32g430_comp.c ****     }
 887:../firmware/n32g430_std_periph_driver/src/n32g430_comp.c **** }
 1696              		.loc 1 887 1 is_stmt 0 view .LVU438
 1697 0016 BDE83840 		pop	{r3, r4, r5, lr}
 1698              	.LCFI5:
 1699              		.cfi_remember_state
 1700              		.cfi_restore 14
 1701              		.cfi_restore 5
 1702              		.cfi_restore 4
 1703              		.cfi_restore 3
 1704              		.cfi_def_cfa_offset 0
 1705              	.LVL78:
 881:../firmware/n32g430_std_periph_driver/src/n32g430_comp.c ****     }
 1706              		.loc 1 881 9 view .LVU439
 1707 001a FFF7FEBF 		b	COMP_Filter_Enable
 1708              	.LVL79:
 1709              	.L125:
 1710              	.LCFI6:
 1711              		.cfi_restore_state
 885:../firmware/n32g430_std_periph_driver/src/n32g430_comp.c ****     }
 1712              		.loc 1 885 9 is_stmt 1 view .LVU440
 1713              		.loc 1 887 1 is_stmt 0 view .LVU441
 1714 001e BDE83840 		pop	{r3, r4, r5, lr}
 1715              	.LCFI7:
 1716              		.cfi_restore 14
 1717              		.cfi_restore 5
 1718              		.cfi_restore 4
 1719              		.cfi_restore 3
 1720              		.cfi_def_cfa_offset 0
 1721              	.LVL80:
 885:../firmware/n32g430_std_periph_driver/src/n32g430_comp.c ****     }
 1722              		.loc 1 885 9 view .LVU442
 1723 0022 FFF7FEBF 		b	COMP_Filter_Disable
 1724              	.LVL81:
 1725              		.cfi_endproc
 1726              	.LFE158:
 1728              		.section	.text.COMP_Initializes,"ax",%progbits
 1729              		.align	1
 1730              		.global	COMP_Initializes
 1731              		.syntax unified
 1732              		.thumb
 1733              		.thumb_func
 1735              	COMP_Initializes:
 1736              	.LVL82:
 1737              	.LFB159:
 888:../firmware/n32g430_std_periph_driver/src/n32g430_comp.c **** 
 889:../firmware/n32g430_std_periph_driver/src/n32g430_comp.c **** /**
 890:../firmware/n32g430_std_periph_driver/src/n32g430_comp.c **** *\*\name    COMP_Initializes.
 891:../firmware/n32g430_std_periph_driver/src/n32g430_comp.c **** *\*\fun     Initializes the COMPx according to COMP_initstruct.
 892:../firmware/n32g430_std_periph_driver/src/n32g430_comp.c **** *\*\param   COMPx :
 893:../firmware/n32g430_std_periph_driver/src/n32g430_comp.c **** *\*\          - COMP1
 894:../firmware/n32g430_std_periph_driver/src/n32g430_comp.c **** *\*\          - COMP2
 895:../firmware/n32g430_std_periph_driver/src/n32g430_comp.c **** *\*\          - COMP3
 896:../firmware/n32g430_std_periph_driver/src/n32g430_comp.c **** *\*\param   COMP_initstruct :
ARM GAS  C:\Users\Dawn\AppData\Local\Temp\ccGZo2O0.s 			page 49


 897:../firmware/n32g430_std_periph_driver/src/n32g430_comp.c **** *\*\          - Blking
 898:../firmware/n32g430_std_periph_driver/src/n32g430_comp.c **** *\*\            - COMP_BLANKING_NO
 899:../firmware/n32g430_std_periph_driver/src/n32g430_comp.c **** *\*\            - COMP_BLANKING_TIM1_OC5
 900:../firmware/n32g430_std_periph_driver/src/n32g430_comp.c **** *\*\            - COMP_BLANKING_TIM8_OC5
 901:../firmware/n32g430_std_periph_driver/src/n32g430_comp.c **** *\*\          - Hyst
 902:../firmware/n32g430_std_periph_driver/src/n32g430_comp.c **** *\*\            - COMP_HYST_NO   
 903:../firmware/n32g430_std_periph_driver/src/n32g430_comp.c **** *\*\            - COMP_HYST_LOW    
 904:../firmware/n32g430_std_periph_driver/src/n32g430_comp.c **** *\*\            - COMP_HYST_MID    
 905:../firmware/n32g430_std_periph_driver/src/n32g430_comp.c **** *\*\            - COMP_HYST_HIGH   
 906:../firmware/n32g430_std_periph_driver/src/n32g430_comp.c **** *\*\          - PolRev
 907:../firmware/n32g430_std_periph_driver/src/n32g430_comp.c **** *\*\            - COMP_OUTPOL_FLIP             
 908:../firmware/n32g430_std_periph_driver/src/n32g430_comp.c **** *\*\            - COMP_OUTPOL_NFLIP              
 909:../firmware/n32g430_std_periph_driver/src/n32g430_comp.c **** *\*\          - OutSel  
 910:../firmware/n32g430_std_periph_driver/src/n32g430_comp.c **** *\*\             comp1 out trig 
 911:../firmware/n32g430_std_periph_driver/src/n32g430_comp.c **** *\*\            - COMP1_OUTSEL_TIM1_BKIN             
 912:../firmware/n32g430_std_periph_driver/src/n32g430_comp.c **** *\*\            - COMP1_OUTSEL_TIM1_OCREFCLEAR       
 913:../firmware/n32g430_std_periph_driver/src/n32g430_comp.c **** *\*\            - COMP1_OUTSEL_TIM1_IC1              
 914:../firmware/n32g430_std_periph_driver/src/n32g430_comp.c **** *\*\            - COMP1_OUTSEL_TIM2_IC1              
 915:../firmware/n32g430_std_periph_driver/src/n32g430_comp.c **** *\*\            - COMP1_OUTSEL_TIM2_OCREFCLEAR       
 916:../firmware/n32g430_std_periph_driver/src/n32g430_comp.c **** *\*\            - COMP1_OUTSEL_TIM3_IC1              
 917:../firmware/n32g430_std_periph_driver/src/n32g430_comp.c **** *\*\            - COMP1_OUTSEL_TIM3_OCREFCLEAR       
 918:../firmware/n32g430_std_periph_driver/src/n32g430_comp.c **** *\*\            - COMP1_OUTSEL_TIM4_OCREFCLEAR       
 919:../firmware/n32g430_std_periph_driver/src/n32g430_comp.c **** *\*\            - COMP1_OUTSEL_TIM5_IC1              
 920:../firmware/n32g430_std_periph_driver/src/n32g430_comp.c **** *\*\            - COMP1_OUTSEL_TIM8_IC1              
 921:../firmware/n32g430_std_periph_driver/src/n32g430_comp.c **** *\*\            - COMP1_OUTSEL_TIM8_OCREFCLEAR       
 922:../firmware/n32g430_std_periph_driver/src/n32g430_comp.c **** *\*\            - COMP1_OUTSEL_TIM8_BKIN             
 923:../firmware/n32g430_std_periph_driver/src/n32g430_comp.c **** *\*\            - COMP1_OUTSEL_TIM1_BKIN_TIM8_BKIN   
 924:../firmware/n32g430_std_periph_driver/src/n32g430_comp.c **** *\*\            - COMP1_OUTSEL_LPTIM_ETR                 
 925:../firmware/n32g430_std_periph_driver/src/n32g430_comp.c **** *\*\             comp2 out trig 
 926:../firmware/n32g430_std_periph_driver/src/n32g430_comp.c **** *\*\            - COMP2_OUTSEL_TIM1_BKIN             
 927:../firmware/n32g430_std_periph_driver/src/n32g430_comp.c **** *\*\            - COMP2_OUTSEL_TIM1_OCREFCLEAR       
 928:../firmware/n32g430_std_periph_driver/src/n32g430_comp.c **** *\*\            - COMP2_OUTSEL_TIM1_IC1              
 929:../firmware/n32g430_std_periph_driver/src/n32g430_comp.c **** *\*\            - COMP2_OUTSEL_TIM2_OCREFCLEAR       
 930:../firmware/n32g430_std_periph_driver/src/n32g430_comp.c **** *\*\            - COMP2_OUTSEL_TIM3_OCREFCLEAR       
 931:../firmware/n32g430_std_periph_driver/src/n32g430_comp.c **** *\*\            - COMP2_OUTSEL_TIM4_IC1              
 932:../firmware/n32g430_std_periph_driver/src/n32g430_comp.c **** *\*\            - COMP2_OUTSEL_TIM4_OCREFCLEAR       
 933:../firmware/n32g430_std_periph_driver/src/n32g430_comp.c **** *\*\            - COMP2_OUTSEL_TIM5_IC1              
 934:../firmware/n32g430_std_periph_driver/src/n32g430_comp.c **** *\*\            - COMP2_OUTSEL_TIM8_IC1              
 935:../firmware/n32g430_std_periph_driver/src/n32g430_comp.c **** *\*\            - COMP2_OUTSEL_TIM8_OCREFCLEAR       
 936:../firmware/n32g430_std_periph_driver/src/n32g430_comp.c **** *\*\            - COMP2_OUTSEL_TIM8_BKIN             
 937:../firmware/n32g430_std_periph_driver/src/n32g430_comp.c **** *\*\            - COMP2_OUTSEL_TIM1_BKIN_TIM8_BKIN   
 938:../firmware/n32g430_std_periph_driver/src/n32g430_comp.c **** *\*\            - COMP2_OUTSEL_LPTIM_ETR             
 939:../firmware/n32g430_std_periph_driver/src/n32g430_comp.c **** *\*\             comp3 out trig 
 940:../firmware/n32g430_std_periph_driver/src/n32g430_comp.c **** *\*\            - COMP3_OUTSEL_TIM1_BKIN             
 941:../firmware/n32g430_std_periph_driver/src/n32g430_comp.c **** *\*\            - COMP3_OUTSEL_TIM1_OCREFCLEAR       
 942:../firmware/n32g430_std_periph_driver/src/n32g430_comp.c **** *\*\            - COMP3_OUTSEL_TIM1_IC1              
 943:../firmware/n32g430_std_periph_driver/src/n32g430_comp.c **** *\*\            - COMP3_OUTSEL_TIM2_IC1              
 944:../firmware/n32g430_std_periph_driver/src/n32g430_comp.c **** *\*\            - COMP3_OUTSEL_TIM5_OCREFCLEAR       
 945:../firmware/n32g430_std_periph_driver/src/n32g430_comp.c **** *\*\            - COMP3_OUTSEL_TIM3_IC1              
 946:../firmware/n32g430_std_periph_driver/src/n32g430_comp.c **** *\*\            - COMP3_OUTSEL_TIM3_OCREFCLEAR       
 947:../firmware/n32g430_std_periph_driver/src/n32g430_comp.c **** *\*\            - COMP3_OUTSEL_TIM4_OCREFCLEAR       
 948:../firmware/n32g430_std_periph_driver/src/n32g430_comp.c **** *\*\            - COMP3_OUTSEL_TIM5_IC1              
 949:../firmware/n32g430_std_periph_driver/src/n32g430_comp.c **** *\*\            - COMP3_OUTSEL_TIM8_IC1              
 950:../firmware/n32g430_std_periph_driver/src/n32g430_comp.c **** *\*\            - COMP3_OUTSEL_TIM8_OCREFCLEAR       
 951:../firmware/n32g430_std_periph_driver/src/n32g430_comp.c **** *\*\            - COMP3_OUTSEL_TIM8_BKIN             
 952:../firmware/n32g430_std_periph_driver/src/n32g430_comp.c **** *\*\            - COMP3_OUTSEL_TIM1_BKIN_TIM8_BKIN   
 953:../firmware/n32g430_std_periph_driver/src/n32g430_comp.c **** *\*\            - COMP3_OUTSEL_LPTIM_ETR              
ARM GAS  C:\Users\Dawn\AppData\Local\Temp\ccGZo2O0.s 			page 50


 954:../firmware/n32g430_std_periph_driver/src/n32g430_comp.c **** *\*\          - InpSel                
 955:../firmware/n32g430_std_periph_driver/src/n32g430_comp.c **** *\*\             comp1 inp sel 
 956:../firmware/n32g430_std_periph_driver/src/n32g430_comp.c **** *\*\            - COMP1_INPSEL_PA0                   
 957:../firmware/n32g430_std_periph_driver/src/n32g430_comp.c **** *\*\            - COMP1_INPSEL_PA2                   
 958:../firmware/n32g430_std_periph_driver/src/n32g430_comp.c **** *\*\            - COMP1_INPSEL_PA12                  
 959:../firmware/n32g430_std_periph_driver/src/n32g430_comp.c **** *\*\            - COMP1_INPSEL_PB3                   
 960:../firmware/n32g430_std_periph_driver/src/n32g430_comp.c **** *\*\            - COMP1_INPSEL_PB4                   
 961:../firmware/n32g430_std_periph_driver/src/n32g430_comp.c **** *\*\            - COMP1_INPSEL_PB10                  
 962:../firmware/n32g430_std_periph_driver/src/n32g430_comp.c **** *\*\            - COMP1_INPSEL_PA1                   
 963:../firmware/n32g430_std_periph_driver/src/n32g430_comp.c **** *\*\            - COMP1_INPSEL_FLOAT              
 964:../firmware/n32g430_std_periph_driver/src/n32g430_comp.c **** *\*\             comp2 inp sel 
 965:../firmware/n32g430_std_periph_driver/src/n32g430_comp.c **** *\*\            - COMP2_INPSEL_PA1                   
 966:../firmware/n32g430_std_periph_driver/src/n32g430_comp.c **** *\*\            - COMP2_INPSEL_PA3                  
 967:../firmware/n32g430_std_periph_driver/src/n32g430_comp.c **** *\*\            - COMP2_INPSEL_PA6                  
 968:../firmware/n32g430_std_periph_driver/src/n32g430_comp.c **** *\*\            - COMP2_INPSEL_PA7                  
 969:../firmware/n32g430_std_periph_driver/src/n32g430_comp.c **** *\*\            - COMP2_INPSEL_PA11                
 970:../firmware/n32g430_std_periph_driver/src/n32g430_comp.c **** *\*\            - COMP2_INPSEL_PA15                
 971:../firmware/n32g430_std_periph_driver/src/n32g430_comp.c **** *\*\            - COMP2_INPSEL_PB7                 
 972:../firmware/n32g430_std_periph_driver/src/n32g430_comp.c **** *\*\            - COMP2_INPSEL_FLOAT                               
 973:../firmware/n32g430_std_periph_driver/src/n32g430_comp.c **** *\*\             comp3 inp sel 
 974:../firmware/n32g430_std_periph_driver/src/n32g430_comp.c **** *\*\            - COMP3_INPSEL_PA0               
 975:../firmware/n32g430_std_periph_driver/src/n32g430_comp.c **** *\*\            - COMP3_INPSEL_PB1                   
 976:../firmware/n32g430_std_periph_driver/src/n32g430_comp.c **** *\*\            - COMP3_INPSEL_PB11                  
 977:../firmware/n32g430_std_periph_driver/src/n32g430_comp.c **** *\*\            - COMP3_INPSEL_PB15                  
 978:../firmware/n32g430_std_periph_driver/src/n32g430_comp.c **** *\*\            - COMP3_INPSEL_PB3                   
 979:../firmware/n32g430_std_periph_driver/src/n32g430_comp.c **** *\*\            - COMP3_INPSEL_PB5                   
 980:../firmware/n32g430_std_periph_driver/src/n32g430_comp.c **** *\*\            - COMP3_INPSEL_FLOAT                 
 981:../firmware/n32g430_std_periph_driver/src/n32g430_comp.c **** *\*\            - COMP3_INPSEL_FLOAT                                        
 982:../firmware/n32g430_std_periph_driver/src/n32g430_comp.c **** *\*\          - InmSel
 983:../firmware/n32g430_std_periph_driver/src/n32g430_comp.c **** *\*\             comp1 inm sel 
 984:../firmware/n32g430_std_periph_driver/src/n32g430_comp.c **** *\*\            - COMP1_INMSEL_VREF_VC1              
 985:../firmware/n32g430_std_periph_driver/src/n32g430_comp.c **** *\*\            - COMP1_INMSEL_PA4                   
 986:../firmware/n32g430_std_periph_driver/src/n32g430_comp.c **** *\*\            - COMP1_INMSEL_PA0                   
 987:../firmware/n32g430_std_periph_driver/src/n32g430_comp.c **** *\*\            - COMP1_INMSEL_PA5                   
 988:../firmware/n32g430_std_periph_driver/src/n32g430_comp.c **** *\*\            - COMP1_INMSEL_PB5                   
 989:../firmware/n32g430_std_periph_driver/src/n32g430_comp.c **** *\*\            - COMP1_INMSEL_FLOAT                 
 990:../firmware/n32g430_std_periph_driver/src/n32g430_comp.c **** *\*\            - COMP1_INMSEL_FLOAT                 
 991:../firmware/n32g430_std_periph_driver/src/n32g430_comp.c **** *\*\            - COMP1_INMSEL_FLOAT                            
 992:../firmware/n32g430_std_periph_driver/src/n32g430_comp.c **** *\*\             comp2 inm sel 
 993:../firmware/n32g430_std_periph_driver/src/n32g430_comp.c **** *\*\            - COMP2_INMSEL_VERF_VC2              
 994:../firmware/n32g430_std_periph_driver/src/n32g430_comp.c **** *\*\            - COMP2_INMSEL_PA2                   
 995:../firmware/n32g430_std_periph_driver/src/n32g430_comp.c **** *\*\            - COMP2_INMSEL_PA5                   
 996:../firmware/n32g430_std_periph_driver/src/n32g430_comp.c **** *\*\            - COMP2_INMSEL_PA6                   
 997:../firmware/n32g430_std_periph_driver/src/n32g430_comp.c **** *\*\            - COMP2_INMSEL_PB3                   
 998:../firmware/n32g430_std_periph_driver/src/n32g430_comp.c **** *\*\            - COMP2_INMSEL_PA4                   
 999:../firmware/n32g430_std_periph_driver/src/n32g430_comp.c **** *\*\            - COMP2_INMSEL_FLOAT                 
1000:../firmware/n32g430_std_periph_driver/src/n32g430_comp.c **** *\*\            - COMP2_INMSEL_FLOAT                          
1001:../firmware/n32g430_std_periph_driver/src/n32g430_comp.c **** *\*\             comp3 inm sel 
1002:../firmware/n32g430_std_periph_driver/src/n32g430_comp.c **** *\*\            - COMP3_INMSEL_VREF_VC3           
1003:../firmware/n32g430_std_periph_driver/src/n32g430_comp.c **** *\*\            - COMP3_INMSEL_PA3                 
1004:../firmware/n32g430_std_periph_driver/src/n32g430_comp.c **** *\*\            - COMP3_INMSEL_PB0                  
1005:../firmware/n32g430_std_periph_driver/src/n32g430_comp.c **** *\*\            - COMP3_INMSEL_PB2                
1006:../firmware/n32g430_std_periph_driver/src/n32g430_comp.c **** *\*\            - COMP3_INMSEL_PB14               
1007:../firmware/n32g430_std_periph_driver/src/n32g430_comp.c **** *\*\            - COMP3_INMSEL_FLOAT               
1008:../firmware/n32g430_std_periph_driver/src/n32g430_comp.c **** *\*\            - COMP3_INMSEL_FLOAT                
1009:../firmware/n32g430_std_periph_driver/src/n32g430_comp.c **** *\*\            - COMP3_INMSEL_FLOAT                             
1010:../firmware/n32g430_std_periph_driver/src/n32g430_comp.c **** *\*\          - En
ARM GAS  C:\Users\Dawn\AppData\Local\Temp\ccGZo2O0.s 			page 51


1011:../firmware/n32g430_std_periph_driver/src/n32g430_comp.c **** *\*\            - ENABLE
1012:../firmware/n32g430_std_periph_driver/src/n32g430_comp.c **** *\*\            - DISABLE
1013:../firmware/n32g430_std_periph_driver/src/n32g430_comp.c **** *\*\          - SampWindow
1014:../firmware/n32g430_std_periph_driver/src/n32g430_comp.c **** *\*\            - SampWindow Value ranges from 0~31. 
1015:../firmware/n32g430_std_periph_driver/src/n32g430_comp.c **** *\*\          - Threshold
1016:../firmware/n32g430_std_periph_driver/src/n32g430_comp.c **** *\*\            - Threshold Value need > SampWindow/2.
1017:../firmware/n32g430_std_periph_driver/src/n32g430_comp.c **** *\*\          - FilterEn
1018:../firmware/n32g430_std_periph_driver/src/n32g430_comp.c **** *\*\            - ENABLE
1019:../firmware/n32g430_std_periph_driver/src/n32g430_comp.c **** *\*\            - DISABLE
1020:../firmware/n32g430_std_periph_driver/src/n32g430_comp.c **** *\*\          - ClkPsc
1021:../firmware/n32g430_std_periph_driver/src/n32g430_comp.c **** *\*\            - ClkPsc Value ranges from 0~32767. 
1022:../firmware/n32g430_std_periph_driver/src/n32g430_comp.c **** *\*\return  none
1023:../firmware/n32g430_std_periph_driver/src/n32g430_comp.c **** **/
1024:../firmware/n32g430_std_periph_driver/src/n32g430_comp.c **** void COMP_Initializes(COMPX COMPx, COMP_InitType* COMP_initstruct)
1025:../firmware/n32g430_std_periph_driver/src/n32g430_comp.c **** {
 1738              		.loc 1 1025 1 is_stmt 1 view -0
 1739              		.cfi_startproc
 1740              		@ args = 0, pretend = 0, frame = 0
 1741              		@ frame_needed = 0, uses_anonymous_args = 0
1026:../firmware/n32g430_std_periph_driver/src/n32g430_comp.c ****     /** filter configures **/
1027:../firmware/n32g430_std_periph_driver/src/n32g430_comp.c ****     COMP_Filter_SampWindow_Config(COMPx, COMP_initstruct->SampWindow);
 1742              		.loc 1 1027 5 view .LVU444
1025:../firmware/n32g430_std_periph_driver/src/n32g430_comp.c ****     /** filter configures **/
 1743              		.loc 1 1025 1 is_stmt 0 view .LVU445
 1744 0000 38B5     		push	{r3, r4, r5, lr}
 1745              	.LCFI8:
 1746              		.cfi_def_cfa_offset 16
 1747              		.cfi_offset 3, -16
 1748              		.cfi_offset 4, -12
 1749              		.cfi_offset 5, -8
 1750              		.cfi_offset 14, -4
1025:../firmware/n32g430_std_periph_driver/src/n32g430_comp.c ****     /** filter configures **/
 1751              		.loc 1 1025 1 view .LVU446
 1752 0002 0C46     		mov	r4, r1
 1753              		.loc 1 1027 5 view .LVU447
 1754 0004 097F     		ldrb	r1, [r1, #28]	@ zero_extendqisi2
 1755              	.LVL83:
 1756              		.loc 1 1027 5 view .LVU448
 1757 0006 FFF7FEFF 		bl	COMP_Filter_SampWindow_Config
 1758              	.LVL84:
1028:../firmware/n32g430_std_periph_driver/src/n32g430_comp.c ****     COMP_Filter_Threshold_Config(COMPx, COMP_initstruct->Threshold);
 1759              		.loc 1 1028 5 is_stmt 1 view .LVU449
 1760 000a 617F     		ldrb	r1, [r4, #29]	@ zero_extendqisi2
 1761 000c FFF7FEFF 		bl	COMP_Filter_Threshold_Config
 1762              	.LVL85:
1029:../firmware/n32g430_std_periph_driver/src/n32g430_comp.c ****     if(COMP_initstruct->FilterEn == ENABLE)
 1763              		.loc 1 1029 5 view .LVU450
 1764              		.loc 1 1029 7 is_stmt 0 view .LVU451
 1765 0010 A37F     		ldrb	r3, [r4, #30]	@ zero_extendqisi2
 1766 0012 012B     		cmp	r3, #1
1025:../firmware/n32g430_std_periph_driver/src/n32g430_comp.c ****     /** filter configures **/
 1767              		.loc 1 1025 1 view .LVU452
 1768 0014 0546     		mov	r5, r0
 1769              		.loc 1 1029 7 view .LVU453
 1770 0016 1ED1     		bne	.L127
1030:../firmware/n32g430_std_periph_driver/src/n32g430_comp.c ****     {
1031:../firmware/n32g430_std_periph_driver/src/n32g430_comp.c ****         COMP_Filter_Enable(COMPx);
ARM GAS  C:\Users\Dawn\AppData\Local\Temp\ccGZo2O0.s 			page 52


 1771              		.loc 1 1031 9 is_stmt 1 view .LVU454
 1772 0018 FFF7FEFF 		bl	COMP_Filter_Enable
 1773              	.LVL86:
 1774              	.L128:
1032:../firmware/n32g430_std_periph_driver/src/n32g430_comp.c ****     }   
1033:../firmware/n32g430_std_periph_driver/src/n32g430_comp.c ****     else
1034:../firmware/n32g430_std_periph_driver/src/n32g430_comp.c ****     {
1035:../firmware/n32g430_std_periph_driver/src/n32g430_comp.c ****         COMP_Filter_Disable(COMPx);
1036:../firmware/n32g430_std_periph_driver/src/n32g430_comp.c ****     }
1037:../firmware/n32g430_std_periph_driver/src/n32g430_comp.c ****     /** filter clock Prescale configures **/
1038:../firmware/n32g430_std_periph_driver/src/n32g430_comp.c ****     COMP_Filter_Clock_Prescale_Config(COMPx, COMP_initstruct->ClkPsc);
 1775              		.loc 1 1038 5 view .LVU455
 1776 001c 2846     		mov	r0, r5
 1777              	.LVL87:
 1778              		.loc 1 1038 5 is_stmt 0 view .LVU456
 1779 001e 218C     		ldrh	r1, [r4, #32]
 1780 0020 FFF7FEFF 		bl	COMP_Filter_Clock_Prescale_Config
 1781              	.LVL88:
1039:../firmware/n32g430_std_periph_driver/src/n32g430_comp.c ****     
1040:../firmware/n32g430_std_periph_driver/src/n32g430_comp.c ****     /** ctrl configures**/
1041:../firmware/n32g430_std_periph_driver/src/n32g430_comp.c ****     COMP_Blking_Soucre_Config(COMPx, COMP_initstruct->Blking);
 1782              		.loc 1 1041 5 is_stmt 1 view .LVU457
 1783 0024 2168     		ldr	r1, [r4]
 1784 0026 FFF7FEFF 		bl	COMP_Blking_Soucre_Config
 1785              	.LVL89:
1042:../firmware/n32g430_std_periph_driver/src/n32g430_comp.c ****     COMP_Hysteresis_Level_Config(COMPx, COMP_initstruct->Hyst);
 1786              		.loc 1 1042 5 view .LVU458
 1787 002a 6168     		ldr	r1, [r4, #4]
 1788 002c FFF7FEFF 		bl	COMP_Hysteresis_Level_Config
 1789              	.LVL90:
1043:../firmware/n32g430_std_periph_driver/src/n32g430_comp.c ****     COMP_Output_Polarity_Config(COMPx, COMP_initstruct->PolRev);
 1790              		.loc 1 1043 5 view .LVU459
 1791 0030 A168     		ldr	r1, [r4, #8]
 1792 0032 FFF7FEFF 		bl	COMP_Output_Polarity_Config
 1793              	.LVL91:
1044:../firmware/n32g430_std_periph_driver/src/n32g430_comp.c ****     COMP_InpSel_Config(COMPx, COMP_initstruct->InpSel);
 1794              		.loc 1 1044 5 view .LVU460
 1795 0036 2169     		ldr	r1, [r4, #16]
 1796 0038 FFF7FEFF 		bl	COMP_InpSel_Config
 1797              	.LVL92:
1045:../firmware/n32g430_std_periph_driver/src/n32g430_comp.c ****     COMP_InmSel_Config(COMPx, COMP_initstruct->InmSel);
 1798              		.loc 1 1045 5 view .LVU461
 1799 003c 6169     		ldr	r1, [r4, #20]
 1800 003e FFF7FEFF 		bl	COMP_InmSel_Config
 1801              	.LVL93:
1046:../firmware/n32g430_std_periph_driver/src/n32g430_comp.c ****     COMP_Output_Trigger_Config(COMPx, COMP_initstruct->OutSel);
 1802              		.loc 1 1046 5 view .LVU462
 1803 0042 E168     		ldr	r1, [r4, #12]
 1804 0044 FFF7FEFF 		bl	COMP_Output_Trigger_Config
 1805              	.LVL94:
1047:../firmware/n32g430_std_periph_driver/src/n32g430_comp.c **** 
1048:../firmware/n32g430_std_periph_driver/src/n32g430_comp.c ****     /** comp enable or disable configures*/
1049:../firmware/n32g430_std_periph_driver/src/n32g430_comp.c ****     if (COMP_initstruct->En == ENABLE)
 1806              		.loc 1 1049 5 view .LVU463
 1807              		.loc 1 1049 8 is_stmt 0 view .LVU464
 1808 0048 A369     		ldr	r3, [r4, #24]
 1809 004a 012B     		cmp	r3, #1
ARM GAS  C:\Users\Dawn\AppData\Local\Temp\ccGZo2O0.s 			page 53


 1810 004c 06D1     		bne	.L129
 1811              	.LVL95:
1050:../firmware/n32g430_std_periph_driver/src/n32g430_comp.c ****         COMP_ON(COMPx);
 1812              		.loc 1 1050 9 is_stmt 1 view .LVU465
1051:../firmware/n32g430_std_periph_driver/src/n32g430_comp.c ****     else
1052:../firmware/n32g430_std_periph_driver/src/n32g430_comp.c ****         COMP_OFF(COMPx);
1053:../firmware/n32g430_std_periph_driver/src/n32g430_comp.c **** }
 1813              		.loc 1 1053 1 is_stmt 0 view .LVU466
 1814 004e BDE83840 		pop	{r3, r4, r5, lr}
 1815              	.LCFI9:
 1816              		.cfi_remember_state
 1817              		.cfi_restore 14
 1818              		.cfi_restore 5
 1819              		.cfi_restore 4
 1820              		.cfi_restore 3
 1821              		.cfi_def_cfa_offset 0
 1822              	.LVL96:
1050:../firmware/n32g430_std_periph_driver/src/n32g430_comp.c ****         COMP_ON(COMPx);
 1823              		.loc 1 1050 9 view .LVU467
 1824 0052 FFF7FEBF 		b	COMP_ON
 1825              	.LVL97:
 1826              	.L127:
 1827              	.LCFI10:
 1828              		.cfi_restore_state
1035:../firmware/n32g430_std_periph_driver/src/n32g430_comp.c ****     }
 1829              		.loc 1 1035 9 is_stmt 1 view .LVU468
 1830 0056 FFF7FEFF 		bl	COMP_Filter_Disable
 1831              	.LVL98:
 1832 005a DFE7     		b	.L128
 1833              	.L129:
1052:../firmware/n32g430_std_periph_driver/src/n32g430_comp.c **** }
 1834              		.loc 1 1052 9 view .LVU469
 1835              		.loc 1 1053 1 is_stmt 0 view .LVU470
 1836 005c BDE83840 		pop	{r3, r4, r5, lr}
 1837              	.LCFI11:
 1838              		.cfi_restore 14
 1839              		.cfi_restore 5
 1840              		.cfi_restore 4
 1841              		.cfi_restore 3
 1842              		.cfi_def_cfa_offset 0
 1843              	.LVL99:
1052:../firmware/n32g430_std_periph_driver/src/n32g430_comp.c **** }
 1844              		.loc 1 1052 9 view .LVU471
 1845 0060 FFF7FEBF 		b	COMP_OFF
 1846              	.LVL100:
 1847              		.cfi_endproc
 1848              	.LFE159:
 1850              		.text
 1851              	.Letext0:
 1852              		.file 2 "D:/Tool/arm-gnu-toolchain/arm-none-eabi/include/machine/_default_types.h"
 1853              		.file 3 "D:/Tool/arm-gnu-toolchain/arm-none-eabi/include/sys/_stdint.h"
 1854              		.file 4 "../firmware/CMSIS/device/n32g430.h"
 1855              		.file 5 "../firmware/n32g430_std_periph_driver/inc/n32g430_comp.h"
 1856              		.file 6 "../firmware/n32g430_std_periph_driver/inc/n32g430_rcc.h"
ARM GAS  C:\Users\Dawn\AppData\Local\Temp\ccGZo2O0.s 			page 54

