ARM GAS  C:\Users\Dawn\AppData\Local\Temp\ccAGizNf.s 			page 1


   1              		.cpu cortex-m4
   2              		.arch armv7e-m
   3              		.fpu fpv4-sp-d16
   4              		.eabi_attribute 27, 1
   5              		.eabi_attribute 28, 1
   6              		.eabi_attribute 20, 1
   7              		.eabi_attribute 21, 1
   8              		.eabi_attribute 23, 3
   9              		.eabi_attribute 24, 1
  10              		.eabi_attribute 25, 1
  11              		.eabi_attribute 26, 1
  12              		.eabi_attribute 30, 4
  13              		.eabi_attribute 34, 1
  14              		.eabi_attribute 18, 4
  15              		.file	"n32g430_adc.c"
  16              		.text
  17              	.Ltext0:
  18              		.cfi_sections	.debug_frame
  19              		.file 1 "../firmware/n32g430_std_periph_driver/src/n32g430_adc.c"
  20              		.section	.text.ADC_Vrefint_Get,"ax",%progbits
  21              		.align	1
  22              		.global	ADC_Vrefint_Get
  23              		.syntax unified
  24              		.thumb
  25              		.thumb_func
  27              	ADC_Vrefint_Get:
  28              	.LFB130:
   1:../firmware/n32g430_std_periph_driver/src/n32g430_adc.c **** /*****************************************************************************
   2:../firmware/n32g430_std_periph_driver/src/n32g430_adc.c ****  * Copyright (c) 2019, Nations Technologies Inc.
   3:../firmware/n32g430_std_periph_driver/src/n32g430_adc.c ****  *
   4:../firmware/n32g430_std_periph_driver/src/n32g430_adc.c ****  * All rights reserved.
   5:../firmware/n32g430_std_periph_driver/src/n32g430_adc.c ****  * ****************************************************************************
   6:../firmware/n32g430_std_periph_driver/src/n32g430_adc.c ****  *
   7:../firmware/n32g430_std_periph_driver/src/n32g430_adc.c ****  * Redistribution and use in source and binary forms, with or without
   8:../firmware/n32g430_std_periph_driver/src/n32g430_adc.c ****  * modification, are permitted provided that the following conditions are met:
   9:../firmware/n32g430_std_periph_driver/src/n32g430_adc.c ****  *
  10:../firmware/n32g430_std_periph_driver/src/n32g430_adc.c ****  * - Redistributions of source code must retain the above copyright notice,
  11:../firmware/n32g430_std_periph_driver/src/n32g430_adc.c ****  * this list of conditions and the disclaimer below.
  12:../firmware/n32g430_std_periph_driver/src/n32g430_adc.c ****  *
  13:../firmware/n32g430_std_periph_driver/src/n32g430_adc.c ****  * Nations' name may not be used to endorse or promote products derived from
  14:../firmware/n32g430_std_periph_driver/src/n32g430_adc.c ****  * this software without specific prior written permission.
  15:../firmware/n32g430_std_periph_driver/src/n32g430_adc.c ****  *
  16:../firmware/n32g430_std_periph_driver/src/n32g430_adc.c ****  * DISCLAIMER: THIS SOFTWARE IS PROVIDED BY NATIONS "AS IS" AND ANY EXPRESS OR
  17:../firmware/n32g430_std_periph_driver/src/n32g430_adc.c ****  * IMPLIED WARRANTIES, INCLUDING, BUT NOT LIMITED TO, THE IMPLIED WARRANTIES OF
  18:../firmware/n32g430_std_periph_driver/src/n32g430_adc.c ****  * MERCHANTABILITY, FITNESS FOR A PARTICULAR PURPOSE AND NON-INFRINGEMENT ARE
  19:../firmware/n32g430_std_periph_driver/src/n32g430_adc.c ****  * DISCLAIMED. IN NO EVENT SHALL NATIONS BE LIABLE FOR ANY DIRECT, INDIRECT,
  20:../firmware/n32g430_std_periph_driver/src/n32g430_adc.c ****  * INCIDENTAL, SPECIAL, EXEMPLARY, OR CONSEQUENTIAL DAMAGES (INCLUDING, BUT NOT
  21:../firmware/n32g430_std_periph_driver/src/n32g430_adc.c ****  * LIMITED TO, PROCUREMENT OF SUBSTITUTE GOODS OR SERVICES; LOSS OF USE, DATA,
  22:../firmware/n32g430_std_periph_driver/src/n32g430_adc.c ****  * OR PROFITS; OR BUSINESS INTERRUPTION) HOWEVER CAUSED AND ON ANY THEORY OF
  23:../firmware/n32g430_std_periph_driver/src/n32g430_adc.c ****  * LIABILITY, WHETHER IN CONTRACT, STRICT LIABILITY, OR TORT (INCLUDING
  24:../firmware/n32g430_std_periph_driver/src/n32g430_adc.c ****  * NEGLIGENCE OR OTHERWISE) ARISING IN ANY WAY OUT OF THE USE OF THIS SOFTWARE,
  25:../firmware/n32g430_std_periph_driver/src/n32g430_adc.c ****  * EVEN IF ADVISED OF THE POSSIBILITY OF SUCH DAMAGE.
  26:../firmware/n32g430_std_periph_driver/src/n32g430_adc.c ****  * ****************************************************************************/
  27:../firmware/n32g430_std_periph_driver/src/n32g430_adc.c **** 
  28:../firmware/n32g430_std_periph_driver/src/n32g430_adc.c **** /**
  29:../firmware/n32g430_std_periph_driver/src/n32g430_adc.c **** *\*\file n32g430_adc.c
  30:../firmware/n32g430_std_periph_driver/src/n32g430_adc.c **** *\*\author Nations
ARM GAS  C:\Users\Dawn\AppData\Local\Temp\ccAGizNf.s 			page 2


  31:../firmware/n32g430_std_periph_driver/src/n32g430_adc.c **** *\*\version v1.0.0
  32:../firmware/n32g430_std_periph_driver/src/n32g430_adc.c **** *\*\copyright Copyright (c) 2019, Nations Technologies Inc. All rights reserved.
  33:../firmware/n32g430_std_periph_driver/src/n32g430_adc.c **** **/
  34:../firmware/n32g430_std_periph_driver/src/n32g430_adc.c **** 
  35:../firmware/n32g430_std_periph_driver/src/n32g430_adc.c **** #include "n32g430_adc.h"
  36:../firmware/n32g430_std_periph_driver/src/n32g430_adc.c **** #include "n32g430_rcc.h"
  37:../firmware/n32g430_std_periph_driver/src/n32g430_adc.c **** 
  38:../firmware/n32g430_std_periph_driver/src/n32g430_adc.c **** /** ADC Private Defines**/
  39:../firmware/n32g430_std_periph_driver/src/n32g430_adc.c **** 
  40:../firmware/n32g430_std_periph_driver/src/n32g430_adc.c **** /** API interface function definition**/
  41:../firmware/n32g430_std_periph_driver/src/n32g430_adc.c **** uint32_t vrefint_value; 
  42:../firmware/n32g430_std_periph_driver/src/n32g430_adc.c **** typedef enum
  43:../firmware/n32g430_std_periph_driver/src/n32g430_adc.c **** {
  44:../firmware/n32g430_std_periph_driver/src/n32g430_adc.c ****     CMD_CR_SUCCESS  = 0x00,
  45:../firmware/n32g430_std_periph_driver/src/n32g430_adc.c ****     CMD_CR_FAILED   = 0x01,
  46:../firmware/n32g430_std_periph_driver/src/n32g430_adc.c **** }CMD_RETURN_CR;
  47:../firmware/n32g430_std_periph_driver/src/n32g430_adc.c **** 
  48:../firmware/n32g430_std_periph_driver/src/n32g430_adc.c **** CMD_RETURN_CR (*Program_NVR)(uint32_t addr, uint32_t  data) = (CMD_RETURN_CR (*)(uint32_t ,uint32_t
  49:../firmware/n32g430_std_periph_driver/src/n32g430_adc.c **** CMD_RETURN_CR     (*Get_NVR)(uint32_t addr, uint32_t* data) = (CMD_RETURN_CR (*)(uint32_t ,uint32_t
  50:../firmware/n32g430_std_periph_driver/src/n32g430_adc.c **** 
  51:../firmware/n32g430_std_periph_driver/src/n32g430_adc.c **** /**
  52:../firmware/n32g430_std_periph_driver/src/n32g430_adc.c **** *\*\name    ADC_Vrefint_Get.
  53:../firmware/n32g430_std_periph_driver/src/n32g430_adc.c **** *\*\fun     Return the Verfint value of NVR.
  54:../firmware/n32g430_std_periph_driver/src/n32g430_adc.c **** *\*\param   vrefint_value
  55:../firmware/n32g430_std_periph_driver/src/n32g430_adc.c **** *\*\return  vrefint_value
  56:../firmware/n32g430_std_periph_driver/src/n32g430_adc.c **** **/
  57:../firmware/n32g430_std_periph_driver/src/n32g430_adc.c **** uint32_t ADC_Vrefint_Get(void)
  58:../firmware/n32g430_std_periph_driver/src/n32g430_adc.c **** {
  29              		.loc 1 58 1 view -0
  30              		.cfi_startproc
  31              		@ args = 0, pretend = 0, frame = 0
  32              		@ frame_needed = 0, uses_anonymous_args = 0
  59:../firmware/n32g430_std_periph_driver/src/n32g430_adc.c ****   Get_NVR(0x1FFFF620, &vrefint_value);
  33              		.loc 1 59 3 view .LVU1
  58:../firmware/n32g430_std_periph_driver/src/n32g430_adc.c ****   Get_NVR(0x1FFFF620, &vrefint_value);
  34              		.loc 1 58 1 is_stmt 0 view .LVU2
  35 0000 38B5     		push	{r3, r4, r5, lr}
  36              	.LCFI0:
  37              		.cfi_def_cfa_offset 16
  38              		.cfi_offset 3, -16
  39              		.cfi_offset 4, -12
  40              		.cfi_offset 5, -8
  41              		.cfi_offset 14, -4
  42              		.loc 1 59 3 view .LVU3
  43 0002 074C     		ldr	r4, .L3
  44 0004 074D     		ldr	r5, .L3+4
  45 0006 0848     		ldr	r0, .L3+8
  46 0008 2B68     		ldr	r3, [r5]
  47 000a 2146     		mov	r1, r4
  48 000c 9847     		blx	r3
  49              	.LVL0:
  60:../firmware/n32g430_std_periph_driver/src/n32g430_adc.c **** 	if(vrefint_value == 0xFFFFFFFF)
  50              		.loc 1 60 2 is_stmt 1 view .LVU4
  51              		.loc 1 60 19 is_stmt 0 view .LVU5
  52 000e 2068     		ldr	r0, [r4]
  53              		.loc 1 60 4 view .LVU6
  54 0010 431C     		adds	r3, r0, #1
ARM GAS  C:\Users\Dawn\AppData\Local\Temp\ccAGizNf.s 			page 3


  55 0012 04D1     		bne	.L1
  61:../firmware/n32g430_std_periph_driver/src/n32g430_adc.c **** 	{
  62:../firmware/n32g430_std_periph_driver/src/n32g430_adc.c **** 		Get_NVR(0x1FFFF268, &vrefint_value);
  56              		.loc 1 62 3 is_stmt 1 view .LVU7
  57 0014 2B68     		ldr	r3, [r5]
  58 0016 0548     		ldr	r0, .L3+12
  59 0018 2146     		mov	r1, r4
  60 001a 9847     		blx	r3
  61              	.LVL1:
  63:../firmware/n32g430_std_periph_driver/src/n32g430_adc.c **** 		return vrefint_value;
  62              		.loc 1 63 3 view .LVU8
  63              		.loc 1 63 10 is_stmt 0 view .LVU9
  64 001c 2068     		ldr	r0, [r4]
  65              	.L1:
  64:../firmware/n32g430_std_periph_driver/src/n32g430_adc.c **** 	}
  65:../firmware/n32g430_std_periph_driver/src/n32g430_adc.c **** 	else
  66:../firmware/n32g430_std_periph_driver/src/n32g430_adc.c **** 	{
  67:../firmware/n32g430_std_periph_driver/src/n32g430_adc.c **** 	    return vrefint_value;
  68:../firmware/n32g430_std_periph_driver/src/n32g430_adc.c **** 	}
  69:../firmware/n32g430_std_periph_driver/src/n32g430_adc.c **** 
  70:../firmware/n32g430_std_periph_driver/src/n32g430_adc.c **** }
  66              		.loc 1 70 1 view .LVU10
  67 001e 38BD     		pop	{r3, r4, r5, pc}
  68              	.L4:
  69              		.align	2
  70              	.L3:
  71 0020 00000000 		.word	vrefint_value
  72 0024 00000000 		.word	Get_NVR
  73 0028 20F6FF1F 		.word	536868384
  74 002c 68F2FF1F 		.word	536867432
  75              		.cfi_endproc
  76              	.LFE130:
  78              		.section	.text.ADC_Reset,"ax",%progbits
  79              		.align	1
  80              		.global	ADC_Reset
  81              		.syntax unified
  82              		.thumb
  83              		.thumb_func
  85              	ADC_Reset:
  86              	.LFB131:
  71:../firmware/n32g430_std_periph_driver/src/n32g430_adc.c **** 
  72:../firmware/n32g430_std_periph_driver/src/n32g430_adc.c **** /** ADC Driving Functions Declaration**/
  73:../firmware/n32g430_std_periph_driver/src/n32g430_adc.c **** 
  74:../firmware/n32g430_std_periph_driver/src/n32g430_adc.c **** /**
  75:../firmware/n32g430_std_periph_driver/src/n32g430_adc.c **** *\*\name    ADC_Reset.
  76:../firmware/n32g430_std_periph_driver/src/n32g430_adc.c **** *\*\fun     Reset the ADC registers.
  77:../firmware/n32g430_std_periph_driver/src/n32g430_adc.c **** *\*\return  none
  78:../firmware/n32g430_std_periph_driver/src/n32g430_adc.c **** **/
  79:../firmware/n32g430_std_periph_driver/src/n32g430_adc.c **** void ADC_Reset(void)
  80:../firmware/n32g430_std_periph_driver/src/n32g430_adc.c **** {
  87              		.loc 1 80 1 is_stmt 1 view -0
  88              		.cfi_startproc
  89              		@ args = 0, pretend = 0, frame = 0
  90              		@ frame_needed = 0, uses_anonymous_args = 0
  91              		@ link register save eliminated.
  81:../firmware/n32g430_std_periph_driver/src/n32g430_adc.c ****     RCC_AHB_Peripheral_Reset(RCC_AHB_PERIPH_ADC);
  92              		.loc 1 81 5 view .LVU12
ARM GAS  C:\Users\Dawn\AppData\Local\Temp\ccAGizNf.s 			page 4


  93 0000 4FF48050 		mov	r0, #4096
  94 0004 FFF7FEBF 		b	RCC_AHB_Peripheral_Reset
  95              	.LVL2:
  96              		.cfi_endproc
  97              	.LFE131:
  99              		.section	.text.ADC_Multichannels_Enable,"ax",%progbits
 100              		.align	1
 101              		.global	ADC_Multichannels_Enable
 102              		.syntax unified
 103              		.thumb
 104              		.thumb_func
 106              	ADC_Multichannels_Enable:
 107              	.LFB132:
  82:../firmware/n32g430_std_periph_driver/src/n32g430_adc.c **** }
  83:../firmware/n32g430_std_periph_driver/src/n32g430_adc.c **** 
  84:../firmware/n32g430_std_periph_driver/src/n32g430_adc.c **** /**
  85:../firmware/n32g430_std_periph_driver/src/n32g430_adc.c **** *\*\name    ADC_Multichannels_Enable.
  86:../firmware/n32g430_std_periph_driver/src/n32g430_adc.c **** *\*\fun     Configures the ADC according conversion is performed in
  87:../firmware/n32g430_std_periph_driver/src/n32g430_adc.c **** *\*\        Scan (multichannels) mode.
  88:../firmware/n32g430_std_periph_driver/src/n32g430_adc.c **** *\*\return  none
  89:../firmware/n32g430_std_periph_driver/src/n32g430_adc.c **** **/
  90:../firmware/n32g430_std_periph_driver/src/n32g430_adc.c **** void ADC_Multichannels_Enable(void)
  91:../firmware/n32g430_std_periph_driver/src/n32g430_adc.c **** {
 108              		.loc 1 91 1 view -0
 109              		.cfi_startproc
 110              		@ args = 0, pretend = 0, frame = 0
 111              		@ frame_needed = 0, uses_anonymous_args = 0
 112              		@ link register save eliminated.
  92:../firmware/n32g430_std_periph_driver/src/n32g430_adc.c ****     /* Set ADC_CTRL1 SCANMD bit */
  93:../firmware/n32g430_std_periph_driver/src/n32g430_adc.c ****     ADC->CTRL1 |= ADC_MULTCH_ENABLE;
 113              		.loc 1 93 5 view .LVU14
 114              		.loc 1 93 8 is_stmt 0 view .LVU15
 115 0000 024A     		ldr	r2, .L7
 116 0002 5368     		ldr	r3, [r2, #4]
 117              		.loc 1 93 16 view .LVU16
 118 0004 43F48073 		orr	r3, r3, #256
 119 0008 5360     		str	r3, [r2, #4]
  94:../firmware/n32g430_std_periph_driver/src/n32g430_adc.c **** }
 120              		.loc 1 94 1 view .LVU17
 121 000a 7047     		bx	lr
 122              	.L8:
 123              		.align	2
 124              	.L7:
 125 000c 00080240 		.word	1073874944
 126              		.cfi_endproc
 127              	.LFE132:
 129              		.section	.text.ADC_Multichannels_Disable,"ax",%progbits
 130              		.align	1
 131              		.global	ADC_Multichannels_Disable
 132              		.syntax unified
 133              		.thumb
 134              		.thumb_func
 136              	ADC_Multichannels_Disable:
 137              	.LFB133:
  95:../firmware/n32g430_std_periph_driver/src/n32g430_adc.c **** 
  96:../firmware/n32g430_std_periph_driver/src/n32g430_adc.c **** /**
  97:../firmware/n32g430_std_periph_driver/src/n32g430_adc.c **** *\*\name    ADC_Multichannels_Disable.
ARM GAS  C:\Users\Dawn\AppData\Local\Temp\ccAGizNf.s 			page 5


  98:../firmware/n32g430_std_periph_driver/src/n32g430_adc.c **** *\*\fun     Configures the ADC according conversion is performed in
  99:../firmware/n32g430_std_periph_driver/src/n32g430_adc.c **** *\*\        Single (one channel) mode.
 100:../firmware/n32g430_std_periph_driver/src/n32g430_adc.c **** *\*\return  none
 101:../firmware/n32g430_std_periph_driver/src/n32g430_adc.c **** **/
 102:../firmware/n32g430_std_periph_driver/src/n32g430_adc.c **** void ADC_Multichannels_Disable(void)
 103:../firmware/n32g430_std_periph_driver/src/n32g430_adc.c **** {
 138              		.loc 1 103 1 is_stmt 1 view -0
 139              		.cfi_startproc
 140              		@ args = 0, pretend = 0, frame = 0
 141              		@ frame_needed = 0, uses_anonymous_args = 0
 142              		@ link register save eliminated.
 104:../firmware/n32g430_std_periph_driver/src/n32g430_adc.c ****     /* Clear ADC_CTRL1 SCANMD bit */
 105:../firmware/n32g430_std_periph_driver/src/n32g430_adc.c ****     ADC->CTRL1 &= ADC_MULTCH_DISABLE;
 143              		.loc 1 105 5 view .LVU19
 144              		.loc 1 105 8 is_stmt 0 view .LVU20
 145 0000 024A     		ldr	r2, .L10
 146 0002 5368     		ldr	r3, [r2, #4]
 147              		.loc 1 105 16 view .LVU21
 148 0004 23F48073 		bic	r3, r3, #256
 149 0008 5360     		str	r3, [r2, #4]
 106:../firmware/n32g430_std_periph_driver/src/n32g430_adc.c **** }
 150              		.loc 1 106 1 view .LVU22
 151 000a 7047     		bx	lr
 152              	.L11:
 153              		.align	2
 154              	.L10:
 155 000c 00080240 		.word	1073874944
 156              		.cfi_endproc
 157              	.LFE133:
 159              		.section	.text.ADC_Continue_Conversion_Enable,"ax",%progbits
 160              		.align	1
 161              		.global	ADC_Continue_Conversion_Enable
 162              		.syntax unified
 163              		.thumb
 164              		.thumb_func
 166              	ADC_Continue_Conversion_Enable:
 167              	.LFB134:
 107:../firmware/n32g430_std_periph_driver/src/n32g430_adc.c **** 
 108:../firmware/n32g430_std_periph_driver/src/n32g430_adc.c **** /**
 109:../firmware/n32g430_std_periph_driver/src/n32g430_adc.c **** *\*\name    ADC_Continue_Conversion_Enable.
 110:../firmware/n32g430_std_periph_driver/src/n32g430_adc.c **** *\*\fun     Configures the ADC according conversion is performed in
 111:../firmware/n32g430_std_periph_driver/src/n32g430_adc.c **** *\*\        Continuous mode.
 112:../firmware/n32g430_std_periph_driver/src/n32g430_adc.c **** *\*\return  none
 113:../firmware/n32g430_std_periph_driver/src/n32g430_adc.c **** **/
 114:../firmware/n32g430_std_periph_driver/src/n32g430_adc.c **** void ADC_Continue_Conversion_Enable(void)
 115:../firmware/n32g430_std_periph_driver/src/n32g430_adc.c **** {
 168              		.loc 1 115 1 is_stmt 1 view -0
 169              		.cfi_startproc
 170              		@ args = 0, pretend = 0, frame = 0
 171              		@ frame_needed = 0, uses_anonymous_args = 0
 172              		@ link register save eliminated.
 116:../firmware/n32g430_std_periph_driver/src/n32g430_adc.c ****     /* Set ADC_CTRL2 CTU bit */
 117:../firmware/n32g430_std_periph_driver/src/n32g430_adc.c ****     ADC->CTRL2 |= ADC_CTU_ENABLE;
 173              		.loc 1 117 5 view .LVU24
 174              		.loc 1 117 8 is_stmt 0 view .LVU25
 175 0000 024A     		ldr	r2, .L13
 176 0002 9368     		ldr	r3, [r2, #8]
ARM GAS  C:\Users\Dawn\AppData\Local\Temp\ccAGizNf.s 			page 6


 177              		.loc 1 117 16 view .LVU26
 178 0004 43F00203 		orr	r3, r3, #2
 179 0008 9360     		str	r3, [r2, #8]
 118:../firmware/n32g430_std_periph_driver/src/n32g430_adc.c **** }
 180              		.loc 1 118 1 view .LVU27
 181 000a 7047     		bx	lr
 182              	.L14:
 183              		.align	2
 184              	.L13:
 185 000c 00080240 		.word	1073874944
 186              		.cfi_endproc
 187              	.LFE134:
 189              		.section	.text.ADC_Continue_Conversion_Disable,"ax",%progbits
 190              		.align	1
 191              		.global	ADC_Continue_Conversion_Disable
 192              		.syntax unified
 193              		.thumb
 194              		.thumb_func
 196              	ADC_Continue_Conversion_Disable:
 197              	.LFB135:
 119:../firmware/n32g430_std_periph_driver/src/n32g430_adc.c **** 
 120:../firmware/n32g430_std_periph_driver/src/n32g430_adc.c **** /**
 121:../firmware/n32g430_std_periph_driver/src/n32g430_adc.c **** *\*\name    ADC_Continue_Conversion_Disable.
 122:../firmware/n32g430_std_periph_driver/src/n32g430_adc.c **** *\*\fun     Configures the ADC according conversion is performed in
 123:../firmware/n32g430_std_periph_driver/src/n32g430_adc.c **** *\*\        Single mode.
 124:../firmware/n32g430_std_periph_driver/src/n32g430_adc.c **** *\*\return  none
 125:../firmware/n32g430_std_periph_driver/src/n32g430_adc.c **** **/
 126:../firmware/n32g430_std_periph_driver/src/n32g430_adc.c **** void ADC_Continue_Conversion_Disable(void)
 127:../firmware/n32g430_std_periph_driver/src/n32g430_adc.c **** {
 198              		.loc 1 127 1 is_stmt 1 view -0
 199              		.cfi_startproc
 200              		@ args = 0, pretend = 0, frame = 0
 201              		@ frame_needed = 0, uses_anonymous_args = 0
 202              		@ link register save eliminated.
 128:../firmware/n32g430_std_periph_driver/src/n32g430_adc.c ****     /* Clear ADC_CTRL2 CTU bit */
 129:../firmware/n32g430_std_periph_driver/src/n32g430_adc.c ****     ADC->CTRL2 &= ADC_CTU_DISABLE;
 203              		.loc 1 129 5 view .LVU29
 204              		.loc 1 129 8 is_stmt 0 view .LVU30
 205 0000 024A     		ldr	r2, .L16
 206 0002 9368     		ldr	r3, [r2, #8]
 207              		.loc 1 129 16 view .LVU31
 208 0004 23F00203 		bic	r3, r3, #2
 209 0008 9360     		str	r3, [r2, #8]
 130:../firmware/n32g430_std_periph_driver/src/n32g430_adc.c **** }
 210              		.loc 1 130 1 view .LVU32
 211 000a 7047     		bx	lr
 212              	.L17:
 213              		.align	2
 214              	.L16:
 215 000c 00080240 		.word	1073874944
 216              		.cfi_endproc
 217              	.LFE135:
 219              		.section	.text.ADC_Regular_Group_External_Trigger_Source_Config,"ax",%progbits
 220              		.align	1
 221              		.global	ADC_Regular_Group_External_Trigger_Source_Config
 222              		.syntax unified
 223              		.thumb
ARM GAS  C:\Users\Dawn\AppData\Local\Temp\ccAGizNf.s 			page 7


 224              		.thumb_func
 226              	ADC_Regular_Group_External_Trigger_Source_Config:
 227              	.LVL3:
 228              	.LFB136:
 131:../firmware/n32g430_std_periph_driver/src/n32g430_adc.c **** 
 132:../firmware/n32g430_std_periph_driver/src/n32g430_adc.c **** /**
 133:../firmware/n32g430_std_periph_driver/src/n32g430_adc.c **** *\*\name    ADC_Regular_Group_External_Trigger_Source_Config.
 134:../firmware/n32g430_std_periph_driver/src/n32g430_adc.c **** *\*\fun     Configures the ADC external trigger source for regular group channels.
 135:../firmware/n32g430_std_periph_driver/src/n32g430_adc.c **** *\*\param   external_trigger_sources :
 136:../firmware/n32g430_std_periph_driver/src/n32g430_adc.c **** *\*\          - ADC_EXT_TRIGCONV_REGULAR_T1_CC1                
 137:../firmware/n32g430_std_periph_driver/src/n32g430_adc.c **** *\*\          - ADC_EXT_TRIGCONV_REGULAR_T1_CC2                
 138:../firmware/n32g430_std_periph_driver/src/n32g430_adc.c **** *\*\          - ADC_EXT_TRIGCONV_REGULAR_T1_CC3                
 139:../firmware/n32g430_std_periph_driver/src/n32g430_adc.c **** *\*\          - ADC_EXT_TRIGCONV_REGULAR_T2_CC2                
 140:../firmware/n32g430_std_periph_driver/src/n32g430_adc.c **** *\*\          - ADC_EXT_TRIGCONV_REGULAR_T3_TRGO               
 141:../firmware/n32g430_std_periph_driver/src/n32g430_adc.c **** *\*\          - ADC_EXT_TRIGCONV_REGULAR_T4_CC4                
 142:../firmware/n32g430_std_periph_driver/src/n32g430_adc.c **** *\*\          - ADC_EXT_TRIGCONV_REGULAR_EXT_INT11_TIM8_TRGO   
 143:../firmware/n32g430_std_periph_driver/src/n32g430_adc.c **** *\*\          - ADC_EXT_TRIGCONV_REGULAR_SWSTRRCH              
 144:../firmware/n32g430_std_periph_driver/src/n32g430_adc.c **** *\*\return  none
 145:../firmware/n32g430_std_periph_driver/src/n32g430_adc.c **** **/
 146:../firmware/n32g430_std_periph_driver/src/n32g430_adc.c **** void ADC_Regular_Group_External_Trigger_Source_Config(uint32_t external_trigger_sources)
 147:../firmware/n32g430_std_periph_driver/src/n32g430_adc.c **** {
 229              		.loc 1 147 1 is_stmt 1 view -0
 230              		.cfi_startproc
 231              		@ args = 0, pretend = 0, frame = 0
 232              		@ frame_needed = 0, uses_anonymous_args = 0
 233              		@ link register save eliminated.
 148:../firmware/n32g430_std_periph_driver/src/n32g430_adc.c ****     /* Clear ADC_CTRL2 EXTRSEL[2:0] bit */
 149:../firmware/n32g430_std_periph_driver/src/n32g430_adc.c ****     ADC->CTRL2 &= ADC_EXT_TRIGCONV_REGULAR_MASK;
 234              		.loc 1 149 5 view .LVU34
 235              		.loc 1 149 8 is_stmt 0 view .LVU35
 236 0000 044B     		ldr	r3, .L19
 237 0002 9A68     		ldr	r2, [r3, #8]
 238              		.loc 1 149 16 view .LVU36
 239 0004 22F46022 		bic	r2, r2, #917504
 240 0008 9A60     		str	r2, [r3, #8]
 150:../firmware/n32g430_std_periph_driver/src/n32g430_adc.c ****     /* Set ADC_CTRL2 EXTJSEL[2:0] bit */
 151:../firmware/n32g430_std_periph_driver/src/n32g430_adc.c ****     ADC->CTRL2 |= external_trigger_sources;
 241              		.loc 1 151 5 is_stmt 1 view .LVU37
 242              		.loc 1 151 8 is_stmt 0 view .LVU38
 243 000a 9A68     		ldr	r2, [r3, #8]
 244              		.loc 1 151 16 view .LVU39
 245 000c 0243     		orrs	r2, r2, r0
 246 000e 9A60     		str	r2, [r3, #8]
 152:../firmware/n32g430_std_periph_driver/src/n32g430_adc.c **** }
 247              		.loc 1 152 1 view .LVU40
 248 0010 7047     		bx	lr
 249              	.L20:
 250 0012 00BF     		.align	2
 251              	.L19:
 252 0014 00080240 		.word	1073874944
 253              		.cfi_endproc
 254              	.LFE136:
 256              		.section	.text.ADC_Data_Alignment_Config,"ax",%progbits
 257              		.align	1
 258              		.global	ADC_Data_Alignment_Config
 259              		.syntax unified
 260              		.thumb
ARM GAS  C:\Users\Dawn\AppData\Local\Temp\ccAGizNf.s 			page 8


 261              		.thumb_func
 263              	ADC_Data_Alignment_Config:
 264              	.LVL4:
 265              	.LFB137:
 153:../firmware/n32g430_std_periph_driver/src/n32g430_adc.c **** 
 154:../firmware/n32g430_std_periph_driver/src/n32g430_adc.c **** /**
 155:../firmware/n32g430_std_periph_driver/src/n32g430_adc.c **** *\*\name    ADC_Data_Alignment_Config.
 156:../firmware/n32g430_std_periph_driver/src/n32g430_adc.c **** *\*\fun     Configures the ADC data alignment is left or right.
 157:../firmware/n32g430_std_periph_driver/src/n32g430_adc.c **** *\*\param   data_alignment :
 158:../firmware/n32g430_std_periph_driver/src/n32g430_adc.c **** *\*\          - ADC_DAT_ALIGN_R
 159:../firmware/n32g430_std_periph_driver/src/n32g430_adc.c **** *\*\          - ADC_DAT_ALIGN_L
 160:../firmware/n32g430_std_periph_driver/src/n32g430_adc.c **** *\*\return  none
 161:../firmware/n32g430_std_periph_driver/src/n32g430_adc.c **** **/
 162:../firmware/n32g430_std_periph_driver/src/n32g430_adc.c **** void ADC_Data_Alignment_Config(uint32_t data_alignment)
 163:../firmware/n32g430_std_periph_driver/src/n32g430_adc.c **** {
 266              		.loc 1 163 1 is_stmt 1 view -0
 267              		.cfi_startproc
 268              		@ args = 0, pretend = 0, frame = 0
 269              		@ frame_needed = 0, uses_anonymous_args = 0
 270              		@ link register save eliminated.
 164:../firmware/n32g430_std_periph_driver/src/n32g430_adc.c ****     /* Clear ADC_CTRL2 ALIG bit */
 165:../firmware/n32g430_std_periph_driver/src/n32g430_adc.c ****     ADC->CTRL2 &= ADC_ALIG_MASK;
 271              		.loc 1 165 5 view .LVU42
 272              		.loc 1 165 8 is_stmt 0 view .LVU43
 273 0000 044B     		ldr	r3, .L22
 274 0002 9A68     		ldr	r2, [r3, #8]
 275              		.loc 1 165 16 view .LVU44
 276 0004 22F40062 		bic	r2, r2, #2048
 277 0008 9A60     		str	r2, [r3, #8]
 166:../firmware/n32g430_std_periph_driver/src/n32g430_adc.c ****     /* Set ADC_CTRL2 ALIG bit */
 167:../firmware/n32g430_std_periph_driver/src/n32g430_adc.c ****     ADC->CTRL2 |= data_alignment;
 278              		.loc 1 167 5 is_stmt 1 view .LVU45
 279              		.loc 1 167 8 is_stmt 0 view .LVU46
 280 000a 9A68     		ldr	r2, [r3, #8]
 281              		.loc 1 167 16 view .LVU47
 282 000c 0243     		orrs	r2, r2, r0
 283 000e 9A60     		str	r2, [r3, #8]
 168:../firmware/n32g430_std_periph_driver/src/n32g430_adc.c **** }
 284              		.loc 1 168 1 view .LVU48
 285 0010 7047     		bx	lr
 286              	.L23:
 287 0012 00BF     		.align	2
 288              	.L22:
 289 0014 00080240 		.word	1073874944
 290              		.cfi_endproc
 291              	.LFE137:
 293              		.section	.text.ADC_Regular_Channels_Number_Config,"ax",%progbits
 294              		.align	1
 295              		.global	ADC_Regular_Channels_Number_Config
 296              		.syntax unified
 297              		.thumb
 298              		.thumb_func
 300              	ADC_Regular_Channels_Number_Config:
 301              	.LVL5:
 302              	.LFB138:
 169:../firmware/n32g430_std_periph_driver/src/n32g430_adc.c **** 
 170:../firmware/n32g430_std_periph_driver/src/n32g430_adc.c **** /**
ARM GAS  C:\Users\Dawn\AppData\Local\Temp\ccAGizNf.s 			page 9


 171:../firmware/n32g430_std_periph_driver/src/n32g430_adc.c **** *\*\name    ADC_Regular_Channels_Number_Config.
 172:../firmware/n32g430_std_periph_driver/src/n32g430_adc.c **** *\*\fun     Configures the ADC total number of conversion channels.
 173:../firmware/n32g430_std_periph_driver/src/n32g430_adc.c **** *\*\param   channels_number :
 174:../firmware/n32g430_std_periph_driver/src/n32g430_adc.c **** *\*\          - ADC_REGULAR_LEN_1
 175:../firmware/n32g430_std_periph_driver/src/n32g430_adc.c **** *\*\          - ADC_REGULAR_LEN_2
 176:../firmware/n32g430_std_periph_driver/src/n32g430_adc.c **** *\*\          - ADC_REGULAR_LEN_3
 177:../firmware/n32g430_std_periph_driver/src/n32g430_adc.c **** *\*\          - ADC_REGULAR_LEN_4
 178:../firmware/n32g430_std_periph_driver/src/n32g430_adc.c **** *\*\          - ADC_REGULAR_LEN_5
 179:../firmware/n32g430_std_periph_driver/src/n32g430_adc.c **** *\*\          - ADC_REGULAR_LEN_6
 180:../firmware/n32g430_std_periph_driver/src/n32g430_adc.c **** *\*\          - ADC_REGULAR_LEN_7
 181:../firmware/n32g430_std_periph_driver/src/n32g430_adc.c **** *\*\          - ADC_REGULAR_LEN_8
 182:../firmware/n32g430_std_periph_driver/src/n32g430_adc.c **** *\*\          - ADC_REGULAR_LEN_9
 183:../firmware/n32g430_std_periph_driver/src/n32g430_adc.c **** *\*\          - ADC_REGULAR_LEN_10
 184:../firmware/n32g430_std_periph_driver/src/n32g430_adc.c **** *\*\          - ADC_REGULAR_LEN_11
 185:../firmware/n32g430_std_periph_driver/src/n32g430_adc.c **** *\*\          - ADC_REGULAR_LEN_12
 186:../firmware/n32g430_std_periph_driver/src/n32g430_adc.c **** *\*\          - ADC_REGULAR_LEN_13
 187:../firmware/n32g430_std_periph_driver/src/n32g430_adc.c **** *\*\          - ADC_REGULAR_LEN_14
 188:../firmware/n32g430_std_periph_driver/src/n32g430_adc.c **** *\*\          - ADC_REGULAR_LEN_15
 189:../firmware/n32g430_std_periph_driver/src/n32g430_adc.c **** *\*\          - ADC_REGULAR_LEN_16
 190:../firmware/n32g430_std_periph_driver/src/n32g430_adc.c **** *\*\return  none
 191:../firmware/n32g430_std_periph_driver/src/n32g430_adc.c **** **/
 192:../firmware/n32g430_std_periph_driver/src/n32g430_adc.c **** void ADC_Regular_Channels_Number_Config(uint32_t channels_number)
 193:../firmware/n32g430_std_periph_driver/src/n32g430_adc.c **** {
 303              		.loc 1 193 1 is_stmt 1 view -0
 304              		.cfi_startproc
 305              		@ args = 0, pretend = 0, frame = 0
 306              		@ frame_needed = 0, uses_anonymous_args = 0
 307              		@ link register save eliminated.
 194:../firmware/n32g430_std_periph_driver/src/n32g430_adc.c ****     /* Clear ADC_RSEQ1 LEN[3:0] bit */
 195:../firmware/n32g430_std_periph_driver/src/n32g430_adc.c ****     ADC->RSEQ1 &= ADC_REGULAR_LEN_MSAK;
 308              		.loc 1 195 5 view .LVU50
 309              		.loc 1 195 8 is_stmt 0 view .LVU51
 310 0000 044B     		ldr	r3, .L25
 311 0002 DA6A     		ldr	r2, [r3, #44]
 312              		.loc 1 195 16 view .LVU52
 313 0004 22F47002 		bic	r2, r2, #15728640
 314 0008 DA62     		str	r2, [r3, #44]
 196:../firmware/n32g430_std_periph_driver/src/n32g430_adc.c ****     /* Set ADC_RSEQ1 LEN[3:0] bit */
 197:../firmware/n32g430_std_periph_driver/src/n32g430_adc.c ****     ADC->RSEQ1 |= channels_number;
 315              		.loc 1 197 5 is_stmt 1 view .LVU53
 316              		.loc 1 197 8 is_stmt 0 view .LVU54
 317 000a DA6A     		ldr	r2, [r3, #44]
 318              		.loc 1 197 16 view .LVU55
 319 000c 0243     		orrs	r2, r2, r0
 320 000e DA62     		str	r2, [r3, #44]
 198:../firmware/n32g430_std_periph_driver/src/n32g430_adc.c **** }
 321              		.loc 1 198 1 view .LVU56
 322 0010 7047     		bx	lr
 323              	.L26:
 324 0012 00BF     		.align	2
 325              	.L25:
 326 0014 00080240 		.word	1073874944
 327              		.cfi_endproc
 328              	.LFE138:
 330              		.section	.text.ADC_Initializes,"ax",%progbits
 331              		.align	1
 332              		.global	ADC_Initializes
ARM GAS  C:\Users\Dawn\AppData\Local\Temp\ccAGizNf.s 			page 10


 333              		.syntax unified
 334              		.thumb
 335              		.thumb_func
 337              	ADC_Initializes:
 338              	.LVL6:
 339              	.LFB139:
 199:../firmware/n32g430_std_periph_driver/src/n32g430_adc.c **** 
 200:../firmware/n32g430_std_periph_driver/src/n32g430_adc.c **** /**
 201:../firmware/n32g430_std_periph_driver/src/n32g430_adc.c **** *\*\name    ADC_Initializes.
 202:../firmware/n32g430_std_periph_driver/src/n32g430_adc.c **** *\*\fun     Initializes the ADC according to ADC_initstruct.
 203:../firmware/n32g430_std_periph_driver/src/n32g430_adc.c **** *\*\param   ADC_initstruct :
 204:../firmware/n32g430_std_periph_driver/src/n32g430_adc.c **** *\*\          - MultiChEn
 205:../firmware/n32g430_std_periph_driver/src/n32g430_adc.c **** *\*\            - DISABLE
 206:../firmware/n32g430_std_periph_driver/src/n32g430_adc.c **** *\*\            - ENABLE
 207:../firmware/n32g430_std_periph_driver/src/n32g430_adc.c **** *\*\          - ContinueConvEn
 208:../firmware/n32g430_std_periph_driver/src/n32g430_adc.c **** *\*\            - DISABLE
 209:../firmware/n32g430_std_periph_driver/src/n32g430_adc.c **** *\*\            - ENABLE
 210:../firmware/n32g430_std_periph_driver/src/n32g430_adc.c **** *\*\          - ExtTrigSelect
 211:../firmware/n32g430_std_periph_driver/src/n32g430_adc.c **** *\*\            - ADC_EXT_TRIGCONV_REGULAR_T1_CC1                
 212:../firmware/n32g430_std_periph_driver/src/n32g430_adc.c **** *\*\            - ADC_EXT_TRIGCONV_REGULAR_T1_CC2                
 213:../firmware/n32g430_std_periph_driver/src/n32g430_adc.c **** *\*\            - ADC_EXT_TRIGCONV_REGULAR_T1_CC3                
 214:../firmware/n32g430_std_periph_driver/src/n32g430_adc.c **** *\*\            - ADC_EXT_TRIGCONV_REGULAR_T2_CC2                
 215:../firmware/n32g430_std_periph_driver/src/n32g430_adc.c **** *\*\            - ADC_EXT_TRIGCONV_REGULAR_T3_TRGO               
 216:../firmware/n32g430_std_periph_driver/src/n32g430_adc.c **** *\*\            - ADC_EXT_TRIGCONV_REGULAR_T4_CC4                
 217:../firmware/n32g430_std_periph_driver/src/n32g430_adc.c **** *\*\            - ADC_EXT_TRIGCONV_REGULAR_EXT_INT11_TIM8_TRGO   
 218:../firmware/n32g430_std_periph_driver/src/n32g430_adc.c **** *\*\            - ADC_EXT_TRIGCONV_REGULAR_SWSTRRCH              
 219:../firmware/n32g430_std_periph_driver/src/n32g430_adc.c **** *\*\          - DatAlign
 220:../firmware/n32g430_std_periph_driver/src/n32g430_adc.c **** *\*\            - ADC_DAT_ALIGN_R
 221:../firmware/n32g430_std_periph_driver/src/n32g430_adc.c **** *\*\            - ADC_DAT_ALIGN_L
 222:../firmware/n32g430_std_periph_driver/src/n32g430_adc.c **** *\*\          - ChsNumber
 223:../firmware/n32g430_std_periph_driver/src/n32g430_adc.c **** *\*\            - ADC_REGULAR_LEN_1
 224:../firmware/n32g430_std_periph_driver/src/n32g430_adc.c **** *\*\            - ADC_REGULAR_LEN_2
 225:../firmware/n32g430_std_periph_driver/src/n32g430_adc.c **** *\*\            - ADC_REGULAR_LEN_3
 226:../firmware/n32g430_std_periph_driver/src/n32g430_adc.c **** *\*\            - ADC_REGULAR_LEN_4
 227:../firmware/n32g430_std_periph_driver/src/n32g430_adc.c **** *\*\            - ADC_REGULAR_LEN_5
 228:../firmware/n32g430_std_periph_driver/src/n32g430_adc.c **** *\*\            - ADC_REGULAR_LEN_6
 229:../firmware/n32g430_std_periph_driver/src/n32g430_adc.c **** *\*\            - ADC_REGULAR_LEN_7
 230:../firmware/n32g430_std_periph_driver/src/n32g430_adc.c **** *\*\            - ADC_REGULAR_LEN_8
 231:../firmware/n32g430_std_periph_driver/src/n32g430_adc.c **** *\*\            - ADC_REGULAR_LEN_9
 232:../firmware/n32g430_std_periph_driver/src/n32g430_adc.c **** *\*\            - ADC_REGULAR_LEN_10
 233:../firmware/n32g430_std_periph_driver/src/n32g430_adc.c **** *\*\            - ADC_REGULAR_LEN_11
 234:../firmware/n32g430_std_periph_driver/src/n32g430_adc.c **** *\*\            - ADC_REGULAR_LEN_12
 235:../firmware/n32g430_std_periph_driver/src/n32g430_adc.c **** *\*\            - ADC_REGULAR_LEN_13
 236:../firmware/n32g430_std_periph_driver/src/n32g430_adc.c **** *\*\            - ADC_REGULAR_LEN_14
 237:../firmware/n32g430_std_periph_driver/src/n32g430_adc.c **** *\*\            - ADC_REGULAR_LEN_15
 238:../firmware/n32g430_std_periph_driver/src/n32g430_adc.c **** *\*\            - ADC_REGULAR_LEN_16
 239:../firmware/n32g430_std_periph_driver/src/n32g430_adc.c **** *\*\return  none
 240:../firmware/n32g430_std_periph_driver/src/n32g430_adc.c **** **/
 241:../firmware/n32g430_std_periph_driver/src/n32g430_adc.c **** void ADC_Initializes(ADC_InitType* ADC_initstruct)
 242:../firmware/n32g430_std_periph_driver/src/n32g430_adc.c **** {
 340              		.loc 1 242 1 is_stmt 1 view -0
 341              		.cfi_startproc
 342              		@ args = 0, pretend = 0, frame = 0
 343              		@ frame_needed = 0, uses_anonymous_args = 0
 243:../firmware/n32g430_std_periph_driver/src/n32g430_adc.c ****     if(ADC_initstruct->MultiChEn)
 344              		.loc 1 243 5 view .LVU58
 242:../firmware/n32g430_std_periph_driver/src/n32g430_adc.c ****     if(ADC_initstruct->MultiChEn)
ARM GAS  C:\Users\Dawn\AppData\Local\Temp\ccAGizNf.s 			page 11


 345              		.loc 1 242 1 is_stmt 0 view .LVU59
 346 0000 08B5     		push	{r3, lr}
 347              	.LCFI1:
 348              		.cfi_def_cfa_offset 8
 349              		.cfi_offset 3, -8
 350              		.cfi_offset 14, -4
 351              		.loc 1 243 7 view .LVU60
 352 0002 0378     		ldrb	r3, [r0]	@ zero_extendqisi2
 242:../firmware/n32g430_std_periph_driver/src/n32g430_adc.c ****     if(ADC_initstruct->MultiChEn)
 353              		.loc 1 242 1 view .LVU61
 354 0004 0146     		mov	r1, r0
 355              		.loc 1 243 7 view .LVU62
 356 0006 83B1     		cbz	r3, .L28
 244:../firmware/n32g430_std_periph_driver/src/n32g430_adc.c ****     {
 245:../firmware/n32g430_std_periph_driver/src/n32g430_adc.c ****         ADC_Multichannels_Enable();
 357              		.loc 1 245 9 is_stmt 1 view .LVU63
 358 0008 FFF7FEFF 		bl	ADC_Multichannels_Enable
 359              	.LVL7:
 360              	.L29:
 246:../firmware/n32g430_std_periph_driver/src/n32g430_adc.c ****     }
 247:../firmware/n32g430_std_periph_driver/src/n32g430_adc.c ****     else
 248:../firmware/n32g430_std_periph_driver/src/n32g430_adc.c ****     {
 249:../firmware/n32g430_std_periph_driver/src/n32g430_adc.c ****         ADC_Multichannels_Disable();
 250:../firmware/n32g430_std_periph_driver/src/n32g430_adc.c ****     }
 251:../firmware/n32g430_std_periph_driver/src/n32g430_adc.c **** 
 252:../firmware/n32g430_std_periph_driver/src/n32g430_adc.c ****     if(ADC_initstruct->ContinueConvEn)
 361              		.loc 1 252 5 view .LVU64
 362              		.loc 1 252 7 is_stmt 0 view .LVU65
 363 000c 4B78     		ldrb	r3, [r1, #1]	@ zero_extendqisi2
 364 000e 7BB1     		cbz	r3, .L30
 253:../firmware/n32g430_std_periph_driver/src/n32g430_adc.c ****     {
 254:../firmware/n32g430_std_periph_driver/src/n32g430_adc.c ****         ADC_Continue_Conversion_Enable();
 365              		.loc 1 254 9 is_stmt 1 view .LVU66
 366 0010 FFF7FEFF 		bl	ADC_Continue_Conversion_Enable
 367              	.LVL8:
 368              	.L31:
 255:../firmware/n32g430_std_periph_driver/src/n32g430_adc.c ****     }
 256:../firmware/n32g430_std_periph_driver/src/n32g430_adc.c ****     else
 257:../firmware/n32g430_std_periph_driver/src/n32g430_adc.c ****     {
 258:../firmware/n32g430_std_periph_driver/src/n32g430_adc.c ****         ADC_Continue_Conversion_Disable();
 259:../firmware/n32g430_std_periph_driver/src/n32g430_adc.c ****     }
 260:../firmware/n32g430_std_periph_driver/src/n32g430_adc.c **** 
 261:../firmware/n32g430_std_periph_driver/src/n32g430_adc.c ****     ADC_Regular_Group_External_Trigger_Source_Config(ADC_initstruct->ExtTrigSelect);
 369              		.loc 1 261 5 view .LVU67
 370 0014 4868     		ldr	r0, [r1, #4]
 371              	.LVL9:
 372              		.loc 1 261 5 is_stmt 0 view .LVU68
 373 0016 FFF7FEFF 		bl	ADC_Regular_Group_External_Trigger_Source_Config
 374              	.LVL10:
 262:../firmware/n32g430_std_periph_driver/src/n32g430_adc.c ****     ADC_Data_Alignment_Config(ADC_initstruct->DatAlign);
 375              		.loc 1 262 5 is_stmt 1 view .LVU69
 376 001a 8868     		ldr	r0, [r1, #8]
 377 001c FFF7FEFF 		bl	ADC_Data_Alignment_Config
 378              	.LVL11:
 263:../firmware/n32g430_std_periph_driver/src/n32g430_adc.c ****     ADC_Regular_Channels_Number_Config(ADC_initstruct->ChsNumber);
 379              		.loc 1 263 5 view .LVU70
 264:../firmware/n32g430_std_periph_driver/src/n32g430_adc.c **** }
ARM GAS  C:\Users\Dawn\AppData\Local\Temp\ccAGizNf.s 			page 12


 380              		.loc 1 264 1 is_stmt 0 view .LVU71
 381 0020 BDE80840 		pop	{r3, lr}
 382              	.LCFI2:
 383              		.cfi_remember_state
 384              		.cfi_restore 14
 385              		.cfi_restore 3
 386              		.cfi_def_cfa_offset 0
 263:../firmware/n32g430_std_periph_driver/src/n32g430_adc.c ****     ADC_Regular_Channels_Number_Config(ADC_initstruct->ChsNumber);
 387              		.loc 1 263 5 view .LVU72
 388 0024 C868     		ldr	r0, [r1, #12]
 389 0026 FFF7FEBF 		b	ADC_Regular_Channels_Number_Config
 390              	.LVL12:
 391              	.L28:
 392              	.LCFI3:
 393              		.cfi_restore_state
 249:../firmware/n32g430_std_periph_driver/src/n32g430_adc.c ****     }
 394              		.loc 1 249 9 is_stmt 1 view .LVU73
 395 002a FFF7FEFF 		bl	ADC_Multichannels_Disable
 396              	.LVL13:
 397 002e EDE7     		b	.L29
 398              	.L30:
 258:../firmware/n32g430_std_periph_driver/src/n32g430_adc.c ****     }
 399              		.loc 1 258 9 view .LVU74
 400 0030 FFF7FEFF 		bl	ADC_Continue_Conversion_Disable
 401              	.LVL14:
 402 0034 EEE7     		b	.L31
 403              		.cfi_endproc
 404              	.LFE139:
 406              		.section	.text.ADC_Initializes_Structure,"ax",%progbits
 407              		.align	1
 408              		.global	ADC_Initializes_Structure
 409              		.syntax unified
 410              		.thumb
 411              		.thumb_func
 413              	ADC_Initializes_Structure:
 414              	.LVL15:
 415              	.LFB140:
 265:../firmware/n32g430_std_periph_driver/src/n32g430_adc.c **** 
 266:../firmware/n32g430_std_periph_driver/src/n32g430_adc.c **** /**
 267:../firmware/n32g430_std_periph_driver/src/n32g430_adc.c **** *\*\name    ADC_Initializes_Structure.
 268:../firmware/n32g430_std_periph_driver/src/n32g430_adc.c **** *\*\fun     Fills each ADC_initstruct member with its default value.
 269:../firmware/n32g430_std_periph_driver/src/n32g430_adc.c **** *\*\param   ADC_initstruct :
 270:../firmware/n32g430_std_periph_driver/src/n32g430_adc.c **** *\*\          - MultiChEn
 271:../firmware/n32g430_std_periph_driver/src/n32g430_adc.c **** *\*\          - ContinueConvEn
 272:../firmware/n32g430_std_periph_driver/src/n32g430_adc.c **** *\*\          - ExtTrigSelect
 273:../firmware/n32g430_std_periph_driver/src/n32g430_adc.c **** *\*\          - DatAlign
 274:../firmware/n32g430_std_periph_driver/src/n32g430_adc.c **** *\*\          - ChsNumber
 275:../firmware/n32g430_std_periph_driver/src/n32g430_adc.c **** *\*\return  none
 276:../firmware/n32g430_std_periph_driver/src/n32g430_adc.c **** **/
 277:../firmware/n32g430_std_periph_driver/src/n32g430_adc.c **** void ADC_Initializes_Structure(ADC_InitType* ADC_initstruct)
 278:../firmware/n32g430_std_periph_driver/src/n32g430_adc.c **** {
 416              		.loc 1 278 1 view -0
 417              		.cfi_startproc
 418              		@ args = 0, pretend = 0, frame = 0
 419              		@ frame_needed = 0, uses_anonymous_args = 0
 420              		@ link register save eliminated.
 279:../firmware/n32g430_std_periph_driver/src/n32g430_adc.c ****     /* Reset ADC init structure parameters values */
ARM GAS  C:\Users\Dawn\AppData\Local\Temp\ccAGizNf.s 			page 13


 280:../firmware/n32g430_std_periph_driver/src/n32g430_adc.c ****     /* initialize the MultiChEn member */
 281:../firmware/n32g430_std_periph_driver/src/n32g430_adc.c ****     ADC_initstruct->MultiChEn      = DISABLE;
 421              		.loc 1 281 5 view .LVU76
 282:../firmware/n32g430_std_periph_driver/src/n32g430_adc.c ****     /* Initialize the ContinueConvEn member */
 283:../firmware/n32g430_std_periph_driver/src/n32g430_adc.c ****     ADC_initstruct->ContinueConvEn = DISABLE;
 422              		.loc 1 283 5 view .LVU77
 281:../firmware/n32g430_std_periph_driver/src/n32g430_adc.c ****     /* Initialize the ContinueConvEn member */
 423              		.loc 1 281 36 is_stmt 0 view .LVU78
 424 0000 0023     		movs	r3, #0
 284:../firmware/n32g430_std_periph_driver/src/n32g430_adc.c ****     /* Initialize the ExtTrigSelect member */
 285:../firmware/n32g430_std_periph_driver/src/n32g430_adc.c ****     ADC_initstruct->ExtTrigSelect  = ADC_EXT_TRIGCONV_REGULAR_T1_CC1;
 286:../firmware/n32g430_std_periph_driver/src/n32g430_adc.c ****     /* Initialize the DatAlign member */
 287:../firmware/n32g430_std_periph_driver/src/n32g430_adc.c ****     ADC_initstruct->DatAlign       = ADC_DAT_ALIGN_R;
 425              		.loc 1 287 36 view .LVU79
 426 0002 C0E90133 		strd	r3, r3, [r0, #4]
 281:../firmware/n32g430_std_periph_driver/src/n32g430_adc.c ****     /* Initialize the ContinueConvEn member */
 427              		.loc 1 281 36 view .LVU80
 428 0006 0380     		strh	r3, [r0]	@ movhi
 285:../firmware/n32g430_std_periph_driver/src/n32g430_adc.c ****     /* Initialize the DatAlign member */
 429              		.loc 1 285 5 is_stmt 1 view .LVU81
 288:../firmware/n32g430_std_periph_driver/src/n32g430_adc.c ****     /* Initialize the ChsNumber member */
 289:../firmware/n32g430_std_periph_driver/src/n32g430_adc.c ****     ADC_initstruct->ChsNumber      = ADC_REGULAR_LEN_1;
 430              		.loc 1 289 5 view .LVU82
 431              		.loc 1 289 36 is_stmt 0 view .LVU83
 432 0008 C360     		str	r3, [r0, #12]
 290:../firmware/n32g430_std_periph_driver/src/n32g430_adc.c **** }
 433              		.loc 1 290 1 view .LVU84
 434 000a 7047     		bx	lr
 435              		.cfi_endproc
 436              	.LFE140:
 438              		.section	.text.ADC_ON,"ax",%progbits
 439              		.align	1
 440              		.global	ADC_ON
 441              		.syntax unified
 442              		.thumb
 443              		.thumb_func
 445              	ADC_ON:
 446              	.LFB141:
 291:../firmware/n32g430_std_periph_driver/src/n32g430_adc.c **** 
 292:../firmware/n32g430_std_periph_driver/src/n32g430_adc.c **** /**
 293:../firmware/n32g430_std_periph_driver/src/n32g430_adc.c **** *\*\name    ADC_ON.
 294:../firmware/n32g430_std_periph_driver/src/n32g430_adc.c **** *\*\fun     ADC turn ON.
 295:../firmware/n32g430_std_periph_driver/src/n32g430_adc.c **** *\*\return  none
 296:../firmware/n32g430_std_periph_driver/src/n32g430_adc.c **** **/
 297:../firmware/n32g430_std_periph_driver/src/n32g430_adc.c **** void ADC_ON(void)
 298:../firmware/n32g430_std_periph_driver/src/n32g430_adc.c **** {
 447              		.loc 1 298 1 is_stmt 1 view -0
 448              		.cfi_startproc
 449              		@ args = 0, pretend = 0, frame = 0
 450              		@ frame_needed = 0, uses_anonymous_args = 0
 451              		@ link register save eliminated.
 299:../firmware/n32g430_std_periph_driver/src/n32g430_adc.c ****     /* Set the ADC_CTRL2 ON bit to wake up the ADC from power down mode */
 300:../firmware/n32g430_std_periph_driver/src/n32g430_adc.c ****     ADC->CTRL2 |= ADC_TURN_ON;
 452              		.loc 1 300 5 view .LVU86
 453              		.loc 1 300 8 is_stmt 0 view .LVU87
 454 0000 024A     		ldr	r2, .L34
 455 0002 9368     		ldr	r3, [r2, #8]
ARM GAS  C:\Users\Dawn\AppData\Local\Temp\ccAGizNf.s 			page 14


 456              		.loc 1 300 16 view .LVU88
 457 0004 43F00103 		orr	r3, r3, #1
 458 0008 9360     		str	r3, [r2, #8]
 301:../firmware/n32g430_std_periph_driver/src/n32g430_adc.c **** }
 459              		.loc 1 301 1 view .LVU89
 460 000a 7047     		bx	lr
 461              	.L35:
 462              		.align	2
 463              	.L34:
 464 000c 00080240 		.word	1073874944
 465              		.cfi_endproc
 466              	.LFE141:
 468              		.section	.text.ADC_OFF,"ax",%progbits
 469              		.align	1
 470              		.global	ADC_OFF
 471              		.syntax unified
 472              		.thumb
 473              		.thumb_func
 475              	ADC_OFF:
 476              	.LFB142:
 302:../firmware/n32g430_std_periph_driver/src/n32g430_adc.c **** 
 303:../firmware/n32g430_std_periph_driver/src/n32g430_adc.c **** /**
 304:../firmware/n32g430_std_periph_driver/src/n32g430_adc.c **** *\*\name    ADC_OFF.
 305:../firmware/n32g430_std_periph_driver/src/n32g430_adc.c **** *\*\fun     ADC turn OFF.
 306:../firmware/n32g430_std_periph_driver/src/n32g430_adc.c **** *\*\return  none
 307:../firmware/n32g430_std_periph_driver/src/n32g430_adc.c **** **/
 308:../firmware/n32g430_std_periph_driver/src/n32g430_adc.c **** void ADC_OFF(void)
 309:../firmware/n32g430_std_periph_driver/src/n32g430_adc.c **** {
 477              		.loc 1 309 1 is_stmt 1 view -0
 478              		.cfi_startproc
 479              		@ args = 0, pretend = 0, frame = 0
 480              		@ frame_needed = 0, uses_anonymous_args = 0
 481              		@ link register save eliminated.
 310:../firmware/n32g430_std_periph_driver/src/n32g430_adc.c ****     /* Clear the ADC_CTRL2 ON bit, then ADC go to power down mode */
 311:../firmware/n32g430_std_periph_driver/src/n32g430_adc.c ****     ADC->CTRL2 &= ADC_TURN_OFF;
 482              		.loc 1 311 5 view .LVU91
 483              		.loc 1 311 8 is_stmt 0 view .LVU92
 484 0000 024A     		ldr	r2, .L37
 485 0002 9368     		ldr	r3, [r2, #8]
 486              		.loc 1 311 16 view .LVU93
 487 0004 23F00103 		bic	r3, r3, #1
 488 0008 9360     		str	r3, [r2, #8]
 312:../firmware/n32g430_std_periph_driver/src/n32g430_adc.c **** }
 489              		.loc 1 312 1 view .LVU94
 490 000a 7047     		bx	lr
 491              	.L38:
 492              		.align	2
 493              	.L37:
 494 000c 00080240 		.word	1073874944
 495              		.cfi_endproc
 496              	.LFE142:
 498              		.section	.text.ADC_DMA_Transfer_Enable,"ax",%progbits
 499              		.align	1
 500              		.global	ADC_DMA_Transfer_Enable
 501              		.syntax unified
 502              		.thumb
 503              		.thumb_func
ARM GAS  C:\Users\Dawn\AppData\Local\Temp\ccAGizNf.s 			page 15


 505              	ADC_DMA_Transfer_Enable:
 506              	.LFB143:
 313:../firmware/n32g430_std_periph_driver/src/n32g430_adc.c **** 
 314:../firmware/n32g430_std_periph_driver/src/n32g430_adc.c **** /**
 315:../firmware/n32g430_std_periph_driver/src/n32g430_adc.c **** *\*\name    ADC_DMA_Transfer_Enable.
 316:../firmware/n32g430_std_periph_driver/src/n32g430_adc.c **** *\*\fun     Enable ADC DMA transfer.
 317:../firmware/n32g430_std_periph_driver/src/n32g430_adc.c **** *\*\return  none
 318:../firmware/n32g430_std_periph_driver/src/n32g430_adc.c **** **/
 319:../firmware/n32g430_std_periph_driver/src/n32g430_adc.c **** void ADC_DMA_Transfer_Enable(void)
 320:../firmware/n32g430_std_periph_driver/src/n32g430_adc.c **** {
 507              		.loc 1 320 1 is_stmt 1 view -0
 508              		.cfi_startproc
 509              		@ args = 0, pretend = 0, frame = 0
 510              		@ frame_needed = 0, uses_anonymous_args = 0
 511              		@ link register save eliminated.
 321:../firmware/n32g430_std_periph_driver/src/n32g430_adc.c ****     /* Set the ADC_CTRL2 ENDMA bit to enable DMA transfer */
 322:../firmware/n32g430_std_periph_driver/src/n32g430_adc.c ****     ADC->CTRL2 |= ADC_DMA_ENABLE;
 512              		.loc 1 322 5 view .LVU96
 513              		.loc 1 322 8 is_stmt 0 view .LVU97
 514 0000 024A     		ldr	r2, .L40
 515 0002 9368     		ldr	r3, [r2, #8]
 516              		.loc 1 322 16 view .LVU98
 517 0004 43F48073 		orr	r3, r3, #256
 518 0008 9360     		str	r3, [r2, #8]
 323:../firmware/n32g430_std_periph_driver/src/n32g430_adc.c **** }
 519              		.loc 1 323 1 view .LVU99
 520 000a 7047     		bx	lr
 521              	.L41:
 522              		.align	2
 523              	.L40:
 524 000c 00080240 		.word	1073874944
 525              		.cfi_endproc
 526              	.LFE143:
 528              		.section	.text.ADC_DMA_Transfer_Disable,"ax",%progbits
 529              		.align	1
 530              		.global	ADC_DMA_Transfer_Disable
 531              		.syntax unified
 532              		.thumb
 533              		.thumb_func
 535              	ADC_DMA_Transfer_Disable:
 536              	.LFB144:
 324:../firmware/n32g430_std_periph_driver/src/n32g430_adc.c **** 
 325:../firmware/n32g430_std_periph_driver/src/n32g430_adc.c **** /**
 326:../firmware/n32g430_std_periph_driver/src/n32g430_adc.c **** *\*\name    ADC_DMA_Transfer_Disable.
 327:../firmware/n32g430_std_periph_driver/src/n32g430_adc.c **** *\*\fun     Disable ADC DMA transfer.
 328:../firmware/n32g430_std_periph_driver/src/n32g430_adc.c **** *\*\return  none
 329:../firmware/n32g430_std_periph_driver/src/n32g430_adc.c **** **/
 330:../firmware/n32g430_std_periph_driver/src/n32g430_adc.c **** void ADC_DMA_Transfer_Disable(void)
 331:../firmware/n32g430_std_periph_driver/src/n32g430_adc.c **** {
 537              		.loc 1 331 1 is_stmt 1 view -0
 538              		.cfi_startproc
 539              		@ args = 0, pretend = 0, frame = 0
 540              		@ frame_needed = 0, uses_anonymous_args = 0
 541              		@ link register save eliminated.
 332:../firmware/n32g430_std_periph_driver/src/n32g430_adc.c ****     /* Clean the ADC_CTRL2 ENDMA bit to disable DMA transfer */
 333:../firmware/n32g430_std_periph_driver/src/n32g430_adc.c ****     ADC->CTRL2 &= ADC_DMA_DISABLE;
 542              		.loc 1 333 5 view .LVU101
ARM GAS  C:\Users\Dawn\AppData\Local\Temp\ccAGizNf.s 			page 16


 543              		.loc 1 333 8 is_stmt 0 view .LVU102
 544 0000 024A     		ldr	r2, .L43
 545 0002 9368     		ldr	r3, [r2, #8]
 546              		.loc 1 333 16 view .LVU103
 547 0004 23F48073 		bic	r3, r3, #256
 548 0008 9360     		str	r3, [r2, #8]
 334:../firmware/n32g430_std_periph_driver/src/n32g430_adc.c **** }
 549              		.loc 1 334 1 view .LVU104
 550 000a 7047     		bx	lr
 551              	.L44:
 552              		.align	2
 553              	.L43:
 554 000c 00080240 		.word	1073874944
 555              		.cfi_endproc
 556              	.LFE144:
 558              		.section	.text.ADC_Interrupts_Enable,"ax",%progbits
 559              		.align	1
 560              		.global	ADC_Interrupts_Enable
 561              		.syntax unified
 562              		.thumb
 563              		.thumb_func
 565              	ADC_Interrupts_Enable:
 566              	.LVL16:
 567              	.LFB145:
 335:../firmware/n32g430_std_periph_driver/src/n32g430_adc.c **** 
 336:../firmware/n32g430_std_periph_driver/src/n32g430_adc.c **** /**
 337:../firmware/n32g430_std_periph_driver/src/n32g430_adc.c **** *\*\name    ADC_Interrupts_Enable.
 338:../firmware/n32g430_std_periph_driver/src/n32g430_adc.c **** *\*\fun     Enable ADC interrupts.
 339:../firmware/n32g430_std_periph_driver/src/n32g430_adc.c **** *\*\param   adc_interrupt :
 340:../firmware/n32g430_std_periph_driver/src/n32g430_adc.c **** *\*\          - ADC_INT_ENDC      ADC_CTRL1
 341:../firmware/n32g430_std_periph_driver/src/n32g430_adc.c **** *\*\          - ADC_INT_AWD       ADC_CTRL1
 342:../firmware/n32g430_std_periph_driver/src/n32g430_adc.c **** *\*\          - ADC_INT_JENDC     ADC_CTRL1
 343:../firmware/n32g430_std_periph_driver/src/n32g430_adc.c **** *\*\          - ADC_INT_ENDCA     ADC_CTRL3
 344:../firmware/n32g430_std_periph_driver/src/n32g430_adc.c **** *\*\          - ADC_INT_JENDCA    ADC_CTRL3
 345:../firmware/n32g430_std_periph_driver/src/n32g430_adc.c **** *\*\return  none
 346:../firmware/n32g430_std_periph_driver/src/n32g430_adc.c **** **/
 347:../firmware/n32g430_std_periph_driver/src/n32g430_adc.c **** void ADC_Interrupts_Enable(uint32_t adc_interrupt)
 348:../firmware/n32g430_std_periph_driver/src/n32g430_adc.c **** {
 568              		.loc 1 348 1 is_stmt 1 view -0
 569              		.cfi_startproc
 570              		@ args = 0, pretend = 0, frame = 0
 571              		@ frame_needed = 0, uses_anonymous_args = 0
 572              		@ link register save eliminated.
 349:../firmware/n32g430_std_periph_driver/src/n32g430_adc.c ****     if(adc_interrupt <= ADC_INT_JENDC)
 573              		.loc 1 349 5 view .LVU106
 574 0000 054B     		ldr	r3, .L48
 575              	.LVL17:
 576              	.LBB4:
 577              	.LBI4:
 347:../firmware/n32g430_std_periph_driver/src/n32g430_adc.c **** {
 578              		.loc 1 347 6 view .LVU107
 579              	.LBB5:
 350:../firmware/n32g430_std_periph_driver/src/n32g430_adc.c ****     {
 351:../firmware/n32g430_std_periph_driver/src/n32g430_adc.c ****         /* Set the ADC_CTRL1 ENDCIEN/AWDGIEN/JENDCIEN bit to enable ADC interrupts */
 352:../firmware/n32g430_std_periph_driver/src/n32g430_adc.c ****         ADC->CTRL1 |= adc_interrupt;
 580              		.loc 1 352 9 view .LVU108
 581              	.LBE5:
ARM GAS  C:\Users\Dawn\AppData\Local\Temp\ccAGizNf.s 			page 17


 582              	.LBE4:
 349:../firmware/n32g430_std_periph_driver/src/n32g430_adc.c ****     {
 583              		.loc 1 349 7 is_stmt 0 view .LVU109
 584 0002 8028     		cmp	r0, #128
 585              	.LBB9:
 586              	.LBB6:
 587              		.loc 1 352 12 view .LVU110
 588 0004 95BF     		itete	ls
 589 0006 5A68     		ldrls	r2, [r3, #4]
 590              	.LBE6:
 591              	.LBE9:
 353:../firmware/n32g430_std_periph_driver/src/n32g430_adc.c ****     }
 354:../firmware/n32g430_std_periph_driver/src/n32g430_adc.c ****     else
 355:../firmware/n32g430_std_periph_driver/src/n32g430_adc.c ****     {
 356:../firmware/n32g430_std_periph_driver/src/n32g430_adc.c ****         /* Set the ADC_CTRL3 ENDCAIEN/JENDCAIEN bit to enable ADC interrupts */
 357:../firmware/n32g430_std_periph_driver/src/n32g430_adc.c ****         ADC->CTRL3 |= adc_interrupt;
 592              		.loc 1 357 12 view .LVU111
 593 0008 9A6D     		ldrhi	r2, [r3, #88]
 594              	.LBB10:
 595              	.LBB7:
 352:../firmware/n32g430_std_periph_driver/src/n32g430_adc.c ****     }
 596              		.loc 1 352 20 view .LVU112
 597 000a 1043     		orrls	r0, r0, r2
 598              	.LVL18:
 352:../firmware/n32g430_std_periph_driver/src/n32g430_adc.c ****     }
 599              		.loc 1 352 20 view .LVU113
 600              	.LBE7:
 601              	.LBE10:
 602              		.loc 1 357 20 view .LVU114
 603 000c 0243     		orrhi	r2, r2, r0
 604              	.LBB11:
 605              	.LBB8:
 352:../firmware/n32g430_std_periph_driver/src/n32g430_adc.c ****     }
 606              		.loc 1 352 20 view .LVU115
 607 000e 94BF     		ite	ls
 608 0010 5860     		strls	r0, [r3, #4]
 609              	.LVL19:
 352:../firmware/n32g430_std_periph_driver/src/n32g430_adc.c ****     }
 610              		.loc 1 352 20 view .LVU116
 611              	.LBE8:
 612              	.LBE11:
 613              		.loc 1 357 9 is_stmt 1 view .LVU117
 614              		.loc 1 357 20 is_stmt 0 view .LVU118
 615 0012 9A65     		strhi	r2, [r3, #88]
 358:../firmware/n32g430_std_periph_driver/src/n32g430_adc.c ****     }
 359:../firmware/n32g430_std_periph_driver/src/n32g430_adc.c **** }
 616              		.loc 1 359 1 view .LVU119
 617 0014 7047     		bx	lr
 618              	.L49:
 619 0016 00BF     		.align	2
 620              	.L48:
 621 0018 00080240 		.word	1073874944
 622              		.cfi_endproc
 623              	.LFE145:
 625              		.section	.text.ADC_Interrupts_Disable,"ax",%progbits
 626              		.align	1
 627              		.global	ADC_Interrupts_Disable
ARM GAS  C:\Users\Dawn\AppData\Local\Temp\ccAGizNf.s 			page 18


 628              		.syntax unified
 629              		.thumb
 630              		.thumb_func
 632              	ADC_Interrupts_Disable:
 633              	.LVL20:
 634              	.LFB146:
 360:../firmware/n32g430_std_periph_driver/src/n32g430_adc.c **** 
 361:../firmware/n32g430_std_periph_driver/src/n32g430_adc.c **** /**
 362:../firmware/n32g430_std_periph_driver/src/n32g430_adc.c **** *\*\name    ADC_Interrupts_Disable.
 363:../firmware/n32g430_std_periph_driver/src/n32g430_adc.c **** *\*\fun     Disable ADC interrupts.
 364:../firmware/n32g430_std_periph_driver/src/n32g430_adc.c **** *\*\param   adc_interrupt :
 365:../firmware/n32g430_std_periph_driver/src/n32g430_adc.c **** *\*\          - ADC_INT_ENDC      ADC_CTRL1
 366:../firmware/n32g430_std_periph_driver/src/n32g430_adc.c **** *\*\          - ADC_INT_AWD       ADC_CTRL1
 367:../firmware/n32g430_std_periph_driver/src/n32g430_adc.c **** *\*\          - ADC_INT_JENDC     ADC_CTRL1
 368:../firmware/n32g430_std_periph_driver/src/n32g430_adc.c **** *\*\          - ADC_INT_ENDCA     ADC_CTRL3   
 369:../firmware/n32g430_std_periph_driver/src/n32g430_adc.c **** *\*\          - ADC_INT_JENDCA    ADC_CTRL3
 370:../firmware/n32g430_std_periph_driver/src/n32g430_adc.c **** *\*\return  none
 371:../firmware/n32g430_std_periph_driver/src/n32g430_adc.c **** **/
 372:../firmware/n32g430_std_periph_driver/src/n32g430_adc.c **** void ADC_Interrupts_Disable(uint32_t adc_interrupt)
 373:../firmware/n32g430_std_periph_driver/src/n32g430_adc.c **** {
 635              		.loc 1 373 1 is_stmt 1 view -0
 636              		.cfi_startproc
 637              		@ args = 0, pretend = 0, frame = 0
 638              		@ frame_needed = 0, uses_anonymous_args = 0
 639              		@ link register save eliminated.
 374:../firmware/n32g430_std_periph_driver/src/n32g430_adc.c ****     if(adc_interrupt <= ADC_INT_JENDC)
 640              		.loc 1 374 5 view .LVU121
 641 0000 064A     		ldr	r2, .L53
 642              	.LVL21:
 643              	.LBB14:
 644              	.LBI14:
 372:../firmware/n32g430_std_periph_driver/src/n32g430_adc.c **** {
 645              		.loc 1 372 6 view .LVU122
 646              	.LBB15:
 375:../firmware/n32g430_std_periph_driver/src/n32g430_adc.c ****     {
 376:../firmware/n32g430_std_periph_driver/src/n32g430_adc.c ****         /* Clean the ADC_CTRL1 ENDCIEN/AWDGIEN/JENDCIEN bit to disable ADC interrupts */
 377:../firmware/n32g430_std_periph_driver/src/n32g430_adc.c ****         ADC->CTRL1 &= (~adc_interrupt);
 647              		.loc 1 377 9 view .LVU123
 648              	.LBE15:
 649              	.LBE14:
 374:../firmware/n32g430_std_periph_driver/src/n32g430_adc.c ****     {
 650              		.loc 1 374 7 is_stmt 0 view .LVU124
 651 0002 8028     		cmp	r0, #128
 652              	.LBB19:
 653              	.LBB16:
 654              		.loc 1 377 12 view .LVU125
 655 0004 94BF     		ite	ls
 656 0006 5168     		ldrls	r1, [r2, #4]
 657              	.LBE16:
 658              	.LBE19:
 378:../firmware/n32g430_std_periph_driver/src/n32g430_adc.c ****     }
 379:../firmware/n32g430_std_periph_driver/src/n32g430_adc.c ****     else
 380:../firmware/n32g430_std_periph_driver/src/n32g430_adc.c ****     {
 381:../firmware/n32g430_std_periph_driver/src/n32g430_adc.c ****         /* Clean the ADC_CTRL3 ENDCAIEN/JENDCAIEN bikt to disable ADC interrupts */
 382:../firmware/n32g430_std_periph_driver/src/n32g430_adc.c ****         ADC->CTRL3 &= (~adc_interrupt);
 659              		.loc 1 382 12 view .LVU126
 660 0008 916D     		ldrhi	r1, [r2, #88]
ARM GAS  C:\Users\Dawn\AppData\Local\Temp\ccAGizNf.s 			page 19


 661              	.LBB20:
 662              	.LBB17:
 377:../firmware/n32g430_std_periph_driver/src/n32g430_adc.c ****     }
 663              		.loc 1 377 24 view .LVU127
 664 000a 6FEA0003 		mvn	r3, r0
 377:../firmware/n32g430_std_periph_driver/src/n32g430_adc.c ****     }
 665              		.loc 1 377 20 view .LVU128
 666 000e 95BF     		itete	ls
 667 0010 0B40     		andls	r3, r3, r1
 668              	.LBE17:
 669              	.LBE20:
 670              		.loc 1 382 20 view .LVU129
 671 0012 0B40     		andhi	r3, r3, r1
 672              	.LBB21:
 673              	.LBB18:
 377:../firmware/n32g430_std_periph_driver/src/n32g430_adc.c ****     }
 674              		.loc 1 377 20 view .LVU130
 675 0014 5360     		strls	r3, [r2, #4]
 676              	.LVL22:
 377:../firmware/n32g430_std_periph_driver/src/n32g430_adc.c ****     }
 677              		.loc 1 377 20 view .LVU131
 678              	.LBE18:
 679              	.LBE21:
 680              		.loc 1 382 9 is_stmt 1 view .LVU132
 681              		.loc 1 382 20 is_stmt 0 view .LVU133
 682 0016 9365     		strhi	r3, [r2, #88]
 383:../firmware/n32g430_std_periph_driver/src/n32g430_adc.c ****     }
 384:../firmware/n32g430_std_periph_driver/src/n32g430_adc.c **** }
 683              		.loc 1 384 1 view .LVU134
 684 0018 7047     		bx	lr
 685              	.L54:
 686 001a 00BF     		.align	2
 687              	.L53:
 688 001c 00080240 		.word	1073874944
 689              		.cfi_endproc
 690              	.LFE146:
 692              		.section	.text.ADC_Calibration_Operation,"ax",%progbits
 693              		.align	1
 694              		.global	ADC_Calibration_Operation
 695              		.syntax unified
 696              		.thumb
 697              		.thumb_func
 699              	ADC_Calibration_Operation:
 700              	.LVL23:
 701              	.LFB147:
 385:../firmware/n32g430_std_periph_driver/src/n32g430_adc.c **** 
 386:../firmware/n32g430_std_periph_driver/src/n32g430_adc.c **** /**
 387:../firmware/n32g430_std_periph_driver/src/n32g430_adc.c **** *\*\name    ADC_Calibration_Operation.
 388:../firmware/n32g430_std_periph_driver/src/n32g430_adc.c **** *\*\fun     ADC calibration operation.
 389:../firmware/n32g430_std_periph_driver/src/n32g430_adc.c **** *\*\param   calibration_operation :
 390:../firmware/n32g430_std_periph_driver/src/n32g430_adc.c **** *\*\          - ADC_CALIBRATION_ENABLE
 391:../firmware/n32g430_std_periph_driver/src/n32g430_adc.c **** *\*\          - ADC_CALIBRATION_STS
 392:../firmware/n32g430_std_periph_driver/src/n32g430_adc.c **** *\*\return  FlagStatus:
 393:../firmware/n32g430_std_periph_driver/src/n32g430_adc.c **** *\*\          - SET
 394:../firmware/n32g430_std_periph_driver/src/n32g430_adc.c **** *\*\          - RESET
 395:../firmware/n32g430_std_periph_driver/src/n32g430_adc.c **** **/
 396:../firmware/n32g430_std_periph_driver/src/n32g430_adc.c **** FlagStatus ADC_Calibration_Operation(uint32_t calibration_operation)
ARM GAS  C:\Users\Dawn\AppData\Local\Temp\ccAGizNf.s 			page 20


 397:../firmware/n32g430_std_periph_driver/src/n32g430_adc.c **** {
 702              		.loc 1 397 1 is_stmt 1 view -0
 703              		.cfi_startproc
 704              		@ args = 0, pretend = 0, frame = 0
 705              		@ frame_needed = 0, uses_anonymous_args = 0
 706              		@ link register save eliminated.
 398:../firmware/n32g430_std_periph_driver/src/n32g430_adc.c ****     if(calibration_operation == ADC_CALIBRATION_ENABLE)
 707              		.loc 1 398 5 view .LVU136
 708              		.loc 1 398 7 is_stmt 0 view .LVU137
 709 0000 0128     		cmp	r0, #1
 710 0002 08D1     		bne	.L56
 399:../firmware/n32g430_std_periph_driver/src/n32g430_adc.c ****     {
 400:../firmware/n32g430_std_periph_driver/src/n32g430_adc.c ****         /* ADC calibration Enable */
 401:../firmware/n32g430_std_periph_driver/src/n32g430_adc.c ****         if(ADC->CALFACT == 0)
 711              		.loc 1 401 9 is_stmt 1 view .LVU138
 712              		.loc 1 401 15 is_stmt 0 view .LVU139
 713 0004 094B     		ldr	r3, .L63
 714 0006 5A6D     		ldr	r2, [r3, #84]
 715              		.loc 1 401 11 view .LVU140
 716 0008 1AB9     		cbnz	r2, .L57
 402:../firmware/n32g430_std_periph_driver/src/n32g430_adc.c ****         {
 403:../firmware/n32g430_std_periph_driver/src/n32g430_adc.c ****             ADC->CTRL2 |= ADC_CTRL2_ENCAL;
 717              		.loc 1 403 13 is_stmt 1 view .LVU141
 718              		.loc 1 403 16 is_stmt 0 view .LVU142
 719 000a 9A68     		ldr	r2, [r3, #8]
 720              		.loc 1 403 24 view .LVU143
 721 000c 42F00402 		orr	r2, r2, #4
 722 0010 9A60     		str	r2, [r3, #8]
 723              	.L57:
 404:../firmware/n32g430_std_periph_driver/src/n32g430_adc.c ****         }
 405:../firmware/n32g430_std_periph_driver/src/n32g430_adc.c ****     }
 406:../firmware/n32g430_std_periph_driver/src/n32g430_adc.c ****     else if(calibration_operation == ADC_CALIBRATION_STS)
 407:../firmware/n32g430_std_periph_driver/src/n32g430_adc.c ****     {
 408:../firmware/n32g430_std_periph_driver/src/n32g430_adc.c ****         /* Get ADC_CTRL2 CAL bit */
 409:../firmware/n32g430_std_periph_driver/src/n32g430_adc.c ****         if ((ADC->CTRL2 & ADC_CTRL2_ENCAL) != (uint32_t)RESET)
 410:../firmware/n32g430_std_periph_driver/src/n32g430_adc.c ****         {
 411:../firmware/n32g430_std_periph_driver/src/n32g430_adc.c ****             if(ADC->CALFACT != 0)
 412:../firmware/n32g430_std_periph_driver/src/n32g430_adc.c ****             {
 413:../firmware/n32g430_std_periph_driver/src/n32g430_adc.c ****                 return RESET;
 724              		.loc 1 413 24 view .LVU144
 725 0012 0020     		movs	r0, #0
 726              	.LVL24:
 727              		.loc 1 413 24 view .LVU145
 728 0014 7047     		bx	lr
 729              	.LVL25:
 730              	.L56:
 406:../firmware/n32g430_std_periph_driver/src/n32g430_adc.c ****     {
 731              		.loc 1 406 10 is_stmt 1 view .LVU146
 406:../firmware/n32g430_std_periph_driver/src/n32g430_adc.c ****     {
 732              		.loc 1 406 12 is_stmt 0 view .LVU147
 733 0016 0228     		cmp	r0, #2
 734 0018 FBD1     		bne	.L57
 409:../firmware/n32g430_std_periph_driver/src/n32g430_adc.c ****         {
 735              		.loc 1 409 9 is_stmt 1 view .LVU148
 409:../firmware/n32g430_std_periph_driver/src/n32g430_adc.c ****         {
 736              		.loc 1 409 17 is_stmt 0 view .LVU149
 737 001a 044B     		ldr	r3, .L63
ARM GAS  C:\Users\Dawn\AppData\Local\Temp\ccAGizNf.s 			page 21


 738 001c 9A68     		ldr	r2, [r3, #8]
 409:../firmware/n32g430_std_periph_driver/src/n32g430_adc.c ****         {
 739              		.loc 1 409 12 view .LVU150
 740 001e 5207     		lsls	r2, r2, #29
 741 0020 F7D5     		bpl	.L57
 411:../firmware/n32g430_std_periph_driver/src/n32g430_adc.c ****             {
 742              		.loc 1 411 13 is_stmt 1 view .LVU151
 411:../firmware/n32g430_std_periph_driver/src/n32g430_adc.c ****             {
 743              		.loc 1 411 19 is_stmt 0 view .LVU152
 744 0022 586D     		ldr	r0, [r3, #84]
 745              	.LVL26:
 411:../firmware/n32g430_std_periph_driver/src/n32g430_adc.c ****             {
 746              		.loc 1 411 15 view .LVU153
 747 0024 B0FA80F0 		clz	r0, r0
 748 0028 4009     		lsrs	r0, r0, #5
 414:../firmware/n32g430_std_periph_driver/src/n32g430_adc.c ****             }
 415:../firmware/n32g430_std_periph_driver/src/n32g430_adc.c ****             else
 416:../firmware/n32g430_std_periph_driver/src/n32g430_adc.c ****             {
 417:../firmware/n32g430_std_periph_driver/src/n32g430_adc.c ****                 return SET;
 418:../firmware/n32g430_std_periph_driver/src/n32g430_adc.c ****             }
 419:../firmware/n32g430_std_periph_driver/src/n32g430_adc.c ****         }
 420:../firmware/n32g430_std_periph_driver/src/n32g430_adc.c ****         else
 421:../firmware/n32g430_std_periph_driver/src/n32g430_adc.c ****         {
 422:../firmware/n32g430_std_periph_driver/src/n32g430_adc.c ****             return RESET;
 423:../firmware/n32g430_std_periph_driver/src/n32g430_adc.c ****         }
 424:../firmware/n32g430_std_periph_driver/src/n32g430_adc.c ****         
 425:../firmware/n32g430_std_periph_driver/src/n32g430_adc.c ****         
 426:../firmware/n32g430_std_periph_driver/src/n32g430_adc.c ****     }
 427:../firmware/n32g430_std_periph_driver/src/n32g430_adc.c ****     return RESET;
 428:../firmware/n32g430_std_periph_driver/src/n32g430_adc.c **** }
 749              		.loc 1 428 1 view .LVU154
 750 002a 7047     		bx	lr
 751              	.L64:
 752              		.align	2
 753              	.L63:
 754 002c 00080240 		.word	1073874944
 755              		.cfi_endproc
 756              	.LFE147:
 758              		.section	.text.ADC_Regular_Channels_Software_Conversion_Operation,"ax",%progbits
 759              		.align	1
 760              		.global	ADC_Regular_Channels_Software_Conversion_Operation
 761              		.syntax unified
 762              		.thumb
 763              		.thumb_func
 765              	ADC_Regular_Channels_Software_Conversion_Operation:
 766              	.LVL27:
 767              	.LFB148:
 429:../firmware/n32g430_std_periph_driver/src/n32g430_adc.c **** 
 430:../firmware/n32g430_std_periph_driver/src/n32g430_adc.c **** /**
 431:../firmware/n32g430_std_periph_driver/src/n32g430_adc.c **** *\*\name    ADC_Regular_Channels_Software_Conversion_Operation.
 432:../firmware/n32g430_std_periph_driver/src/n32g430_adc.c **** *\*\fun     ADC regular channels software conversion operation.
 433:../firmware/n32g430_std_periph_driver/src/n32g430_adc.c **** *\*\param   conversion_operation :
 434:../firmware/n32g430_std_periph_driver/src/n32g430_adc.c **** *\*\          - ADC_EXTRTRIG_SWSTRRCH_ENABLE
 435:../firmware/n32g430_std_periph_driver/src/n32g430_adc.c **** *\*\          - ADC_EXTRTRIG_SWSTRRCH_DISABLE
 436:../firmware/n32g430_std_periph_driver/src/n32g430_adc.c **** *\*\          - ADC_EXTRTRIG_SWSTRRCH_GET_STS
 437:../firmware/n32g430_std_periph_driver/src/n32g430_adc.c **** *\*\return  FlagStatus:
 438:../firmware/n32g430_std_periph_driver/src/n32g430_adc.c **** *\*\          - SET
ARM GAS  C:\Users\Dawn\AppData\Local\Temp\ccAGizNf.s 			page 22


 439:../firmware/n32g430_std_periph_driver/src/n32g430_adc.c **** *\*\          - RESET
 440:../firmware/n32g430_std_periph_driver/src/n32g430_adc.c **** **/
 441:../firmware/n32g430_std_periph_driver/src/n32g430_adc.c **** FlagStatus ADC_Regular_Channels_Software_Conversion_Operation(uint32_t conversion_operation)
 442:../firmware/n32g430_std_periph_driver/src/n32g430_adc.c **** {
 768              		.loc 1 442 1 is_stmt 1 view -0
 769              		.cfi_startproc
 770              		@ args = 0, pretend = 0, frame = 0
 771              		@ frame_needed = 0, uses_anonymous_args = 0
 772              		@ link register save eliminated.
 443:../firmware/n32g430_std_periph_driver/src/n32g430_adc.c ****     if(conversion_operation == ADC_EXTRTRIG_SWSTRRCH_ENABLE)
 773              		.loc 1 443 5 view .LVU156
 774              		.loc 1 443 7 is_stmt 0 view .LVU157
 775 0000 B0F5A00F 		cmp	r0, #5242880
 776 0004 06D1     		bne	.L66
 444:../firmware/n32g430_std_periph_driver/src/n32g430_adc.c ****     {
 445:../firmware/n32g430_std_periph_driver/src/n32g430_adc.c ****         /* Enable the ADC external trigger conversion mode for regular channels */
 446:../firmware/n32g430_std_periph_driver/src/n32g430_adc.c ****         ADC->CTRL2 |= conversion_operation;
 777              		.loc 1 446 9 is_stmt 1 view .LVU158
 778              		.loc 1 446 12 is_stmt 0 view .LVU159
 779 0006 0C4A     		ldr	r2, .L71
 780 0008 9368     		ldr	r3, [r2, #8]
 781              		.loc 1 446 20 view .LVU160
 782 000a 43F4A003 		orr	r3, r3, #5242880
 783              	.L70:
 447:../firmware/n32g430_std_periph_driver/src/n32g430_adc.c ****     }
 448:../firmware/n32g430_std_periph_driver/src/n32g430_adc.c ****     else if(conversion_operation == ADC_EXTRTRIG_SWSTRRCH_DISABLE)
 449:../firmware/n32g430_std_periph_driver/src/n32g430_adc.c ****     {
 450:../firmware/n32g430_std_periph_driver/src/n32g430_adc.c ****         /* Disable the ADC external trigger conversion mode for regular channels */
 451:../firmware/n32g430_std_periph_driver/src/n32g430_adc.c ****         ADC->CTRL2 &= conversion_operation;
 784              		.loc 1 451 20 view .LVU161
 785 000e 9360     		str	r3, [r2, #8]
 786              	.L67:
 452:../firmware/n32g430_std_periph_driver/src/n32g430_adc.c ****     }
 453:../firmware/n32g430_std_periph_driver/src/n32g430_adc.c ****     else if(conversion_operation == ADC_EXTRTRIG_SWSTRRCH_GET_STS)
 454:../firmware/n32g430_std_periph_driver/src/n32g430_adc.c ****     {
 455:../firmware/n32g430_std_periph_driver/src/n32g430_adc.c ****         /* Get ADC_CTRL2 SWSTRRCH bit */
 456:../firmware/n32g430_std_periph_driver/src/n32g430_adc.c ****         if ((ADC->CTRL2 & conversion_operation) != (uint32_t)RESET)
 457:../firmware/n32g430_std_periph_driver/src/n32g430_adc.c ****         {
 458:../firmware/n32g430_std_periph_driver/src/n32g430_adc.c ****             return SET;
 459:../firmware/n32g430_std_periph_driver/src/n32g430_adc.c ****         }
 460:../firmware/n32g430_std_periph_driver/src/n32g430_adc.c ****         else
 461:../firmware/n32g430_std_periph_driver/src/n32g430_adc.c ****         {
 462:../firmware/n32g430_std_periph_driver/src/n32g430_adc.c ****             return RESET;
 787              		.loc 1 462 20 view .LVU162
 788 0010 0020     		movs	r0, #0
 789              	.LVL28:
 790              		.loc 1 462 20 view .LVU163
 791 0012 7047     		bx	lr
 792              	.LVL29:
 793              	.L66:
 448:../firmware/n32g430_std_periph_driver/src/n32g430_adc.c ****     {
 794              		.loc 1 448 10 is_stmt 1 view .LVU164
 448:../firmware/n32g430_std_periph_driver/src/n32g430_adc.c ****     {
 795              		.loc 1 448 12 is_stmt 0 view .LVU165
 796 0014 6FF4A003 		mvn	r3, #5242880
 797 0018 9842     		cmp	r0, r3
 798 001a 04D1     		bne	.L68
ARM GAS  C:\Users\Dawn\AppData\Local\Temp\ccAGizNf.s 			page 23


 451:../firmware/n32g430_std_periph_driver/src/n32g430_adc.c ****     }
 799              		.loc 1 451 9 is_stmt 1 view .LVU166
 451:../firmware/n32g430_std_periph_driver/src/n32g430_adc.c ****     }
 800              		.loc 1 451 12 is_stmt 0 view .LVU167
 801 001c 064A     		ldr	r2, .L71
 802 001e 9368     		ldr	r3, [r2, #8]
 451:../firmware/n32g430_std_periph_driver/src/n32g430_adc.c ****     }
 803              		.loc 1 451 20 view .LVU168
 804 0020 23F4A003 		bic	r3, r3, #5242880
 805 0024 F3E7     		b	.L70
 806              	.L68:
 453:../firmware/n32g430_std_periph_driver/src/n32g430_adc.c ****     {
 807              		.loc 1 453 10 is_stmt 1 view .LVU169
 453:../firmware/n32g430_std_periph_driver/src/n32g430_adc.c ****     {
 808              		.loc 1 453 12 is_stmt 0 view .LVU170
 809 0026 B0F5800F 		cmp	r0, #4194304
 810 002a F1D1     		bne	.L67
 456:../firmware/n32g430_std_periph_driver/src/n32g430_adc.c ****         {
 811              		.loc 1 456 9 is_stmt 1 view .LVU171
 456:../firmware/n32g430_std_periph_driver/src/n32g430_adc.c ****         {
 812              		.loc 1 456 17 is_stmt 0 view .LVU172
 813 002c 024B     		ldr	r3, .L71
 814 002e 9868     		ldr	r0, [r3, #8]
 815              	.LVL30:
 456:../firmware/n32g430_std_periph_driver/src/n32g430_adc.c ****         {
 816              		.loc 1 456 12 view .LVU173
 817 0030 C0F38050 		ubfx	r0, r0, #22, #1
 463:../firmware/n32g430_std_periph_driver/src/n32g430_adc.c ****         }
 464:../firmware/n32g430_std_periph_driver/src/n32g430_adc.c ****     }
 465:../firmware/n32g430_std_periph_driver/src/n32g430_adc.c ****     return RESET;
 466:../firmware/n32g430_std_periph_driver/src/n32g430_adc.c **** }
 818              		.loc 1 466 1 view .LVU174
 819 0034 7047     		bx	lr
 820              	.L72:
 821 0036 00BF     		.align	2
 822              	.L71:
 823 0038 00080240 		.word	1073874944
 824              		.cfi_endproc
 825              	.LFE148:
 827              		.section	.text.ADC_Discontinuous_Mode_Channel_Count_Config,"ax",%progbits
 828              		.align	1
 829              		.global	ADC_Discontinuous_Mode_Channel_Count_Config
 830              		.syntax unified
 831              		.thumb
 832              		.thumb_func
 834              	ADC_Discontinuous_Mode_Channel_Count_Config:
 835              	.LVL31:
 836              	.LFB149:
 467:../firmware/n32g430_std_periph_driver/src/n32g430_adc.c **** 
 468:../firmware/n32g430_std_periph_driver/src/n32g430_adc.c **** /**
 469:../firmware/n32g430_std_periph_driver/src/n32g430_adc.c **** *\*\name    ADC_Discontinuous_Mode_Channel_Count_Config.
 470:../firmware/n32g430_std_periph_driver/src/n32g430_adc.c **** *\*\fun     Configures ADC discontinuous mode channel count .
 471:../firmware/n32g430_std_periph_driver/src/n32g430_adc.c **** *\*\param   channel_count :
 472:../firmware/n32g430_std_periph_driver/src/n32g430_adc.c **** *\*\          - ADC_CHANNEL_COUNT_1
 473:../firmware/n32g430_std_periph_driver/src/n32g430_adc.c **** *\*\          - ADC_CHANNEL_COUNT_2
 474:../firmware/n32g430_std_periph_driver/src/n32g430_adc.c **** *\*\          - ADC_CHANNEL_COUNT_3
 475:../firmware/n32g430_std_periph_driver/src/n32g430_adc.c **** *\*\          - ADC_CHANNEL_COUNT_4
ARM GAS  C:\Users\Dawn\AppData\Local\Temp\ccAGizNf.s 			page 24


 476:../firmware/n32g430_std_periph_driver/src/n32g430_adc.c **** *\*\          - ADC_CHANNEL_COUNT_5
 477:../firmware/n32g430_std_periph_driver/src/n32g430_adc.c **** *\*\          - ADC_CHANNEL_COUNT_6
 478:../firmware/n32g430_std_periph_driver/src/n32g430_adc.c **** *\*\          - ADC_CHANNEL_COUNT_7
 479:../firmware/n32g430_std_periph_driver/src/n32g430_adc.c **** *\*\          - ADC_CHANNEL_COUNT_8
 480:../firmware/n32g430_std_periph_driver/src/n32g430_adc.c **** *\*\return  none
 481:../firmware/n32g430_std_periph_driver/src/n32g430_adc.c **** **/
 482:../firmware/n32g430_std_periph_driver/src/n32g430_adc.c **** void ADC_Discontinuous_Mode_Channel_Count_Config(uint32_t channel_count)
 483:../firmware/n32g430_std_periph_driver/src/n32g430_adc.c **** {
 837              		.loc 1 483 1 is_stmt 1 view -0
 838              		.cfi_startproc
 839              		@ args = 0, pretend = 0, frame = 0
 840              		@ frame_needed = 0, uses_anonymous_args = 0
 841              		@ link register save eliminated.
 484:../firmware/n32g430_std_periph_driver/src/n32g430_adc.c ****     /* Clear ADC_CTRL1 DCTU[2:0] */
 485:../firmware/n32g430_std_periph_driver/src/n32g430_adc.c ****     ADC->CTRL1 &= ADC_CHANNEL_COUNT_MASK;
 842              		.loc 1 485 5 view .LVU176
 843              		.loc 1 485 8 is_stmt 0 view .LVU177
 844 0000 044B     		ldr	r3, .L74
 845 0002 5A68     		ldr	r2, [r3, #4]
 846              		.loc 1 485 16 view .LVU178
 847 0004 22F46042 		bic	r2, r2, #57344
 848 0008 5A60     		str	r2, [r3, #4]
 486:../firmware/n32g430_std_periph_driver/src/n32g430_adc.c ****     /* Set ADC_CTRL1 DCTU[2:0] */
 487:../firmware/n32g430_std_periph_driver/src/n32g430_adc.c ****     ADC->CTRL1 |= channel_count;
 849              		.loc 1 487 5 is_stmt 1 view .LVU179
 850              		.loc 1 487 8 is_stmt 0 view .LVU180
 851 000a 5A68     		ldr	r2, [r3, #4]
 852              		.loc 1 487 16 view .LVU181
 853 000c 0243     		orrs	r2, r2, r0
 854 000e 5A60     		str	r2, [r3, #4]
 488:../firmware/n32g430_std_periph_driver/src/n32g430_adc.c **** }
 855              		.loc 1 488 1 view .LVU182
 856 0010 7047     		bx	lr
 857              	.L75:
 858 0012 00BF     		.align	2
 859              	.L74:
 860 0014 00080240 		.word	1073874944
 861              		.cfi_endproc
 862              	.LFE149:
 864              		.section	.text.ADC_Discontinuous_Mode_Config,"ax",%progbits
 865              		.align	1
 866              		.global	ADC_Discontinuous_Mode_Config
 867              		.syntax unified
 868              		.thumb
 869              		.thumb_func
 871              	ADC_Discontinuous_Mode_Config:
 872              	.LVL32:
 873              	.LFB150:
 489:../firmware/n32g430_std_periph_driver/src/n32g430_adc.c **** 
 490:../firmware/n32g430_std_periph_driver/src/n32g430_adc.c **** /**
 491:../firmware/n32g430_std_periph_driver/src/n32g430_adc.c **** *\*\name    ADC_Discontinuous_Mode_Config.
 492:../firmware/n32g430_std_periph_driver/src/n32g430_adc.c **** *\*\fun     Configures ADC discontinuous mode on regular or injected group channels.
 493:../firmware/n32g430_std_periph_driver/src/n32g430_adc.c **** *\*\param   group_operation :
 494:../firmware/n32g430_std_periph_driver/src/n32g430_adc.c **** *\*\          - ADC_DISCMODE_REGULAR_ENABLE
 495:../firmware/n32g430_std_periph_driver/src/n32g430_adc.c **** *\*\          - ADC_DISCMODE_REGULAR_DISABLE
 496:../firmware/n32g430_std_periph_driver/src/n32g430_adc.c **** *\*\          - ADC_DISCMODE_INJECTED_ENABLE
 497:../firmware/n32g430_std_periph_driver/src/n32g430_adc.c **** *\*\          - ADC_DISCMODE_INJECTED_DISABLE
ARM GAS  C:\Users\Dawn\AppData\Local\Temp\ccAGizNf.s 			page 25


 498:../firmware/n32g430_std_periph_driver/src/n32g430_adc.c **** *\*\return  none
 499:../firmware/n32g430_std_periph_driver/src/n32g430_adc.c **** **/
 500:../firmware/n32g430_std_periph_driver/src/n32g430_adc.c **** void ADC_Discontinuous_Mode_Config(uint32_t group_operation)
 501:../firmware/n32g430_std_periph_driver/src/n32g430_adc.c **** {
 874              		.loc 1 501 1 is_stmt 1 view -0
 875              		.cfi_startproc
 876              		@ args = 0, pretend = 0, frame = 0
 877              		@ frame_needed = 0, uses_anonymous_args = 0
 878              		@ link register save eliminated.
 502:../firmware/n32g430_std_periph_driver/src/n32g430_adc.c ****     if(group_operation == ADC_DISCMODE_REGULAR_ENABLE)
 879              		.loc 1 502 5 view .LVU184
 880              		.loc 1 502 7 is_stmt 0 view .LVU185
 881 0000 B0F5006F 		cmp	r0, #2048
 882 0004 05D1     		bne	.L77
 503:../firmware/n32g430_std_periph_driver/src/n32g430_adc.c ****     {
 504:../firmware/n32g430_std_periph_driver/src/n32g430_adc.c ****         /* Enables the discontinuous mode on regular group channels */
 505:../firmware/n32g430_std_periph_driver/src/n32g430_adc.c ****         ADC->CTRL1 |= group_operation;
 883              		.loc 1 505 9 is_stmt 1 view .LVU186
 884              		.loc 1 505 12 is_stmt 0 view .LVU187
 885 0006 104A     		ldr	r2, .L82
 886 0008 5368     		ldr	r3, [r2, #4]
 887              		.loc 1 505 20 view .LVU188
 888 000a 43F40063 		orr	r3, r3, #2048
 889              	.L81:
 506:../firmware/n32g430_std_periph_driver/src/n32g430_adc.c ****     }
 507:../firmware/n32g430_std_periph_driver/src/n32g430_adc.c ****     else if(group_operation == ADC_DISCMODE_REGULAR_DISABLE)
 508:../firmware/n32g430_std_periph_driver/src/n32g430_adc.c ****     {
 509:../firmware/n32g430_std_periph_driver/src/n32g430_adc.c ****         /* Disables the discontinuous mode on regular group channels */
 510:../firmware/n32g430_std_periph_driver/src/n32g430_adc.c ****         ADC->CTRL1 &= group_operation;
 511:../firmware/n32g430_std_periph_driver/src/n32g430_adc.c ****     }
 512:../firmware/n32g430_std_periph_driver/src/n32g430_adc.c ****     else if(group_operation == ADC_DISCMODE_INJECTED_ENABLE)
 513:../firmware/n32g430_std_periph_driver/src/n32g430_adc.c ****     {
 514:../firmware/n32g430_std_periph_driver/src/n32g430_adc.c ****         /* Enables the discontinuous mode on injected group channels */
 515:../firmware/n32g430_std_periph_driver/src/n32g430_adc.c ****         ADC->CTRL1 |= group_operation;
 516:../firmware/n32g430_std_periph_driver/src/n32g430_adc.c ****     }
 517:../firmware/n32g430_std_periph_driver/src/n32g430_adc.c ****     else if(group_operation == ADC_DISCMODE_INJECTED_DISABLE)
 518:../firmware/n32g430_std_periph_driver/src/n32g430_adc.c ****     {
 519:../firmware/n32g430_std_periph_driver/src/n32g430_adc.c ****         /* Disables the discontinuous mode on injected group channels */
 520:../firmware/n32g430_std_periph_driver/src/n32g430_adc.c ****         ADC->CTRL1 &= group_operation;
 890              		.loc 1 520 20 view .LVU189
 891 000e 5360     		str	r3, [r2, #4]
 892              	.L76:
 521:../firmware/n32g430_std_periph_driver/src/n32g430_adc.c ****     }
 522:../firmware/n32g430_std_periph_driver/src/n32g430_adc.c **** }
 893              		.loc 1 522 1 view .LVU190
 894 0010 7047     		bx	lr
 895              	.L77:
 507:../firmware/n32g430_std_periph_driver/src/n32g430_adc.c ****     {
 896              		.loc 1 507 10 is_stmt 1 view .LVU191
 507:../firmware/n32g430_std_periph_driver/src/n32g430_adc.c ****     {
 897              		.loc 1 507 12 is_stmt 0 view .LVU192
 898 0012 6FF40063 		mvn	r3, #2048
 899 0016 9842     		cmp	r0, r3
 900 0018 04D1     		bne	.L79
 510:../firmware/n32g430_std_periph_driver/src/n32g430_adc.c ****     }
 901              		.loc 1 510 9 is_stmt 1 view .LVU193
 510:../firmware/n32g430_std_periph_driver/src/n32g430_adc.c ****     }
ARM GAS  C:\Users\Dawn\AppData\Local\Temp\ccAGizNf.s 			page 26


 902              		.loc 1 510 12 is_stmt 0 view .LVU194
 903 001a 0B4A     		ldr	r2, .L82
 904 001c 5368     		ldr	r3, [r2, #4]
 510:../firmware/n32g430_std_periph_driver/src/n32g430_adc.c ****     }
 905              		.loc 1 510 20 view .LVU195
 906 001e 23F40063 		bic	r3, r3, #2048
 907 0022 F4E7     		b	.L81
 908              	.L79:
 512:../firmware/n32g430_std_periph_driver/src/n32g430_adc.c ****     {
 909              		.loc 1 512 10 is_stmt 1 view .LVU196
 512:../firmware/n32g430_std_periph_driver/src/n32g430_adc.c ****     {
 910              		.loc 1 512 12 is_stmt 0 view .LVU197
 911 0024 B0F5805F 		cmp	r0, #4096
 912 0028 04D1     		bne	.L80
 515:../firmware/n32g430_std_periph_driver/src/n32g430_adc.c ****     }
 913              		.loc 1 515 9 is_stmt 1 view .LVU198
 515:../firmware/n32g430_std_periph_driver/src/n32g430_adc.c ****     }
 914              		.loc 1 515 12 is_stmt 0 view .LVU199
 915 002a 074A     		ldr	r2, .L82
 916 002c 5368     		ldr	r3, [r2, #4]
 515:../firmware/n32g430_std_periph_driver/src/n32g430_adc.c ****     }
 917              		.loc 1 515 20 view .LVU200
 918 002e 43F48053 		orr	r3, r3, #4096
 919 0032 ECE7     		b	.L81
 920              	.L80:
 517:../firmware/n32g430_std_periph_driver/src/n32g430_adc.c ****     {
 921              		.loc 1 517 10 is_stmt 1 view .LVU201
 517:../firmware/n32g430_std_periph_driver/src/n32g430_adc.c ****     {
 922              		.loc 1 517 12 is_stmt 0 view .LVU202
 923 0034 6FF48053 		mvn	r3, #4096
 924 0038 9842     		cmp	r0, r3
 925 003a E9D1     		bne	.L76
 520:../firmware/n32g430_std_periph_driver/src/n32g430_adc.c ****     }
 926              		.loc 1 520 9 is_stmt 1 view .LVU203
 520:../firmware/n32g430_std_periph_driver/src/n32g430_adc.c ****     }
 927              		.loc 1 520 12 is_stmt 0 view .LVU204
 928 003c 024A     		ldr	r2, .L82
 929 003e 5368     		ldr	r3, [r2, #4]
 520:../firmware/n32g430_std_periph_driver/src/n32g430_adc.c ****     }
 930              		.loc 1 520 20 view .LVU205
 931 0040 23F48053 		bic	r3, r3, #4096
 932 0044 E3E7     		b	.L81
 933              	.L83:
 934 0046 00BF     		.align	2
 935              	.L82:
 936 0048 00080240 		.word	1073874944
 937              		.cfi_endproc
 938              	.LFE150:
 940              		.section	.text.ADC_Channel_Sample_Time_Config,"ax",%progbits
 941              		.align	1
 942              		.global	ADC_Channel_Sample_Time_Config
 943              		.syntax unified
 944              		.thumb
 945              		.thumb_func
 947              	ADC_Channel_Sample_Time_Config:
 948              	.LVL33:
 949              	.LFB151:
ARM GAS  C:\Users\Dawn\AppData\Local\Temp\ccAGizNf.s 			page 27


 523:../firmware/n32g430_std_periph_driver/src/n32g430_adc.c **** 
 524:../firmware/n32g430_std_periph_driver/src/n32g430_adc.c **** /**
 525:../firmware/n32g430_std_periph_driver/src/n32g430_adc.c **** *\*\name    ADC_Channel_Sample_Time_Config.
 526:../firmware/n32g430_std_periph_driver/src/n32g430_adc.c **** *\*\fun     Configures ADC channel sample time.
 527:../firmware/n32g430_std_periph_driver/src/n32g430_adc.c **** *\*\param   channel :
 528:../firmware/n32g430_std_periph_driver/src/n32g430_adc.c **** *\*\          - ADC_CH_0
 529:../firmware/n32g430_std_periph_driver/src/n32g430_adc.c **** *\*\          - ADC_CH_1
 530:../firmware/n32g430_std_periph_driver/src/n32g430_adc.c **** *\*\          - ADC_CH_2
 531:../firmware/n32g430_std_periph_driver/src/n32g430_adc.c **** *\*\          - ADC_CH_3
 532:../firmware/n32g430_std_periph_driver/src/n32g430_adc.c **** *\*\          - ADC_CH_4
 533:../firmware/n32g430_std_periph_driver/src/n32g430_adc.c **** *\*\          - ADC_CH_5
 534:../firmware/n32g430_std_periph_driver/src/n32g430_adc.c **** *\*\          - ADC_CH_6
 535:../firmware/n32g430_std_periph_driver/src/n32g430_adc.c **** *\*\          - ADC_CH_7
 536:../firmware/n32g430_std_periph_driver/src/n32g430_adc.c **** *\*\          - ADC_CH_8
 537:../firmware/n32g430_std_periph_driver/src/n32g430_adc.c **** *\*\          - ADC_CH_9
 538:../firmware/n32g430_std_periph_driver/src/n32g430_adc.c **** *\*\          - ADC_CH_10
 539:../firmware/n32g430_std_periph_driver/src/n32g430_adc.c **** *\*\          - ADC_CH_11
 540:../firmware/n32g430_std_periph_driver/src/n32g430_adc.c **** *\*\          - ADC_CH_12
 541:../firmware/n32g430_std_periph_driver/src/n32g430_adc.c **** *\*\          - ADC_CH_13
 542:../firmware/n32g430_std_periph_driver/src/n32g430_adc.c **** *\*\          - ADC_CH_14
 543:../firmware/n32g430_std_periph_driver/src/n32g430_adc.c **** *\*\          - ADC_CH_15
 544:../firmware/n32g430_std_periph_driver/src/n32g430_adc.c **** *\*\          - ADC_CH_16
 545:../firmware/n32g430_std_periph_driver/src/n32g430_adc.c **** *\*\          - ADC_CH_17
 546:../firmware/n32g430_std_periph_driver/src/n32g430_adc.c **** *\*\          - ADC_CH_18
 547:../firmware/n32g430_std_periph_driver/src/n32g430_adc.c **** *\*\param   sample_time :
 548:../firmware/n32g430_std_periph_driver/src/n32g430_adc.c **** *\*\          - ADC_SAMP_TIME_1CYCLES5
 549:../firmware/n32g430_std_periph_driver/src/n32g430_adc.c **** *\*\          - ADC_SAMP_TIME_7CYCLES5
 550:../firmware/n32g430_std_periph_driver/src/n32g430_adc.c **** *\*\          - ADC_SAMP_TIME_13CYCLES5
 551:../firmware/n32g430_std_periph_driver/src/n32g430_adc.c **** *\*\          - ADC_SAMP_TIME_28CYCLES5
 552:../firmware/n32g430_std_periph_driver/src/n32g430_adc.c **** *\*\          - ADC_SAMP_TIME_41CYCLES5
 553:../firmware/n32g430_std_periph_driver/src/n32g430_adc.c **** *\*\          - ADC_SAMP_TIME_55CYCLES5
 554:../firmware/n32g430_std_periph_driver/src/n32g430_adc.c **** *\*\          - ADC_SAMP_TIME_71CYCLES5
 555:../firmware/n32g430_std_periph_driver/src/n32g430_adc.c **** *\*\          - ADC_SAMP_TIME_239CYCLES5
 556:../firmware/n32g430_std_periph_driver/src/n32g430_adc.c **** *\*\return  none
 557:../firmware/n32g430_std_periph_driver/src/n32g430_adc.c **** **/
 558:../firmware/n32g430_std_periph_driver/src/n32g430_adc.c **** void ADC_Channel_Sample_Time_Config(uint8_t channel, uint8_t sample_time)
 559:../firmware/n32g430_std_periph_driver/src/n32g430_adc.c **** {
 950              		.loc 1 559 1 is_stmt 1 view -0
 951              		.cfi_startproc
 952              		@ args = 0, pretend = 0, frame = 0
 953              		@ frame_needed = 0, uses_anonymous_args = 0
 560:../firmware/n32g430_std_periph_driver/src/n32g430_adc.c ****     uint32_t temp_value = 0;
 954              		.loc 1 560 5 view .LVU207
 561:../firmware/n32g430_std_periph_driver/src/n32g430_adc.c ****     
 562:../firmware/n32g430_std_periph_driver/src/n32g430_adc.c ****     /* ADC_Channel include in ADC_Channel_[0..9] */
 563:../firmware/n32g430_std_periph_driver/src/n32g430_adc.c ****     if(channel <= ADC_CH_9)
 955              		.loc 1 563 5 view .LVU208
 956              		.loc 1 563 7 is_stmt 0 view .LVU209
 957 0000 0928     		cmp	r0, #9
 559:../firmware/n32g430_std_periph_driver/src/n32g430_adc.c ****     uint32_t temp_value = 0;
 958              		.loc 1 559 1 view .LVU210
 959 0002 10B5     		push	{r4, lr}
 960              	.LCFI4:
 961              		.cfi_def_cfa_offset 8
 962              		.cfi_offset 4, -8
 963              		.cfi_offset 14, -4
 964 0004 144B     		ldr	r3, .L88
ARM GAS  C:\Users\Dawn\AppData\Local\Temp\ccAGizNf.s 			page 28


 965              		.loc 1 563 7 view .LVU211
 966 0006 0DD8     		bhi	.L85
 564:../firmware/n32g430_std_periph_driver/src/n32g430_adc.c ****     {
 565:../firmware/n32g430_std_periph_driver/src/n32g430_adc.c ****         temp_value = channel;
 967              		.loc 1 565 9 is_stmt 1 view .LVU212
 968              	.LVL34:
 566:../firmware/n32g430_std_periph_driver/src/n32g430_adc.c ****         ADC->SAMPT2 &= ADC_SAMP_TIME_MASK(temp_value);
 969              		.loc 1 566 9 view .LVU213
 970              		.loc 1 566 12 is_stmt 0 view .LVU214
 971 0008 1A69     		ldr	r2, [r3, #16]
 972              		.loc 1 566 24 view .LVU215
 973 000a 00EB4000 		add	r0, r0, r0, lsl #1
 974              	.LVL35:
 975              		.loc 1 566 24 view .LVU216
 976 000e 0724     		movs	r4, #7
 977 0010 8440     		lsls	r4, r4, r0
 978              		.loc 1 566 21 view .LVU217
 979 0012 22EA0402 		bic	r2, r2, r4
 980 0016 1A61     		str	r2, [r3, #16]
 567:../firmware/n32g430_std_periph_driver/src/n32g430_adc.c ****         ADC->SAMPT2 |= (uint32_t)(sample_time << temp_value * ADC_SAMP_TIME_UNIT_OFFSET);
 981              		.loc 1 567 9 is_stmt 1 view .LVU218
 982              		.loc 1 567 12 is_stmt 0 view .LVU219
 983 0018 1A69     		ldr	r2, [r3, #16]
 984              		.loc 1 567 47 view .LVU220
 985 001a 01FA00F0 		lsl	r0, r1, r0
 986              		.loc 1 567 21 view .LVU221
 987 001e 1043     		orrs	r0, r0, r2
 988 0020 1861     		str	r0, [r3, #16]
 989              	.LVL36:
 990              	.L84:
 568:../firmware/n32g430_std_periph_driver/src/n32g430_adc.c ****     }
 569:../firmware/n32g430_std_periph_driver/src/n32g430_adc.c ****     /* ADC_Channel include in ADC_Channel_[10..17] */
 570:../firmware/n32g430_std_periph_driver/src/n32g430_adc.c ****     else if(channel <= ADC_CH_17)
 571:../firmware/n32g430_std_periph_driver/src/n32g430_adc.c ****     {
 572:../firmware/n32g430_std_periph_driver/src/n32g430_adc.c ****         temp_value = channel - ADC_CH_10;
 573:../firmware/n32g430_std_periph_driver/src/n32g430_adc.c ****         ADC->SAMPT1 &= ADC_SAMP_TIME_MASK(temp_value);
 574:../firmware/n32g430_std_periph_driver/src/n32g430_adc.c ****         ADC->SAMPT1 |= (uint32_t)(sample_time << temp_value * ADC_SAMP_TIME_UNIT_OFFSET);
 575:../firmware/n32g430_std_periph_driver/src/n32g430_adc.c ****     }
 576:../firmware/n32g430_std_periph_driver/src/n32g430_adc.c ****     /* ADC_Channel include in ADC_Channel_18 */
 577:../firmware/n32g430_std_periph_driver/src/n32g430_adc.c ****     else
 578:../firmware/n32g430_std_periph_driver/src/n32g430_adc.c ****     {
 579:../firmware/n32g430_std_periph_driver/src/n32g430_adc.c ****         ADC->SAMPT3 &= ADC_SAMP_TIME_MASK(temp_value);
 580:../firmware/n32g430_std_periph_driver/src/n32g430_adc.c ****         ADC->SAMPT3 |= (uint32_t)sample_time;
 581:../firmware/n32g430_std_periph_driver/src/n32g430_adc.c ****     }
 582:../firmware/n32g430_std_periph_driver/src/n32g430_adc.c **** }
 991              		.loc 1 582 1 view .LVU222
 992 0022 10BD     		pop	{r4, pc}
 993              	.LVL37:
 994              	.L85:
 570:../firmware/n32g430_std_periph_driver/src/n32g430_adc.c ****     {
 995              		.loc 1 570 10 is_stmt 1 view .LVU223
 570:../firmware/n32g430_std_periph_driver/src/n32g430_adc.c ****     {
 996              		.loc 1 570 12 is_stmt 0 view .LVU224
 997 0024 1128     		cmp	r0, #17
 998 0026 0ED8     		bhi	.L87
 572:../firmware/n32g430_std_periph_driver/src/n32g430_adc.c ****         ADC->SAMPT1 &= ADC_SAMP_TIME_MASK(temp_value);
 999              		.loc 1 572 9 is_stmt 1 view .LVU225
ARM GAS  C:\Users\Dawn\AppData\Local\Temp\ccAGizNf.s 			page 29


 1000              	.LVL38:
 573:../firmware/n32g430_std_periph_driver/src/n32g430_adc.c ****         ADC->SAMPT1 |= (uint32_t)(sample_time << temp_value * ADC_SAMP_TIME_UNIT_OFFSET);
 1001              		.loc 1 573 9 view .LVU226
 572:../firmware/n32g430_std_periph_driver/src/n32g430_adc.c ****         ADC->SAMPT1 &= ADC_SAMP_TIME_MASK(temp_value);
 1002              		.loc 1 572 30 is_stmt 0 view .LVU227
 1003 0028 0A38     		subs	r0, r0, #10
 1004              	.LVL39:
 573:../firmware/n32g430_std_periph_driver/src/n32g430_adc.c ****         ADC->SAMPT1 |= (uint32_t)(sample_time << temp_value * ADC_SAMP_TIME_UNIT_OFFSET);
 1005              		.loc 1 573 12 view .LVU228
 1006 002a DA68     		ldr	r2, [r3, #12]
 573:../firmware/n32g430_std_periph_driver/src/n32g430_adc.c ****         ADC->SAMPT1 |= (uint32_t)(sample_time << temp_value * ADC_SAMP_TIME_UNIT_OFFSET);
 1007              		.loc 1 573 24 view .LVU229
 1008 002c 00EB4000 		add	r0, r0, r0, lsl #1
 1009 0030 0724     		movs	r4, #7
 1010 0032 8440     		lsls	r4, r4, r0
 573:../firmware/n32g430_std_periph_driver/src/n32g430_adc.c ****         ADC->SAMPT1 |= (uint32_t)(sample_time << temp_value * ADC_SAMP_TIME_UNIT_OFFSET);
 1011              		.loc 1 573 21 view .LVU230
 1012 0034 22EA0402 		bic	r2, r2, r4
 1013 0038 DA60     		str	r2, [r3, #12]
 574:../firmware/n32g430_std_periph_driver/src/n32g430_adc.c ****     }
 1014              		.loc 1 574 9 is_stmt 1 view .LVU231
 574:../firmware/n32g430_std_periph_driver/src/n32g430_adc.c ****     }
 1015              		.loc 1 574 12 is_stmt 0 view .LVU232
 1016 003a DA68     		ldr	r2, [r3, #12]
 574:../firmware/n32g430_std_periph_driver/src/n32g430_adc.c ****     }
 1017              		.loc 1 574 47 view .LVU233
 1018 003c 01FA00F0 		lsl	r0, r1, r0
 574:../firmware/n32g430_std_periph_driver/src/n32g430_adc.c ****     }
 1019              		.loc 1 574 21 view .LVU234
 1020 0040 1043     		orrs	r0, r0, r2
 1021 0042 D860     		str	r0, [r3, #12]
 1022 0044 EDE7     		b	.L84
 1023              	.LVL40:
 1024              	.L87:
 579:../firmware/n32g430_std_periph_driver/src/n32g430_adc.c ****         ADC->SAMPT3 |= (uint32_t)sample_time;
 1025              		.loc 1 579 9 is_stmt 1 view .LVU235
 579:../firmware/n32g430_std_periph_driver/src/n32g430_adc.c ****         ADC->SAMPT3 |= (uint32_t)sample_time;
 1026              		.loc 1 579 12 is_stmt 0 view .LVU236
 1027 0046 DA6D     		ldr	r2, [r3, #92]
 579:../firmware/n32g430_std_periph_driver/src/n32g430_adc.c ****         ADC->SAMPT3 |= (uint32_t)sample_time;
 1028              		.loc 1 579 21 view .LVU237
 1029 0048 22F00702 		bic	r2, r2, #7
 1030 004c DA65     		str	r2, [r3, #92]
 580:../firmware/n32g430_std_periph_driver/src/n32g430_adc.c ****     }
 1031              		.loc 1 580 9 is_stmt 1 view .LVU238
 580:../firmware/n32g430_std_periph_driver/src/n32g430_adc.c ****     }
 1032              		.loc 1 580 12 is_stmt 0 view .LVU239
 1033 004e DA6D     		ldr	r2, [r3, #92]
 580:../firmware/n32g430_std_periph_driver/src/n32g430_adc.c ****     }
 1034              		.loc 1 580 21 view .LVU240
 1035 0050 1143     		orrs	r1, r1, r2
 1036              	.LVL41:
 580:../firmware/n32g430_std_periph_driver/src/n32g430_adc.c ****     }
 1037              		.loc 1 580 21 view .LVU241
 1038 0052 D965     		str	r1, [r3, #92]
 1039              		.loc 1 582 1 view .LVU242
 1040 0054 E5E7     		b	.L84
ARM GAS  C:\Users\Dawn\AppData\Local\Temp\ccAGizNf.s 			page 30


 1041              	.L89:
 1042 0056 00BF     		.align	2
 1043              	.L88:
 1044 0058 00080240 		.word	1073874944
 1045              		.cfi_endproc
 1046              	.LFE151:
 1048              		.section	.text.ADC_Regular_Sequence_Conversion_Number_Config,"ax",%progbits
 1049              		.align	1
 1050              		.global	ADC_Regular_Sequence_Conversion_Number_Config
 1051              		.syntax unified
 1052              		.thumb
 1053              		.thumb_func
 1055              	ADC_Regular_Sequence_Conversion_Number_Config:
 1056              	.LVL42:
 1057              	.LFB152:
 583:../firmware/n32g430_std_periph_driver/src/n32g430_adc.c **** 
 584:../firmware/n32g430_std_periph_driver/src/n32g430_adc.c **** /**
 585:../firmware/n32g430_std_periph_driver/src/n32g430_adc.c **** *\*\name    ADC_Regular_Sequence_Conversion_Number_Config.
 586:../firmware/n32g430_std_periph_driver/src/n32g430_adc.c **** *\*\fun     Configures ADC channel conversion number in regular sequence.
 587:../firmware/n32g430_std_periph_driver/src/n32g430_adc.c **** *\*\param   channel :
 588:../firmware/n32g430_std_periph_driver/src/n32g430_adc.c **** *\*\          - ADC_CH_0
 589:../firmware/n32g430_std_periph_driver/src/n32g430_adc.c **** *\*\          - ADC_CH_1
 590:../firmware/n32g430_std_periph_driver/src/n32g430_adc.c **** *\*\          - ADC_CH_2
 591:../firmware/n32g430_std_periph_driver/src/n32g430_adc.c **** *\*\          - ADC_CH_3
 592:../firmware/n32g430_std_periph_driver/src/n32g430_adc.c **** *\*\          - ADC_CH_4
 593:../firmware/n32g430_std_periph_driver/src/n32g430_adc.c **** *\*\          - ADC_CH_5
 594:../firmware/n32g430_std_periph_driver/src/n32g430_adc.c **** *\*\          - ADC_CH_6
 595:../firmware/n32g430_std_periph_driver/src/n32g430_adc.c **** *\*\          - ADC_CH_7
 596:../firmware/n32g430_std_periph_driver/src/n32g430_adc.c **** *\*\          - ADC_CH_8
 597:../firmware/n32g430_std_periph_driver/src/n32g430_adc.c **** *\*\          - ADC_CH_9
 598:../firmware/n32g430_std_periph_driver/src/n32g430_adc.c **** *\*\          - ADC_CH_10
 599:../firmware/n32g430_std_periph_driver/src/n32g430_adc.c **** *\*\          - ADC_CH_11
 600:../firmware/n32g430_std_periph_driver/src/n32g430_adc.c **** *\*\          - ADC_CH_12
 601:../firmware/n32g430_std_periph_driver/src/n32g430_adc.c **** *\*\          - ADC_CH_13
 602:../firmware/n32g430_std_periph_driver/src/n32g430_adc.c **** *\*\          - ADC_CH_14
 603:../firmware/n32g430_std_periph_driver/src/n32g430_adc.c **** *\*\          - ADC_CH_15
 604:../firmware/n32g430_std_periph_driver/src/n32g430_adc.c **** *\*\          - ADC_CH_16
 605:../firmware/n32g430_std_periph_driver/src/n32g430_adc.c **** *\*\          - ADC_CH_17
 606:../firmware/n32g430_std_periph_driver/src/n32g430_adc.c **** *\*\          - ADC_CH_18
 607:../firmware/n32g430_std_periph_driver/src/n32g430_adc.c **** *\*\param   number :
 608:../firmware/n32g430_std_periph_driver/src/n32g430_adc.c **** *\*\          - ADC_REGULAR_NUMBER_1
 609:../firmware/n32g430_std_periph_driver/src/n32g430_adc.c **** *\*\          - ADC_REGULAR_NUMBER_2
 610:../firmware/n32g430_std_periph_driver/src/n32g430_adc.c **** *\*\          - ADC_REGULAR_NUMBER_3
 611:../firmware/n32g430_std_periph_driver/src/n32g430_adc.c **** *\*\          - ADC_REGULAR_NUMBER_4
 612:../firmware/n32g430_std_periph_driver/src/n32g430_adc.c **** *\*\          - ADC_REGULAR_NUMBER_5
 613:../firmware/n32g430_std_periph_driver/src/n32g430_adc.c **** *\*\          - ADC_REGULAR_NUMBER_6
 614:../firmware/n32g430_std_periph_driver/src/n32g430_adc.c **** *\*\          - ADC_REGULAR_NUMBER_7
 615:../firmware/n32g430_std_periph_driver/src/n32g430_adc.c **** *\*\          - ADC_REGULAR_NUMBER_8
 616:../firmware/n32g430_std_periph_driver/src/n32g430_adc.c **** *\*\          - ADC_REGULAR_NUMBER_9
 617:../firmware/n32g430_std_periph_driver/src/n32g430_adc.c **** *\*\          - ADC_REGULAR_NUMBER_10
 618:../firmware/n32g430_std_periph_driver/src/n32g430_adc.c **** *\*\          - ADC_REGULAR_NUMBER_11
 619:../firmware/n32g430_std_periph_driver/src/n32g430_adc.c **** *\*\          - ADC_REGULAR_NUMBER_12
 620:../firmware/n32g430_std_periph_driver/src/n32g430_adc.c **** *\*\          - ADC_REGULAR_NUMBER_13
 621:../firmware/n32g430_std_periph_driver/src/n32g430_adc.c **** *\*\          - ADC_REGULAR_NUMBER_14
 622:../firmware/n32g430_std_periph_driver/src/n32g430_adc.c **** *\*\          - ADC_REGULAR_NUMBER_15
 623:../firmware/n32g430_std_periph_driver/src/n32g430_adc.c **** *\*\          - ADC_REGULAR_NUMBER_16
 624:../firmware/n32g430_std_periph_driver/src/n32g430_adc.c **** *\*\return  none
ARM GAS  C:\Users\Dawn\AppData\Local\Temp\ccAGizNf.s 			page 31


 625:../firmware/n32g430_std_periph_driver/src/n32g430_adc.c **** **/
 626:../firmware/n32g430_std_periph_driver/src/n32g430_adc.c **** void ADC_Regular_Sequence_Conversion_Number_Config(uint8_t channel, uint8_t number)
 627:../firmware/n32g430_std_periph_driver/src/n32g430_adc.c **** {
 1058              		.loc 1 627 1 is_stmt 1 view -0
 1059              		.cfi_startproc
 1060              		@ args = 0, pretend = 0, frame = 0
 1061              		@ frame_needed = 0, uses_anonymous_args = 0
 628:../firmware/n32g430_std_periph_driver/src/n32g430_adc.c ****     /* ADC regular sequence register3 configures channel1 to channel6 */
 629:../firmware/n32g430_std_periph_driver/src/n32g430_adc.c ****     if(number <= ADC_REG_SEQ_NUM_OFFSET1)
 1062              		.loc 1 629 5 view .LVU244
 1063              		.loc 1 629 7 is_stmt 0 view .LVU245
 1064 0000 0529     		cmp	r1, #5
 627:../firmware/n32g430_std_periph_driver/src/n32g430_adc.c ****     /* ADC regular sequence register3 configures channel1 to channel6 */
 1065              		.loc 1 627 1 view .LVU246
 1066 0002 10B5     		push	{r4, lr}
 1067              	.LCFI5:
 1068              		.cfi_def_cfa_offset 8
 1069              		.cfi_offset 4, -8
 1070              		.cfi_offset 14, -4
 1071 0004 174B     		ldr	r3, .L94
 1072              		.loc 1 629 7 view .LVU247
 1073 0006 0DD8     		bhi	.L91
 630:../firmware/n32g430_std_periph_driver/src/n32g430_adc.c ****     {
 631:../firmware/n32g430_std_periph_driver/src/n32g430_adc.c ****         ADC->RSEQ3 &= ADC_REGULAR_NUMBER_MASK(number);
 1074              		.loc 1 631 9 is_stmt 1 view .LVU248
 1075              		.loc 1 631 12 is_stmt 0 view .LVU249
 1076 0008 5A6B     		ldr	r2, [r3, #52]
 1077              		.loc 1 631 23 view .LVU250
 1078 000a 01EB8101 		add	r1, r1, r1, lsl #2
 1079              	.LVL43:
 1080              		.loc 1 631 23 view .LVU251
 1081 000e 1F24     		movs	r4, #31
 1082 0010 8C40     		lsls	r4, r4, r1
 1083              		.loc 1 631 20 view .LVU252
 1084 0012 22EA0402 		bic	r2, r2, r4
 1085 0016 5A63     		str	r2, [r3, #52]
 632:../firmware/n32g430_std_periph_driver/src/n32g430_adc.c ****         ADC->RSEQ3 |= ADC_REGULAR_NUMBER_SET(channel, number);
 1086              		.loc 1 632 9 is_stmt 1 view .LVU253
 1087              		.loc 1 632 12 is_stmt 0 view .LVU254
 1088 0018 5A6B     		ldr	r2, [r3, #52]
 1089              		.loc 1 632 23 view .LVU255
 1090 001a 00FA01F1 		lsl	r1, r0, r1
 1091              		.loc 1 632 20 view .LVU256
 1092 001e 1143     		orrs	r1, r1, r2
 1093 0020 5963     		str	r1, [r3, #52]
 1094              	.LVL44:
 1095              	.L90:
 633:../firmware/n32g430_std_periph_driver/src/n32g430_adc.c ****     }
 634:../firmware/n32g430_std_periph_driver/src/n32g430_adc.c ****     /* ADC regular sequence register2 configures channel7 to channel12 */
 635:../firmware/n32g430_std_periph_driver/src/n32g430_adc.c ****     else if(number <= ADC_REG_SEQ_NUM_OFFSET2)
 636:../firmware/n32g430_std_periph_driver/src/n32g430_adc.c ****     {
 637:../firmware/n32g430_std_periph_driver/src/n32g430_adc.c ****         ADC->RSEQ2 &= ADC_REGULAR_NUMBER_MASK((number - ADC_REG_SEQ_NUM_OFFSET3));
 638:../firmware/n32g430_std_periph_driver/src/n32g430_adc.c ****         ADC->RSEQ2 |= ADC_REGULAR_NUMBER_SET(channel, (number - ADC_REG_SEQ_NUM_OFFSET3));
 639:../firmware/n32g430_std_periph_driver/src/n32g430_adc.c ****     }
 640:../firmware/n32g430_std_periph_driver/src/n32g430_adc.c ****     /* ADC regular sequence register1 configures channel13 to channel16 */
 641:../firmware/n32g430_std_periph_driver/src/n32g430_adc.c ****     else
 642:../firmware/n32g430_std_periph_driver/src/n32g430_adc.c ****     {
ARM GAS  C:\Users\Dawn\AppData\Local\Temp\ccAGizNf.s 			page 32


 643:../firmware/n32g430_std_periph_driver/src/n32g430_adc.c ****         ADC->RSEQ1 &= ADC_REGULAR_NUMBER_MASK((number - ADC_REG_SEQ_NUM_OFFSET4));
 644:../firmware/n32g430_std_periph_driver/src/n32g430_adc.c ****         ADC->RSEQ1 |= ADC_REGULAR_NUMBER_SET(channel, (number - ADC_REG_SEQ_NUM_OFFSET4));
 645:../firmware/n32g430_std_periph_driver/src/n32g430_adc.c ****     }
 646:../firmware/n32g430_std_periph_driver/src/n32g430_adc.c **** }
 1096              		.loc 1 646 1 view .LVU257
 1097 0022 10BD     		pop	{r4, pc}
 1098              	.LVL45:
 1099              	.L91:
 635:../firmware/n32g430_std_periph_driver/src/n32g430_adc.c ****     {
 1100              		.loc 1 635 10 is_stmt 1 view .LVU258
 635:../firmware/n32g430_std_periph_driver/src/n32g430_adc.c ****     {
 1101              		.loc 1 635 12 is_stmt 0 view .LVU259
 1102 0024 0B29     		cmp	r1, #11
 1103 0026 0ED8     		bhi	.L93
 637:../firmware/n32g430_std_periph_driver/src/n32g430_adc.c ****         ADC->RSEQ2 |= ADC_REGULAR_NUMBER_SET(channel, (number - ADC_REG_SEQ_NUM_OFFSET3));
 1104              		.loc 1 637 9 is_stmt 1 view .LVU260
 637:../firmware/n32g430_std_periph_driver/src/n32g430_adc.c ****         ADC->RSEQ2 |= ADC_REGULAR_NUMBER_SET(channel, (number - ADC_REG_SEQ_NUM_OFFSET3));
 1105              		.loc 1 637 23 is_stmt 0 view .LVU261
 1106 0028 0639     		subs	r1, r1, #6
 1107              	.LVL46:
 637:../firmware/n32g430_std_periph_driver/src/n32g430_adc.c ****         ADC->RSEQ2 |= ADC_REGULAR_NUMBER_SET(channel, (number - ADC_REG_SEQ_NUM_OFFSET3));
 1108              		.loc 1 637 12 view .LVU262
 1109 002a 1A6B     		ldr	r2, [r3, #48]
 637:../firmware/n32g430_std_periph_driver/src/n32g430_adc.c ****         ADC->RSEQ2 |= ADC_REGULAR_NUMBER_SET(channel, (number - ADC_REG_SEQ_NUM_OFFSET3));
 1110              		.loc 1 637 23 view .LVU263
 1111 002c 01EB8101 		add	r1, r1, r1, lsl #2
 1112 0030 1F24     		movs	r4, #31
 1113 0032 8C40     		lsls	r4, r4, r1
 637:../firmware/n32g430_std_periph_driver/src/n32g430_adc.c ****         ADC->RSEQ2 |= ADC_REGULAR_NUMBER_SET(channel, (number - ADC_REG_SEQ_NUM_OFFSET3));
 1114              		.loc 1 637 20 view .LVU264
 1115 0034 22EA0402 		bic	r2, r2, r4
 1116 0038 1A63     		str	r2, [r3, #48]
 638:../firmware/n32g430_std_periph_driver/src/n32g430_adc.c ****     }
 1117              		.loc 1 638 9 is_stmt 1 view .LVU265
 638:../firmware/n32g430_std_periph_driver/src/n32g430_adc.c ****     }
 1118              		.loc 1 638 12 is_stmt 0 view .LVU266
 1119 003a 1A6B     		ldr	r2, [r3, #48]
 638:../firmware/n32g430_std_periph_driver/src/n32g430_adc.c ****     }
 1120              		.loc 1 638 23 view .LVU267
 1121 003c 00FA01F1 		lsl	r1, r0, r1
 638:../firmware/n32g430_std_periph_driver/src/n32g430_adc.c ****     }
 1122              		.loc 1 638 20 view .LVU268
 1123 0040 1143     		orrs	r1, r1, r2
 1124 0042 1963     		str	r1, [r3, #48]
 1125 0044 EDE7     		b	.L90
 1126              	.LVL47:
 1127              	.L93:
 643:../firmware/n32g430_std_periph_driver/src/n32g430_adc.c ****         ADC->RSEQ1 |= ADC_REGULAR_NUMBER_SET(channel, (number - ADC_REG_SEQ_NUM_OFFSET4));
 1128              		.loc 1 643 9 is_stmt 1 view .LVU269
 643:../firmware/n32g430_std_periph_driver/src/n32g430_adc.c ****         ADC->RSEQ1 |= ADC_REGULAR_NUMBER_SET(channel, (number - ADC_REG_SEQ_NUM_OFFSET4));
 1129              		.loc 1 643 23 is_stmt 0 view .LVU270
 1130 0046 0C39     		subs	r1, r1, #12
 1131              	.LVL48:
 643:../firmware/n32g430_std_periph_driver/src/n32g430_adc.c ****         ADC->RSEQ1 |= ADC_REGULAR_NUMBER_SET(channel, (number - ADC_REG_SEQ_NUM_OFFSET4));
 1132              		.loc 1 643 12 view .LVU271
 1133 0048 DA6A     		ldr	r2, [r3, #44]
 643:../firmware/n32g430_std_periph_driver/src/n32g430_adc.c ****         ADC->RSEQ1 |= ADC_REGULAR_NUMBER_SET(channel, (number - ADC_REG_SEQ_NUM_OFFSET4));
ARM GAS  C:\Users\Dawn\AppData\Local\Temp\ccAGizNf.s 			page 33


 1134              		.loc 1 643 23 view .LVU272
 1135 004a 01EB8101 		add	r1, r1, r1, lsl #2
 1136 004e 1F24     		movs	r4, #31
 1137 0050 8C40     		lsls	r4, r4, r1
 643:../firmware/n32g430_std_periph_driver/src/n32g430_adc.c ****         ADC->RSEQ1 |= ADC_REGULAR_NUMBER_SET(channel, (number - ADC_REG_SEQ_NUM_OFFSET4));
 1138              		.loc 1 643 20 view .LVU273
 1139 0052 22EA0402 		bic	r2, r2, r4
 1140 0056 DA62     		str	r2, [r3, #44]
 644:../firmware/n32g430_std_periph_driver/src/n32g430_adc.c ****     }
 1141              		.loc 1 644 9 is_stmt 1 view .LVU274
 644:../firmware/n32g430_std_periph_driver/src/n32g430_adc.c ****     }
 1142              		.loc 1 644 12 is_stmt 0 view .LVU275
 1143 0058 DA6A     		ldr	r2, [r3, #44]
 644:../firmware/n32g430_std_periph_driver/src/n32g430_adc.c ****     }
 1144              		.loc 1 644 23 view .LVU276
 1145 005a 8840     		lsls	r0, r0, r1
 1146              	.LVL49:
 644:../firmware/n32g430_std_periph_driver/src/n32g430_adc.c ****     }
 1147              		.loc 1 644 20 view .LVU277
 1148 005c 1043     		orrs	r0, r0, r2
 1149 005e D862     		str	r0, [r3, #44]
 1150              		.loc 1 646 1 view .LVU278
 1151 0060 DFE7     		b	.L90
 1152              	.L95:
 1153 0062 00BF     		.align	2
 1154              	.L94:
 1155 0064 00080240 		.word	1073874944
 1156              		.cfi_endproc
 1157              	.LFE152:
 1159              		.section	.text.ADC_External_Trigger_Conversion_Config,"ax",%progbits
 1160              		.align	1
 1161              		.global	ADC_External_Trigger_Conversion_Config
 1162              		.syntax unified
 1163              		.thumb
 1164              		.thumb_func
 1166              	ADC_External_Trigger_Conversion_Config:
 1167              	.LVL50:
 1168              	.LFB153:
 647:../firmware/n32g430_std_periph_driver/src/n32g430_adc.c **** 
 648:../firmware/n32g430_std_periph_driver/src/n32g430_adc.c **** /**
 649:../firmware/n32g430_std_periph_driver/src/n32g430_adc.c **** *\*\name    ADC_External_Trigger_Conversion_Config.
 650:../firmware/n32g430_std_periph_driver/src/n32g430_adc.c **** *\*\fun     ADC conversion through external trigger enable.
 651:../firmware/n32g430_std_periph_driver/src/n32g430_adc.c **** *\*\param   group_operation :
 652:../firmware/n32g430_std_periph_driver/src/n32g430_adc.c **** *\*\          - ADC_EXTTRIGCONV_REGULAR_ENABLE
 653:../firmware/n32g430_std_periph_driver/src/n32g430_adc.c **** *\*\          - ADC_EXTTRIGCONV_REGULAR_DISABLE
 654:../firmware/n32g430_std_periph_driver/src/n32g430_adc.c **** *\*\          - ADC_EXTTRIGCONV_INJECTED_ENABLE
 655:../firmware/n32g430_std_periph_driver/src/n32g430_adc.c **** *\*\          - ADC_EXTTRIGCONV_INJECTED_DISABLE
 656:../firmware/n32g430_std_periph_driver/src/n32g430_adc.c **** *\*\return  none
 657:../firmware/n32g430_std_periph_driver/src/n32g430_adc.c **** **/
 658:../firmware/n32g430_std_periph_driver/src/n32g430_adc.c **** void ADC_External_Trigger_Conversion_Config(uint32_t group_operation)
 659:../firmware/n32g430_std_periph_driver/src/n32g430_adc.c **** {
 1169              		.loc 1 659 1 is_stmt 1 view -0
 1170              		.cfi_startproc
 1171              		@ args = 0, pretend = 0, frame = 0
 1172              		@ frame_needed = 0, uses_anonymous_args = 0
 1173              		@ link register save eliminated.
 660:../firmware/n32g430_std_periph_driver/src/n32g430_adc.c ****     if(group_operation == ADC_EXTTRIGCONV_REGULAR_ENABLE)
ARM GAS  C:\Users\Dawn\AppData\Local\Temp\ccAGizNf.s 			page 34


 1174              		.loc 1 660 5 view .LVU280
 1175              		.loc 1 660 7 is_stmt 0 view .LVU281
 1176 0000 B0F5801F 		cmp	r0, #1048576
 1177 0004 05D1     		bne	.L97
 661:../firmware/n32g430_std_periph_driver/src/n32g430_adc.c ****     {
 662:../firmware/n32g430_std_periph_driver/src/n32g430_adc.c ****         /* Enable ADC regular group channels conversion on external event */
 663:../firmware/n32g430_std_periph_driver/src/n32g430_adc.c ****         ADC->CTRL2 |= group_operation;
 1178              		.loc 1 663 9 is_stmt 1 view .LVU282
 1179              		.loc 1 663 12 is_stmt 0 view .LVU283
 1180 0006 104A     		ldr	r2, .L102
 1181 0008 9368     		ldr	r3, [r2, #8]
 1182              		.loc 1 663 20 view .LVU284
 1183 000a 43F48013 		orr	r3, r3, #1048576
 1184              	.L101:
 664:../firmware/n32g430_std_periph_driver/src/n32g430_adc.c ****     }
 665:../firmware/n32g430_std_periph_driver/src/n32g430_adc.c ****     else if(group_operation == ADC_EXTTRIGCONV_REGULAR_DISABLE)
 666:../firmware/n32g430_std_periph_driver/src/n32g430_adc.c ****     {
 667:../firmware/n32g430_std_periph_driver/src/n32g430_adc.c ****         /* Disables ADC regular group channels conversion on external event */
 668:../firmware/n32g430_std_periph_driver/src/n32g430_adc.c ****         ADC->CTRL2 &= group_operation;
 669:../firmware/n32g430_std_periph_driver/src/n32g430_adc.c ****     }
 670:../firmware/n32g430_std_periph_driver/src/n32g430_adc.c ****     else if(group_operation == ADC_EXTTRIGCONV_INJECTED_ENABLE)
 671:../firmware/n32g430_std_periph_driver/src/n32g430_adc.c ****     {
 672:../firmware/n32g430_std_periph_driver/src/n32g430_adc.c ****         /* Enables ADC injected group channels conversion on external event */
 673:../firmware/n32g430_std_periph_driver/src/n32g430_adc.c ****         ADC->CTRL2 |= group_operation;
 674:../firmware/n32g430_std_periph_driver/src/n32g430_adc.c ****     }
 675:../firmware/n32g430_std_periph_driver/src/n32g430_adc.c ****     else if(group_operation == ADC_EXTTRIGCONV_INJECTED_DISABLE)
 676:../firmware/n32g430_std_periph_driver/src/n32g430_adc.c ****     {
 677:../firmware/n32g430_std_periph_driver/src/n32g430_adc.c ****         /* Disables ADC injected group channels conversion on external event */
 678:../firmware/n32g430_std_periph_driver/src/n32g430_adc.c ****         ADC->CTRL2 &= group_operation;
 1185              		.loc 1 678 20 view .LVU285
 1186 000e 9360     		str	r3, [r2, #8]
 1187              	.L96:
 679:../firmware/n32g430_std_periph_driver/src/n32g430_adc.c ****     }
 680:../firmware/n32g430_std_periph_driver/src/n32g430_adc.c **** }
 1188              		.loc 1 680 1 view .LVU286
 1189 0010 7047     		bx	lr
 1190              	.L97:
 665:../firmware/n32g430_std_periph_driver/src/n32g430_adc.c ****     {
 1191              		.loc 1 665 10 is_stmt 1 view .LVU287
 665:../firmware/n32g430_std_periph_driver/src/n32g430_adc.c ****     {
 1192              		.loc 1 665 12 is_stmt 0 view .LVU288
 1193 0012 6FF48013 		mvn	r3, #1048576
 1194 0016 9842     		cmp	r0, r3
 1195 0018 04D1     		bne	.L99
 668:../firmware/n32g430_std_periph_driver/src/n32g430_adc.c ****     }
 1196              		.loc 1 668 9 is_stmt 1 view .LVU289
 668:../firmware/n32g430_std_periph_driver/src/n32g430_adc.c ****     }
 1197              		.loc 1 668 12 is_stmt 0 view .LVU290
 1198 001a 0B4A     		ldr	r2, .L102
 1199 001c 9368     		ldr	r3, [r2, #8]
 668:../firmware/n32g430_std_periph_driver/src/n32g430_adc.c ****     }
 1200              		.loc 1 668 20 view .LVU291
 1201 001e 23F48013 		bic	r3, r3, #1048576
 1202 0022 F4E7     		b	.L101
 1203              	.L99:
 670:../firmware/n32g430_std_periph_driver/src/n32g430_adc.c ****     {
 1204              		.loc 1 670 10 is_stmt 1 view .LVU292
ARM GAS  C:\Users\Dawn\AppData\Local\Temp\ccAGizNf.s 			page 35


 670:../firmware/n32g430_std_periph_driver/src/n32g430_adc.c ****     {
 1205              		.loc 1 670 12 is_stmt 0 view .LVU293
 1206 0024 B0F5004F 		cmp	r0, #32768
 1207 0028 04D1     		bne	.L100
 673:../firmware/n32g430_std_periph_driver/src/n32g430_adc.c ****     }
 1208              		.loc 1 673 9 is_stmt 1 view .LVU294
 673:../firmware/n32g430_std_periph_driver/src/n32g430_adc.c ****     }
 1209              		.loc 1 673 12 is_stmt 0 view .LVU295
 1210 002a 074A     		ldr	r2, .L102
 1211 002c 9368     		ldr	r3, [r2, #8]
 673:../firmware/n32g430_std_periph_driver/src/n32g430_adc.c ****     }
 1212              		.loc 1 673 20 view .LVU296
 1213 002e 43F40043 		orr	r3, r3, #32768
 1214 0032 ECE7     		b	.L101
 1215              	.L100:
 675:../firmware/n32g430_std_periph_driver/src/n32g430_adc.c ****     {
 1216              		.loc 1 675 10 is_stmt 1 view .LVU297
 675:../firmware/n32g430_std_periph_driver/src/n32g430_adc.c ****     {
 1217              		.loc 1 675 12 is_stmt 0 view .LVU298
 1218 0034 6FF40043 		mvn	r3, #32768
 1219 0038 9842     		cmp	r0, r3
 1220 003a E9D1     		bne	.L96
 678:../firmware/n32g430_std_periph_driver/src/n32g430_adc.c ****     }
 1221              		.loc 1 678 9 is_stmt 1 view .LVU299
 678:../firmware/n32g430_std_periph_driver/src/n32g430_adc.c ****     }
 1222              		.loc 1 678 12 is_stmt 0 view .LVU300
 1223 003c 024A     		ldr	r2, .L102
 1224 003e 9368     		ldr	r3, [r2, #8]
 678:../firmware/n32g430_std_periph_driver/src/n32g430_adc.c ****     }
 1225              		.loc 1 678 20 view .LVU301
 1226 0040 23F40043 		bic	r3, r3, #32768
 1227 0044 E3E7     		b	.L101
 1228              	.L103:
 1229 0046 00BF     		.align	2
 1230              	.L102:
 1231 0048 00080240 		.word	1073874944
 1232              		.cfi_endproc
 1233              	.LFE153:
 1235              		.section	.text.ADC_Regular_Group_Conversion_Data_Get,"ax",%progbits
 1236              		.align	1
 1237              		.global	ADC_Regular_Group_Conversion_Data_Get
 1238              		.syntax unified
 1239              		.thumb
 1240              		.thumb_func
 1242              	ADC_Regular_Group_Conversion_Data_Get:
 1243              	.LFB154:
 681:../firmware/n32g430_std_periph_driver/src/n32g430_adc.c **** 
 682:../firmware/n32g430_std_periph_driver/src/n32g430_adc.c **** /**
 683:../firmware/n32g430_std_periph_driver/src/n32g430_adc.c **** *\*\name    ADC_Regular_Group_Conversion_Data_Get.
 684:../firmware/n32g430_std_periph_driver/src/n32g430_adc.c **** *\*\fun     Get ADC regular group conversion data.
 685:../firmware/n32g430_std_periph_driver/src/n32g430_adc.c **** *\*\return  ADC regular group conversion data.
 686:../firmware/n32g430_std_periph_driver/src/n32g430_adc.c **** **/
 687:../firmware/n32g430_std_periph_driver/src/n32g430_adc.c **** uint16_t ADC_Regular_Group_Conversion_Data_Get(void)
 688:../firmware/n32g430_std_periph_driver/src/n32g430_adc.c **** {
 1244              		.loc 1 688 1 is_stmt 1 view -0
 1245              		.cfi_startproc
 1246              		@ args = 0, pretend = 0, frame = 0
ARM GAS  C:\Users\Dawn\AppData\Local\Temp\ccAGizNf.s 			page 36


 1247              		@ frame_needed = 0, uses_anonymous_args = 0
 1248              		@ link register save eliminated.
 689:../firmware/n32g430_std_periph_driver/src/n32g430_adc.c ****     /* Return the conversion value */
 690:../firmware/n32g430_std_periph_driver/src/n32g430_adc.c ****     return (uint16_t)ADC->DAT;
 1249              		.loc 1 690 5 view .LVU303
 1250              		.loc 1 690 25 is_stmt 0 view .LVU304
 1251 0000 014B     		ldr	r3, .L105
 1252 0002 D86C     		ldr	r0, [r3, #76]
 691:../firmware/n32g430_std_periph_driver/src/n32g430_adc.c **** }
 1253              		.loc 1 691 1 view .LVU305
 1254 0004 80B2     		uxth	r0, r0
 1255 0006 7047     		bx	lr
 1256              	.L106:
 1257              		.align	2
 1258              	.L105:
 1259 0008 00080240 		.word	1073874944
 1260              		.cfi_endproc
 1261              	.LFE154:
 1263              		.section	.text.ADC_Injected_Group_Autoconversion_Enable,"ax",%progbits
 1264              		.align	1
 1265              		.global	ADC_Injected_Group_Autoconversion_Enable
 1266              		.syntax unified
 1267              		.thumb
 1268              		.thumb_func
 1270              	ADC_Injected_Group_Autoconversion_Enable:
 1271              	.LFB155:
 692:../firmware/n32g430_std_periph_driver/src/n32g430_adc.c **** 
 693:../firmware/n32g430_std_periph_driver/src/n32g430_adc.c **** /**
 694:../firmware/n32g430_std_periph_driver/src/n32g430_adc.c **** *\*\name    ADC_Injected_Group_Autoconversion_Enable.
 695:../firmware/n32g430_std_periph_driver/src/n32g430_adc.c **** *\*\fun     Enable ADC injected group auto conversion mode.
 696:../firmware/n32g430_std_periph_driver/src/n32g430_adc.c **** *\*\return  none
 697:../firmware/n32g430_std_periph_driver/src/n32g430_adc.c **** **/
 698:../firmware/n32g430_std_periph_driver/src/n32g430_adc.c **** void ADC_Injected_Group_Autoconversion_Enable(void)
 699:../firmware/n32g430_std_periph_driver/src/n32g430_adc.c **** {
 1272              		.loc 1 699 1 is_stmt 1 view -0
 1273              		.cfi_startproc
 1274              		@ args = 0, pretend = 0, frame = 0
 1275              		@ frame_needed = 0, uses_anonymous_args = 0
 1276              		@ link register save eliminated.
 700:../firmware/n32g430_std_periph_driver/src/n32g430_adc.c ****     /* Set the ADC_CTRL1 AUTOJC bit to enable ADC injected group auto conversion mode */
 701:../firmware/n32g430_std_periph_driver/src/n32g430_adc.c ****     ADC->CTRL1 |= ADC_INJECTED_AUTOCONV_ENABLE;
 1277              		.loc 1 701 5 view .LVU307
 1278              		.loc 1 701 8 is_stmt 0 view .LVU308
 1279 0000 024A     		ldr	r2, .L108
 1280 0002 5368     		ldr	r3, [r2, #4]
 1281              		.loc 1 701 16 view .LVU309
 1282 0004 43F48063 		orr	r3, r3, #1024
 1283 0008 5360     		str	r3, [r2, #4]
 702:../firmware/n32g430_std_periph_driver/src/n32g430_adc.c **** }
 1284              		.loc 1 702 1 view .LVU310
 1285 000a 7047     		bx	lr
 1286              	.L109:
 1287              		.align	2
 1288              	.L108:
 1289 000c 00080240 		.word	1073874944
 1290              		.cfi_endproc
 1291              	.LFE155:
ARM GAS  C:\Users\Dawn\AppData\Local\Temp\ccAGizNf.s 			page 37


 1293              		.section	.text.ADC_Injected_Group_Autoconversion_Disable,"ax",%progbits
 1294              		.align	1
 1295              		.global	ADC_Injected_Group_Autoconversion_Disable
 1296              		.syntax unified
 1297              		.thumb
 1298              		.thumb_func
 1300              	ADC_Injected_Group_Autoconversion_Disable:
 1301              	.LFB156:
 703:../firmware/n32g430_std_periph_driver/src/n32g430_adc.c **** 
 704:../firmware/n32g430_std_periph_driver/src/n32g430_adc.c **** /**
 705:../firmware/n32g430_std_periph_driver/src/n32g430_adc.c **** *\*\name    ADC_Injected_Group_Autoconversion_Disable.
 706:../firmware/n32g430_std_periph_driver/src/n32g430_adc.c **** *\*\fun     Disable ADC injected group auto conversion mode.
 707:../firmware/n32g430_std_periph_driver/src/n32g430_adc.c **** *\*\return  none
 708:../firmware/n32g430_std_periph_driver/src/n32g430_adc.c **** **/
 709:../firmware/n32g430_std_periph_driver/src/n32g430_adc.c **** void ADC_Injected_Group_Autoconversion_Disable(void)
 710:../firmware/n32g430_std_periph_driver/src/n32g430_adc.c **** {
 1302              		.loc 1 710 1 is_stmt 1 view -0
 1303              		.cfi_startproc
 1304              		@ args = 0, pretend = 0, frame = 0
 1305              		@ frame_needed = 0, uses_anonymous_args = 0
 1306              		@ link register save eliminated.
 711:../firmware/n32g430_std_periph_driver/src/n32g430_adc.c ****     /* Clean the ADC_CTRL1 AUTOJC bit to disable ADC injected group auto conversion mode */
 712:../firmware/n32g430_std_periph_driver/src/n32g430_adc.c ****     ADC->CTRL1 &= ADC_INJECTED_AUTOCONV_DISABLE;
 1307              		.loc 1 712 5 view .LVU312
 1308              		.loc 1 712 8 is_stmt 0 view .LVU313
 1309 0000 024A     		ldr	r2, .L111
 1310 0002 5368     		ldr	r3, [r2, #4]
 1311              		.loc 1 712 16 view .LVU314
 1312 0004 23F48063 		bic	r3, r3, #1024
 1313 0008 5360     		str	r3, [r2, #4]
 713:../firmware/n32g430_std_periph_driver/src/n32g430_adc.c **** }
 1314              		.loc 1 713 1 view .LVU315
 1315 000a 7047     		bx	lr
 1316              	.L112:
 1317              		.align	2
 1318              	.L111:
 1319 000c 00080240 		.word	1073874944
 1320              		.cfi_endproc
 1321              	.LFE156:
 1323              		.section	.text.ADC_Injected_Group_External_Trigger_Source_Config,"ax",%progbits
 1324              		.align	1
 1325              		.global	ADC_Injected_Group_External_Trigger_Source_Config
 1326              		.syntax unified
 1327              		.thumb
 1328              		.thumb_func
 1330              	ADC_Injected_Group_External_Trigger_Source_Config:
 1331              	.LVL51:
 1332              	.LFB157:
 714:../firmware/n32g430_std_periph_driver/src/n32g430_adc.c **** 
 715:../firmware/n32g430_std_periph_driver/src/n32g430_adc.c **** /**
 716:../firmware/n32g430_std_periph_driver/src/n32g430_adc.c **** *\*\name    ADC_Injected_Group_External_Trigger_Source_Config.
 717:../firmware/n32g430_std_periph_driver/src/n32g430_adc.c **** *\*\fun     Configures the ADC external trigger for injected group channels.
 718:../firmware/n32g430_std_periph_driver/src/n32g430_adc.c **** *\*\param   external_trigger_sources :
 719:../firmware/n32g430_std_periph_driver/src/n32g430_adc.c **** *\*\          - ADC_EXT_TRIGCONV_INJECTED_T1_TRGO           
 720:../firmware/n32g430_std_periph_driver/src/n32g430_adc.c **** *\*\          - ADC_EXT_TRIGCONV_INJECTED_T1_CC4            
 721:../firmware/n32g430_std_periph_driver/src/n32g430_adc.c **** *\*\          - ADC_EXT_TRIGCONV_INJECTED_T2_TRGO            
 722:../firmware/n32g430_std_periph_driver/src/n32g430_adc.c **** *\*\          - ADC_EXT_TRIGCONV_INJECTED_T2_CC1            
ARM GAS  C:\Users\Dawn\AppData\Local\Temp\ccAGizNf.s 			page 38


 723:../firmware/n32g430_std_periph_driver/src/n32g430_adc.c **** *\*\          - ADC_EXT_TRIGCONV_INJECTED_T3_CC4            
 724:../firmware/n32g430_std_periph_driver/src/n32g430_adc.c **** *\*\          - ADC_EXT_TRIGCONV_INJECTED_T4_TRGO          
 725:../firmware/n32g430_std_periph_driver/src/n32g430_adc.c **** *\*\          - ADC_EXT_TRIGCONV_INJECTED_EXT_INT15_TIM8_CC4 
 726:../firmware/n32g430_std_periph_driver/src/n32g430_adc.c **** *\*\          - ADC_EXT_TRIGCONV_INJECTED_SWSTRJCH          
 727:../firmware/n32g430_std_periph_driver/src/n32g430_adc.c **** *\*\return  none
 728:../firmware/n32g430_std_periph_driver/src/n32g430_adc.c **** **/
 729:../firmware/n32g430_std_periph_driver/src/n32g430_adc.c **** void ADC_Injected_Group_External_Trigger_Source_Config(uint32_t external_trigger_sources)
 730:../firmware/n32g430_std_periph_driver/src/n32g430_adc.c **** {
 1333              		.loc 1 730 1 is_stmt 1 view -0
 1334              		.cfi_startproc
 1335              		@ args = 0, pretend = 0, frame = 0
 1336              		@ frame_needed = 0, uses_anonymous_args = 0
 1337              		@ link register save eliminated.
 731:../firmware/n32g430_std_periph_driver/src/n32g430_adc.c ****     /* Clear ADC_CTRL2 EXTJSEL[2:0] bit */
 732:../firmware/n32g430_std_periph_driver/src/n32g430_adc.c ****     ADC->CTRL2 &= ADC_EXT_TRIGCONV_INJECTED_MASK;
 1338              		.loc 1 732 5 view .LVU317
 1339              		.loc 1 732 8 is_stmt 0 view .LVU318
 1340 0000 044B     		ldr	r3, .L114
 1341 0002 9A68     		ldr	r2, [r3, #8]
 1342              		.loc 1 732 16 view .LVU319
 1343 0004 22F4E042 		bic	r2, r2, #28672
 1344 0008 9A60     		str	r2, [r3, #8]
 733:../firmware/n32g430_std_periph_driver/src/n32g430_adc.c ****     /* Set ADC_CTRL2 EXTJSEL[2:0] bit */
 734:../firmware/n32g430_std_periph_driver/src/n32g430_adc.c ****     ADC->CTRL2 |= external_trigger_sources;
 1345              		.loc 1 734 5 is_stmt 1 view .LVU320
 1346              		.loc 1 734 8 is_stmt 0 view .LVU321
 1347 000a 9A68     		ldr	r2, [r3, #8]
 1348              		.loc 1 734 16 view .LVU322
 1349 000c 0243     		orrs	r2, r2, r0
 1350 000e 9A60     		str	r2, [r3, #8]
 735:../firmware/n32g430_std_periph_driver/src/n32g430_adc.c **** }
 1351              		.loc 1 735 1 view .LVU323
 1352 0010 7047     		bx	lr
 1353              	.L115:
 1354 0012 00BF     		.align	2
 1355              	.L114:
 1356 0014 00080240 		.word	1073874944
 1357              		.cfi_endproc
 1358              	.LFE157:
 1360              		.section	.text.ADC_Injected_Channels_Software_Conversion_Operation,"ax",%progbits
 1361              		.align	1
 1362              		.global	ADC_Injected_Channels_Software_Conversion_Operation
 1363              		.syntax unified
 1364              		.thumb
 1365              		.thumb_func
 1367              	ADC_Injected_Channels_Software_Conversion_Operation:
 1368              	.LVL52:
 1369              	.LFB158:
 736:../firmware/n32g430_std_periph_driver/src/n32g430_adc.c **** 
 737:../firmware/n32g430_std_periph_driver/src/n32g430_adc.c **** /**
 738:../firmware/n32g430_std_periph_driver/src/n32g430_adc.c **** *\*\name    ADC_Injected_Channels_Software_Conversion_Operation.
 739:../firmware/n32g430_std_periph_driver/src/n32g430_adc.c **** *\*\fun     Configures ADC injected channels software conversion.
 740:../firmware/n32g430_std_periph_driver/src/n32g430_adc.c **** *\*\param   conversion_operation :
 741:../firmware/n32g430_std_periph_driver/src/n32g430_adc.c **** *\*\          - ADC_EXTJTRIG_SWSTRJCH_ENABLE
 742:../firmware/n32g430_std_periph_driver/src/n32g430_adc.c **** *\*\          - ADC_EXTJTRIG_SWSTRJCH_DISABLE
 743:../firmware/n32g430_std_periph_driver/src/n32g430_adc.c **** *\*\          - ADC_EXTJTRIG_SWSTRJCH_GET_STS
 744:../firmware/n32g430_std_periph_driver/src/n32g430_adc.c **** *\*\return  FlagStatus:
ARM GAS  C:\Users\Dawn\AppData\Local\Temp\ccAGizNf.s 			page 39


 745:../firmware/n32g430_std_periph_driver/src/n32g430_adc.c **** *\*\          - SET
 746:../firmware/n32g430_std_periph_driver/src/n32g430_adc.c **** *\*\          - RESET
 747:../firmware/n32g430_std_periph_driver/src/n32g430_adc.c **** **/
 748:../firmware/n32g430_std_periph_driver/src/n32g430_adc.c **** FlagStatus ADC_Injected_Channels_Software_Conversion_Operation(uint32_t conversion_operation)
 749:../firmware/n32g430_std_periph_driver/src/n32g430_adc.c **** {
 1370              		.loc 1 749 1 is_stmt 1 view -0
 1371              		.cfi_startproc
 1372              		@ args = 0, pretend = 0, frame = 0
 1373              		@ frame_needed = 0, uses_anonymous_args = 0
 1374              		@ link register save eliminated.
 750:../firmware/n32g430_std_periph_driver/src/n32g430_adc.c ****     if(conversion_operation == ADC_EXTJTRIG_SWSTRJCH_ENABLE)
 1375              		.loc 1 750 5 view .LVU325
 1376              		.loc 1 750 7 is_stmt 0 view .LVU326
 1377 0000 B0F5021F 		cmp	r0, #2129920
 1378 0004 06D1     		bne	.L117
 751:../firmware/n32g430_std_periph_driver/src/n32g430_adc.c ****     {
 752:../firmware/n32g430_std_periph_driver/src/n32g430_adc.c ****         /* Enable the ADC external trigger conversion mode for injected channels */
 753:../firmware/n32g430_std_periph_driver/src/n32g430_adc.c ****         ADC->CTRL2 |= conversion_operation;
 1379              		.loc 1 753 9 is_stmt 1 view .LVU327
 1380              		.loc 1 753 12 is_stmt 0 view .LVU328
 1381 0006 0C4A     		ldr	r2, .L122
 1382 0008 9368     		ldr	r3, [r2, #8]
 1383              		.loc 1 753 20 view .LVU329
 1384 000a 43F40213 		orr	r3, r3, #2129920
 1385              	.L121:
 754:../firmware/n32g430_std_periph_driver/src/n32g430_adc.c ****     }
 755:../firmware/n32g430_std_periph_driver/src/n32g430_adc.c ****     else if(conversion_operation == ADC_EXTJTRIG_SWSTRJCH_DISABLE)
 756:../firmware/n32g430_std_periph_driver/src/n32g430_adc.c ****     {
 757:../firmware/n32g430_std_periph_driver/src/n32g430_adc.c ****         /* Disable the ADC external trigger conversion mode for injected channels */
 758:../firmware/n32g430_std_periph_driver/src/n32g430_adc.c ****         ADC->CTRL2 &= conversion_operation;
 1386              		.loc 1 758 20 view .LVU330
 1387 000e 9360     		str	r3, [r2, #8]
 1388              	.L118:
 759:../firmware/n32g430_std_periph_driver/src/n32g430_adc.c ****     }
 760:../firmware/n32g430_std_periph_driver/src/n32g430_adc.c ****     else if(conversion_operation == ADC_EXTJTRIG_SWSTRJCH_GET_STS)
 761:../firmware/n32g430_std_periph_driver/src/n32g430_adc.c ****     {
 762:../firmware/n32g430_std_periph_driver/src/n32g430_adc.c ****         /* Get ADC_CTRL2 SWSTRJCH bit */
 763:../firmware/n32g430_std_periph_driver/src/n32g430_adc.c ****         if ((ADC->CTRL2 & conversion_operation) != (uint32_t)RESET)
 764:../firmware/n32g430_std_periph_driver/src/n32g430_adc.c ****         {
 765:../firmware/n32g430_std_periph_driver/src/n32g430_adc.c ****             return SET;
 766:../firmware/n32g430_std_periph_driver/src/n32g430_adc.c ****         }
 767:../firmware/n32g430_std_periph_driver/src/n32g430_adc.c ****         else
 768:../firmware/n32g430_std_periph_driver/src/n32g430_adc.c ****         {
 769:../firmware/n32g430_std_periph_driver/src/n32g430_adc.c ****             return RESET;
 1389              		.loc 1 769 20 view .LVU331
 1390 0010 0020     		movs	r0, #0
 1391              	.LVL53:
 1392              		.loc 1 769 20 view .LVU332
 1393 0012 7047     		bx	lr
 1394              	.LVL54:
 1395              	.L117:
 755:../firmware/n32g430_std_periph_driver/src/n32g430_adc.c ****     {
 1396              		.loc 1 755 10 is_stmt 1 view .LVU333
 755:../firmware/n32g430_std_periph_driver/src/n32g430_adc.c ****     {
 1397              		.loc 1 755 12 is_stmt 0 view .LVU334
 1398 0014 6FF40213 		mvn	r3, #2129920
 1399 0018 9842     		cmp	r0, r3
ARM GAS  C:\Users\Dawn\AppData\Local\Temp\ccAGizNf.s 			page 40


 1400 001a 04D1     		bne	.L119
 758:../firmware/n32g430_std_periph_driver/src/n32g430_adc.c ****     }
 1401              		.loc 1 758 9 is_stmt 1 view .LVU335
 758:../firmware/n32g430_std_periph_driver/src/n32g430_adc.c ****     }
 1402              		.loc 1 758 12 is_stmt 0 view .LVU336
 1403 001c 064A     		ldr	r2, .L122
 1404 001e 9368     		ldr	r3, [r2, #8]
 758:../firmware/n32g430_std_periph_driver/src/n32g430_adc.c ****     }
 1405              		.loc 1 758 20 view .LVU337
 1406 0020 23F40213 		bic	r3, r3, #2129920
 1407 0024 F3E7     		b	.L121
 1408              	.L119:
 760:../firmware/n32g430_std_periph_driver/src/n32g430_adc.c ****     {
 1409              		.loc 1 760 10 is_stmt 1 view .LVU338
 760:../firmware/n32g430_std_periph_driver/src/n32g430_adc.c ****     {
 1410              		.loc 1 760 12 is_stmt 0 view .LVU339
 1411 0026 B0F5001F 		cmp	r0, #2097152
 1412 002a F1D1     		bne	.L118
 763:../firmware/n32g430_std_periph_driver/src/n32g430_adc.c ****         {
 1413              		.loc 1 763 9 is_stmt 1 view .LVU340
 763:../firmware/n32g430_std_periph_driver/src/n32g430_adc.c ****         {
 1414              		.loc 1 763 17 is_stmt 0 view .LVU341
 1415 002c 024B     		ldr	r3, .L122
 1416 002e 9868     		ldr	r0, [r3, #8]
 1417              	.LVL55:
 763:../firmware/n32g430_std_periph_driver/src/n32g430_adc.c ****         {
 1418              		.loc 1 763 12 view .LVU342
 1419 0030 C0F34050 		ubfx	r0, r0, #21, #1
 770:../firmware/n32g430_std_periph_driver/src/n32g430_adc.c ****         }
 771:../firmware/n32g430_std_periph_driver/src/n32g430_adc.c ****     }
 772:../firmware/n32g430_std_periph_driver/src/n32g430_adc.c ****     return RESET;
 773:../firmware/n32g430_std_periph_driver/src/n32g430_adc.c **** }
 1420              		.loc 1 773 1 view .LVU343
 1421 0034 7047     		bx	lr
 1422              	.L123:
 1423 0036 00BF     		.align	2
 1424              	.L122:
 1425 0038 00080240 		.word	1073874944
 1426              		.cfi_endproc
 1427              	.LFE158:
 1429              		.section	.text.ADC_Injected_Sequence_Conversion_Number_Config,"ax",%progbits
 1430              		.align	1
 1431              		.global	ADC_Injected_Sequence_Conversion_Number_Config
 1432              		.syntax unified
 1433              		.thumb
 1434              		.thumb_func
 1436              	ADC_Injected_Sequence_Conversion_Number_Config:
 1437              	.LVL56:
 1438              	.LFB159:
 774:../firmware/n32g430_std_periph_driver/src/n32g430_adc.c **** 
 775:../firmware/n32g430_std_periph_driver/src/n32g430_adc.c **** /**
 776:../firmware/n32g430_std_periph_driver/src/n32g430_adc.c **** *\*\name    ADC_Injected_Sequence_Conversion_Number_Config.
 777:../firmware/n32g430_std_periph_driver/src/n32g430_adc.c **** *\*\fun     Configures ADC channel conversion number in injected sequence.
 778:../firmware/n32g430_std_periph_driver/src/n32g430_adc.c **** *\*\param   channel :
 779:../firmware/n32g430_std_periph_driver/src/n32g430_adc.c **** *\*\          - ADC_CH_0
 780:../firmware/n32g430_std_periph_driver/src/n32g430_adc.c **** *\*\          - ADC_CH_1
 781:../firmware/n32g430_std_periph_driver/src/n32g430_adc.c **** *\*\          - ADC_CH_2
ARM GAS  C:\Users\Dawn\AppData\Local\Temp\ccAGizNf.s 			page 41


 782:../firmware/n32g430_std_periph_driver/src/n32g430_adc.c **** *\*\          - ADC_CH_3
 783:../firmware/n32g430_std_periph_driver/src/n32g430_adc.c **** *\*\          - ADC_CH_4
 784:../firmware/n32g430_std_periph_driver/src/n32g430_adc.c **** *\*\          - ADC_CH_5
 785:../firmware/n32g430_std_periph_driver/src/n32g430_adc.c **** *\*\          - ADC_CH_6
 786:../firmware/n32g430_std_periph_driver/src/n32g430_adc.c **** *\*\          - ADC_CH_7
 787:../firmware/n32g430_std_periph_driver/src/n32g430_adc.c **** *\*\          - ADC_CH_8
 788:../firmware/n32g430_std_periph_driver/src/n32g430_adc.c **** *\*\          - ADC_CH_9
 789:../firmware/n32g430_std_periph_driver/src/n32g430_adc.c **** *\*\          - ADC_CH_10
 790:../firmware/n32g430_std_periph_driver/src/n32g430_adc.c **** *\*\          - ADC_CH_11
 791:../firmware/n32g430_std_periph_driver/src/n32g430_adc.c **** *\*\          - ADC_CH_12
 792:../firmware/n32g430_std_periph_driver/src/n32g430_adc.c **** *\*\          - ADC_CH_13
 793:../firmware/n32g430_std_periph_driver/src/n32g430_adc.c **** *\*\          - ADC_CH_14
 794:../firmware/n32g430_std_periph_driver/src/n32g430_adc.c **** *\*\          - ADC_CH_15
 795:../firmware/n32g430_std_periph_driver/src/n32g430_adc.c **** *\*\          - ADC_CH_16
 796:../firmware/n32g430_std_periph_driver/src/n32g430_adc.c **** *\*\          - ADC_CH_17
 797:../firmware/n32g430_std_periph_driver/src/n32g430_adc.c **** *\*\          - ADC_CH_18
 798:../firmware/n32g430_std_periph_driver/src/n32g430_adc.c **** *\*\param   number :
 799:../firmware/n32g430_std_periph_driver/src/n32g430_adc.c **** *\*\          - ADC_INJECTED_NUMBER_1
 800:../firmware/n32g430_std_periph_driver/src/n32g430_adc.c **** *\*\          - ADC_INJECTED_NUMBER_2
 801:../firmware/n32g430_std_periph_driver/src/n32g430_adc.c **** *\*\          - ADC_INJECTED_NUMBER_3
 802:../firmware/n32g430_std_periph_driver/src/n32g430_adc.c **** *\*\          - ADC_INJECTED_NUMBER_4
 803:../firmware/n32g430_std_periph_driver/src/n32g430_adc.c **** *\*\return  none
 804:../firmware/n32g430_std_periph_driver/src/n32g430_adc.c **** **/
 805:../firmware/n32g430_std_periph_driver/src/n32g430_adc.c **** void ADC_Injected_Sequence_Conversion_Number_Config(uint8_t channel, uint8_t number)
 806:../firmware/n32g430_std_periph_driver/src/n32g430_adc.c **** {
 1439              		.loc 1 806 1 is_stmt 1 view -0
 1440              		.cfi_startproc
 1441              		@ args = 0, pretend = 0, frame = 0
 1442              		@ frame_needed = 0, uses_anonymous_args = 0
 807:../firmware/n32g430_std_periph_driver/src/n32g430_adc.c ****     /* ADC Injected sequence register configures conversion sequence*/
 808:../firmware/n32g430_std_periph_driver/src/n32g430_adc.c ****     ADC->JSEQ &= ADC_INJECTED_NUMBER_MASK(number);
 1443              		.loc 1 808 5 view .LVU345
 1444              		.loc 1 808 8 is_stmt 0 view .LVU346
 1445 0000 074B     		ldr	r3, .L125
 806:../firmware/n32g430_std_periph_driver/src/n32g430_adc.c ****     /* ADC Injected sequence register configures conversion sequence*/
 1446              		.loc 1 806 1 view .LVU347
 1447 0002 10B5     		push	{r4, lr}
 1448              	.LCFI6:
 1449              		.cfi_def_cfa_offset 8
 1450              		.cfi_offset 4, -8
 1451              		.cfi_offset 14, -4
 1452              		.loc 1 808 8 view .LVU348
 1453 0004 9A6B     		ldr	r2, [r3, #56]
 1454              		.loc 1 808 18 view .LVU349
 1455 0006 01EB8101 		add	r1, r1, r1, lsl #2
 1456              	.LVL57:
 1457              		.loc 1 808 18 view .LVU350
 1458 000a 1F24     		movs	r4, #31
 1459 000c 8C40     		lsls	r4, r4, r1
 1460              		.loc 1 808 15 view .LVU351
 1461 000e 22EA0402 		bic	r2, r2, r4
 1462 0012 9A63     		str	r2, [r3, #56]
 809:../firmware/n32g430_std_periph_driver/src/n32g430_adc.c ****     ADC->JSEQ |= ADC_INJECTED_NUMBER_SET(channel, number);
 1463              		.loc 1 809 5 is_stmt 1 view .LVU352
 1464              		.loc 1 809 8 is_stmt 0 view .LVU353
 1465 0014 9A6B     		ldr	r2, [r3, #56]
 1466              		.loc 1 809 18 view .LVU354
ARM GAS  C:\Users\Dawn\AppData\Local\Temp\ccAGizNf.s 			page 42


 1467 0016 8840     		lsls	r0, r0, r1
 1468              	.LVL58:
 1469              		.loc 1 809 15 view .LVU355
 1470 0018 1043     		orrs	r0, r0, r2
 1471 001a 9863     		str	r0, [r3, #56]
 810:../firmware/n32g430_std_periph_driver/src/n32g430_adc.c **** }
 1472              		.loc 1 810 1 view .LVU356
 1473 001c 10BD     		pop	{r4, pc}
 1474              	.L126:
 1475 001e 00BF     		.align	2
 1476              	.L125:
 1477 0020 00080240 		.word	1073874944
 1478              		.cfi_endproc
 1479              	.LFE159:
 1481              		.section	.text.ADC_Injected_Channels_Number_Config,"ax",%progbits
 1482              		.align	1
 1483              		.global	ADC_Injected_Channels_Number_Config
 1484              		.syntax unified
 1485              		.thumb
 1486              		.thumb_func
 1488              	ADC_Injected_Channels_Number_Config:
 1489              	.LVL59:
 1490              	.LFB160:
 811:../firmware/n32g430_std_periph_driver/src/n32g430_adc.c **** 
 812:../firmware/n32g430_std_periph_driver/src/n32g430_adc.c **** /**
 813:../firmware/n32g430_std_periph_driver/src/n32g430_adc.c **** *\*\name    ADC_Injected_Channels_Number_Config.
 814:../firmware/n32g430_std_periph_driver/src/n32g430_adc.c **** *\*\fun     Configures the number of ADC channels that will be converted
 815:../firmware/n32g430_std_periph_driver/src/n32g430_adc.c **** *\*\        using the sequencer for Injected channel group.
 816:../firmware/n32g430_std_periph_driver/src/n32g430_adc.c **** *\*\param   channels_number :
 817:../firmware/n32g430_std_periph_driver/src/n32g430_adc.c **** *\*\          - ADC_INJECTED_LEN_1
 818:../firmware/n32g430_std_periph_driver/src/n32g430_adc.c **** *\*\          - ADC_INJECTED_LEN_2
 819:../firmware/n32g430_std_periph_driver/src/n32g430_adc.c **** *\*\          - ADC_INJECTED_LEN_3
 820:../firmware/n32g430_std_periph_driver/src/n32g430_adc.c **** *\*\          - ADC_INJECTED_LEN_4
 821:../firmware/n32g430_std_periph_driver/src/n32g430_adc.c **** *\*\return  none
 822:../firmware/n32g430_std_periph_driver/src/n32g430_adc.c **** **/
 823:../firmware/n32g430_std_periph_driver/src/n32g430_adc.c **** void ADC_Injected_Channels_Number_Config(uint32_t channels_number)
 824:../firmware/n32g430_std_periph_driver/src/n32g430_adc.c **** {
 1491              		.loc 1 824 1 is_stmt 1 view -0
 1492              		.cfi_startproc
 1493              		@ args = 0, pretend = 0, frame = 0
 1494              		@ frame_needed = 0, uses_anonymous_args = 0
 1495              		@ link register save eliminated.
 825:../firmware/n32g430_std_periph_driver/src/n32g430_adc.c ****     /* Clear ADC_JSEQ LEN[3:0] bit */
 826:../firmware/n32g430_std_periph_driver/src/n32g430_adc.c ****     ADC->JSEQ &= ADC_INJECTED_LEN_MSAK;
 1496              		.loc 1 826 5 view .LVU358
 1497              		.loc 1 826 8 is_stmt 0 view .LVU359
 1498 0000 044B     		ldr	r3, .L128
 1499 0002 9A6B     		ldr	r2, [r3, #56]
 1500              		.loc 1 826 15 view .LVU360
 1501 0004 22F44012 		bic	r2, r2, #3145728
 1502 0008 9A63     		str	r2, [r3, #56]
 827:../firmware/n32g430_std_periph_driver/src/n32g430_adc.c ****     /* Set ADC_RSEQ1 LEN[3:0] bit */
 828:../firmware/n32g430_std_periph_driver/src/n32g430_adc.c ****     ADC->JSEQ |= channels_number;
 1503              		.loc 1 828 5 is_stmt 1 view .LVU361
 1504              		.loc 1 828 8 is_stmt 0 view .LVU362
 1505 000a 9A6B     		ldr	r2, [r3, #56]
 1506              		.loc 1 828 15 view .LVU363
ARM GAS  C:\Users\Dawn\AppData\Local\Temp\ccAGizNf.s 			page 43


 1507 000c 0243     		orrs	r2, r2, r0
 1508 000e 9A63     		str	r2, [r3, #56]
 829:../firmware/n32g430_std_periph_driver/src/n32g430_adc.c **** }
 1509              		.loc 1 829 1 view .LVU364
 1510 0010 7047     		bx	lr
 1511              	.L129:
 1512 0012 00BF     		.align	2
 1513              	.L128:
 1514 0014 00080240 		.word	1073874944
 1515              		.cfi_endproc
 1516              	.LFE160:
 1518              		.section	.text.ADC_Injected_Channels_Offset_Config,"ax",%progbits
 1519              		.align	1
 1520              		.global	ADC_Injected_Channels_Offset_Config
 1521              		.syntax unified
 1522              		.thumb
 1523              		.thumb_func
 1525              	ADC_Injected_Channels_Offset_Config:
 1526              	.LVL60:
 1527              	.LFB161:
 830:../firmware/n32g430_std_periph_driver/src/n32g430_adc.c **** 
 831:../firmware/n32g430_std_periph_driver/src/n32g430_adc.c **** /**
 832:../firmware/n32g430_std_periph_driver/src/n32g430_adc.c **** *\*\name    ADC_Injected_Channels_Offset_Config.
 833:../firmware/n32g430_std_periph_driver/src/n32g430_adc.c **** *\*\fun     Configures the injected channels conversion value offset.
 834:../firmware/n32g430_std_periph_driver/src/n32g430_adc.c **** *\*\param   channels_number :
 835:../firmware/n32g430_std_periph_driver/src/n32g430_adc.c **** *\*\          - ADC_INJECTED_DATA_REG_1
 836:../firmware/n32g430_std_periph_driver/src/n32g430_adc.c **** *\*\          - ADC_INJECTED_DATA_REG_2
 837:../firmware/n32g430_std_periph_driver/src/n32g430_adc.c **** *\*\          - ADC_INJECTED_DATA_REG_3
 838:../firmware/n32g430_std_periph_driver/src/n32g430_adc.c **** *\*\          - ADC_INJECTED_DATA_REG_4
 839:../firmware/n32g430_std_periph_driver/src/n32g430_adc.c **** *\*\param   Offset_data : 12bit offset value(0 ~ 0xFFF)
 840:../firmware/n32g430_std_periph_driver/src/n32g430_adc.c **** *\*\return  none
 841:../firmware/n32g430_std_periph_driver/src/n32g430_adc.c **** **/
 842:../firmware/n32g430_std_periph_driver/src/n32g430_adc.c **** void ADC_Injected_Channels_Offset_Config(uint8_t injected_channel, uint16_t offset_data)
 843:../firmware/n32g430_std_periph_driver/src/n32g430_adc.c **** {
 1528              		.loc 1 843 1 is_stmt 1 view -0
 1529              		.cfi_startproc
 1530              		@ args = 0, pretend = 0, frame = 8
 1531              		@ frame_needed = 0, uses_anonymous_args = 0
 1532              		@ link register save eliminated.
 844:../firmware/n32g430_std_periph_driver/src/n32g430_adc.c ****     __IO uint32_t temp_value = 0;
 1533              		.loc 1 844 5 view .LVU366
 843:../firmware/n32g430_std_periph_driver/src/n32g430_adc.c ****     __IO uint32_t temp_value = 0;
 1534              		.loc 1 843 1 is_stmt 0 view .LVU367
 1535 0000 82B0     		sub	sp, sp, #8
 1536              	.LCFI7:
 1537              		.cfi_def_cfa_offset 8
 1538              		.loc 1 844 19 view .LVU368
 1539 0002 0023     		movs	r3, #0
 1540 0004 0193     		str	r3, [sp, #4]
 845:../firmware/n32g430_std_periph_driver/src/n32g430_adc.c **** 
 846:../firmware/n32g430_std_periph_driver/src/n32g430_adc.c ****     temp_value = (uint32_t)ADC;
 1541              		.loc 1 846 5 is_stmt 1 view .LVU369
 1542              		.loc 1 846 16 is_stmt 0 view .LVU370
 1543 0006 03F18043 		add	r3, r3, #1073741824
 1544 000a 03F50233 		add	r3, r3, #133120
 1545 000e 0193     		str	r3, [sp, #4]
 847:../firmware/n32g430_std_periph_driver/src/n32g430_adc.c ****     temp_value += injected_channel;
ARM GAS  C:\Users\Dawn\AppData\Local\Temp\ccAGizNf.s 			page 44


 1546              		.loc 1 847 5 is_stmt 1 view .LVU371
 1547              		.loc 1 847 16 is_stmt 0 view .LVU372
 1548 0010 019B     		ldr	r3, [sp, #4]
 1549 0012 1844     		add	r0, r0, r3
 1550              	.LVL61:
 1551              		.loc 1 847 16 view .LVU373
 1552 0014 0190     		str	r0, [sp, #4]
 848:../firmware/n32g430_std_periph_driver/src/n32g430_adc.c **** 
 849:../firmware/n32g430_std_periph_driver/src/n32g430_adc.c ****     /* Set the selected injected channel data offset */
 850:../firmware/n32g430_std_periph_driver/src/n32g430_adc.c ****     *(__IO uint32_t*)temp_value = (uint32_t)offset_data;
 1553              		.loc 1 850 5 is_stmt 1 view .LVU374
 1554              		.loc 1 850 6 is_stmt 0 view .LVU375
 1555 0016 019B     		ldr	r3, [sp, #4]
 1556              		.loc 1 850 33 view .LVU376
 1557 0018 1960     		str	r1, [r3]
 851:../firmware/n32g430_std_periph_driver/src/n32g430_adc.c **** }
 1558              		.loc 1 851 1 view .LVU377
 1559 001a 02B0     		add	sp, sp, #8
 1560              	.LCFI8:
 1561              		.cfi_def_cfa_offset 0
 1562              		@ sp needed
 1563 001c 7047     		bx	lr
 1564              		.cfi_endproc
 1565              	.LFE161:
 1567              		.section	.text.ADC_Injected_Group_Conversion_Data_Get,"ax",%progbits
 1568              		.align	1
 1569              		.global	ADC_Injected_Group_Conversion_Data_Get
 1570              		.syntax unified
 1571              		.thumb
 1572              		.thumb_func
 1574              	ADC_Injected_Group_Conversion_Data_Get:
 1575              	.LVL62:
 1576              	.LFB162:
 852:../firmware/n32g430_std_periph_driver/src/n32g430_adc.c **** 
 853:../firmware/n32g430_std_periph_driver/src/n32g430_adc.c **** /**
 854:../firmware/n32g430_std_periph_driver/src/n32g430_adc.c **** *\*\name    ADC_Injected_Group_Conversion_Data_Get.
 855:../firmware/n32g430_std_periph_driver/src/n32g430_adc.c **** *\*\fun     Get ADC injected group conversion data.
 856:../firmware/n32g430_std_periph_driver/src/n32g430_adc.c **** *\*\param   channels_number :
 857:../firmware/n32g430_std_periph_driver/src/n32g430_adc.c **** *\*\          - ADC_INJECTED_DATA_REG_1
 858:../firmware/n32g430_std_periph_driver/src/n32g430_adc.c **** *\*\          - ADC_INJECTED_DATA_REG_2
 859:../firmware/n32g430_std_periph_driver/src/n32g430_adc.c **** *\*\          - ADC_INJECTED_DATA_REG_3
 860:../firmware/n32g430_std_periph_driver/src/n32g430_adc.c **** *\*\          - ADC_INJECTED_DATA_REG_4
 861:../firmware/n32g430_std_periph_driver/src/n32g430_adc.c **** *\*\return  ADC injected group conversion data.
 862:../firmware/n32g430_std_periph_driver/src/n32g430_adc.c **** **/
 863:../firmware/n32g430_std_periph_driver/src/n32g430_adc.c **** uint16_t ADC_Injected_Group_Conversion_Data_Get(uint8_t reg_offset)
 864:../firmware/n32g430_std_periph_driver/src/n32g430_adc.c **** {
 1577              		.loc 1 864 1 is_stmt 1 view -0
 1578              		.cfi_startproc
 1579              		@ args = 0, pretend = 0, frame = 8
 1580              		@ frame_needed = 0, uses_anonymous_args = 0
 1581              		@ link register save eliminated.
 865:../firmware/n32g430_std_periph_driver/src/n32g430_adc.c ****     __IO uint32_t temp_value = 0;
 1582              		.loc 1 865 5 view .LVU379
 864:../firmware/n32g430_std_periph_driver/src/n32g430_adc.c ****     __IO uint32_t temp_value = 0;
 1583              		.loc 1 864 1 is_stmt 0 view .LVU380
 1584 0000 82B0     		sub	sp, sp, #8
 1585              	.LCFI9:
ARM GAS  C:\Users\Dawn\AppData\Local\Temp\ccAGizNf.s 			page 45


 1586              		.cfi_def_cfa_offset 8
 1587              		.loc 1 865 19 view .LVU381
 1588 0002 0023     		movs	r3, #0
 1589 0004 0193     		str	r3, [sp, #4]
 866:../firmware/n32g430_std_periph_driver/src/n32g430_adc.c **** 
 867:../firmware/n32g430_std_periph_driver/src/n32g430_adc.c ****     temp_value = (uint32_t)ADC;
 1590              		.loc 1 867 5 is_stmt 1 view .LVU382
 1591              		.loc 1 867 16 is_stmt 0 view .LVU383
 1592 0006 03F18043 		add	r3, r3, #1073741824
 1593 000a 03F50233 		add	r3, r3, #133120
 1594 000e 0193     		str	r3, [sp, #4]
 868:../firmware/n32g430_std_periph_driver/src/n32g430_adc.c ****     temp_value += reg_offset + ADC_JDAT_REG_OFFSET;
 1595              		.loc 1 868 5 is_stmt 1 view .LVU384
 1596              		.loc 1 868 16 is_stmt 0 view .LVU385
 1597 0010 019B     		ldr	r3, [sp, #4]
 1598 0012 2833     		adds	r3, r3, #40
 1599 0014 0344     		add	r3, r3, r0
 1600 0016 0193     		str	r3, [sp, #4]
 869:../firmware/n32g430_std_periph_driver/src/n32g430_adc.c **** 
 870:../firmware/n32g430_std_periph_driver/src/n32g430_adc.c ****     /* Return the injected group conversion data */
 871:../firmware/n32g430_std_periph_driver/src/n32g430_adc.c ****     return (uint16_t)(*(__IO uint32_t*)temp_value);
 1601              		.loc 1 871 5 is_stmt 1 view .LVU386
 1602              		.loc 1 871 24 is_stmt 0 view .LVU387
 1603 0018 019B     		ldr	r3, [sp, #4]
 1604              		.loc 1 871 23 view .LVU388
 1605 001a 1868     		ldr	r0, [r3]
 1606              	.LVL63:
 872:../firmware/n32g430_std_periph_driver/src/n32g430_adc.c **** }
 1607              		.loc 1 872 1 view .LVU389
 1608 001c 80B2     		uxth	r0, r0
 1609 001e 02B0     		add	sp, sp, #8
 1610              	.LCFI10:
 1611              		.cfi_def_cfa_offset 0
 1612              		@ sp needed
 1613 0020 7047     		bx	lr
 1614              		.cfi_endproc
 1615              	.LFE162:
 1617              		.section	.text.ADC_Analog_Watchdog_Mode_Channel_Config,"ax",%progbits
 1618              		.align	1
 1619              		.global	ADC_Analog_Watchdog_Mode_Channel_Config
 1620              		.syntax unified
 1621              		.thumb
 1622              		.thumb_func
 1624              	ADC_Analog_Watchdog_Mode_Channel_Config:
 1625              	.LVL64:
 1626              	.LFB163:
 873:../firmware/n32g430_std_periph_driver/src/n32g430_adc.c **** 
 874:../firmware/n32g430_std_periph_driver/src/n32g430_adc.c **** /**
 875:../firmware/n32g430_std_periph_driver/src/n32g430_adc.c **** *\*\name    ADC_Analog_Watchdog_Mode_Channel_Config.
 876:../firmware/n32g430_std_periph_driver/src/n32g430_adc.c **** *\*\fun     Configures ADC analog watchdog single mode or scan mode,
 877:../firmware/n32g430_std_periph_driver/src/n32g430_adc.c **** *\*\        and single mode channel operation.
 878:../firmware/n32g430_std_periph_driver/src/n32g430_adc.c **** *\*\param   mode :
 879:../firmware/n32g430_std_periph_driver/src/n32g430_adc.c **** *\*\          - ADC_ANALOG_WTDG_SINGLE_MODE
 880:../firmware/n32g430_std_periph_driver/src/n32g430_adc.c **** *\*\          - ADC_ANALOG_WTDG_SCAN_MODE
 881:../firmware/n32g430_std_periph_driver/src/n32g430_adc.c **** *\*\param   channel :
 882:../firmware/n32g430_std_periph_driver/src/n32g430_adc.c **** *\*\          - ADC_ANALOG_WTDG_SINGLE_CH0
 883:../firmware/n32g430_std_periph_driver/src/n32g430_adc.c **** *\*\          - ADC_ANALOG_WTDG_SINGLE_CH1
ARM GAS  C:\Users\Dawn\AppData\Local\Temp\ccAGizNf.s 			page 46


 884:../firmware/n32g430_std_periph_driver/src/n32g430_adc.c **** *\*\          - ADC_ANALOG_WTDG_SINGLE_CH2
 885:../firmware/n32g430_std_periph_driver/src/n32g430_adc.c **** *\*\          - ADC_ANALOG_WTDG_SINGLE_CH3
 886:../firmware/n32g430_std_periph_driver/src/n32g430_adc.c **** *\*\          - ADC_ANALOG_WTDG_SINGLE_CH4
 887:../firmware/n32g430_std_periph_driver/src/n32g430_adc.c **** *\*\          - ADC_ANALOG_WTDG_SINGLE_CH5
 888:../firmware/n32g430_std_periph_driver/src/n32g430_adc.c **** *\*\          - ADC_ANALOG_WTDG_SINGLE_CH6
 889:../firmware/n32g430_std_periph_driver/src/n32g430_adc.c **** *\*\          - ADC_ANALOG_WTDG_SINGLE_CH7
 890:../firmware/n32g430_std_periph_driver/src/n32g430_adc.c **** *\*\          - ADC_ANALOG_WTDG_SINGLE_CH8
 891:../firmware/n32g430_std_periph_driver/src/n32g430_adc.c **** *\*\          - ADC_ANALOG_WTDG_SINGLE_CH9
 892:../firmware/n32g430_std_periph_driver/src/n32g430_adc.c **** *\*\          - ADC_ANALOG_WTDG_SINGLE_CH10
 893:../firmware/n32g430_std_periph_driver/src/n32g430_adc.c **** *\*\          - ADC_ANALOG_WTDG_SINGLE_CH11
 894:../firmware/n32g430_std_periph_driver/src/n32g430_adc.c **** *\*\          - ADC_ANALOG_WTDG_SINGLE_CH12
 895:../firmware/n32g430_std_periph_driver/src/n32g430_adc.c **** *\*\          - ADC_ANALOG_WTDG_SINGLE_CH13
 896:../firmware/n32g430_std_periph_driver/src/n32g430_adc.c **** *\*\          - ADC_ANALOG_WTDG_SINGLE_CH14
 897:../firmware/n32g430_std_periph_driver/src/n32g430_adc.c **** *\*\          - ADC_ANALOG_WTDG_SINGLE_CH15
 898:../firmware/n32g430_std_periph_driver/src/n32g430_adc.c **** *\*\          - ADC_ANALOG_WTDG_SINGLE_CH16
 899:../firmware/n32g430_std_periph_driver/src/n32g430_adc.c **** *\*\          - ADC_ANALOG_WTDG_SINGLE_CH17
 900:../firmware/n32g430_std_periph_driver/src/n32g430_adc.c **** *\*\          - ADC_ANALOG_WTDG_SINGLE_CH18
 901:../firmware/n32g430_std_periph_driver/src/n32g430_adc.c **** *\*\return  none
 902:../firmware/n32g430_std_periph_driver/src/n32g430_adc.c **** **/
 903:../firmware/n32g430_std_periph_driver/src/n32g430_adc.c **** void ADC_Analog_Watchdog_Mode_Channel_Config(uint32_t mode, uint8_t channel)
 904:../firmware/n32g430_std_periph_driver/src/n32g430_adc.c **** {
 1627              		.loc 1 904 1 is_stmt 1 view -0
 1628              		.cfi_startproc
 1629              		@ args = 0, pretend = 0, frame = 0
 1630              		@ frame_needed = 0, uses_anonymous_args = 0
 1631              		@ link register save eliminated.
 905:../firmware/n32g430_std_periph_driver/src/n32g430_adc.c ****     /* ADC analog watchdog single mode */
 906:../firmware/n32g430_std_periph_driver/src/n32g430_adc.c ****     if(mode == ADC_ANALOG_WTDG_SINGLE_MODE)
 1632              		.loc 1 906 5 view .LVU391
 1633 0000 094B     		ldr	r3, .L135
 1634              		.loc 1 906 7 is_stmt 0 view .LVU392
 1635 0002 B0F5007F 		cmp	r0, #512
 907:../firmware/n32g430_std_periph_driver/src/n32g430_adc.c ****     {
 908:../firmware/n32g430_std_periph_driver/src/n32g430_adc.c ****         ADC->CTRL1 |= mode;
 1636              		.loc 1 908 12 view .LVU393
 1637 0006 5A68     		ldr	r2, [r3, #4]
 906:../firmware/n32g430_std_periph_driver/src/n32g430_adc.c ****     {
 1638              		.loc 1 906 7 view .LVU394
 1639 0008 0AD1     		bne	.L133
 1640              		.loc 1 908 9 is_stmt 1 view .LVU395
 1641              		.loc 1 908 20 is_stmt 0 view .LVU396
 1642 000a 42F40072 		orr	r2, r2, #512
 1643 000e 5A60     		str	r2, [r3, #4]
 909:../firmware/n32g430_std_periph_driver/src/n32g430_adc.c ****         /* Clear ADC analog watchdog single mode channel */
 910:../firmware/n32g430_std_periph_driver/src/n32g430_adc.c ****         ADC->CTRL1 &= ADC_ANALOG_WTDG_SINGLE_CH_MASK;
 1644              		.loc 1 910 9 is_stmt 1 view .LVU397
 1645              		.loc 1 910 12 is_stmt 0 view .LVU398
 1646 0010 5A68     		ldr	r2, [r3, #4]
 1647              		.loc 1 910 20 view .LVU399
 1648 0012 22F01F02 		bic	r2, r2, #31
 1649 0016 5A60     		str	r2, [r3, #4]
 911:../firmware/n32g430_std_periph_driver/src/n32g430_adc.c ****         /* Select ADC analog watchdog single mode channel */
 912:../firmware/n32g430_std_periph_driver/src/n32g430_adc.c ****         ADC->CTRL1 |= (uint32_t)channel;
 1650              		.loc 1 912 9 is_stmt 1 view .LVU400
 1651              		.loc 1 912 12 is_stmt 0 view .LVU401
 1652 0018 5A68     		ldr	r2, [r3, #4]
 1653              		.loc 1 912 20 view .LVU402
ARM GAS  C:\Users\Dawn\AppData\Local\Temp\ccAGizNf.s 			page 47


 1654 001a 1143     		orrs	r1, r1, r2
 1655              	.LVL65:
 1656              		.loc 1 912 20 view .LVU403
 1657 001c 5960     		str	r1, [r3, #4]
 1658 001e 7047     		bx	lr
 1659              	.LVL66:
 1660              	.L133:
 913:../firmware/n32g430_std_periph_driver/src/n32g430_adc.c ****     }
 914:../firmware/n32g430_std_periph_driver/src/n32g430_adc.c ****     /* ADC analog watchdog scan mode */
 915:../firmware/n32g430_std_periph_driver/src/n32g430_adc.c ****     else
 916:../firmware/n32g430_std_periph_driver/src/n32g430_adc.c ****     {
 917:../firmware/n32g430_std_periph_driver/src/n32g430_adc.c ****         ADC->CTRL1 &= ADC_ANALOG_WTDG_MODE_MASK;
 1661              		.loc 1 917 9 is_stmt 1 view .LVU404
 1662              		.loc 1 917 20 is_stmt 0 view .LVU405
 1663 0020 22F40072 		bic	r2, r2, #512
 1664 0024 5A60     		str	r2, [r3, #4]
 918:../firmware/n32g430_std_periph_driver/src/n32g430_adc.c ****     }
 919:../firmware/n32g430_std_periph_driver/src/n32g430_adc.c **** }
 1665              		.loc 1 919 1 view .LVU406
 1666 0026 7047     		bx	lr
 1667              	.L136:
 1668              		.align	2
 1669              	.L135:
 1670 0028 00080240 		.word	1073874944
 1671              		.cfi_endproc
 1672              	.LFE163:
 1674              		.section	.text.ADC_Analog_Watchdog_Enable,"ax",%progbits
 1675              		.align	1
 1676              		.global	ADC_Analog_Watchdog_Enable
 1677              		.syntax unified
 1678              		.thumb
 1679              		.thumb_func
 1681              	ADC_Analog_Watchdog_Enable:
 1682              	.LVL67:
 1683              	.LFB164:
 920:../firmware/n32g430_std_periph_driver/src/n32g430_adc.c **** 
 921:../firmware/n32g430_std_periph_driver/src/n32g430_adc.c **** /**
 922:../firmware/n32g430_std_periph_driver/src/n32g430_adc.c **** *\*\name    ADC_Analog_Watchdog_Enable.
 923:../firmware/n32g430_std_periph_driver/src/n32g430_adc.c **** *\*\fun     Enable ADC Analog watchdog.
 924:../firmware/n32g430_std_periph_driver/src/n32g430_adc.c **** *\*\param   wcdg_mode :
 925:../firmware/n32g430_std_periph_driver/src/n32g430_adc.c **** *\*\          - ADC_ANALOG_WTDG_REGULAR
 926:../firmware/n32g430_std_periph_driver/src/n32g430_adc.c **** *\*\          - ADC_ANALOG_WTDG_INJECTED
 927:../firmware/n32g430_std_periph_driver/src/n32g430_adc.c **** *\*\return  none
 928:../firmware/n32g430_std_periph_driver/src/n32g430_adc.c **** **/
 929:../firmware/n32g430_std_periph_driver/src/n32g430_adc.c **** void ADC_Analog_Watchdog_Enable(uint32_t wcdg_mode)
 930:../firmware/n32g430_std_periph_driver/src/n32g430_adc.c **** {
 1684              		.loc 1 930 1 is_stmt 1 view -0
 1685              		.cfi_startproc
 1686              		@ args = 0, pretend = 0, frame = 0
 1687              		@ frame_needed = 0, uses_anonymous_args = 0
 1688              		@ link register save eliminated.
 931:../firmware/n32g430_std_periph_driver/src/n32g430_adc.c ****     /* Set the ADC_CTRL1 AWDGERCH bit */
 932:../firmware/n32g430_std_periph_driver/src/n32g430_adc.c ****     ADC->CTRL1 |= wcdg_mode;
 1689              		.loc 1 932 5 view .LVU408
 1690              		.loc 1 932 8 is_stmt 0 view .LVU409
 1691 0000 024A     		ldr	r2, .L138
 1692 0002 5368     		ldr	r3, [r2, #4]
ARM GAS  C:\Users\Dawn\AppData\Local\Temp\ccAGizNf.s 			page 48


 1693              		.loc 1 932 16 view .LVU410
 1694 0004 0343     		orrs	r3, r3, r0
 1695 0006 5360     		str	r3, [r2, #4]
 933:../firmware/n32g430_std_periph_driver/src/n32g430_adc.c **** }
 1696              		.loc 1 933 1 view .LVU411
 1697 0008 7047     		bx	lr
 1698              	.L139:
 1699 000a 00BF     		.align	2
 1700              	.L138:
 1701 000c 00080240 		.word	1073874944
 1702              		.cfi_endproc
 1703              	.LFE164:
 1705              		.section	.text.ADC_Analog_Watchdog_Disable,"ax",%progbits
 1706              		.align	1
 1707              		.global	ADC_Analog_Watchdog_Disable
 1708              		.syntax unified
 1709              		.thumb
 1710              		.thumb_func
 1712              	ADC_Analog_Watchdog_Disable:
 1713              	.LVL68:
 1714              	.LFB165:
 934:../firmware/n32g430_std_periph_driver/src/n32g430_adc.c **** 
 935:../firmware/n32g430_std_periph_driver/src/n32g430_adc.c **** /**
 936:../firmware/n32g430_std_periph_driver/src/n32g430_adc.c **** *\*\name    ADC_Analog_Watchdog_Disable.
 937:../firmware/n32g430_std_periph_driver/src/n32g430_adc.c **** *\*\fun     Disable ADC Analog watchdog.
 938:../firmware/n32g430_std_periph_driver/src/n32g430_adc.c **** *\*\param   wcdg_mode :
 939:../firmware/n32g430_std_periph_driver/src/n32g430_adc.c **** *\*\          - ADC_ANALOG_WTDG_REGULAR
 940:../firmware/n32g430_std_periph_driver/src/n32g430_adc.c **** *\*\          - ADC_ANALOG_WTDG_INJECTED
 941:../firmware/n32g430_std_periph_driver/src/n32g430_adc.c **** *\*\return  none
 942:../firmware/n32g430_std_periph_driver/src/n32g430_adc.c **** **/
 943:../firmware/n32g430_std_periph_driver/src/n32g430_adc.c **** void ADC_Analog_Watchdog_Disable(uint32_t wcdg_mode)
 944:../firmware/n32g430_std_periph_driver/src/n32g430_adc.c **** {
 1715              		.loc 1 944 1 is_stmt 1 view -0
 1716              		.cfi_startproc
 1717              		@ args = 0, pretend = 0, frame = 0
 1718              		@ frame_needed = 0, uses_anonymous_args = 0
 1719              		@ link register save eliminated.
 945:../firmware/n32g430_std_periph_driver/src/n32g430_adc.c ****     /* Clean the ADC_CTRL1 AWDGERCH bit */
 946:../firmware/n32g430_std_periph_driver/src/n32g430_adc.c ****     ADC->CTRL1 &= (~wcdg_mode);
 1720              		.loc 1 946 5 view .LVU413
 1721              		.loc 1 946 8 is_stmt 0 view .LVU414
 1722 0000 024A     		ldr	r2, .L141
 1723 0002 5368     		ldr	r3, [r2, #4]
 1724              		.loc 1 946 16 view .LVU415
 1725 0004 23EA0003 		bic	r3, r3, r0
 1726 0008 5360     		str	r3, [r2, #4]
 947:../firmware/n32g430_std_periph_driver/src/n32g430_adc.c **** }
 1727              		.loc 1 947 1 view .LVU416
 1728 000a 7047     		bx	lr
 1729              	.L142:
 1730              		.align	2
 1731              	.L141:
 1732 000c 00080240 		.word	1073874944
 1733              		.cfi_endproc
 1734              	.LFE165:
 1736              		.section	.text.ADC_Analog_Watchdog_HighThresholds_Config,"ax",%progbits
 1737              		.align	1
ARM GAS  C:\Users\Dawn\AppData\Local\Temp\ccAGizNf.s 			page 49


 1738              		.global	ADC_Analog_Watchdog_HighThresholds_Config
 1739              		.syntax unified
 1740              		.thumb
 1741              		.thumb_func
 1743              	ADC_Analog_Watchdog_HighThresholds_Config:
 1744              	.LVL69:
 1745              	.LFB166:
 948:../firmware/n32g430_std_periph_driver/src/n32g430_adc.c **** 
 949:../firmware/n32g430_std_periph_driver/src/n32g430_adc.c **** 
 950:../firmware/n32g430_std_periph_driver/src/n32g430_adc.c **** /**
 951:../firmware/n32g430_std_periph_driver/src/n32g430_adc.c **** *\*\name    ADC_Analog_Watchdog_HighThresholds_Config.
 952:../firmware/n32g430_std_periph_driver/src/n32g430_adc.c **** *\*\fun     Configures the high thresholds of the analog watchdog.
 953:../firmware/n32g430_std_periph_driver/src/n32g430_adc.c **** *\*\param   high_thresholds : 12bit high thresholds value(0 ~ 0xFFF)
 954:../firmware/n32g430_std_periph_driver/src/n32g430_adc.c **** *\*\return  none
 955:../firmware/n32g430_std_periph_driver/src/n32g430_adc.c **** **/
 956:../firmware/n32g430_std_periph_driver/src/n32g430_adc.c **** void ADC_Analog_Watchdog_HighThresholds_Config(uint16_t high_thresholds)
 957:../firmware/n32g430_std_periph_driver/src/n32g430_adc.c **** {
 1746              		.loc 1 957 1 is_stmt 1 view -0
 1747              		.cfi_startproc
 1748              		@ args = 0, pretend = 0, frame = 0
 1749              		@ frame_needed = 0, uses_anonymous_args = 0
 1750              		@ link register save eliminated.
 958:../firmware/n32g430_std_periph_driver/src/n32g430_adc.c ****     /* Set the ADC high thresholds */
 959:../firmware/n32g430_std_periph_driver/src/n32g430_adc.c ****     ADC->WDGHIGH = high_thresholds;
 1751              		.loc 1 959 5 view .LVU418
 1752              		.loc 1 959 18 is_stmt 0 view .LVU419
 1753 0000 014B     		ldr	r3, .L144
 1754 0002 5862     		str	r0, [r3, #36]
 960:../firmware/n32g430_std_periph_driver/src/n32g430_adc.c **** }
 1755              		.loc 1 960 1 view .LVU420
 1756 0004 7047     		bx	lr
 1757              	.L145:
 1758 0006 00BF     		.align	2
 1759              	.L144:
 1760 0008 00080240 		.word	1073874944
 1761              		.cfi_endproc
 1762              	.LFE166:
 1764              		.section	.text.ADC_Analog_Watchdog_LowThresholds_Config,"ax",%progbits
 1765              		.align	1
 1766              		.global	ADC_Analog_Watchdog_LowThresholds_Config
 1767              		.syntax unified
 1768              		.thumb
 1769              		.thumb_func
 1771              	ADC_Analog_Watchdog_LowThresholds_Config:
 1772              	.LVL70:
 1773              	.LFB167:
 961:../firmware/n32g430_std_periph_driver/src/n32g430_adc.c **** 
 962:../firmware/n32g430_std_periph_driver/src/n32g430_adc.c **** /**
 963:../firmware/n32g430_std_periph_driver/src/n32g430_adc.c **** *\*\name    ADC_Analog_Watchdog_LowThresholds_Config.
 964:../firmware/n32g430_std_periph_driver/src/n32g430_adc.c **** *\*\fun     Configures the low thresholds of the analog watchdog.
 965:../firmware/n32g430_std_periph_driver/src/n32g430_adc.c **** *\*\param   low_thresholds : 12bit low thresholds value(0 ~ 0xFFF)
 966:../firmware/n32g430_std_periph_driver/src/n32g430_adc.c **** *\*\return  none
 967:../firmware/n32g430_std_periph_driver/src/n32g430_adc.c **** **/
 968:../firmware/n32g430_std_periph_driver/src/n32g430_adc.c **** void ADC_Analog_Watchdog_LowThresholds_Config(uint16_t low_thresholds)
 969:../firmware/n32g430_std_periph_driver/src/n32g430_adc.c **** {
 1774              		.loc 1 969 1 is_stmt 1 view -0
 1775              		.cfi_startproc
ARM GAS  C:\Users\Dawn\AppData\Local\Temp\ccAGizNf.s 			page 50


 1776              		@ args = 0, pretend = 0, frame = 0
 1777              		@ frame_needed = 0, uses_anonymous_args = 0
 1778              		@ link register save eliminated.
 970:../firmware/n32g430_std_periph_driver/src/n32g430_adc.c ****     /* Set the ADC low thresholds */
 971:../firmware/n32g430_std_periph_driver/src/n32g430_adc.c ****     ADC->WDGLOW = low_thresholds;
 1779              		.loc 1 971 5 view .LVU422
 1780              		.loc 1 971 17 is_stmt 0 view .LVU423
 1781 0000 014B     		ldr	r3, .L147
 1782 0002 9862     		str	r0, [r3, #40]
 972:../firmware/n32g430_std_periph_driver/src/n32g430_adc.c **** }
 1783              		.loc 1 972 1 view .LVU424
 1784 0004 7047     		bx	lr
 1785              	.L148:
 1786 0006 00BF     		.align	2
 1787              	.L147:
 1788 0008 00080240 		.word	1073874944
 1789              		.cfi_endproc
 1790              	.LFE167:
 1792              		.section	.text.ADC_Temperature_Sensor_And_Vrefint_Channel_Enable,"ax",%progbits
 1793              		.align	1
 1794              		.global	ADC_Temperature_Sensor_And_Vrefint_Channel_Enable
 1795              		.syntax unified
 1796              		.thumb
 1797              		.thumb_func
 1799              	ADC_Temperature_Sensor_And_Vrefint_Channel_Enable:
 1800              	.LFB168:
 973:../firmware/n32g430_std_periph_driver/src/n32g430_adc.c **** 
 974:../firmware/n32g430_std_periph_driver/src/n32g430_adc.c **** /**
 975:../firmware/n32g430_std_periph_driver/src/n32g430_adc.c **** *\*\name    ADC_Temperature_Sensor_And_Vrefint_Channel_Enable.
 976:../firmware/n32g430_std_periph_driver/src/n32g430_adc.c **** *\*\fun     Enable ADC Temperature sensor and VREFINT channel.
 977:../firmware/n32g430_std_periph_driver/src/n32g430_adc.c **** *\*\return  none
 978:../firmware/n32g430_std_periph_driver/src/n32g430_adc.c **** **/
 979:../firmware/n32g430_std_periph_driver/src/n32g430_adc.c **** void ADC_Temperature_Sensor_And_Vrefint_Channel_Enable(void)
 980:../firmware/n32g430_std_periph_driver/src/n32g430_adc.c **** {
 1801              		.loc 1 980 1 is_stmt 1 view -0
 1802              		.cfi_startproc
 1803              		@ args = 0, pretend = 0, frame = 0
 1804              		@ frame_needed = 0, uses_anonymous_args = 0
 1805              		@ link register save eliminated.
 981:../firmware/n32g430_std_periph_driver/src/n32g430_adc.c ****     /* Enable the temperature sensor and Vrefint channel*/
 982:../firmware/n32g430_std_periph_driver/src/n32g430_adc.c ****     ADC->CTRL2 |= ADC_TS_VREFINT_CHANNEL_ENABLE;
 1806              		.loc 1 982 5 view .LVU426
 1807              		.loc 1 982 8 is_stmt 0 view .LVU427
 1808 0000 064A     		ldr	r2, .L150
 1809 0002 9368     		ldr	r3, [r2, #8]
 1810              		.loc 1 982 16 view .LVU428
 1811 0004 43F40003 		orr	r3, r3, #8388608
 1812 0008 9360     		str	r3, [r2, #8]
 983:../firmware/n32g430_std_periph_driver/src/n32g430_adc.c ****     /* Enable the temperature sensor and Vrefint in AEFC register */
 984:../firmware/n32g430_std_periph_driver/src/n32g430_adc.c ****     _EnVref1p2()
 1813              		.loc 1 984 5 is_stmt 1 view .LVU429
 1814              		.loc 1 984 5 view .LVU430
 1815 000a A2F5FC32 		sub	r2, r2, #129024
 1816 000e D2F82038 		ldr	r3, [r2, #2080]
 1817 0012 43F48063 		orr	r3, r3, #1024
 1818 0016 C2F82038 		str	r3, [r2, #2080]
 1819              		.loc 1 984 5 view .LVU431
ARM GAS  C:\Users\Dawn\AppData\Local\Temp\ccAGizNf.s 			page 51


 985:../firmware/n32g430_std_periph_driver/src/n32g430_adc.c **** }
 1820              		.loc 1 985 1 is_stmt 0 view .LVU432
 1821 001a 7047     		bx	lr
 1822              	.L151:
 1823              		.align	2
 1824              	.L150:
 1825 001c 00080240 		.word	1073874944
 1826              		.cfi_endproc
 1827              	.LFE168:
 1829              		.section	.text.ADC_Temperature_Sensor_And_Vrefint_Channel_Disable,"ax",%progbits
 1830              		.align	1
 1831              		.global	ADC_Temperature_Sensor_And_Vrefint_Channel_Disable
 1832              		.syntax unified
 1833              		.thumb
 1834              		.thumb_func
 1836              	ADC_Temperature_Sensor_And_Vrefint_Channel_Disable:
 1837              	.LFB169:
 986:../firmware/n32g430_std_periph_driver/src/n32g430_adc.c **** 
 987:../firmware/n32g430_std_periph_driver/src/n32g430_adc.c **** /**
 988:../firmware/n32g430_std_periph_driver/src/n32g430_adc.c **** *\*\name    ADC_Temperature_Sensor_And_Vrefint_Channel_Disable.
 989:../firmware/n32g430_std_periph_driver/src/n32g430_adc.c **** *\*\fun     Disable ADC Temperature sensor and VREFINT channel.
 990:../firmware/n32g430_std_periph_driver/src/n32g430_adc.c **** *\*\return  none
 991:../firmware/n32g430_std_periph_driver/src/n32g430_adc.c **** **/
 992:../firmware/n32g430_std_periph_driver/src/n32g430_adc.c **** void ADC_Temperature_Sensor_And_Vrefint_Channel_Disable(void)
 993:../firmware/n32g430_std_periph_driver/src/n32g430_adc.c **** {
 1838              		.loc 1 993 1 is_stmt 1 view -0
 1839              		.cfi_startproc
 1840              		@ args = 0, pretend = 0, frame = 0
 1841              		@ frame_needed = 0, uses_anonymous_args = 0
 1842              		@ link register save eliminated.
 994:../firmware/n32g430_std_periph_driver/src/n32g430_adc.c ****     /* Disable the temperature sensor and Vrefint channel*/
 995:../firmware/n32g430_std_periph_driver/src/n32g430_adc.c ****     ADC->CTRL2 &= ADC_TS_VREFINT_CHANNEL_DISABLE;
 1843              		.loc 1 995 5 view .LVU434
 1844              		.loc 1 995 8 is_stmt 0 view .LVU435
 1845 0000 064A     		ldr	r2, .L153
 1846 0002 9368     		ldr	r3, [r2, #8]
 1847              		.loc 1 995 16 view .LVU436
 1848 0004 23F40003 		bic	r3, r3, #8388608
 1849 0008 9360     		str	r3, [r2, #8]
 996:../firmware/n32g430_std_periph_driver/src/n32g430_adc.c ****     /* Disable the temperature sensor and Vrefint in AEFC register */
 997:../firmware/n32g430_std_periph_driver/src/n32g430_adc.c ****     _DisVref1p2()
 1850              		.loc 1 997 5 is_stmt 1 view .LVU437
 1851              		.loc 1 997 5 view .LVU438
 1852 000a A2F5FC32 		sub	r2, r2, #129024
 1853 000e D2F82038 		ldr	r3, [r2, #2080]
 1854 0012 23F48063 		bic	r3, r3, #1024
 1855 0016 C2F82038 		str	r3, [r2, #2080]
 1856              		.loc 1 997 5 view .LVU439
 998:../firmware/n32g430_std_periph_driver/src/n32g430_adc.c **** }
 1857              		.loc 1 998 1 is_stmt 0 view .LVU440
 1858 001a 7047     		bx	lr
 1859              	.L154:
 1860              		.align	2
 1861              	.L153:
 1862 001c 00080240 		.word	1073874944
 1863              		.cfi_endproc
 1864              	.LFE169:
ARM GAS  C:\Users\Dawn\AppData\Local\Temp\ccAGizNf.s 			page 52


 1866              		.section	.text.ADC_INTFlag_Status_Get,"ax",%progbits
 1867              		.align	1
 1868              		.global	ADC_INTFlag_Status_Get
 1869              		.syntax unified
 1870              		.thumb
 1871              		.thumb_func
 1873              	ADC_INTFlag_Status_Get:
 1874              	.LVL71:
 1875              	.LFB170:
 999:../firmware/n32g430_std_periph_driver/src/n32g430_adc.c **** 
1000:../firmware/n32g430_std_periph_driver/src/n32g430_adc.c **** /**
1001:../firmware/n32g430_std_periph_driver/src/n32g430_adc.c **** *\*\name    ADC_INTFlag_Status_Get.
1002:../firmware/n32g430_std_periph_driver/src/n32g430_adc.c **** *\*\fun     Get ADC flag Status.
1003:../firmware/n32g430_std_periph_driver/src/n32g430_adc.c **** *\*\param   adc_flag :
1004:../firmware/n32g430_std_periph_driver/src/n32g430_adc.c **** *\*\          - ADC_INT_FLAG_AWDG
1005:../firmware/n32g430_std_periph_driver/src/n32g430_adc.c **** *\*\          - ADC_INT_FLAG_ENDC
1006:../firmware/n32g430_std_periph_driver/src/n32g430_adc.c **** *\*\          - ADC_INT_FLAG_JENDC
1007:../firmware/n32g430_std_periph_driver/src/n32g430_adc.c **** *\*\          - ADC_INT_FLAG_ENDCA
1008:../firmware/n32g430_std_periph_driver/src/n32g430_adc.c **** *\*\          - ADC_INT_FLAG_JENDCA
1009:../firmware/n32g430_std_periph_driver/src/n32g430_adc.c **** *\*\return  SET or RESET
1010:../firmware/n32g430_std_periph_driver/src/n32g430_adc.c **** **/
1011:../firmware/n32g430_std_periph_driver/src/n32g430_adc.c **** FlagStatus ADC_INTFlag_Status_Get(uint8_t adc_flag)
1012:../firmware/n32g430_std_periph_driver/src/n32g430_adc.c **** {
 1876              		.loc 1 1012 1 is_stmt 1 view -0
 1877              		.cfi_startproc
 1878              		@ args = 0, pretend = 0, frame = 0
 1879              		@ frame_needed = 0, uses_anonymous_args = 0
 1880              		@ link register save eliminated.
1013:../firmware/n32g430_std_periph_driver/src/n32g430_adc.c ****     /* Check the status of ADC flag */
1014:../firmware/n32g430_std_periph_driver/src/n32g430_adc.c ****     if ((ADC->STS & adc_flag) != (uint8_t)RESET)
 1881              		.loc 1 1014 5 view .LVU442
 1882              		.loc 1 1014 13 is_stmt 0 view .LVU443
 1883 0000 034B     		ldr	r3, .L156
 1884 0002 1B68     		ldr	r3, [r3]
 1885              		.loc 1 1014 19 view .LVU444
 1886 0004 1840     		ands	r0, r0, r3
 1887              	.LVL72:
1015:../firmware/n32g430_std_periph_driver/src/n32g430_adc.c ****     {
1016:../firmware/n32g430_std_periph_driver/src/n32g430_adc.c ****         /* ADC_FLAG is set */
1017:../firmware/n32g430_std_periph_driver/src/n32g430_adc.c ****         return SET;
1018:../firmware/n32g430_std_periph_driver/src/n32g430_adc.c ****     }
1019:../firmware/n32g430_std_periph_driver/src/n32g430_adc.c ****     else
1020:../firmware/n32g430_std_periph_driver/src/n32g430_adc.c ****     {
1021:../firmware/n32g430_std_periph_driver/src/n32g430_adc.c ****         /* ADC_FLAG is reset */
1022:../firmware/n32g430_std_periph_driver/src/n32g430_adc.c ****         return RESET;
1023:../firmware/n32g430_std_periph_driver/src/n32g430_adc.c ****     }
1024:../firmware/n32g430_std_periph_driver/src/n32g430_adc.c **** }
 1888              		.loc 1 1024 1 view .LVU445
 1889 0006 0038     		subs	r0, r0, #0
 1890 0008 18BF     		it	ne
 1891 000a 0120     		movne	r0, #1
 1892 000c 7047     		bx	lr
 1893              	.L157:
 1894 000e 00BF     		.align	2
 1895              	.L156:
 1896 0010 00080240 		.word	1073874944
 1897              		.cfi_endproc
ARM GAS  C:\Users\Dawn\AppData\Local\Temp\ccAGizNf.s 			page 53


 1898              	.LFE170:
 1900              		.section	.text.ADC_Flag_Status_Get,"ax",%progbits
 1901              		.align	1
 1902              		.global	ADC_Flag_Status_Get
 1903              		.syntax unified
 1904              		.thumb
 1905              		.thumb_func
 1907              	ADC_Flag_Status_Get:
 1908              	.LVL73:
 1909              	.LFB171:
1025:../firmware/n32g430_std_periph_driver/src/n32g430_adc.c **** 
1026:../firmware/n32g430_std_periph_driver/src/n32g430_adc.c **** /**
1027:../firmware/n32g430_std_periph_driver/src/n32g430_adc.c **** *\*\name    ADC_Flag_Status_Get.
1028:../firmware/n32g430_std_periph_driver/src/n32g430_adc.c **** *\*\fun     Get ADC flag Status.
1029:../firmware/n32g430_std_periph_driver/src/n32g430_adc.c **** *\*\param   selflag :
1030:../firmware/n32g430_std_periph_driver/src/n32g430_adc.c **** *\*\          - ADC_RUN_FLAG
1031:../firmware/n32g430_std_periph_driver/src/n32g430_adc.c **** *\*\          - ADC_RD_FLAG
1032:../firmware/n32g430_std_periph_driver/src/n32g430_adc.c **** *\*\param   adc_runflag :
1033:../firmware/n32g430_std_periph_driver/src/n32g430_adc.c **** *\*\          - ADC_FLAG_AWDG
1034:../firmware/n32g430_std_periph_driver/src/n32g430_adc.c **** *\*\          - ADC_FLAG_ENDC
1035:../firmware/n32g430_std_periph_driver/src/n32g430_adc.c **** *\*\          - ADC_FLAG_JENDC
1036:../firmware/n32g430_std_periph_driver/src/n32g430_adc.c **** *\*\          - ADC_FLAG_JSTR
1037:../firmware/n32g430_std_periph_driver/src/n32g430_adc.c **** *\*\          - ADC_FLAG_STR
1038:../firmware/n32g430_std_periph_driver/src/n32g430_adc.c **** *\*\          - ADC_FLAG_ENDCA
1039:../firmware/n32g430_std_periph_driver/src/n32g430_adc.c **** *\*\          - ADC_FLAG_JENDCA
1040:../firmware/n32g430_std_periph_driver/src/n32g430_adc.c **** *\*\param   adc_rdflag :
1041:../firmware/n32g430_std_periph_driver/src/n32g430_adc.c **** *\*\          - ADC_FLAG_RDY
1042:../firmware/n32g430_std_periph_driver/src/n32g430_adc.c **** *\*\          - ADC_FLAG_PD_RDY
1043:../firmware/n32g430_std_periph_driver/src/n32g430_adc.c **** *\*\return  SET or RESET
1044:../firmware/n32g430_std_periph_driver/src/n32g430_adc.c **** **/
1045:../firmware/n32g430_std_periph_driver/src/n32g430_adc.c **** FlagStatus ADC_Flag_Status_Get(uint8_t selflag, uint8_t adc_runflag, uint8_t adc_rdflag)
1046:../firmware/n32g430_std_periph_driver/src/n32g430_adc.c **** {
 1910              		.loc 1 1046 1 is_stmt 1 view -0
 1911              		.cfi_startproc
 1912              		@ args = 0, pretend = 0, frame = 0
 1913              		@ frame_needed = 0, uses_anonymous_args = 0
 1914              		@ link register save eliminated.
1047:../firmware/n32g430_std_periph_driver/src/n32g430_adc.c ****     if(selflag == ADC_RUN_FLAG)
 1915              		.loc 1 1047 5 view .LVU447
 1916              		.loc 1 1047 7 is_stmt 0 view .LVU448
 1917 0000 0128     		cmp	r0, #1
 1918 0002 064B     		ldr	r3, .L162
 1919 0004 05D1     		bne	.L159
1048:../firmware/n32g430_std_periph_driver/src/n32g430_adc.c ****     {    
1049:../firmware/n32g430_std_periph_driver/src/n32g430_adc.c ****         /* Check the status of ADC flag */
1050:../firmware/n32g430_std_periph_driver/src/n32g430_adc.c ****         if ((ADC->STS & adc_runflag) != (uint8_t)RESET)
 1920              		.loc 1 1050 9 is_stmt 1 view .LVU449
 1921              		.loc 1 1050 17 is_stmt 0 view .LVU450
 1922 0006 1B68     		ldr	r3, [r3]
 1923              		.loc 1 1050 23 view .LVU451
 1924 0008 1940     		ands	r1, r1, r3
 1925              	.LVL74:
 1926              		.loc 1 1050 12 view .LVU452
 1927 000a 081E     		subs	r0, r1, #0
 1928              	.LVL75:
 1929              	.L161:
1051:../firmware/n32g430_std_periph_driver/src/n32g430_adc.c ****         {
ARM GAS  C:\Users\Dawn\AppData\Local\Temp\ccAGizNf.s 			page 54


1052:../firmware/n32g430_std_periph_driver/src/n32g430_adc.c ****             /* ADC_FLAG is set */
1053:../firmware/n32g430_std_periph_driver/src/n32g430_adc.c ****             return SET;
1054:../firmware/n32g430_std_periph_driver/src/n32g430_adc.c ****         }
1055:../firmware/n32g430_std_periph_driver/src/n32g430_adc.c ****         else
1056:../firmware/n32g430_std_periph_driver/src/n32g430_adc.c ****         {
1057:../firmware/n32g430_std_periph_driver/src/n32g430_adc.c ****             /* ADC_FLAG is reset */
1058:../firmware/n32g430_std_periph_driver/src/n32g430_adc.c ****             return RESET;
1059:../firmware/n32g430_std_periph_driver/src/n32g430_adc.c ****         }
1060:../firmware/n32g430_std_periph_driver/src/n32g430_adc.c ****     }
1061:../firmware/n32g430_std_periph_driver/src/n32g430_adc.c ****     else
1062:../firmware/n32g430_std_periph_driver/src/n32g430_adc.c ****     {
1063:../firmware/n32g430_std_periph_driver/src/n32g430_adc.c ****         if ((ADC->CTRL3 & adc_rdflag) != (uint8_t)RESET)
 1930              		.loc 1 1063 12 view .LVU453
 1931 000c 18BF     		it	ne
 1932 000e 0120     		movne	r0, #1
1064:../firmware/n32g430_std_periph_driver/src/n32g430_adc.c ****         {
1065:../firmware/n32g430_std_periph_driver/src/n32g430_adc.c ****             /* ADC_FLAG is set */
1066:../firmware/n32g430_std_periph_driver/src/n32g430_adc.c ****             return SET;
1067:../firmware/n32g430_std_periph_driver/src/n32g430_adc.c ****         }
1068:../firmware/n32g430_std_periph_driver/src/n32g430_adc.c ****         else
1069:../firmware/n32g430_std_periph_driver/src/n32g430_adc.c ****         {
1070:../firmware/n32g430_std_periph_driver/src/n32g430_adc.c ****             /* ADC_FLAG is reset */
1071:../firmware/n32g430_std_periph_driver/src/n32g430_adc.c ****             return RESET;
1072:../firmware/n32g430_std_periph_driver/src/n32g430_adc.c ****         }
1073:../firmware/n32g430_std_periph_driver/src/n32g430_adc.c ****     }
1074:../firmware/n32g430_std_periph_driver/src/n32g430_adc.c **** }
 1933              		.loc 1 1074 1 view .LVU454
 1934 0010 7047     		bx	lr
 1935              	.LVL76:
 1936              	.L159:
1063:../firmware/n32g430_std_periph_driver/src/n32g430_adc.c ****         {
 1937              		.loc 1 1063 9 is_stmt 1 view .LVU455
1063:../firmware/n32g430_std_periph_driver/src/n32g430_adc.c ****         {
 1938              		.loc 1 1063 17 is_stmt 0 view .LVU456
 1939 0012 986D     		ldr	r0, [r3, #88]
 1940              	.LVL77:
1063:../firmware/n32g430_std_periph_driver/src/n32g430_adc.c ****         {
 1941              		.loc 1 1063 25 view .LVU457
 1942 0014 1040     		ands	r0, r0, r2
1063:../firmware/n32g430_std_periph_driver/src/n32g430_adc.c ****         {
 1943              		.loc 1 1063 12 view .LVU458
 1944 0016 0038     		subs	r0, r0, #0
 1945 0018 F8E7     		b	.L161
 1946              	.L163:
 1947 001a 00BF     		.align	2
 1948              	.L162:
 1949 001c 00080240 		.word	1073874944
 1950              		.cfi_endproc
 1951              	.LFE171:
 1953              		.section	.text.ADC_INTFlag_Status_Clear,"ax",%progbits
 1954              		.align	1
 1955              		.global	ADC_INTFlag_Status_Clear
 1956              		.syntax unified
 1957              		.thumb
 1958              		.thumb_func
 1960              	ADC_INTFlag_Status_Clear:
 1961              	.LVL78:
ARM GAS  C:\Users\Dawn\AppData\Local\Temp\ccAGizNf.s 			page 55


 1962              	.LFB172:
1075:../firmware/n32g430_std_periph_driver/src/n32g430_adc.c **** 
1076:../firmware/n32g430_std_periph_driver/src/n32g430_adc.c **** 
1077:../firmware/n32g430_std_periph_driver/src/n32g430_adc.c **** /**
1078:../firmware/n32g430_std_periph_driver/src/n32g430_adc.c **** *\*\name    ADC_INTFlag_Status_Clear.
1079:../firmware/n32g430_std_periph_driver/src/n32g430_adc.c **** *\*\fun     Clear ADC flag Status.
1080:../firmware/n32g430_std_periph_driver/src/n32g430_adc.c **** *\*\param   adc_flag :
1081:../firmware/n32g430_std_periph_driver/src/n32g430_adc.c **** *\*\          - ADC_INT_FLAG_AWDG
1082:../firmware/n32g430_std_periph_driver/src/n32g430_adc.c **** *\*\          - ADC_INT_FLAG_ENDC
1083:../firmware/n32g430_std_periph_driver/src/n32g430_adc.c **** *\*\          - ADC_INT_FLAG_JENDC
1084:../firmware/n32g430_std_periph_driver/src/n32g430_adc.c **** *\*\          - ADC_INT_FLAG_ENDCA
1085:../firmware/n32g430_std_periph_driver/src/n32g430_adc.c **** *\*\          - ADC_INT_FLAG_JENDCA
1086:../firmware/n32g430_std_periph_driver/src/n32g430_adc.c **** *\*\return  SET or RESET
1087:../firmware/n32g430_std_periph_driver/src/n32g430_adc.c **** **/
1088:../firmware/n32g430_std_periph_driver/src/n32g430_adc.c **** void ADC_INTFlag_Status_Clear(uint8_t adc_flag)
1089:../firmware/n32g430_std_periph_driver/src/n32g430_adc.c **** {
 1963              		.loc 1 1089 1 is_stmt 1 view -0
 1964              		.cfi_startproc
 1965              		@ args = 0, pretend = 0, frame = 0
 1966              		@ frame_needed = 0, uses_anonymous_args = 0
 1967              		@ link register save eliminated.
1090:../firmware/n32g430_std_periph_driver/src/n32g430_adc.c ****     /* Clear the selected ADC flag Status */
1091:../firmware/n32g430_std_periph_driver/src/n32g430_adc.c ****     ADC->STS &= ~(uint32_t)adc_flag;
 1968              		.loc 1 1091 5 view .LVU460
 1969              		.loc 1 1091 8 is_stmt 0 view .LVU461
 1970 0000 024A     		ldr	r2, .L165
 1971 0002 1368     		ldr	r3, [r2]
 1972              		.loc 1 1091 14 view .LVU462
 1973 0004 23EA0003 		bic	r3, r3, r0
 1974 0008 1360     		str	r3, [r2]
1092:../firmware/n32g430_std_periph_driver/src/n32g430_adc.c **** }
 1975              		.loc 1 1092 1 view .LVU463
 1976 000a 7047     		bx	lr
 1977              	.L166:
 1978              		.align	2
 1979              	.L165:
 1980 000c 00080240 		.word	1073874944
 1981              		.cfi_endproc
 1982              	.LFE172:
 1984              		.section	.text.ADC_Flag_Status_Clear,"ax",%progbits
 1985              		.align	1
 1986              		.global	ADC_Flag_Status_Clear
 1987              		.syntax unified
 1988              		.thumb
 1989              		.thumb_func
 1991              	ADC_Flag_Status_Clear:
 1992              	.LFB195:
 1993              		.cfi_startproc
1093:../firmware/n32g430_std_periph_driver/src/n32g430_adc.c **** 
1094:../firmware/n32g430_std_periph_driver/src/n32g430_adc.c **** /**
1095:../firmware/n32g430_std_periph_driver/src/n32g430_adc.c **** *\*\name    ADC_Flag_Status_Clear.
1096:../firmware/n32g430_std_periph_driver/src/n32g430_adc.c **** *\*\fun     Clear ADC flag Status.
1097:../firmware/n32g430_std_periph_driver/src/n32g430_adc.c **** *\*\param   adc_flag :
1098:../firmware/n32g430_std_periph_driver/src/n32g430_adc.c **** *\*\          - ADC_FLAG_AWDG
1099:../firmware/n32g430_std_periph_driver/src/n32g430_adc.c **** *\*\          - ADC_FLAG_ENDC
1100:../firmware/n32g430_std_periph_driver/src/n32g430_adc.c **** *\*\          - ADC_FLAG_JENDC
1101:../firmware/n32g430_std_periph_driver/src/n32g430_adc.c **** *\*\          - ADC_FLAG_JSTR
ARM GAS  C:\Users\Dawn\AppData\Local\Temp\ccAGizNf.s 			page 56


1102:../firmware/n32g430_std_periph_driver/src/n32g430_adc.c **** *\*\          - ADC_FLAG_STR
1103:../firmware/n32g430_std_periph_driver/src/n32g430_adc.c **** *\*\          - ADC_FLAG_ENDCA
1104:../firmware/n32g430_std_periph_driver/src/n32g430_adc.c **** *\*\          - ADC_FLAG_JENDCA
1105:../firmware/n32g430_std_periph_driver/src/n32g430_adc.c **** *\*\return  SET or RESET
1106:../firmware/n32g430_std_periph_driver/src/n32g430_adc.c **** **/
1107:../firmware/n32g430_std_periph_driver/src/n32g430_adc.c **** void ADC_Flag_Status_Clear(uint8_t adc_flag)
 1994              		.loc 1 1107 6 is_stmt 1 view -0
 1995              		@ args = 0, pretend = 0, frame = 0
 1996              		@ frame_needed = 0, uses_anonymous_args = 0
 1997              		@ link register save eliminated.
 1998 0000 FFF7FEBF 		b	ADC_INTFlag_Status_Clear
 1999              		.cfi_endproc
 2000              	.LFE195:
 2002              		.section	.text.ADC_Vbat_Monitor_Enable,"ax",%progbits
 2003              		.align	1
 2004              		.global	ADC_Vbat_Monitor_Enable
 2005              		.syntax unified
 2006              		.thumb
 2007              		.thumb_func
 2009              	ADC_Vbat_Monitor_Enable:
 2010              	.LFB174:
1108:../firmware/n32g430_std_periph_driver/src/n32g430_adc.c **** {
1109:../firmware/n32g430_std_periph_driver/src/n32g430_adc.c ****     /* Clear the selected ADC flag Status */
1110:../firmware/n32g430_std_periph_driver/src/n32g430_adc.c ****     ADC->STS &= ~(uint32_t)adc_flag;
1111:../firmware/n32g430_std_periph_driver/src/n32g430_adc.c **** }
1112:../firmware/n32g430_std_periph_driver/src/n32g430_adc.c **** /**
1113:../firmware/n32g430_std_periph_driver/src/n32g430_adc.c **** *\*\name    ADC_Vbat_Monitor_Enable.
1114:../firmware/n32g430_std_periph_driver/src/n32g430_adc.c **** *\*\fun     Enable ADC Vbat monitor.
1115:../firmware/n32g430_std_periph_driver/src/n32g430_adc.c **** *\*\return  none
1116:../firmware/n32g430_std_periph_driver/src/n32g430_adc.c **** **/
1117:../firmware/n32g430_std_periph_driver/src/n32g430_adc.c **** void ADC_Vbat_Monitor_Enable(void)
1118:../firmware/n32g430_std_periph_driver/src/n32g430_adc.c **** {
 2011              		.loc 1 1118 1 view -0
 2012              		.cfi_startproc
 2013              		@ args = 0, pretend = 0, frame = 0
 2014              		@ frame_needed = 0, uses_anonymous_args = 0
 2015              		@ link register save eliminated.
1119:../firmware/n32g430_std_periph_driver/src/n32g430_adc.c ****     /* Enable Vbat monitor */
1120:../firmware/n32g430_std_periph_driver/src/n32g430_adc.c ****     ADC->CTRL3 |= ADC_VBAT_MONITOR_ENABLE;
 2016              		.loc 1 1120 5 view .LVU466
 2017              		.loc 1 1120 8 is_stmt 0 view .LVU467
 2018 0000 064A     		ldr	r2, .L169
 2019 0002 936D     		ldr	r3, [r2, #88]
 2020              		.loc 1 1120 16 view .LVU468
 2021 0004 43F40063 		orr	r3, r3, #2048
 2022 0008 9365     		str	r3, [r2, #88]
1121:../firmware/n32g430_std_periph_driver/src/n32g430_adc.c ****     /* Enable Vbat monitor in AFEC register */
1122:../firmware/n32g430_std_periph_driver/src/n32g430_adc.c ****     _EnVref1p2()
 2023              		.loc 1 1122 5 is_stmt 1 view .LVU469
 2024              		.loc 1 1122 5 view .LVU470
 2025 000a A2F5FC32 		sub	r2, r2, #129024
 2026 000e D2F82038 		ldr	r3, [r2, #2080]
 2027 0012 43F48063 		orr	r3, r3, #1024
 2028 0016 C2F82038 		str	r3, [r2, #2080]
 2029              		.loc 1 1122 5 view .LVU471
1123:../firmware/n32g430_std_periph_driver/src/n32g430_adc.c **** }
 2030              		.loc 1 1123 1 is_stmt 0 view .LVU472
ARM GAS  C:\Users\Dawn\AppData\Local\Temp\ccAGizNf.s 			page 57


 2031 001a 7047     		bx	lr
 2032              	.L170:
 2033              		.align	2
 2034              	.L169:
 2035 001c 00080240 		.word	1073874944
 2036              		.cfi_endproc
 2037              	.LFE174:
 2039              		.section	.text.ADC_Vbat_Monitor_Disable,"ax",%progbits
 2040              		.align	1
 2041              		.global	ADC_Vbat_Monitor_Disable
 2042              		.syntax unified
 2043              		.thumb
 2044              		.thumb_func
 2046              	ADC_Vbat_Monitor_Disable:
 2047              	.LFB175:
1124:../firmware/n32g430_std_periph_driver/src/n32g430_adc.c **** 
1125:../firmware/n32g430_std_periph_driver/src/n32g430_adc.c **** /**
1126:../firmware/n32g430_std_periph_driver/src/n32g430_adc.c **** *\*\name    ADC_Vbat_Monitor_Disable.
1127:../firmware/n32g430_std_periph_driver/src/n32g430_adc.c **** *\*\fun     Disable ADC Vbat monitor.
1128:../firmware/n32g430_std_periph_driver/src/n32g430_adc.c **** *\*\return  none
1129:../firmware/n32g430_std_periph_driver/src/n32g430_adc.c **** **/
1130:../firmware/n32g430_std_periph_driver/src/n32g430_adc.c **** void ADC_Vbat_Monitor_Disable(void)
1131:../firmware/n32g430_std_periph_driver/src/n32g430_adc.c **** {
 2048              		.loc 1 1131 1 is_stmt 1 view -0
 2049              		.cfi_startproc
 2050              		@ args = 0, pretend = 0, frame = 0
 2051              		@ frame_needed = 0, uses_anonymous_args = 0
 2052              		@ link register save eliminated.
1132:../firmware/n32g430_std_periph_driver/src/n32g430_adc.c ****     /* Disable Vbat monitor */
1133:../firmware/n32g430_std_periph_driver/src/n32g430_adc.c ****     ADC->CTRL3 &= ADC_VBAT_MONITOR_DISABLE;
 2053              		.loc 1 1133 5 view .LVU474
 2054              		.loc 1 1133 8 is_stmt 0 view .LVU475
 2055 0000 064A     		ldr	r2, .L172
 2056 0002 936D     		ldr	r3, [r2, #88]
 2057              		.loc 1 1133 16 view .LVU476
 2058 0004 23F40063 		bic	r3, r3, #2048
 2059 0008 9365     		str	r3, [r2, #88]
1134:../firmware/n32g430_std_periph_driver/src/n32g430_adc.c ****     /* Disable Vbat monitor in AFEC register */
1135:../firmware/n32g430_std_periph_driver/src/n32g430_adc.c ****     _DisVref1p2()
 2060              		.loc 1 1135 5 is_stmt 1 view .LVU477
 2061              		.loc 1 1135 5 view .LVU478
 2062 000a A2F5FC32 		sub	r2, r2, #129024
 2063 000e D2F82038 		ldr	r3, [r2, #2080]
 2064 0012 23F48063 		bic	r3, r3, #1024
 2065 0016 C2F82038 		str	r3, [r2, #2080]
 2066              		.loc 1 1135 5 view .LVU479
1136:../firmware/n32g430_std_periph_driver/src/n32g430_adc.c **** }
 2067              		.loc 1 1136 1 is_stmt 0 view .LVU480
 2068 001a 7047     		bx	lr
 2069              	.L173:
 2070              		.align	2
 2071              	.L172:
 2072 001c 00080240 		.word	1073874944
 2073              		.cfi_endproc
 2074              	.LFE175:
 2076              		.section	.text.ADC_Deep_Power_Mode_Enable,"ax",%progbits
 2077              		.align	1
ARM GAS  C:\Users\Dawn\AppData\Local\Temp\ccAGizNf.s 			page 58


 2078              		.global	ADC_Deep_Power_Mode_Enable
 2079              		.syntax unified
 2080              		.thumb
 2081              		.thumb_func
 2083              	ADC_Deep_Power_Mode_Enable:
 2084              	.LFB176:
1137:../firmware/n32g430_std_periph_driver/src/n32g430_adc.c **** 
1138:../firmware/n32g430_std_periph_driver/src/n32g430_adc.c **** /**
1139:../firmware/n32g430_std_periph_driver/src/n32g430_adc.c **** *\*\name    ADC_Deep_Power_Mode_Enable.
1140:../firmware/n32g430_std_periph_driver/src/n32g430_adc.c **** *\*\fun     Enable ADC deep power mode.
1141:../firmware/n32g430_std_periph_driver/src/n32g430_adc.c **** *\*\return  none
1142:../firmware/n32g430_std_periph_driver/src/n32g430_adc.c **** **/
1143:../firmware/n32g430_std_periph_driver/src/n32g430_adc.c **** void ADC_Deep_Power_Mode_Enable(void)
1144:../firmware/n32g430_std_periph_driver/src/n32g430_adc.c **** {   
 2085              		.loc 1 1144 1 is_stmt 1 view -0
 2086              		.cfi_startproc
 2087              		@ args = 0, pretend = 0, frame = 0
 2088              		@ frame_needed = 0, uses_anonymous_args = 0
 2089              		@ link register save eliminated.
1145:../firmware/n32g430_std_periph_driver/src/n32g430_adc.c ****     /* Set the ADC_CTRL3 DPWMOD bit to enable ADC deep power mode */
1146:../firmware/n32g430_std_periph_driver/src/n32g430_adc.c ****     ADC->CTRL3 |= ADC_DEEP_POWER_ENABLE;
 2090              		.loc 1 1146 5 view .LVU482
 2091              		.loc 1 1146 8 is_stmt 0 view .LVU483
 2092 0000 024A     		ldr	r2, .L175
 2093 0002 936D     		ldr	r3, [r2, #88]
 2094              		.loc 1 1146 16 view .LVU484
 2095 0004 43F48063 		orr	r3, r3, #1024
 2096 0008 9365     		str	r3, [r2, #88]
1147:../firmware/n32g430_std_periph_driver/src/n32g430_adc.c **** }
 2097              		.loc 1 1147 1 view .LVU485
 2098 000a 7047     		bx	lr
 2099              	.L176:
 2100              		.align	2
 2101              	.L175:
 2102 000c 00080240 		.word	1073874944
 2103              		.cfi_endproc
 2104              	.LFE176:
 2106              		.section	.text.ADC_Deep_Power_Mode_Disable,"ax",%progbits
 2107              		.align	1
 2108              		.global	ADC_Deep_Power_Mode_Disable
 2109              		.syntax unified
 2110              		.thumb
 2111              		.thumb_func
 2113              	ADC_Deep_Power_Mode_Disable:
 2114              	.LFB177:
1148:../firmware/n32g430_std_periph_driver/src/n32g430_adc.c **** 
1149:../firmware/n32g430_std_periph_driver/src/n32g430_adc.c **** /**
1150:../firmware/n32g430_std_periph_driver/src/n32g430_adc.c **** *\*\name    ADC_Deep_Power_Mode_Disable.
1151:../firmware/n32g430_std_periph_driver/src/n32g430_adc.c **** *\*\fun     Disable ADC deep power mode.
1152:../firmware/n32g430_std_periph_driver/src/n32g430_adc.c **** *\*\return  none
1153:../firmware/n32g430_std_periph_driver/src/n32g430_adc.c **** **/
1154:../firmware/n32g430_std_periph_driver/src/n32g430_adc.c **** void ADC_Deep_Power_Mode_Disable(void)
1155:../firmware/n32g430_std_periph_driver/src/n32g430_adc.c **** {   
 2115              		.loc 1 1155 1 is_stmt 1 view -0
 2116              		.cfi_startproc
 2117              		@ args = 0, pretend = 0, frame = 0
 2118              		@ frame_needed = 0, uses_anonymous_args = 0
ARM GAS  C:\Users\Dawn\AppData\Local\Temp\ccAGizNf.s 			page 59


 2119              		@ link register save eliminated.
1156:../firmware/n32g430_std_periph_driver/src/n32g430_adc.c ****     /* Clear the ADC_CTRL3 DPWMOD bit to disable ADC deep power mode */
1157:../firmware/n32g430_std_periph_driver/src/n32g430_adc.c ****     ADC->CTRL3 &= ADC_DEEP_POWER_DISABLE;
 2120              		.loc 1 1157 5 view .LVU487
 2121              		.loc 1 1157 8 is_stmt 0 view .LVU488
 2122 0000 024A     		ldr	r2, .L178
 2123 0002 936D     		ldr	r3, [r2, #88]
 2124              		.loc 1 1157 16 view .LVU489
 2125 0004 23F48063 		bic	r3, r3, #1024
 2126 0008 9365     		str	r3, [r2, #88]
1158:../firmware/n32g430_std_periph_driver/src/n32g430_adc.c **** }
 2127              		.loc 1 1158 1 view .LVU490
 2128 000a 7047     		bx	lr
 2129              	.L179:
 2130              		.align	2
 2131              	.L178:
 2132 000c 00080240 		.word	1073874944
 2133              		.cfi_endproc
 2134              	.LFE177:
 2136              		.section	.text.ADC_AHB_Clock_Mode_Config,"ax",%progbits
 2137              		.align	1
 2138              		.global	ADC_AHB_Clock_Mode_Config
 2139              		.syntax unified
 2140              		.thumb
 2141              		.thumb_func
 2143              	ADC_AHB_Clock_Mode_Config:
 2144              	.LFB178:
1159:../firmware/n32g430_std_periph_driver/src/n32g430_adc.c **** 
1160:../firmware/n32g430_std_periph_driver/src/n32g430_adc.c **** /**
1161:../firmware/n32g430_std_periph_driver/src/n32g430_adc.c **** *\*\name    ADC_AHB_Clock_Mode_Config.
1162:../firmware/n32g430_std_periph_driver/src/n32g430_adc.c **** *\*\fun     Configures the ADC AHB clock mode.
1163:../firmware/n32g430_std_periph_driver/src/n32g430_adc.c **** *\*\return  none
1164:../firmware/n32g430_std_periph_driver/src/n32g430_adc.c **** **/
1165:../firmware/n32g430_std_periph_driver/src/n32g430_adc.c **** void ADC_AHB_Clock_Mode_Config(void)
1166:../firmware/n32g430_std_periph_driver/src/n32g430_adc.c **** {   
 2145              		.loc 1 1166 1 is_stmt 1 view -0
 2146              		.cfi_startproc
 2147              		@ args = 0, pretend = 0, frame = 0
 2148              		@ frame_needed = 0, uses_anonymous_args = 0
 2149              		@ link register save eliminated.
1167:../firmware/n32g430_std_periph_driver/src/n32g430_adc.c ****     /* Clear the ADC_CTRL3 CKMOD bit */
1168:../firmware/n32g430_std_periph_driver/src/n32g430_adc.c ****     ADC->CTRL3 &= ADC_CLOCK_AHB;  
 2150              		.loc 1 1168 5 view .LVU492
 2151              		.loc 1 1168 8 is_stmt 0 view .LVU493
 2152 0000 024A     		ldr	r2, .L181
 2153 0002 936D     		ldr	r3, [r2, #88]
 2154              		.loc 1 1168 16 view .LVU494
 2155 0004 23F01003 		bic	r3, r3, #16
 2156 0008 9365     		str	r3, [r2, #88]
1169:../firmware/n32g430_std_periph_driver/src/n32g430_adc.c **** }
 2157              		.loc 1 1169 1 view .LVU495
 2158 000a 7047     		bx	lr
 2159              	.L182:
 2160              		.align	2
 2161              	.L181:
 2162 000c 00080240 		.word	1073874944
 2163              		.cfi_endproc
ARM GAS  C:\Users\Dawn\AppData\Local\Temp\ccAGizNf.s 			page 60


 2164              	.LFE178:
 2166              		.section	.text.ADC_PLL_Clock_Mode_Config,"ax",%progbits
 2167              		.align	1
 2168              		.global	ADC_PLL_Clock_Mode_Config
 2169              		.syntax unified
 2170              		.thumb
 2171              		.thumb_func
 2173              	ADC_PLL_Clock_Mode_Config:
 2174              	.LFB179:
1170:../firmware/n32g430_std_periph_driver/src/n32g430_adc.c **** 
1171:../firmware/n32g430_std_periph_driver/src/n32g430_adc.c **** /**
1172:../firmware/n32g430_std_periph_driver/src/n32g430_adc.c **** *\*\name    ADC_PLL_Clock_Mode_Config.
1173:../firmware/n32g430_std_periph_driver/src/n32g430_adc.c **** *\*\fun     Configures the ADC PLL clock mode.
1174:../firmware/n32g430_std_periph_driver/src/n32g430_adc.c **** *\*\return  none
1175:../firmware/n32g430_std_periph_driver/src/n32g430_adc.c **** **/
1176:../firmware/n32g430_std_periph_driver/src/n32g430_adc.c **** void ADC_PLL_Clock_Mode_Config(void)
1177:../firmware/n32g430_std_periph_driver/src/n32g430_adc.c **** {   
 2175              		.loc 1 1177 1 is_stmt 1 view -0
 2176              		.cfi_startproc
 2177              		@ args = 0, pretend = 0, frame = 0
 2178              		@ frame_needed = 0, uses_anonymous_args = 0
 2179              		@ link register save eliminated.
1178:../firmware/n32g430_std_periph_driver/src/n32g430_adc.c ****     /* Set the ADC_CTRL3 CKMOD bit to select clock mode*/
1179:../firmware/n32g430_std_periph_driver/src/n32g430_adc.c ****     ADC->CTRL3 |= ADC_CLOCK_PLL;  
 2180              		.loc 1 1179 5 view .LVU497
 2181              		.loc 1 1179 8 is_stmt 0 view .LVU498
 2182 0000 024A     		ldr	r2, .L184
 2183 0002 936D     		ldr	r3, [r2, #88]
 2184              		.loc 1 1179 16 view .LVU499
 2185 0004 43F01003 		orr	r3, r3, #16
 2186 0008 9365     		str	r3, [r2, #88]
1180:../firmware/n32g430_std_periph_driver/src/n32g430_adc.c **** }
 2187              		.loc 1 1180 1 view .LVU500
 2188 000a 7047     		bx	lr
 2189              	.L185:
 2190              		.align	2
 2191              	.L184:
 2192 000c 00080240 		.word	1073874944
 2193              		.cfi_endproc
 2194              	.LFE179:
 2196              		.section	.text.ADC_Calibration_Auto_Load_Enable,"ax",%progbits
 2197              		.align	1
 2198              		.global	ADC_Calibration_Auto_Load_Enable
 2199              		.syntax unified
 2200              		.thumb
 2201              		.thumb_func
 2203              	ADC_Calibration_Auto_Load_Enable:
 2204              	.LFB180:
1181:../firmware/n32g430_std_periph_driver/src/n32g430_adc.c **** 
1182:../firmware/n32g430_std_periph_driver/src/n32g430_adc.c **** /**
1183:../firmware/n32g430_std_periph_driver/src/n32g430_adc.c **** *\*\name    ADC_Calibration_Auto_Load_Enable.
1184:../firmware/n32g430_std_periph_driver/src/n32g430_adc.c **** *\*\fun     Enable ADC Calibration Auto Load mode.
1185:../firmware/n32g430_std_periph_driver/src/n32g430_adc.c **** *\*\return  none
1186:../firmware/n32g430_std_periph_driver/src/n32g430_adc.c **** **/
1187:../firmware/n32g430_std_periph_driver/src/n32g430_adc.c **** void ADC_Calibration_Auto_Load_Enable(void)
1188:../firmware/n32g430_std_periph_driver/src/n32g430_adc.c **** {   
 2205              		.loc 1 1188 1 is_stmt 1 view -0
ARM GAS  C:\Users\Dawn\AppData\Local\Temp\ccAGizNf.s 			page 61


 2206              		.cfi_startproc
 2207              		@ args = 0, pretend = 0, frame = 0
 2208              		@ frame_needed = 0, uses_anonymous_args = 0
 2209              		@ link register save eliminated.
1189:../firmware/n32g430_std_periph_driver/src/n32g430_adc.c ****     /* Set the ADC_CTRL3 CALALD bit to enable or disable ADC Calibration Auto Load */
1190:../firmware/n32g430_std_periph_driver/src/n32g430_adc.c ****     ADC->CTRL3 |= ADC_CALALD_ENABLE;
 2210              		.loc 1 1190 5 view .LVU502
 2211              		.loc 1 1190 8 is_stmt 0 view .LVU503
 2212 0000 024A     		ldr	r2, .L187
 2213 0002 936D     		ldr	r3, [r2, #88]
 2214              		.loc 1 1190 16 view .LVU504
 2215 0004 43F00803 		orr	r3, r3, #8
 2216 0008 9365     		str	r3, [r2, #88]
1191:../firmware/n32g430_std_periph_driver/src/n32g430_adc.c **** }
 2217              		.loc 1 1191 1 view .LVU505
 2218 000a 7047     		bx	lr
 2219              	.L188:
 2220              		.align	2
 2221              	.L187:
 2222 000c 00080240 		.word	1073874944
 2223              		.cfi_endproc
 2224              	.LFE180:
 2226              		.section	.text.ADC_Calibration_Auto_Load_Disable,"ax",%progbits
 2227              		.align	1
 2228              		.global	ADC_Calibration_Auto_Load_Disable
 2229              		.syntax unified
 2230              		.thumb
 2231              		.thumb_func
 2233              	ADC_Calibration_Auto_Load_Disable:
 2234              	.LFB181:
1192:../firmware/n32g430_std_periph_driver/src/n32g430_adc.c **** 
1193:../firmware/n32g430_std_periph_driver/src/n32g430_adc.c **** /**
1194:../firmware/n32g430_std_periph_driver/src/n32g430_adc.c **** *\*\name    ADC_Calibration_Auto_Load_Disable.
1195:../firmware/n32g430_std_periph_driver/src/n32g430_adc.c **** *\*\fun     Disable ADC Calibration Auto Load mode.
1196:../firmware/n32g430_std_periph_driver/src/n32g430_adc.c **** *\*\return  none
1197:../firmware/n32g430_std_periph_driver/src/n32g430_adc.c **** **/
1198:../firmware/n32g430_std_periph_driver/src/n32g430_adc.c **** void ADC_Calibration_Auto_Load_Disable(void)
1199:../firmware/n32g430_std_periph_driver/src/n32g430_adc.c **** {   
 2235              		.loc 1 1199 1 is_stmt 1 view -0
 2236              		.cfi_startproc
 2237              		@ args = 0, pretend = 0, frame = 0
 2238              		@ frame_needed = 0, uses_anonymous_args = 0
 2239              		@ link register save eliminated.
1200:../firmware/n32g430_std_periph_driver/src/n32g430_adc.c ****     /* Clear the ADC_CTRL3 CALALD bit */
1201:../firmware/n32g430_std_periph_driver/src/n32g430_adc.c ****     ADC->CTRL3 &= ADC_CALALD_DISABLE;
 2240              		.loc 1 1201 5 view .LVU507
 2241              		.loc 1 1201 8 is_stmt 0 view .LVU508
 2242 0000 024A     		ldr	r2, .L190
 2243 0002 936D     		ldr	r3, [r2, #88]
 2244              		.loc 1 1201 16 view .LVU509
 2245 0004 23F00803 		bic	r3, r3, #8
 2246 0008 9365     		str	r3, [r2, #88]
1202:../firmware/n32g430_std_periph_driver/src/n32g430_adc.c **** }
 2247              		.loc 1 1202 1 view .LVU510
 2248 000a 7047     		bx	lr
 2249              	.L191:
 2250              		.align	2
ARM GAS  C:\Users\Dawn\AppData\Local\Temp\ccAGizNf.s 			page 62


 2251              	.L190:
 2252 000c 00080240 		.word	1073874944
 2253              		.cfi_endproc
 2254              	.LFE181:
 2256              		.section	.text.ADC_Differential_Mode_Enable,"ax",%progbits
 2257              		.align	1
 2258              		.global	ADC_Differential_Mode_Enable
 2259              		.syntax unified
 2260              		.thumb
 2261              		.thumb_func
 2263              	ADC_Differential_Mode_Enable:
 2264              	.LFB182:
1203:../firmware/n32g430_std_periph_driver/src/n32g430_adc.c **** 
1204:../firmware/n32g430_std_periph_driver/src/n32g430_adc.c **** /**
1205:../firmware/n32g430_std_periph_driver/src/n32g430_adc.c **** *\*\name    ADC_Differential_Mode_Enable.
1206:../firmware/n32g430_std_periph_driver/src/n32g430_adc.c **** *\*\fun     Enable ADC Calibration Auto Load mode.
1207:../firmware/n32g430_std_periph_driver/src/n32g430_adc.c **** *\*\return  none
1208:../firmware/n32g430_std_periph_driver/src/n32g430_adc.c **** **/
1209:../firmware/n32g430_std_periph_driver/src/n32g430_adc.c **** void ADC_Differential_Mode_Enable(void)
1210:../firmware/n32g430_std_periph_driver/src/n32g430_adc.c **** {   
 2265              		.loc 1 1210 1 is_stmt 1 view -0
 2266              		.cfi_startproc
 2267              		@ args = 0, pretend = 0, frame = 0
 2268              		@ frame_needed = 0, uses_anonymous_args = 0
 2269              		@ link register save eliminated.
1211:../firmware/n32g430_std_periph_driver/src/n32g430_adc.c ****     /* Set the ADC_CTRL3 CALDIF bit */
1212:../firmware/n32g430_std_periph_driver/src/n32g430_adc.c ****     ADC->CTRL3 |= ADC_CALDIF_ENABLE;
 2270              		.loc 1 1212 5 view .LVU512
 2271              		.loc 1 1212 8 is_stmt 0 view .LVU513
 2272 0000 024A     		ldr	r2, .L193
 2273 0002 936D     		ldr	r3, [r2, #88]
 2274              		.loc 1 1212 16 view .LVU514
 2275 0004 43F00403 		orr	r3, r3, #4
 2276 0008 9365     		str	r3, [r2, #88]
1213:../firmware/n32g430_std_periph_driver/src/n32g430_adc.c **** }
 2277              		.loc 1 1213 1 view .LVU515
 2278 000a 7047     		bx	lr
 2279              	.L194:
 2280              		.align	2
 2281              	.L193:
 2282 000c 00080240 		.word	1073874944
 2283              		.cfi_endproc
 2284              	.LFE182:
 2286              		.section	.text.ADC_Differential_Mode_Disable,"ax",%progbits
 2287              		.align	1
 2288              		.global	ADC_Differential_Mode_Disable
 2289              		.syntax unified
 2290              		.thumb
 2291              		.thumb_func
 2293              	ADC_Differential_Mode_Disable:
 2294              	.LFB183:
1214:../firmware/n32g430_std_periph_driver/src/n32g430_adc.c **** 
1215:../firmware/n32g430_std_periph_driver/src/n32g430_adc.c **** /**
1216:../firmware/n32g430_std_periph_driver/src/n32g430_adc.c **** *\*\name    ADC_Differential_Mode_Disable.
1217:../firmware/n32g430_std_periph_driver/src/n32g430_adc.c **** *\*\fun     Disable ADC Calibration Auto Load mode.
1218:../firmware/n32g430_std_periph_driver/src/n32g430_adc.c **** *\*\return  none
1219:../firmware/n32g430_std_periph_driver/src/n32g430_adc.c **** **/
ARM GAS  C:\Users\Dawn\AppData\Local\Temp\ccAGizNf.s 			page 63


1220:../firmware/n32g430_std_periph_driver/src/n32g430_adc.c **** void ADC_Differential_Mode_Disable(void)
1221:../firmware/n32g430_std_periph_driver/src/n32g430_adc.c **** {   
 2295              		.loc 1 1221 1 is_stmt 1 view -0
 2296              		.cfi_startproc
 2297              		@ args = 0, pretend = 0, frame = 0
 2298              		@ frame_needed = 0, uses_anonymous_args = 0
 2299              		@ link register save eliminated.
1222:../firmware/n32g430_std_periph_driver/src/n32g430_adc.c ****     /* Clear the ADC_CTRL3 CALDIF bit */
1223:../firmware/n32g430_std_periph_driver/src/n32g430_adc.c ****     ADC->CTRL3 &= ADC_CALDIF_DISABLE;
 2300              		.loc 1 1223 5 view .LVU517
 2301              		.loc 1 1223 8 is_stmt 0 view .LVU518
 2302 0000 024A     		ldr	r2, .L196
 2303 0002 936D     		ldr	r3, [r2, #88]
 2304              		.loc 1 1223 16 view .LVU519
 2305 0004 23F00403 		bic	r3, r3, #4
 2306 0008 9365     		str	r3, [r2, #88]
1224:../firmware/n32g430_std_periph_driver/src/n32g430_adc.c **** }
 2307              		.loc 1 1224 1 view .LVU520
 2308 000a 7047     		bx	lr
 2309              	.L197:
 2310              		.align	2
 2311              	.L196:
 2312 000c 00080240 		.word	1073874944
 2313              		.cfi_endproc
 2314              	.LFE183:
 2316              		.section	.text.ADC_Data_Resolution_Config,"ax",%progbits
 2317              		.align	1
 2318              		.global	ADC_Data_Resolution_Config
 2319              		.syntax unified
 2320              		.thumb
 2321              		.thumb_func
 2323              	ADC_Data_Resolution_Config:
 2324              	.LVL79:
 2325              	.LFB184:
1225:../firmware/n32g430_std_periph_driver/src/n32g430_adc.c **** 
1226:../firmware/n32g430_std_periph_driver/src/n32g430_adc.c **** /**
1227:../firmware/n32g430_std_periph_driver/src/n32g430_adc.c **** *\*\name    ADC_Data_Resolution_Config
1228:../firmware/n32g430_std_periph_driver/src/n32g430_adc.c **** *\*\fun     Configures ADC data resolution conversion.
1229:../firmware/n32g430_std_periph_driver/src/n32g430_adc.c **** *\*\param   resbit :
1230:../firmware/n32g430_std_periph_driver/src/n32g430_adc.c **** *\*\          - ADC_RST_BIT_12  
1231:../firmware/n32g430_std_periph_driver/src/n32g430_adc.c **** *\*\          - ADC_RST_BIT_10  
1232:../firmware/n32g430_std_periph_driver/src/n32g430_adc.c **** *\*\          - ADC_RST_BIT_8    
1233:../firmware/n32g430_std_periph_driver/src/n32g430_adc.c **** *\*\          - ADC_RST_BIT_6    
1234:../firmware/n32g430_std_periph_driver/src/n32g430_adc.c **** *\*\return  none
1235:../firmware/n32g430_std_periph_driver/src/n32g430_adc.c **** **/
1236:../firmware/n32g430_std_periph_driver/src/n32g430_adc.c **** void ADC_Data_Resolution_Config(uint32_t resbit)
1237:../firmware/n32g430_std_periph_driver/src/n32g430_adc.c **** {   
 2326              		.loc 1 1237 1 is_stmt 1 view -0
 2327              		.cfi_startproc
 2328              		@ args = 0, pretend = 0, frame = 0
 2329              		@ frame_needed = 0, uses_anonymous_args = 0
 2330              		@ link register save eliminated.
1238:../firmware/n32g430_std_periph_driver/src/n32g430_adc.c ****     /* Clear the ADC_CTRL3 RES[1:0] bit */
1239:../firmware/n32g430_std_periph_driver/src/n32g430_adc.c ****     ADC->CTRL3 &= ADC_RES_MSK;
 2331              		.loc 1 1239 5 view .LVU522
 2332              		.loc 1 1239 8 is_stmt 0 view .LVU523
 2333 0000 044B     		ldr	r3, .L199
ARM GAS  C:\Users\Dawn\AppData\Local\Temp\ccAGizNf.s 			page 64


 2334 0002 9A6D     		ldr	r2, [r3, #88]
 2335              		.loc 1 1239 16 view .LVU524
 2336 0004 22F00302 		bic	r2, r2, #3
 2337 0008 9A65     		str	r2, [r3, #88]
1240:../firmware/n32g430_std_periph_driver/src/n32g430_adc.c ****     /* Set the ADC_CTRL3 RES[1:0] bit to select data resolution*/
1241:../firmware/n32g430_std_periph_driver/src/n32g430_adc.c ****     ADC->CTRL3 |= resbit;
 2338              		.loc 1 1241 5 is_stmt 1 view .LVU525
 2339              		.loc 1 1241 8 is_stmt 0 view .LVU526
 2340 000a 9A6D     		ldr	r2, [r3, #88]
 2341              		.loc 1 1241 16 view .LVU527
 2342 000c 0243     		orrs	r2, r2, r0
 2343 000e 9A65     		str	r2, [r3, #88]
1242:../firmware/n32g430_std_periph_driver/src/n32g430_adc.c **** }
 2344              		.loc 1 1242 1 view .LVU528
 2345 0010 7047     		bx	lr
 2346              	.L200:
 2347 0012 00BF     		.align	2
 2348              	.L199:
 2349 0014 00080240 		.word	1073874944
 2350              		.cfi_endproc
 2351              	.LFE184:
 2353              		.section	.text.ADC_Sample_Time_Level_Config,"ax",%progbits
 2354              		.align	1
 2355              		.global	ADC_Sample_Time_Level_Config
 2356              		.syntax unified
 2357              		.thumb
 2358              		.thumb_func
 2360              	ADC_Sample_Time_Level_Config:
 2361              	.LVL80:
 2362              	.LFB185:
1243:../firmware/n32g430_std_periph_driver/src/n32g430_adc.c **** 
1244:../firmware/n32g430_std_periph_driver/src/n32g430_adc.c **** /**
1245:../firmware/n32g430_std_periph_driver/src/n32g430_adc.c **** *\*\name    ADC_Sample_Time_Level_Config.
1246:../firmware/n32g430_std_periph_driver/src/n32g430_adc.c **** *\*\fun     Configures the level of sample time.
1247:../firmware/n32g430_std_periph_driver/src/n32g430_adc.c **** *\*\param   sample_time_level :
1248:../firmware/n32g430_std_periph_driver/src/n32g430_adc.c **** *\*\          - ADC_SAMPLE_LEVEL_0
1249:../firmware/n32g430_std_periph_driver/src/n32g430_adc.c **** *\*\          - ADC_SAMPLE_LEVEL_1
1250:../firmware/n32g430_std_periph_driver/src/n32g430_adc.c **** *\*\return  none
1251:../firmware/n32g430_std_periph_driver/src/n32g430_adc.c **** **/
1252:../firmware/n32g430_std_periph_driver/src/n32g430_adc.c **** void ADC_Sample_Time_Level_Config(uint32_t sample_time_level)
1253:../firmware/n32g430_std_periph_driver/src/n32g430_adc.c **** {   
 2363              		.loc 1 1253 1 is_stmt 1 view -0
 2364              		.cfi_startproc
 2365              		@ args = 0, pretend = 0, frame = 0
 2366              		@ frame_needed = 0, uses_anonymous_args = 0
 2367              		@ link register save eliminated.
1254:../firmware/n32g430_std_periph_driver/src/n32g430_adc.c ****     /* Clear the ADC_SAMPT3 SAMSEL bit */
1255:../firmware/n32g430_std_periph_driver/src/n32g430_adc.c ****     ADC->SAMPT3 &= ADC_SAMPLE_LEVEL_MASK;
 2368              		.loc 1 1255 5 view .LVU530
 2369              		.loc 1 1255 8 is_stmt 0 view .LVU531
 2370 0000 044B     		ldr	r3, .L202
 2371 0002 DA6D     		ldr	r2, [r3, #92]
 2372              		.loc 1 1255 17 view .LVU532
 2373 0004 22F00802 		bic	r2, r2, #8
 2374 0008 DA65     		str	r2, [r3, #92]
1256:../firmware/n32g430_std_periph_driver/src/n32g430_adc.c ****     /* Set the ADC_SAMPT3 SAMSEL bit to select sample time*/
1257:../firmware/n32g430_std_periph_driver/src/n32g430_adc.c ****     ADC->SAMPT3 |= sample_time_level;  
ARM GAS  C:\Users\Dawn\AppData\Local\Temp\ccAGizNf.s 			page 65


 2375              		.loc 1 1257 5 is_stmt 1 view .LVU533
 2376              		.loc 1 1257 8 is_stmt 0 view .LVU534
 2377 000a DA6D     		ldr	r2, [r3, #92]
 2378              		.loc 1 1257 17 view .LVU535
 2379 000c 0243     		orrs	r2, r2, r0
 2380 000e DA65     		str	r2, [r3, #92]
1258:../firmware/n32g430_std_periph_driver/src/n32g430_adc.c **** }
 2381              		.loc 1 1258 1 view .LVU536
 2382 0010 7047     		bx	lr
 2383              	.L203:
 2384 0012 00BF     		.align	2
 2385              	.L202:
 2386 0014 00080240 		.word	1073874944
 2387              		.cfi_endproc
 2388              	.LFE185:
 2390              		.section	.text.ADC_Initializes_Ex,"ax",%progbits
 2391              		.align	1
 2392              		.global	ADC_Initializes_Ex
 2393              		.syntax unified
 2394              		.thumb
 2395              		.thumb_func
 2397              	ADC_Initializes_Ex:
 2398              	.LVL81:
 2399              	.LFB186:
1259:../firmware/n32g430_std_periph_driver/src/n32g430_adc.c **** 
1260:../firmware/n32g430_std_periph_driver/src/n32g430_adc.c **** /**
1261:../firmware/n32g430_std_periph_driver/src/n32g430_adc.c **** *\*\name    ADC_Initializes_Ex.
1262:../firmware/n32g430_std_periph_driver/src/n32g430_adc.c **** *\*\fun     Initializes the ADC according to ADC_initstructEx.
1263:../firmware/n32g430_std_periph_driver/src/n32g430_adc.c **** *\*\param   ADC_initstructEx :
1264:../firmware/n32g430_std_periph_driver/src/n32g430_adc.c **** *\*\          - VbatMinitEn
1265:../firmware/n32g430_std_periph_driver/src/n32g430_adc.c **** *\*\          - DeepPowerModEn    
1266:../firmware/n32g430_std_periph_driver/src/n32g430_adc.c **** *\*\          - JendcIntEn
1267:../firmware/n32g430_std_periph_driver/src/n32g430_adc.c **** *\*\          - EndcIntEn    
1268:../firmware/n32g430_std_periph_driver/src/n32g430_adc.c **** *\*\          - ClkMode    
1269:../firmware/n32g430_std_periph_driver/src/n32g430_adc.c **** *\*\          - CalAtuoLoadEn
1270:../firmware/n32g430_std_periph_driver/src/n32g430_adc.c **** *\*\          - DifModCal
1271:../firmware/n32g430_std_periph_driver/src/n32g430_adc.c **** *\*\          - ResBit    
1272:../firmware/n32g430_std_periph_driver/src/n32g430_adc.c **** *\*\          - SampSecondStyle
1273:../firmware/n32g430_std_periph_driver/src/n32g430_adc.c **** *\*\return  none
1274:../firmware/n32g430_std_periph_driver/src/n32g430_adc.c **** **/
1275:../firmware/n32g430_std_periph_driver/src/n32g430_adc.c **** void ADC_Initializes_Ex(ADC_InitTypeEx* ADC_initstructEx)
1276:../firmware/n32g430_std_periph_driver/src/n32g430_adc.c **** {
 2400              		.loc 1 1276 1 is_stmt 1 view -0
 2401              		.cfi_startproc
 2402              		@ args = 0, pretend = 0, frame = 0
 2403              		@ frame_needed = 0, uses_anonymous_args = 0
1277:../firmware/n32g430_std_periph_driver/src/n32g430_adc.c ****     if (ADC_initstructEx->VbatMinitEn)
 2404              		.loc 1 1277 5 view .LVU538
1276:../firmware/n32g430_std_periph_driver/src/n32g430_adc.c ****     if (ADC_initstructEx->VbatMinitEn)
 2405              		.loc 1 1276 1 is_stmt 0 view .LVU539
 2406 0000 10B5     		push	{r4, lr}
 2407              	.LCFI11:
 2408              		.cfi_def_cfa_offset 8
 2409              		.cfi_offset 4, -8
 2410              		.cfi_offset 14, -4
 2411              		.loc 1 1277 8 view .LVU540
 2412 0002 0378     		ldrb	r3, [r0]	@ zero_extendqisi2
ARM GAS  C:\Users\Dawn\AppData\Local\Temp\ccAGizNf.s 			page 66


1276:../firmware/n32g430_std_periph_driver/src/n32g430_adc.c ****     if (ADC_initstructEx->VbatMinitEn)
 2413              		.loc 1 1276 1 view .LVU541
 2414 0004 0446     		mov	r4, r0
 2415              		.loc 1 1277 8 view .LVU542
 2416 0006 33B3     		cbz	r3, .L205
1278:../firmware/n32g430_std_periph_driver/src/n32g430_adc.c ****         ADC_Vbat_Monitor_Enable();
 2417              		.loc 1 1278 9 is_stmt 1 view .LVU543
 2418 0008 FFF7FEFF 		bl	ADC_Vbat_Monitor_Enable
 2419              	.LVL82:
 2420              	.L206:
1279:../firmware/n32g430_std_periph_driver/src/n32g430_adc.c ****     else
1280:../firmware/n32g430_std_periph_driver/src/n32g430_adc.c ****         ADC_Vbat_Monitor_Disable();
1281:../firmware/n32g430_std_periph_driver/src/n32g430_adc.c ****     
1282:../firmware/n32g430_std_periph_driver/src/n32g430_adc.c ****     if (ADC_initstructEx->DeepPowerModEn)
 2421              		.loc 1 1282 5 view .LVU544
 2422              		.loc 1 1282 8 is_stmt 0 view .LVU545
 2423 000c 6378     		ldrb	r3, [r4, #1]	@ zero_extendqisi2
 2424 000e 2BB3     		cbz	r3, .L207
1283:../firmware/n32g430_std_periph_driver/src/n32g430_adc.c ****         ADC_Deep_Power_Mode_Enable();
 2425              		.loc 1 1283 9 is_stmt 1 view .LVU546
 2426 0010 FFF7FEFF 		bl	ADC_Deep_Power_Mode_Enable
 2427              	.LVL83:
 2428              	.L208:
1284:../firmware/n32g430_std_periph_driver/src/n32g430_adc.c ****     else
1285:../firmware/n32g430_std_periph_driver/src/n32g430_adc.c ****         ADC_Deep_Power_Mode_Disable();
1286:../firmware/n32g430_std_periph_driver/src/n32g430_adc.c **** 
1287:../firmware/n32g430_std_periph_driver/src/n32g430_adc.c ****     if (ADC_initstructEx->JendcIntEn)
 2429              		.loc 1 1287 5 view .LVU547
 2430              		.loc 1 1287 8 is_stmt 0 view .LVU548
 2431 0014 A378     		ldrb	r3, [r4, #2]	@ zero_extendqisi2
1288:../firmware/n32g430_std_periph_driver/src/n32g430_adc.c ****         ADC_Interrupts_Enable(ADC_INT_JENDCA);
 2432              		.loc 1 1288 9 view .LVU549
 2433 0016 4FF40070 		mov	r0, #512
 2434              	.LVL84:
1287:../firmware/n32g430_std_periph_driver/src/n32g430_adc.c ****         ADC_Interrupts_Enable(ADC_INT_JENDCA);
 2435              		.loc 1 1287 8 view .LVU550
 2436 001a 13B3     		cbz	r3, .L209
 2437              		.loc 1 1288 9 is_stmt 1 view .LVU551
 2438 001c FFF7FEFF 		bl	ADC_Interrupts_Enable
 2439              	.LVL85:
 2440              	.L210:
1289:../firmware/n32g430_std_periph_driver/src/n32g430_adc.c ****     else
1290:../firmware/n32g430_std_periph_driver/src/n32g430_adc.c ****         ADC_Interrupts_Disable(ADC_INT_JENDCA);
1291:../firmware/n32g430_std_periph_driver/src/n32g430_adc.c **** 
1292:../firmware/n32g430_std_periph_driver/src/n32g430_adc.c ****     if (ADC_initstructEx->EndcIntEn)
 2441              		.loc 1 1292 5 view .LVU552
 2442              		.loc 1 1292 8 is_stmt 0 view .LVU553
 2443 0020 E378     		ldrb	r3, [r4, #3]	@ zero_extendqisi2
1293:../firmware/n32g430_std_periph_driver/src/n32g430_adc.c ****         ADC_Interrupts_Enable(ADC_INT_ENDCA);
 2444              		.loc 1 1293 9 view .LVU554
 2445 0022 4FF48070 		mov	r0, #256
1292:../firmware/n32g430_std_periph_driver/src/n32g430_adc.c ****         ADC_Interrupts_Enable(ADC_INT_ENDCA);
 2446              		.loc 1 1292 8 view .LVU555
 2447 0026 FBB1     		cbz	r3, .L211
 2448              		.loc 1 1293 9 is_stmt 1 view .LVU556
 2449 0028 FFF7FEFF 		bl	ADC_Interrupts_Enable
 2450              	.LVL86:
ARM GAS  C:\Users\Dawn\AppData\Local\Temp\ccAGizNf.s 			page 67


 2451              	.L212:
1294:../firmware/n32g430_std_periph_driver/src/n32g430_adc.c ****     else
1295:../firmware/n32g430_std_periph_driver/src/n32g430_adc.c ****         ADC_Interrupts_Disable(ADC_INT_ENDCA);
1296:../firmware/n32g430_std_periph_driver/src/n32g430_adc.c ****     
1297:../firmware/n32g430_std_periph_driver/src/n32g430_adc.c ****     if (ADC_initstructEx->ClkMode == ADC_CKMOD_PLL)
 2452              		.loc 1 1297 5 view .LVU557
 2453              		.loc 1 1297 8 is_stmt 0 view .LVU558
 2454 002c 2379     		ldrb	r3, [r4, #4]	@ zero_extendqisi2
 2455 002e 012B     		cmp	r3, #1
 2456 0030 1DD1     		bne	.L213
1298:../firmware/n32g430_std_periph_driver/src/n32g430_adc.c ****         ADC_PLL_Clock_Mode_Config();
 2457              		.loc 1 1298 9 is_stmt 1 view .LVU559
 2458 0032 FFF7FEFF 		bl	ADC_PLL_Clock_Mode_Config
 2459              	.LVL87:
 2460              	.L214:
1299:../firmware/n32g430_std_periph_driver/src/n32g430_adc.c ****     else
1300:../firmware/n32g430_std_periph_driver/src/n32g430_adc.c ****         ADC_AHB_Clock_Mode_Config();
1301:../firmware/n32g430_std_periph_driver/src/n32g430_adc.c **** 
1302:../firmware/n32g430_std_periph_driver/src/n32g430_adc.c ****     if (ADC_initstructEx->CalAtuoLoadEn)
 2461              		.loc 1 1302 5 view .LVU560
 2462              		.loc 1 1302 8 is_stmt 0 view .LVU561
 2463 0036 6379     		ldrb	r3, [r4, #5]	@ zero_extendqisi2
 2464 0038 E3B1     		cbz	r3, .L215
1303:../firmware/n32g430_std_periph_driver/src/n32g430_adc.c ****         ADC_Calibration_Auto_Load_Enable();
 2465              		.loc 1 1303 9 is_stmt 1 view .LVU562
 2466 003a FFF7FEFF 		bl	ADC_Calibration_Auto_Load_Enable
 2467              	.LVL88:
 2468              	.L216:
1304:../firmware/n32g430_std_periph_driver/src/n32g430_adc.c ****     else
1305:../firmware/n32g430_std_periph_driver/src/n32g430_adc.c ****         ADC_Calibration_Auto_Load_Disable();
1306:../firmware/n32g430_std_periph_driver/src/n32g430_adc.c **** 
1307:../firmware/n32g430_std_periph_driver/src/n32g430_adc.c ****     if (ADC_initstructEx->DifModCal)
 2469              		.loc 1 1307 5 view .LVU563
 2470              		.loc 1 1307 8 is_stmt 0 view .LVU564
 2471 003e A379     		ldrb	r3, [r4, #6]	@ zero_extendqisi2
 2472 0040 DBB1     		cbz	r3, .L217
1308:../firmware/n32g430_std_periph_driver/src/n32g430_adc.c ****         ADC_Differential_Mode_Enable();
 2473              		.loc 1 1308 9 is_stmt 1 view .LVU565
 2474 0042 FFF7FEFF 		bl	ADC_Differential_Mode_Enable
 2475              	.LVL89:
 2476              	.L218:
1309:../firmware/n32g430_std_periph_driver/src/n32g430_adc.c ****     else
1310:../firmware/n32g430_std_periph_driver/src/n32g430_adc.c ****         ADC_Differential_Mode_Disable();
1311:../firmware/n32g430_std_periph_driver/src/n32g430_adc.c **** 
1312:../firmware/n32g430_std_periph_driver/src/n32g430_adc.c ****     ADC_Data_Resolution_Config(ADC_initstructEx->ResBit);
 2477              		.loc 1 1312 5 view .LVU566
 2478 0046 A068     		ldr	r0, [r4, #8]
 2479 0048 FFF7FEFF 		bl	ADC_Data_Resolution_Config
 2480              	.LVL90:
1313:../firmware/n32g430_std_periph_driver/src/n32g430_adc.c ****     ADC_Sample_Time_Level_Config(ADC_initstructEx->SampSecondStyle);
 2481              		.loc 1 1313 5 view .LVU567
 2482 004c E068     		ldr	r0, [r4, #12]
1314:../firmware/n32g430_std_periph_driver/src/n32g430_adc.c **** 
1315:../firmware/n32g430_std_periph_driver/src/n32g430_adc.c **** }
 2483              		.loc 1 1315 1 is_stmt 0 view .LVU568
 2484 004e BDE81040 		pop	{r4, lr}
 2485              	.LCFI12:
ARM GAS  C:\Users\Dawn\AppData\Local\Temp\ccAGizNf.s 			page 68


 2486              		.cfi_remember_state
 2487              		.cfi_restore 14
 2488              		.cfi_restore 4
 2489              		.cfi_def_cfa_offset 0
 2490              	.LVL91:
1313:../firmware/n32g430_std_periph_driver/src/n32g430_adc.c ****     ADC_Sample_Time_Level_Config(ADC_initstructEx->SampSecondStyle);
 2491              		.loc 1 1313 5 view .LVU569
 2492 0052 FFF7FEBF 		b	ADC_Sample_Time_Level_Config
 2493              	.LVL92:
 2494              	.L205:
 2495              	.LCFI13:
 2496              		.cfi_restore_state
1280:../firmware/n32g430_std_periph_driver/src/n32g430_adc.c ****     
 2497              		.loc 1 1280 9 is_stmt 1 view .LVU570
 2498 0056 FFF7FEFF 		bl	ADC_Vbat_Monitor_Disable
 2499              	.LVL93:
 2500 005a D7E7     		b	.L206
 2501              	.L207:
1285:../firmware/n32g430_std_periph_driver/src/n32g430_adc.c **** 
 2502              		.loc 1 1285 9 view .LVU571
 2503 005c FFF7FEFF 		bl	ADC_Deep_Power_Mode_Disable
 2504              	.LVL94:
 2505 0060 D8E7     		b	.L208
 2506              	.LVL95:
 2507              	.L209:
1290:../firmware/n32g430_std_periph_driver/src/n32g430_adc.c **** 
 2508              		.loc 1 1290 9 view .LVU572
 2509 0062 FFF7FEFF 		bl	ADC_Interrupts_Disable
 2510              	.LVL96:
 2511 0066 DBE7     		b	.L210
 2512              	.L211:
1295:../firmware/n32g430_std_periph_driver/src/n32g430_adc.c ****     
 2513              		.loc 1 1295 9 view .LVU573
 2514 0068 FFF7FEFF 		bl	ADC_Interrupts_Disable
 2515              	.LVL97:
 2516 006c DEE7     		b	.L212
 2517              	.L213:
1300:../firmware/n32g430_std_periph_driver/src/n32g430_adc.c **** 
 2518              		.loc 1 1300 9 view .LVU574
 2519 006e FFF7FEFF 		bl	ADC_AHB_Clock_Mode_Config
 2520              	.LVL98:
 2521 0072 E0E7     		b	.L214
 2522              	.L215:
1305:../firmware/n32g430_std_periph_driver/src/n32g430_adc.c **** 
 2523              		.loc 1 1305 9 view .LVU575
 2524 0074 FFF7FEFF 		bl	ADC_Calibration_Auto_Load_Disable
 2525              	.LVL99:
 2526 0078 E1E7     		b	.L216
 2527              	.L217:
1310:../firmware/n32g430_std_periph_driver/src/n32g430_adc.c **** 
 2528              		.loc 1 1310 9 view .LVU576
 2529 007a FFF7FEFF 		bl	ADC_Differential_Mode_Disable
 2530              	.LVL100:
 2531 007e E2E7     		b	.L218
 2532              		.cfi_endproc
 2533              	.LFE186:
 2535              		.section	.text.ADC_Initializes_StructureEx,"ax",%progbits
ARM GAS  C:\Users\Dawn\AppData\Local\Temp\ccAGizNf.s 			page 69


 2536              		.align	1
 2537              		.global	ADC_Initializes_StructureEx
 2538              		.syntax unified
 2539              		.thumb
 2540              		.thumb_func
 2542              	ADC_Initializes_StructureEx:
 2543              	.LVL101:
 2544              	.LFB187:
1316:../firmware/n32g430_std_periph_driver/src/n32g430_adc.c **** 
1317:../firmware/n32g430_std_periph_driver/src/n32g430_adc.c **** /**
1318:../firmware/n32g430_std_periph_driver/src/n32g430_adc.c **** *\*\name    ADC_Initializes_StructureEx.
1319:../firmware/n32g430_std_periph_driver/src/n32g430_adc.c **** *\*\fun     Fills each ADC_initstructEx member with its default value.
1320:../firmware/n32g430_std_periph_driver/src/n32g430_adc.c **** *\*\param   ADC_initstructEx :
1321:../firmware/n32g430_std_periph_driver/src/n32g430_adc.c **** *\*\          - VbatMinitEn
1322:../firmware/n32g430_std_periph_driver/src/n32g430_adc.c **** *\*\          - DeepPowerModEn    
1323:../firmware/n32g430_std_periph_driver/src/n32g430_adc.c **** *\*\          - JendcIntEn
1324:../firmware/n32g430_std_periph_driver/src/n32g430_adc.c **** *\*\          - EndcIntEn    
1325:../firmware/n32g430_std_periph_driver/src/n32g430_adc.c **** *\*\          - ClkMode    
1326:../firmware/n32g430_std_periph_driver/src/n32g430_adc.c **** *\*\          - CalAtuoLoadEn
1327:../firmware/n32g430_std_periph_driver/src/n32g430_adc.c **** *\*\          - DifModCal
1328:../firmware/n32g430_std_periph_driver/src/n32g430_adc.c **** *\*\          - ResBit    
1329:../firmware/n32g430_std_periph_driver/src/n32g430_adc.c **** *\*\          - SampSecondStyle
1330:../firmware/n32g430_std_periph_driver/src/n32g430_adc.c **** *\*\return  none
1331:../firmware/n32g430_std_periph_driver/src/n32g430_adc.c **** **/
1332:../firmware/n32g430_std_periph_driver/src/n32g430_adc.c **** void ADC_Initializes_StructureEx(ADC_InitTypeEx* ADC_initstructEx)
1333:../firmware/n32g430_std_periph_driver/src/n32g430_adc.c **** {
 2545              		.loc 1 1333 1 view -0
 2546              		.cfi_startproc
 2547              		@ args = 0, pretend = 0, frame = 0
 2548              		@ frame_needed = 0, uses_anonymous_args = 0
 2549              		@ link register save eliminated.
1334:../firmware/n32g430_std_periph_driver/src/n32g430_adc.c ****     /* Reset ADC init structure_ex parameters values */
1335:../firmware/n32g430_std_periph_driver/src/n32g430_adc.c ****     /* Initialize the VbatMinitEn member */
1336:../firmware/n32g430_std_periph_driver/src/n32g430_adc.c ****     ADC_initstructEx->VbatMinitEn       = DISABLE;
 2550              		.loc 1 1336 5 view .LVU578
1337:../firmware/n32g430_std_periph_driver/src/n32g430_adc.c ****     /* initialize the DeepPowerModEn member */
1338:../firmware/n32g430_std_periph_driver/src/n32g430_adc.c ****     ADC_initstructEx->DeepPowerModEn    = DISABLE;
 2551              		.loc 1 1338 5 view .LVU579
1339:../firmware/n32g430_std_periph_driver/src/n32g430_adc.c ****     /* Initialize the JendcIntEn member */
1340:../firmware/n32g430_std_periph_driver/src/n32g430_adc.c ****     ADC_initstructEx->JendcIntEn        = DISABLE;
 2552              		.loc 1 1340 5 view .LVU580
1341:../firmware/n32g430_std_periph_driver/src/n32g430_adc.c ****     /* initialize the EndcIntEn member */
1342:../firmware/n32g430_std_periph_driver/src/n32g430_adc.c ****     ADC_initstructEx->EndcIntEn         = DISABLE;
 2553              		.loc 1 1342 5 view .LVU581
1343:../firmware/n32g430_std_periph_driver/src/n32g430_adc.c ****     /* Initialize the ClkMode member */
1344:../firmware/n32g430_std_periph_driver/src/n32g430_adc.c ****     ADC_initstructEx->ClkMode           = ADC_CKMOD_AHB;
 2554              		.loc 1 1344 5 view .LVU582
1345:../firmware/n32g430_std_periph_driver/src/n32g430_adc.c ****     /* initialize the CalAtuoLoadEn member */
1346:../firmware/n32g430_std_periph_driver/src/n32g430_adc.c ****     ADC_initstructEx->CalAtuoLoadEn     = DISABLE;
 2555              		.loc 1 1346 5 view .LVU583
1347:../firmware/n32g430_std_periph_driver/src/n32g430_adc.c ****     /* Initialize the DifModCal member */
1348:../firmware/n32g430_std_periph_driver/src/n32g430_adc.c ****     ADC_initstructEx->DifModCal         = DISABLE;
 2556              		.loc 1 1348 5 view .LVU584
1336:../firmware/n32g430_std_periph_driver/src/n32g430_adc.c ****     /* initialize the DeepPowerModEn member */
 2557              		.loc 1 1336 41 is_stmt 0 view .LVU585
 2558 0000 0023     		movs	r3, #0
1349:../firmware/n32g430_std_periph_driver/src/n32g430_adc.c ****     /* initialize the ResBit member */
ARM GAS  C:\Users\Dawn\AppData\Local\Temp\ccAGizNf.s 			page 70


1350:../firmware/n32g430_std_periph_driver/src/n32g430_adc.c ****     ADC_initstructEx->ResBit            = ADC_RST_BIT_12;
 2559              		.loc 1 1350 41 view .LVU586
 2560 0002 0322     		movs	r2, #3
1351:../firmware/n32g430_std_periph_driver/src/n32g430_adc.c ****     /* Initialize the SampSecondStyle member */
1352:../firmware/n32g430_std_periph_driver/src/n32g430_adc.c ****     ADC_initstructEx->SampSecondStyle   = ADC_SAMPLE_LEVEL_0;
 2561              		.loc 1 1352 41 view .LVU587
 2562 0004 C0E90223 		strd	r2, r3, [r0, #8]
1336:../firmware/n32g430_std_periph_driver/src/n32g430_adc.c ****     /* initialize the DeepPowerModEn member */
 2563              		.loc 1 1336 41 view .LVU588
 2564 0008 0360     		str	r3, [r0]
1344:../firmware/n32g430_std_periph_driver/src/n32g430_adc.c ****     /* initialize the CalAtuoLoadEn member */
 2565              		.loc 1 1344 41 view .LVU589
 2566 000a 8380     		strh	r3, [r0, #4]	@ movhi
1348:../firmware/n32g430_std_periph_driver/src/n32g430_adc.c ****     /* initialize the ResBit member */
 2567              		.loc 1 1348 41 view .LVU590
 2568 000c 8371     		strb	r3, [r0, #6]
1350:../firmware/n32g430_std_periph_driver/src/n32g430_adc.c ****     /* Initialize the SampSecondStyle member */
 2569              		.loc 1 1350 5 is_stmt 1 view .LVU591
1353:../firmware/n32g430_std_periph_driver/src/n32g430_adc.c **** }
 2570              		.loc 1 1353 1 is_stmt 0 view .LVU592
 2571 000e 7047     		bx	lr
 2572              		.cfi_endproc
 2573              	.LFE187:
 2575              		.section	.text.ADC_Bypass_Calibration_Enable,"ax",%progbits
 2576              		.align	1
 2577              		.global	ADC_Bypass_Calibration_Enable
 2578              		.syntax unified
 2579              		.thumb
 2580              		.thumb_func
 2582              	ADC_Bypass_Calibration_Enable:
 2583              	.LFB188:
1354:../firmware/n32g430_std_periph_driver/src/n32g430_adc.c **** 
1355:../firmware/n32g430_std_periph_driver/src/n32g430_adc.c **** /**
1356:../firmware/n32g430_std_periph_driver/src/n32g430_adc.c **** *\*\name    ADC_Bypass_Calibration_Enable
1357:../firmware/n32g430_std_periph_driver/src/n32g430_adc.c **** *\*\fun     Enable ADC Calibration Bypass Load .
1358:../firmware/n32g430_std_periph_driver/src/n32g430_adc.c **** *\*\return  none
1359:../firmware/n32g430_std_periph_driver/src/n32g430_adc.c **** **/
1360:../firmware/n32g430_std_periph_driver/src/n32g430_adc.c **** void ADC_Bypass_Calibration_Enable(void)
1361:../firmware/n32g430_std_periph_driver/src/n32g430_adc.c **** {
