ARM GAS  C:\Users\Dawn\AppData\Local\Temp\cc7OP3iA.s 			page 1


   1              		.cpu cortex-m4
   2              		.arch armv7e-m
   3              		.fpu fpv4-sp-d16
   4              		.eabi_attribute 27, 1
   5              		.eabi_attribute 28, 1
   6              		.eabi_attribute 20, 1
   7              		.eabi_attribute 21, 1
   8              		.eabi_attribute 23, 3
   9              		.eabi_attribute 24, 1
  10              		.eabi_attribute 25, 1
  11              		.eabi_attribute 26, 1
  12              		.eabi_attribute 30, 4
  13              		.eabi_attribute 34, 1
  14              		.eabi_attribute 18, 4
  15              		.file	"n32g430_it.c"
  16              		.text
  17              	.Ltext0:
  18              		.cfi_sections	.debug_frame
  19              		.file 1 "../core/src/n32g430_it.c"
  20              		.section	.text.NMI_Handler,"ax",%progbits
  21              		.align	1
  22              		.global	NMI_Handler
  23              		.syntax unified
  24              		.thumb
  25              		.thumb_func
  27              	NMI_Handler:
  28              	.LFB130:
   1:../core/src/n32g430_it.c **** /*****************************************************************************
   2:../core/src/n32g430_it.c ****  * Copyright (c) 2019, Nations Technologies Inc.
   3:../core/src/n32g430_it.c ****  *
   4:../core/src/n32g430_it.c ****  * All rights reserved.
   5:../core/src/n32g430_it.c ****  * ****************************************************************************
   6:../core/src/n32g430_it.c ****  *
   7:../core/src/n32g430_it.c ****  * Redistribution and use in source and binary forms, with or without
   8:../core/src/n32g430_it.c ****  * modification, are permitted provided that the following conditions are met:
   9:../core/src/n32g430_it.c ****  *
  10:../core/src/n32g430_it.c ****  * - Redistributions of source code must retain the above copyright notice,
  11:../core/src/n32g430_it.c ****  * this list of conditions and the disclaimer below.
  12:../core/src/n32g430_it.c ****  *
  13:../core/src/n32g430_it.c ****  * Nations' name may not be used to endorse or promote products derived from
  14:../core/src/n32g430_it.c ****  * this software without specific prior written permission.
  15:../core/src/n32g430_it.c ****  *
  16:../core/src/n32g430_it.c ****  * DISCLAIMER: THIS SOFTWARE IS PROVIDED BY NATIONS "AS IS" AND ANY EXPRESS OR
  17:../core/src/n32g430_it.c ****  * IMPLIED WARRANTIES, INCLUDING, BUT NOT LIMITED TO, THE IMPLIED WARRANTIES OF
  18:../core/src/n32g430_it.c ****  * MERCHANTABILITY, FITNESS FOR A PARTICULAR PURPOSE AND NON-INFRINGEMENT ARE
  19:../core/src/n32g430_it.c ****  * DISCLAIMED. IN NO EVENT SHALL NATIONS BE LIABLE FOR ANY DIRECT, INDIRECT,
  20:../core/src/n32g430_it.c ****  * INCIDENTAL, SPECIAL, EXEMPLARY, OR CONSEQUENTIAL DAMAGES (INCLUDING, BUT NOT
  21:../core/src/n32g430_it.c ****  * LIMITED TO, PROCUREMENT OF SUBSTITUTE GOODS OR SERVICES; LOSS OF USE, DATA,
  22:../core/src/n32g430_it.c ****  * OR PROFITS; OR BUSINESS INTERRUPTION) HOWEVER CAUSED AND ON ANY THEORY OF
  23:../core/src/n32g430_it.c ****  * LIABILITY, WHETHER IN CONTRACT, STRICT LIABILITY, OR TORT (INCLUDING
  24:../core/src/n32g430_it.c ****  * NEGLIGENCE OR OTHERWISE) ARISING IN ANY WAY OUT OF THE USE OF THIS SOFTWARE,
  25:../core/src/n32g430_it.c ****  * EVEN IF ADVISED OF THE POSSIBILITY OF SUCH DAMAGE.
  26:../core/src/n32g430_it.c ****  * ****************************************************************************/
  27:../core/src/n32g430_it.c **** 
  28:../core/src/n32g430_it.c **** /**
  29:../core/src/n32g430_it.c **** *\*\file n32g430_it.c
  30:../core/src/n32g430_it.c **** *\*\author Nations
ARM GAS  C:\Users\Dawn\AppData\Local\Temp\cc7OP3iA.s 			page 2


  31:../core/src/n32g430_it.c **** *\*\version v1.0.0
  32:../core/src/n32g430_it.c **** *\*\copyright Copyright (c) 2019, Nations Technologies Inc. All rights reserved.
  33:../core/src/n32g430_it.c **** **/
  34:../core/src/n32g430_it.c **** 
  35:../core/src/n32g430_it.c **** #include "n32g430_it.h"
  36:../core/src/n32g430_it.c **** #include "n32g430.h"
  37:../core/src/n32g430_it.c **** #include "main.h"
  38:../core/src/n32g430_it.c **** #include "hal_compat.h"
  39:../core/src/n32g430_it.c **** #include "dma.h"
  40:../core/src/n32g430_it.c **** #include "tim.h"
  41:../core/src/n32g430_it.c **** #include "spi.h"
  42:../core/src/n32g430_it.c **** 
  43:../core/src/n32g430_it.c **** 
  44:../core/src/n32g430_it.c **** /******************************************************************************/
  45:../core/src/n32g430_it.c **** /*            Cortex-M4 Processor Exceptions Handlers                         */
  46:../core/src/n32g430_it.c **** /******************************************************************************/
  47:../core/src/n32g430_it.c **** 
  48:../core/src/n32g430_it.c **** 
  49:../core/src/n32g430_it.c **** /**
  50:../core/src/n32g430_it.c ****  *\*\name   NMI_Handler.
  51:../core/src/n32g430_it.c ****  *\*\fun    This function handles NMI exception.
  52:../core/src/n32g430_it.c ****  *\*\param  none.
  53:../core/src/n32g430_it.c ****  *\*\return none.
  54:../core/src/n32g430_it.c ****  */
  55:../core/src/n32g430_it.c **** void NMI_Handler(void)
  56:../core/src/n32g430_it.c **** {
  29              		.loc 1 56 1 view -0
  30              		.cfi_startproc
  31              		@ args = 0, pretend = 0, frame = 0
  32              		@ frame_needed = 0, uses_anonymous_args = 0
  33              		@ link register save eliminated.
  57:../core/src/n32g430_it.c **** }
  34              		.loc 1 57 1 view .LVU1
  35 0000 7047     		bx	lr
  36              		.cfi_endproc
  37              	.LFE130:
  39              		.section	.text.HardFault_Handler,"ax",%progbits
  40              		.align	1
  41              		.global	HardFault_Handler
  42              		.syntax unified
  43              		.thumb
  44              		.thumb_func
  46              	HardFault_Handler:
  47              	.LFB131:
  58:../core/src/n32g430_it.c **** 
  59:../core/src/n32g430_it.c **** 
  60:../core/src/n32g430_it.c **** /**
  61:../core/src/n32g430_it.c ****  *\*\name   HardFault_Handler.
  62:../core/src/n32g430_it.c ****  *\*\fun    This function handles Hard Fault exception.
  63:../core/src/n32g430_it.c ****  *\*\param  none.
  64:../core/src/n32g430_it.c ****  *\*\return none.
  65:../core/src/n32g430_it.c ****  */
  66:../core/src/n32g430_it.c **** void HardFault_Handler(void)
  67:../core/src/n32g430_it.c **** {
  48              		.loc 1 67 1 view -0
  49              		.cfi_startproc
  50              		@ Volatile: function does not return.
ARM GAS  C:\Users\Dawn\AppData\Local\Temp\cc7OP3iA.s 			page 3


  51              		@ args = 0, pretend = 0, frame = 0
  52              		@ frame_needed = 0, uses_anonymous_args = 0
  53              		@ link register save eliminated.
  54              	.L3:
  68:../core/src/n32g430_it.c ****     /* Go to infinite loop when Hard Fault exception occurs */
  69:../core/src/n32g430_it.c ****     while (1)
  55              		.loc 1 69 5 view .LVU3
  70:../core/src/n32g430_it.c ****     {
  71:../core/src/n32g430_it.c ****     }
  56              		.loc 1 71 5 view .LVU4
  69:../core/src/n32g430_it.c ****     {
  57              		.loc 1 69 11 view .LVU5
  58 0000 FEE7     		b	.L3
  59              		.cfi_endproc
  60              	.LFE131:
  62              		.section	.text.MemManage_Handler,"ax",%progbits
  63              		.align	1
  64              		.global	MemManage_Handler
  65              		.syntax unified
  66              		.thumb
  67              		.thumb_func
  69              	MemManage_Handler:
  70              	.LFB132:
  72:../core/src/n32g430_it.c **** }
  73:../core/src/n32g430_it.c **** 
  74:../core/src/n32g430_it.c **** 
  75:../core/src/n32g430_it.c **** /**
  76:../core/src/n32g430_it.c ****  *\*\name   MemManage_Handler.
  77:../core/src/n32g430_it.c ****  *\*\fun    This function handles Memory Manage exception.
  78:../core/src/n32g430_it.c ****  *\*\param  none.
  79:../core/src/n32g430_it.c ****  *\*\return none.
  80:../core/src/n32g430_it.c ****  */
  81:../core/src/n32g430_it.c **** void MemManage_Handler(void)
  82:../core/src/n32g430_it.c **** {
  71              		.loc 1 82 1 view -0
  72              		.cfi_startproc
  73              		@ Volatile: function does not return.
  74              		@ args = 0, pretend = 0, frame = 0
  75              		@ frame_needed = 0, uses_anonymous_args = 0
  76              		@ link register save eliminated.
  77              	.L5:
  83:../core/src/n32g430_it.c ****     /* Go to infinite loop when Memory Manage exception occurs */
  84:../core/src/n32g430_it.c ****     while (1)
  78              		.loc 1 84 5 view .LVU7
  85:../core/src/n32g430_it.c ****     {
  86:../core/src/n32g430_it.c ****     }
  79              		.loc 1 86 5 view .LVU8
  84:../core/src/n32g430_it.c ****     {
  80              		.loc 1 84 11 view .LVU9
  81 0000 FEE7     		b	.L5
  82              		.cfi_endproc
  83              	.LFE132:
  85              		.section	.text.BusFault_Handler,"ax",%progbits
  86              		.align	1
  87              		.global	BusFault_Handler
  88              		.syntax unified
  89              		.thumb
ARM GAS  C:\Users\Dawn\AppData\Local\Temp\cc7OP3iA.s 			page 4


  90              		.thumb_func
  92              	BusFault_Handler:
  93              	.LFB133:
  87:../core/src/n32g430_it.c **** }
  88:../core/src/n32g430_it.c **** 
  89:../core/src/n32g430_it.c **** 
  90:../core/src/n32g430_it.c **** /**
  91:../core/src/n32g430_it.c ****  *\*\name   BusFault_Handler.
  92:../core/src/n32g430_it.c ****  *\*\fun    This function handles Bus Fault exception.
  93:../core/src/n32g430_it.c ****  *\*\param  none.
  94:../core/src/n32g430_it.c ****  *\*\return none.
  95:../core/src/n32g430_it.c ****  */
  96:../core/src/n32g430_it.c **** void BusFault_Handler(void)
  97:../core/src/n32g430_it.c **** {
  94              		.loc 1 97 1 view -0
  95              		.cfi_startproc
  96              		@ Volatile: function does not return.
  97              		@ args = 0, pretend = 0, frame = 0
  98              		@ frame_needed = 0, uses_anonymous_args = 0
  99              		@ link register save eliminated.
 100              	.L7:
  98:../core/src/n32g430_it.c ****     /* Go to infinite loop when Bus Fault exception occurs */
  99:../core/src/n32g430_it.c ****     while (1)
 101              		.loc 1 99 5 view .LVU11
 100:../core/src/n32g430_it.c ****     {
 101:../core/src/n32g430_it.c ****     }
 102              		.loc 1 101 5 view .LVU12
  99:../core/src/n32g430_it.c ****     {
 103              		.loc 1 99 11 view .LVU13
 104 0000 FEE7     		b	.L7
 105              		.cfi_endproc
 106              	.LFE133:
 108              		.section	.text.UsageFault_Handler,"ax",%progbits
 109              		.align	1
 110              		.global	UsageFault_Handler
 111              		.syntax unified
 112              		.thumb
 113              		.thumb_func
 115              	UsageFault_Handler:
 116              	.LFB134:
 102:../core/src/n32g430_it.c **** }
 103:../core/src/n32g430_it.c **** 
 104:../core/src/n32g430_it.c **** 
 105:../core/src/n32g430_it.c **** /**
 106:../core/src/n32g430_it.c ****  *\*\name   UsageFault_Handler.
 107:../core/src/n32g430_it.c ****  *\*\fun    This function handles Usage Fault exception.
 108:../core/src/n32g430_it.c ****  *\*\param  none.
 109:../core/src/n32g430_it.c ****  *\*\return none.
 110:../core/src/n32g430_it.c ****  */
 111:../core/src/n32g430_it.c **** void UsageFault_Handler(void)
 112:../core/src/n32g430_it.c **** {
 117              		.loc 1 112 1 view -0
 118              		.cfi_startproc
 119              		@ Volatile: function does not return.
 120              		@ args = 0, pretend = 0, frame = 0
 121              		@ frame_needed = 0, uses_anonymous_args = 0
 122              		@ link register save eliminated.
ARM GAS  C:\Users\Dawn\AppData\Local\Temp\cc7OP3iA.s 			page 5


 123              	.L9:
 113:../core/src/n32g430_it.c ****     /* Go to infinite loop when Usage Fault exception occurs */
 114:../core/src/n32g430_it.c ****     while (1)
 124              		.loc 1 114 5 view .LVU15
 115:../core/src/n32g430_it.c ****     {
 116:../core/src/n32g430_it.c ****     }
 125              		.loc 1 116 5 view .LVU16
 114:../core/src/n32g430_it.c ****     {
 126              		.loc 1 114 11 view .LVU17
 127 0000 FEE7     		b	.L9
 128              		.cfi_endproc
 129              	.LFE134:
 131              		.section	.text.SVC_Handler,"ax",%progbits
 132              		.align	1
 133              		.global	SVC_Handler
 134              		.syntax unified
 135              		.thumb
 136              		.thumb_func
 138              	SVC_Handler:
 139              	.LFB142:
 140              		.cfi_startproc
 117:../core/src/n32g430_it.c **** }
 118:../core/src/n32g430_it.c **** 
 119:../core/src/n32g430_it.c **** 
 120:../core/src/n32g430_it.c **** /**
 121:../core/src/n32g430_it.c ****  *\*\name   SVC_Handler.
 122:../core/src/n32g430_it.c ****  *\*\fun    This function handles SVCall exception.
 123:../core/src/n32g430_it.c ****  *\*\param  none.
 124:../core/src/n32g430_it.c ****  *\*\return none.
 125:../core/src/n32g430_it.c ****  */
 126:../core/src/n32g430_it.c **** void SVC_Handler(void)
 141              		.loc 1 126 6 view -0
 142              		@ args = 0, pretend = 0, frame = 0
 143              		@ frame_needed = 0, uses_anonymous_args = 0
 144              		@ link register save eliminated.
 145 0000 7047     		bx	lr
 146              		.cfi_endproc
 147              	.LFE142:
 149              		.section	.text.DebugMon_Handler,"ax",%progbits
 150              		.align	1
 151              		.global	DebugMon_Handler
 152              		.syntax unified
 153              		.thumb
 154              		.thumb_func
 156              	DebugMon_Handler:
 157              	.LFB144:
 158              		.cfi_startproc
 127:../core/src/n32g430_it.c **** {
 128:../core/src/n32g430_it.c **** }
 129:../core/src/n32g430_it.c **** 
 130:../core/src/n32g430_it.c **** 
 131:../core/src/n32g430_it.c **** /**
 132:../core/src/n32g430_it.c ****  *\*\name   DebugMon_Handler.
 133:../core/src/n32g430_it.c ****  *\*\fun    This function handles Debug Monitor exception.
 134:../core/src/n32g430_it.c ****  *\*\param  none.
 135:../core/src/n32g430_it.c ****  *\*\return none.
 136:../core/src/n32g430_it.c ****  */
ARM GAS  C:\Users\Dawn\AppData\Local\Temp\cc7OP3iA.s 			page 6


 137:../core/src/n32g430_it.c **** void DebugMon_Handler(void)
 159              		.loc 1 137 6 view -0
 160              		@ args = 0, pretend = 0, frame = 0
 161              		@ frame_needed = 0, uses_anonymous_args = 0
 162              		@ link register save eliminated.
 163 0000 7047     		bx	lr
 164              		.cfi_endproc
 165              	.LFE144:
 167              		.section	.text.SysTick_Handler,"ax",%progbits
 168              		.align	1
 169              		.global	SysTick_Handler
 170              		.syntax unified
 171              		.thumb
 172              		.thumb_func
 174              	SysTick_Handler:
 175              	.LFB137:
 138:../core/src/n32g430_it.c **** {
 139:../core/src/n32g430_it.c **** }
 140:../core/src/n32g430_it.c **** 
 141:../core/src/n32g430_it.c **** 
 142:../core/src/n32g430_it.c **** /**
 143:../core/src/n32g430_it.c ****  *\*\name   SysTick_Handler.
 144:../core/src/n32g430_it.c ****  *\*\fun    This function handles SysTick Handler.
 145:../core/src/n32g430_it.c ****  *\*\param  none.
 146:../core/src/n32g430_it.c ****  *\*\return none.
 147:../core/src/n32g430_it.c ****  */
 148:../core/src/n32g430_it.c **** void SysTick_Handler(void)
 149:../core/src/n32g430_it.c **** {
 176              		.loc 1 149 1 view -0
 177              		.cfi_startproc
 178              		@ args = 0, pretend = 0, frame = 0
 179              		@ frame_needed = 0, uses_anonymous_args = 0
 180              		@ link register save eliminated.
 150:../core/src/n32g430_it.c ****     HAL_IncTick();
 181              		.loc 1 150 5 view .LVU21
 182 0000 FFF7FEBF 		b	HAL_IncTick
 183              	.LVL0:
 184              		.cfi_endproc
 185              	.LFE137:
 187              		.section	.text.DMA_Channel1_IRQHandler,"ax",%progbits
 188              		.align	1
 189              		.global	DMA_Channel1_IRQHandler
 190              		.syntax unified
 191              		.thumb
 192              		.thumb_func
 194              	DMA_Channel1_IRQHandler:
 195              	.LFB138:
 151:../core/src/n32g430_it.c **** }
 152:../core/src/n32g430_it.c **** 
 153:../core/src/n32g430_it.c **** /**
 154:../core/src/n32g430_it.c ****  *\*\name   DMA_Channel1_IRQHandler.
 155:../core/src/n32g430_it.c ****  *\*\fun    Handle DMA1 channel 1 interrupt (I2C1 TX).
 156:../core/src/n32g430_it.c ****  *\*\param  none.
 157:../core/src/n32g430_it.c ****  *\*\return none.
 158:../core/src/n32g430_it.c ****  */
 159:../core/src/n32g430_it.c **** void DMA_Channel1_IRQHandler(void)
 160:../core/src/n32g430_it.c **** {
ARM GAS  C:\Users\Dawn\AppData\Local\Temp\cc7OP3iA.s 			page 7


 196              		.loc 1 160 1 view -0
 197              		.cfi_startproc
 198              		@ args = 0, pretend = 0, frame = 0
 199              		@ frame_needed = 0, uses_anonymous_args = 0
 200              		@ link register save eliminated.
 161:../core/src/n32g430_it.c ****     HAL_DMA_IRQHandler(&hdma_i2c1_tx);
 201              		.loc 1 161 5 view .LVU23
 202 0000 0148     		ldr	r0, .L14
 203 0002 FFF7FEBF 		b	HAL_DMA_IRQHandler
 204              	.LVL1:
 205              	.L15:
 206 0006 00BF     		.align	2
 207              	.L14:
 208 0008 00000000 		.word	hdma_i2c1_tx
 209              		.cfi_endproc
 210              	.LFE138:
 212              		.section	.text.TIM4_IRQHandler,"ax",%progbits
 213              		.align	1
 214              		.global	TIM4_IRQHandler
 215              		.syntax unified
 216              		.thumb
 217              		.thumb_func
 219              	TIM4_IRQHandler:
 220              	.LFB139:
 162:../core/src/n32g430_it.c **** }
 163:../core/src/n32g430_it.c **** 
 164:../core/src/n32g430_it.c **** /**
 165:../core/src/n32g430_it.c ****  *\*\name   TIM4_IRQHandler.
 166:../core/src/n32g430_it.c ****  *\*\fun    Handle TIM4 global interrupt.
 167:../core/src/n32g430_it.c ****  *\*\param  none.
 168:../core/src/n32g430_it.c ****  *\*\return none.
 169:../core/src/n32g430_it.c ****  */
 170:../core/src/n32g430_it.c **** void TIM4_IRQHandler(void)
 171:../core/src/n32g430_it.c **** {
 221              		.loc 1 171 1 view -0
 222              		.cfi_startproc
 223              		@ args = 0, pretend = 0, frame = 0
 224              		@ frame_needed = 0, uses_anonymous_args = 0
 225              		@ link register save eliminated.
 172:../core/src/n32g430_it.c ****     HAL_TIM_IRQHandler(&htim4);
 226              		.loc 1 172 5 view .LVU25
 227 0000 0148     		ldr	r0, .L17
 228 0002 FFF7FEBF 		b	HAL_TIM_IRQHandler
 229              	.LVL2:
 230              	.L18:
 231 0006 00BF     		.align	2
 232              	.L17:
 233 0008 00000000 		.word	htim4
 234              		.cfi_endproc
 235              	.LFE139:
 237              		.section	.text.DMA_Channel2_IRQHandler,"ax",%progbits
 238              		.align	1
 239              		.global	DMA_Channel2_IRQHandler
 240              		.syntax unified
 241              		.thumb
 242              		.thumb_func
 244              	DMA_Channel2_IRQHandler:
ARM GAS  C:\Users\Dawn\AppData\Local\Temp\cc7OP3iA.s 			page 8


 245              	.LFB140:
 173:../core/src/n32g430_it.c **** }
 174:../core/src/n32g430_it.c **** 
 175:../core/src/n32g430_it.c **** /**
 176:../core/src/n32g430_it.c ****  *\*\name   DMA_Channel2_IRQHandler.
 177:../core/src/n32g430_it.c ****  *\*\fun    Handle DMA1 channel 2 interrupt (SPI1 TX).
 178:../core/src/n32g430_it.c ****  *\*\param  none.
 179:../core/src/n32g430_it.c ****  *\*\return none.
 180:../core/src/n32g430_it.c ****  */
 181:../core/src/n32g430_it.c **** void DMA_Channel2_IRQHandler(void)
 182:../core/src/n32g430_it.c **** {
 246              		.loc 1 182 1 view -0
 247              		.cfi_startproc
 248              		@ args = 0, pretend = 0, frame = 0
 249              		@ frame_needed = 0, uses_anonymous_args = 0
 250              		@ link register save eliminated.
 183:../core/src/n32g430_it.c ****     HAL_DMA_IRQHandler(&hdma_spi1_tx);
 251              		.loc 1 183 5 view .LVU27
 252 0000 0148     		ldr	r0, .L20
 253 0002 FFF7FEBF 		b	HAL_DMA_IRQHandler
 254              	.LVL3:
 255              	.L21:
 256 0006 00BF     		.align	2
 257              	.L20:
 258 0008 00000000 		.word	hdma_spi1_tx
 259              		.cfi_endproc
 260              	.LFE140:
 262              		.text
 263              	.Letext0:
 264              		.file 2 "D:/Tool/arm-gnu-toolchain/arm-none-eabi/include/machine/_default_types.h"
 265              		.file 3 "D:/Tool/arm-gnu-toolchain/arm-none-eabi/include/sys/_stdint.h"
 266              		.file 4 "../firmware/CMSIS/device/n32g430.h"
 267              		.file 5 "../core/inc/hal_compat.h"
 268              		.file 6 "../core/inc/dma.h"
 269              		.file 7 "../core/inc/tim.h"
ARM GAS  C:\Users\Dawn\AppData\Local\Temp\cc7OP3iA.s 			page 9


DEFINED SYMBOLS
                            *ABS*:00000000 n32g430_it.c
C:\Users\Dawn\AppData\Local\Temp\cc7OP3iA.s:21     .text.NMI_Handler:00000000 $t
C:\Users\Dawn\AppData\Local\Temp\cc7OP3iA.s:27     .text.NMI_Handler:00000000 NMI_Handler
C:\Users\Dawn\AppData\Local\Temp\cc7OP3iA.s:40     .text.HardFault_Handler:00000000 $t
C:\Users\Dawn\AppData\Local\Temp\cc7OP3iA.s:46     .text.HardFault_Handler:00000000 HardFault_Handler
C:\Users\Dawn\AppData\Local\Temp\cc7OP3iA.s:63     .text.MemManage_Handler:00000000 $t
C:\Users\Dawn\AppData\Local\Temp\cc7OP3iA.s:69     .text.MemManage_Handler:00000000 MemManage_Handler
C:\Users\Dawn\AppData\Local\Temp\cc7OP3iA.s:86     .text.BusFault_Handler:00000000 $t
C:\Users\Dawn\AppData\Local\Temp\cc7OP3iA.s:92     .text.BusFault_Handler:00000000 BusFault_Handler
C:\Users\Dawn\AppData\Local\Temp\cc7OP3iA.s:109    .text.UsageFault_Handler:00000000 $t
C:\Users\Dawn\AppData\Local\Temp\cc7OP3iA.s:115    .text.UsageFault_Handler:00000000 UsageFault_Handler
C:\Users\Dawn\AppData\Local\Temp\cc7OP3iA.s:132    .text.SVC_Handler:00000000 $t
C:\Users\Dawn\AppData\Local\Temp\cc7OP3iA.s:138    .text.SVC_Handler:00000000 SVC_Handler
C:\Users\Dawn\AppData\Local\Temp\cc7OP3iA.s:150    .text.DebugMon_Handler:00000000 $t
C:\Users\Dawn\AppData\Local\Temp\cc7OP3iA.s:156    .text.DebugMon_Handler:00000000 DebugMon_Handler
C:\Users\Dawn\AppData\Local\Temp\cc7OP3iA.s:168    .text.SysTick_Handler:00000000 $t
C:\Users\Dawn\AppData\Local\Temp\cc7OP3iA.s:174    .text.SysTick_Handler:00000000 SysTick_Handler
C:\Users\Dawn\AppData\Local\Temp\cc7OP3iA.s:188    .text.DMA_Channel1_IRQHandler:00000000 $t
C:\Users\Dawn\AppData\Local\Temp\cc7OP3iA.s:194    .text.DMA_Channel1_IRQHandler:00000000 DMA_Channel1_IRQHandler
C:\Users\Dawn\AppData\Local\Temp\cc7OP3iA.s:208    .text.DMA_Channel1_IRQHandler:00000008 $d
C:\Users\Dawn\AppData\Local\Temp\cc7OP3iA.s:213    .text.TIM4_IRQHandler:00000000 $t
C:\Users\Dawn\AppData\Local\Temp\cc7OP3iA.s:219    .text.TIM4_IRQHandler:00000000 TIM4_IRQHandler
C:\Users\Dawn\AppData\Local\Temp\cc7OP3iA.s:233    .text.TIM4_IRQHandler:00000008 $d
C:\Users\Dawn\AppData\Local\Temp\cc7OP3iA.s:238    .text.DMA_Channel2_IRQHandler:00000000 $t
C:\Users\Dawn\AppData\Local\Temp\cc7OP3iA.s:244    .text.DMA_Channel2_IRQHandler:00000000 DMA_Channel2_IRQHandler
C:\Users\Dawn\AppData\Local\Temp\cc7OP3iA.s:258    .text.DMA_Channel2_IRQHandler:00000008 $d

UNDEFINED SYMBOLS
HAL_IncTick
HAL_DMA_IRQHandler
hdma_i2c1_tx
HAL_TIM_IRQHandler
htim4
hdma_spi1_tx
