ARM GAS  C:\Users\Dawn\AppData\Local\Temp\ccfIN4gf.s 			page 1


   1              		.cpu cortex-m4
   2              		.arch armv7e-m
   3              		.fpu fpv4-sp-d16
   4              		.eabi_attribute 27, 1
   5              		.eabi_attribute 28, 1
   6              		.eabi_attribute 20, 1
   7              		.eabi_attribute 21, 1
   8              		.eabi_attribute 23, 3
   9              		.eabi_attribute 24, 1
  10              		.eabi_attribute 25, 1
  11              		.eabi_attribute 26, 1
  12              		.eabi_attribute 30, 4
  13              		.eabi_attribute 34, 1
  14              		.eabi_attribute 18, 4
  15              		.file	"oled_interface.c"
  16              		.text
  17              	.Ltext0:
  18              		.cfi_sections	.debug_frame
  19              		.file 1 "../APP/Src/oled_interface.c"
  20              		.section	.text.OLED_I2C_IsDMABusy,"ax",%progbits
  21              		.align	1
  22              		.syntax unified
  23              		.thumb
  24              		.thumb_func
  26              	OLED_I2C_IsDMABusy:
  27              	.LVL0:
  28              	.LFB133:
   1:../APP/Src/oled_interface.c **** /**
   2:../APP/Src/oled_interface.c ****  * @file oled_interface.c
   3:../APP/Src/oled_interface.c ****  * @brief OLED hardware abstraction layer implementation - supports both I2C and SPI
   4:../APP/Src/oled_interface.c ****  */
   5:../APP/Src/oled_interface.c **** 
   6:../APP/Src/oled_interface.c **** #include "oled_interface.h"
   7:../APP/Src/oled_interface.c **** #include "i2c.h"
   8:../APP/Src/oled_interface.c **** #include "spi.h"
   9:../APP/Src/oled_interface.c **** #include <string.h>
  10:../APP/Src/oled_interface.c **** 
  11:../APP/Src/oled_interface.c **** /* I2C protocol bytes */
  12:../APP/Src/oled_interface.c **** #define OLED_I2C_CMD_MODE     0x00
  13:../APP/Src/oled_interface.c **** #define OLED_I2C_DATA_MODE    0x40
  14:../APP/Src/oled_interface.c **** 
  15:../APP/Src/oled_interface.c **** /* Static buffers for I2C (need control byte prefix) */
  16:../APP/Src/oled_interface.c **** static uint8_t i2c_cmd_buffer[2];
  17:../APP/Src/oled_interface.c **** static uint8_t i2c_data_buffer[129];  /* 1 control byte + 128 data bytes */
  18:../APP/Src/oled_interface.c **** 
  19:../APP/Src/oled_interface.c **** /* Static buffer for SPI (no prefix needed) */
  20:../APP/Src/oled_interface.c **** static uint8_t spi_data_buffer[128];
  21:../APP/Src/oled_interface.c **** 
  22:../APP/Src/oled_interface.c **** /* I2C Interface Functions */
  23:../APP/Src/oled_interface.c **** 
  24:../APP/Src/oled_interface.c **** static HAL_StatusTypeDef OLED_I2C_SendCmd(OLED_Interface_t *iface, uint8_t cmd)
  25:../APP/Src/oled_interface.c **** {
  26:../APP/Src/oled_interface.c ****     I2C_HandleTypeDef *hi2c = (I2C_HandleTypeDef *)iface->handle;
  27:../APP/Src/oled_interface.c **** 
  28:../APP/Src/oled_interface.c ****     if (hi2c == NULL)
  29:../APP/Src/oled_interface.c ****     {
  30:../APP/Src/oled_interface.c ****         return HAL_ERROR;
ARM GAS  C:\Users\Dawn\AppData\Local\Temp\ccfIN4gf.s 			page 2


  31:../APP/Src/oled_interface.c ****     }
  32:../APP/Src/oled_interface.c **** 
  33:../APP/Src/oled_interface.c ****     i2c_cmd_buffer[0] = OLED_I2C_CMD_MODE;
  34:../APP/Src/oled_interface.c ****     i2c_cmd_buffer[1] = cmd;
  35:../APP/Src/oled_interface.c **** 
  36:../APP/Src/oled_interface.c ****     return HAL_I2C_Master_Transmit(hi2c, iface->i2c_addr, i2c_cmd_buffer, 2, 100);
  37:../APP/Src/oled_interface.c **** }
  38:../APP/Src/oled_interface.c **** 
  39:../APP/Src/oled_interface.c **** static HAL_StatusTypeDef OLED_I2C_SendData(OLED_Interface_t *iface, uint8_t *data, uint16_t len)
  40:../APP/Src/oled_interface.c **** {
  41:../APP/Src/oled_interface.c ****     I2C_HandleTypeDef *hi2c = (I2C_HandleTypeDef *)iface->handle;
  42:../APP/Src/oled_interface.c **** 
  43:../APP/Src/oled_interface.c ****     if (hi2c == NULL || data == NULL)
  44:../APP/Src/oled_interface.c ****     {
  45:../APP/Src/oled_interface.c ****         return HAL_ERROR;
  46:../APP/Src/oled_interface.c ****     }
  47:../APP/Src/oled_interface.c **** 
  48:../APP/Src/oled_interface.c ****     if (len > 128)
  49:../APP/Src/oled_interface.c ****     {
  50:../APP/Src/oled_interface.c ****         len = 128;
  51:../APP/Src/oled_interface.c ****     }
  52:../APP/Src/oled_interface.c **** 
  53:../APP/Src/oled_interface.c ****     i2c_data_buffer[0] = OLED_I2C_DATA_MODE;
  54:../APP/Src/oled_interface.c ****     memcpy(&i2c_data_buffer[1], data, len);
  55:../APP/Src/oled_interface.c **** 
  56:../APP/Src/oled_interface.c ****     return HAL_I2C_Master_Transmit(hi2c, iface->i2c_addr, i2c_data_buffer, len + 1, 200);
  57:../APP/Src/oled_interface.c **** }
  58:../APP/Src/oled_interface.c **** 
  59:../APP/Src/oled_interface.c **** static HAL_StatusTypeDef OLED_I2C_SendDataDMA(OLED_Interface_t *iface, uint8_t *data, uint16_t len)
  60:../APP/Src/oled_interface.c **** {
  61:../APP/Src/oled_interface.c ****     I2C_HandleTypeDef *hi2c = (I2C_HandleTypeDef *)iface->handle;
  62:../APP/Src/oled_interface.c **** 
  63:../APP/Src/oled_interface.c ****     if (hi2c == NULL || data == NULL)
  64:../APP/Src/oled_interface.c ****     {
  65:../APP/Src/oled_interface.c ****         return HAL_ERROR;
  66:../APP/Src/oled_interface.c ****     }
  67:../APP/Src/oled_interface.c **** 
  68:../APP/Src/oled_interface.c ****     if (len > 128)
  69:../APP/Src/oled_interface.c ****     {
  70:../APP/Src/oled_interface.c ****         len = 128;
  71:../APP/Src/oled_interface.c ****     }
  72:../APP/Src/oled_interface.c **** 
  73:../APP/Src/oled_interface.c ****     i2c_data_buffer[0] = OLED_I2C_DATA_MODE;
  74:../APP/Src/oled_interface.c ****     memcpy(&i2c_data_buffer[1], data, len);
  75:../APP/Src/oled_interface.c **** 
  76:../APP/Src/oled_interface.c ****     return HAL_I2C_Master_Transmit_DMA(hi2c, iface->i2c_addr, i2c_data_buffer, len + 1);
  77:../APP/Src/oled_interface.c **** }
  78:../APP/Src/oled_interface.c **** 
  79:../APP/Src/oled_interface.c **** static bool OLED_I2C_IsDMABusy(OLED_Interface_t *iface)
  80:../APP/Src/oled_interface.c **** {
  29              		.loc 1 80 1 view -0
  30              		.cfi_startproc
  31              		@ args = 0, pretend = 0, frame = 0
  32              		@ frame_needed = 0, uses_anonymous_args = 0
  33              		@ link register save eliminated.
  81:../APP/Src/oled_interface.c ****     I2C_HandleTypeDef *hi2c = (I2C_HandleTypeDef *)iface->handle;
  34              		.loc 1 81 5 view .LVU1
ARM GAS  C:\Users\Dawn\AppData\Local\Temp\ccfIN4gf.s 			page 3


  35              		.loc 1 81 24 is_stmt 0 view .LVU2
  36 0000 C069     		ldr	r0, [r0, #28]
  37              	.LVL1:
  82:../APP/Src/oled_interface.c **** 
  83:../APP/Src/oled_interface.c ****     if (hi2c == NULL)
  38              		.loc 1 83 5 is_stmt 1 view .LVU3
  39              		.loc 1 83 8 is_stmt 0 view .LVU4
  40 0002 18B1     		cbz	r0, .L2
  84:../APP/Src/oled_interface.c ****     {
  85:../APP/Src/oled_interface.c ****         return false;
  86:../APP/Src/oled_interface.c ****     }
  87:../APP/Src/oled_interface.c **** 
  88:../APP/Src/oled_interface.c ****     return (hi2c->State != HAL_I2C_STATE_READY);
  41              		.loc 1 88 5 is_stmt 1 view .LVU5
  42              		.loc 1 88 25 is_stmt 0 view .LVU6
  43 0004 0079     		ldrb	r0, [r0, #4]	@ zero_extendqisi2
  44              	.LVL2:
  45              		.loc 1 88 25 view .LVU7
  46 0006 0138     		subs	r0, r0, #1
  47 0008 18BF     		it	ne
  48 000a 0120     		movne	r0, #1
  49              	.L2:
  89:../APP/Src/oled_interface.c **** }
  50              		.loc 1 89 1 view .LVU8
  51 000c 7047     		bx	lr
  52              		.cfi_endproc
  53              	.LFE133:
  55              		.section	.text.OLED_SPI_IsDMABusy,"ax",%progbits
  56              		.align	1
  57              		.syntax unified
  58              		.thumb
  59              		.thumb_func
  61              	OLED_SPI_IsDMABusy:
  62              	.LVL3:
  63              	.LFB137:
  90:../APP/Src/oled_interface.c **** 
  91:../APP/Src/oled_interface.c **** /* SPI Interface Functions */
  92:../APP/Src/oled_interface.c **** 
  93:../APP/Src/oled_interface.c **** static HAL_StatusTypeDef OLED_SPI_SendCmd(OLED_Interface_t *iface, uint8_t cmd)
  94:../APP/Src/oled_interface.c **** {
  95:../APP/Src/oled_interface.c ****     SPI_HandleTypeDef *hspi = (SPI_HandleTypeDef *)iface->handle;
  96:../APP/Src/oled_interface.c ****     HAL_StatusTypeDef status;
  97:../APP/Src/oled_interface.c **** 
  98:../APP/Src/oled_interface.c ****     if (hspi == NULL)
  99:../APP/Src/oled_interface.c ****     {
 100:../APP/Src/oled_interface.c ****         return HAL_ERROR;
 101:../APP/Src/oled_interface.c ****     }
 102:../APP/Src/oled_interface.c **** 
 103:../APP/Src/oled_interface.c ****     OLED_SPI_CS_Enable();
 104:../APP/Src/oled_interface.c ****     OLED_SPI_SetDC_Cmd();
 105:../APP/Src/oled_interface.c **** 
 106:../APP/Src/oled_interface.c ****     status = HAL_SPI_Transmit(hspi, &cmd, 1, 100);
 107:../APP/Src/oled_interface.c **** 
 108:../APP/Src/oled_interface.c ****     OLED_SPI_CS_Disable();
 109:../APP/Src/oled_interface.c **** 
 110:../APP/Src/oled_interface.c ****     return status;
 111:../APP/Src/oled_interface.c **** }
ARM GAS  C:\Users\Dawn\AppData\Local\Temp\ccfIN4gf.s 			page 4


 112:../APP/Src/oled_interface.c **** 
 113:../APP/Src/oled_interface.c **** static HAL_StatusTypeDef OLED_SPI_SendData(OLED_Interface_t *iface, uint8_t *data, uint16_t len)
 114:../APP/Src/oled_interface.c **** {
 115:../APP/Src/oled_interface.c ****     SPI_HandleTypeDef *hspi = (SPI_HandleTypeDef *)iface->handle;
 116:../APP/Src/oled_interface.c ****     HAL_StatusTypeDef status;
 117:../APP/Src/oled_interface.c **** 
 118:../APP/Src/oled_interface.c ****     if (hspi == NULL || data == NULL)
 119:../APP/Src/oled_interface.c ****     {
 120:../APP/Src/oled_interface.c ****         return HAL_ERROR;
 121:../APP/Src/oled_interface.c ****     }
 122:../APP/Src/oled_interface.c **** 
 123:../APP/Src/oled_interface.c ****     if (len > 128)
 124:../APP/Src/oled_interface.c ****     {
 125:../APP/Src/oled_interface.c ****         len = 128;
 126:../APP/Src/oled_interface.c ****     }
 127:../APP/Src/oled_interface.c **** 
 128:../APP/Src/oled_interface.c ****     OLED_SPI_CS_Enable();
 129:../APP/Src/oled_interface.c ****     OLED_SPI_SetDC_Data();
 130:../APP/Src/oled_interface.c **** 
 131:../APP/Src/oled_interface.c ****     status = HAL_SPI_Transmit(hspi, data, len, 200);
 132:../APP/Src/oled_interface.c **** 
 133:../APP/Src/oled_interface.c ****     OLED_SPI_CS_Disable();
 134:../APP/Src/oled_interface.c **** 
 135:../APP/Src/oled_interface.c ****     return status;
 136:../APP/Src/oled_interface.c **** }
 137:../APP/Src/oled_interface.c **** 
 138:../APP/Src/oled_interface.c **** static HAL_StatusTypeDef OLED_SPI_SendDataDMA(OLED_Interface_t *iface, uint8_t *data, uint16_t len)
 139:../APP/Src/oled_interface.c **** {
 140:../APP/Src/oled_interface.c ****     SPI_HandleTypeDef *hspi = (SPI_HandleTypeDef *)iface->handle;
 141:../APP/Src/oled_interface.c **** 
 142:../APP/Src/oled_interface.c ****     if (hspi == NULL || data == NULL)
 143:../APP/Src/oled_interface.c ****     {
 144:../APP/Src/oled_interface.c ****         return HAL_ERROR;
 145:../APP/Src/oled_interface.c ****     }
 146:../APP/Src/oled_interface.c **** 
 147:../APP/Src/oled_interface.c ****     if (len > 128)
 148:../APP/Src/oled_interface.c ****     {
 149:../APP/Src/oled_interface.c ****         len = 128;
 150:../APP/Src/oled_interface.c ****     }
 151:../APP/Src/oled_interface.c **** 
 152:../APP/Src/oled_interface.c ****     /* Copy to static buffer for DMA */
 153:../APP/Src/oled_interface.c ****     memcpy(spi_data_buffer, data, len);
 154:../APP/Src/oled_interface.c **** 
 155:../APP/Src/oled_interface.c ****     OLED_SPI_CS_Enable();
 156:../APP/Src/oled_interface.c ****     OLED_SPI_SetDC_Data();
 157:../APP/Src/oled_interface.c **** 
 158:../APP/Src/oled_interface.c ****     /* Note: CS should be disabled in DMA complete callback */
 159:../APP/Src/oled_interface.c ****     return HAL_SPI_Transmit_DMA(hspi, spi_data_buffer, len);
 160:../APP/Src/oled_interface.c **** }
 161:../APP/Src/oled_interface.c **** 
 162:../APP/Src/oled_interface.c **** static bool OLED_SPI_IsDMABusy(OLED_Interface_t *iface)
 163:../APP/Src/oled_interface.c **** {
  64              		.loc 1 163 1 is_stmt 1 view -0
  65              		.cfi_startproc
  66              		@ args = 0, pretend = 0, frame = 0
  67              		@ frame_needed = 0, uses_anonymous_args = 0
  68              		@ link register save eliminated.
ARM GAS  C:\Users\Dawn\AppData\Local\Temp\ccfIN4gf.s 			page 5


 164:../APP/Src/oled_interface.c ****     SPI_HandleTypeDef *hspi = (SPI_HandleTypeDef *)iface->handle;
  69              		.loc 1 164 5 view .LVU10
  70              		.loc 1 164 24 is_stmt 0 view .LVU11
  71 0000 C069     		ldr	r0, [r0, #28]
  72              	.LVL4:
 165:../APP/Src/oled_interface.c **** 
 166:../APP/Src/oled_interface.c ****     if (hspi == NULL)
  73              		.loc 1 166 5 is_stmt 1 view .LVU12
  74              		.loc 1 166 8 is_stmt 0 view .LVU13
  75 0002 18B1     		cbz	r0, .L5
 167:../APP/Src/oled_interface.c ****     {
 168:../APP/Src/oled_interface.c ****         return false;
 169:../APP/Src/oled_interface.c ****     }
 170:../APP/Src/oled_interface.c **** 
 171:../APP/Src/oled_interface.c ****     return (hspi->State != HAL_SPI_STATE_READY);
  76              		.loc 1 171 5 is_stmt 1 view .LVU14
  77              		.loc 1 171 25 is_stmt 0 view .LVU15
  78 0004 0079     		ldrb	r0, [r0, #4]	@ zero_extendqisi2
  79              	.LVL5:
  80              		.loc 1 171 25 view .LVU16
  81 0006 0138     		subs	r0, r0, #1
  82 0008 18BF     		it	ne
  83 000a 0120     		movne	r0, #1
  84              	.L5:
 172:../APP/Src/oled_interface.c **** }
  85              		.loc 1 172 1 view .LVU17
  86 000c 7047     		bx	lr
  87              		.cfi_endproc
  88              	.LFE137:
  90              		.section	.text.OLED_DelayMs,"ax",%progbits
  91              		.align	1
  92              		.syntax unified
  93              		.thumb
  94              		.thumb_func
  96              	OLED_DelayMs:
  97              	.LVL6:
  98              	.LFB139:
 173:../APP/Src/oled_interface.c **** 
 174:../APP/Src/oled_interface.c **** static void OLED_SPI_ResetDisplay(OLED_Interface_t *iface)
 175:../APP/Src/oled_interface.c **** {
 176:../APP/Src/oled_interface.c ****     (void)iface;
 177:../APP/Src/oled_interface.c ****     OLED_SPI_Reset();
 178:../APP/Src/oled_interface.c **** }
 179:../APP/Src/oled_interface.c **** 
 180:../APP/Src/oled_interface.c **** /* Common delay function */
 181:../APP/Src/oled_interface.c **** static void OLED_DelayMs(uint32_t delay)
 182:../APP/Src/oled_interface.c **** {
  99              		.loc 1 182 1 is_stmt 1 view -0
 100              		.cfi_startproc
 101              		@ args = 0, pretend = 0, frame = 0
 102              		@ frame_needed = 0, uses_anonymous_args = 0
 103              		@ link register save eliminated.
 183:../APP/Src/oled_interface.c ****     HAL_Delay(delay);
 104              		.loc 1 183 5 view .LVU19
 105 0000 FFF7FEBF 		b	HAL_Delay
 106              	.LVL7:
 107              		.loc 1 183 5 is_stmt 0 view .LVU20
ARM GAS  C:\Users\Dawn\AppData\Local\Temp\ccfIN4gf.s 			page 6


 108              		.cfi_endproc
 109              	.LFE139:
 111              		.section	.text.OLED_I2C_SendDataDMA,"ax",%progbits
 112              		.align	1
 113              		.syntax unified
 114              		.thumb
 115              		.thumb_func
 117              	OLED_I2C_SendDataDMA:
 118              	.LVL8:
 119              	.LFB132:
  60:../APP/Src/oled_interface.c ****     I2C_HandleTypeDef *hi2c = (I2C_HandleTypeDef *)iface->handle;
 120              		.loc 1 60 1 is_stmt 1 view -0
 121              		.cfi_startproc
 122              		@ args = 0, pretend = 0, frame = 0
 123              		@ frame_needed = 0, uses_anonymous_args = 0
  61:../APP/Src/oled_interface.c **** 
 124              		.loc 1 61 5 view .LVU22
  60:../APP/Src/oled_interface.c ****     I2C_HandleTypeDef *hi2c = (I2C_HandleTypeDef *)iface->handle;
 125              		.loc 1 60 1 is_stmt 0 view .LVU23
 126 0000 70B5     		push	{r4, r5, r6, lr}
 127              	.LCFI0:
 128              		.cfi_def_cfa_offset 16
 129              		.cfi_offset 4, -16
 130              		.cfi_offset 5, -12
 131              		.cfi_offset 6, -8
 132              		.cfi_offset 14, -4
  61:../APP/Src/oled_interface.c **** 
 133              		.loc 1 61 24 view .LVU24
 134 0002 C669     		ldr	r6, [r0, #28]
 135              	.LVL9:
  63:../APP/Src/oled_interface.c ****     {
 136              		.loc 1 63 5 is_stmt 1 view .LVU25
  60:../APP/Src/oled_interface.c ****     I2C_HandleTypeDef *hi2c = (I2C_HandleTypeDef *)iface->handle;
 137              		.loc 1 60 1 is_stmt 0 view .LVU26
 138 0004 0546     		mov	r5, r0
 139 0006 1446     		mov	r4, r2
  63:../APP/Src/oled_interface.c ****     {
 140              		.loc 1 63 8 view .LVU27
 141 0008 A6B1     		cbz	r6, .L9
  63:../APP/Src/oled_interface.c ****     {
 142              		.loc 1 63 22 discriminator 1 view .LVU28
 143 000a 99B1     		cbz	r1, .L9
  68:../APP/Src/oled_interface.c ****     {
 144              		.loc 1 68 5 is_stmt 1 view .LVU29
  68:../APP/Src/oled_interface.c ****     {
 145              		.loc 1 68 8 is_stmt 0 view .LVU30
 146 000c 802A     		cmp	r2, #128
  73:../APP/Src/oled_interface.c ****     memcpy(&i2c_data_buffer[1], data, len);
 147              		.loc 1 73 24 view .LVU31
 148 000e 0A48     		ldr	r0, .L14
 149              	.LVL10:
  68:../APP/Src/oled_interface.c ****     {
 150              		.loc 1 68 8 view .LVU32
 151 0010 28BF     		it	cs
 152 0012 8024     		movcs	r4, #128
 153              	.LVL11:
  73:../APP/Src/oled_interface.c ****     memcpy(&i2c_data_buffer[1], data, len);
ARM GAS  C:\Users\Dawn\AppData\Local\Temp\ccfIN4gf.s 			page 7


 154              		.loc 1 73 5 is_stmt 1 view .LVU33
  73:../APP/Src/oled_interface.c ****     memcpy(&i2c_data_buffer[1], data, len);
 155              		.loc 1 73 24 is_stmt 0 view .LVU34
 156 0014 4023     		movs	r3, #64
  74:../APP/Src/oled_interface.c **** 
 157              		.loc 1 74 5 view .LVU35
 158 0016 2246     		mov	r2, r4
  73:../APP/Src/oled_interface.c ****     memcpy(&i2c_data_buffer[1], data, len);
 159              		.loc 1 73 24 view .LVU36
 160 0018 00F8013B 		strb	r3, [r0], #1
  74:../APP/Src/oled_interface.c **** 
 161              		.loc 1 74 5 is_stmt 1 view .LVU37
 162 001c FFF7FEFF 		bl	memcpy
 163              	.LVL12:
  76:../APP/Src/oled_interface.c **** }
 164              		.loc 1 76 5 view .LVU38
  76:../APP/Src/oled_interface.c **** }
 165              		.loc 1 76 12 is_stmt 0 view .LVU39
 166 0020 631C     		adds	r3, r4, #1
 167 0022 95F82010 		ldrb	r1, [r5, #32]	@ zero_extendqisi2
 168 0026 044A     		ldr	r2, .L14
 169 0028 3046     		mov	r0, r6
 170 002a 9BB2     		uxth	r3, r3
  77:../APP/Src/oled_interface.c **** 
 171              		.loc 1 77 1 view .LVU40
 172 002c BDE87040 		pop	{r4, r5, r6, lr}
 173              	.LCFI1:
 174              		.cfi_remember_state
 175              		.cfi_restore 14
 176              		.cfi_restore 6
 177              		.cfi_restore 5
 178              		.cfi_restore 4
 179              		.cfi_def_cfa_offset 0
 180              	.LVL13:
  76:../APP/Src/oled_interface.c **** }
 181              		.loc 1 76 12 view .LVU41
 182 0030 FFF7FEBF 		b	HAL_I2C_Master_Transmit_DMA
 183              	.LVL14:
 184              	.L9:
 185              	.LCFI2:
 186              		.cfi_restore_state
  77:../APP/Src/oled_interface.c **** 
 187              		.loc 1 77 1 view .LVU42
 188 0034 0120     		movs	r0, #1
 189              	.LVL15:
  77:../APP/Src/oled_interface.c **** 
 190              		.loc 1 77 1 view .LVU43
 191 0036 70BD     		pop	{r4, r5, r6, pc}
 192              	.LVL16:
 193              	.L15:
  77:../APP/Src/oled_interface.c **** 
 194              		.loc 1 77 1 view .LVU44
 195              		.align	2
 196              	.L14:
 197 0038 00000000 		.word	i2c_data_buffer
 198              		.cfi_endproc
 199              	.LFE132:
ARM GAS  C:\Users\Dawn\AppData\Local\Temp\ccfIN4gf.s 			page 8


 201              		.section	.text.OLED_I2C_SendData,"ax",%progbits
 202              		.align	1
 203              		.syntax unified
 204              		.thumb
 205              		.thumb_func
 207              	OLED_I2C_SendData:
 208              	.LVL17:
 209              	.LFB131:
  40:../APP/Src/oled_interface.c ****     I2C_HandleTypeDef *hi2c = (I2C_HandleTypeDef *)iface->handle;
 210              		.loc 1 40 1 is_stmt 1 view -0
 211              		.cfi_startproc
 212              		@ args = 0, pretend = 0, frame = 0
 213              		@ frame_needed = 0, uses_anonymous_args = 0
  41:../APP/Src/oled_interface.c **** 
 214              		.loc 1 41 5 view .LVU46
  40:../APP/Src/oled_interface.c ****     I2C_HandleTypeDef *hi2c = (I2C_HandleTypeDef *)iface->handle;
 215              		.loc 1 40 1 is_stmt 0 view .LVU47
 216 0000 73B5     		push	{r0, r1, r4, r5, r6, lr}
 217              	.LCFI3:
 218              		.cfi_def_cfa_offset 24
 219              		.cfi_offset 4, -16
 220              		.cfi_offset 5, -12
 221              		.cfi_offset 6, -8
 222              		.cfi_offset 14, -4
  41:../APP/Src/oled_interface.c **** 
 223              		.loc 1 41 24 view .LVU48
 224 0002 C669     		ldr	r6, [r0, #28]
 225              	.LVL18:
  43:../APP/Src/oled_interface.c ****     {
 226              		.loc 1 43 5 is_stmt 1 view .LVU49
  40:../APP/Src/oled_interface.c ****     I2C_HandleTypeDef *hi2c = (I2C_HandleTypeDef *)iface->handle;
 227              		.loc 1 40 1 is_stmt 0 view .LVU50
 228 0004 0546     		mov	r5, r0
 229 0006 1446     		mov	r4, r2
  43:../APP/Src/oled_interface.c ****     {
 230              		.loc 1 43 8 view .LVU51
 231 0008 B6B1     		cbz	r6, .L19
  43:../APP/Src/oled_interface.c ****     {
 232              		.loc 1 43 22 discriminator 1 view .LVU52
 233 000a A9B1     		cbz	r1, .L19
  48:../APP/Src/oled_interface.c ****     {
 234              		.loc 1 48 5 is_stmt 1 view .LVU53
  48:../APP/Src/oled_interface.c ****     {
 235              		.loc 1 48 8 is_stmt 0 view .LVU54
 236 000c 802A     		cmp	r2, #128
  53:../APP/Src/oled_interface.c ****     memcpy(&i2c_data_buffer[1], data, len);
 237              		.loc 1 53 24 view .LVU55
 238 000e 0B48     		ldr	r0, .L20
 239              	.LVL19:
  48:../APP/Src/oled_interface.c ****     {
 240              		.loc 1 48 8 view .LVU56
 241 0010 28BF     		it	cs
 242 0012 8024     		movcs	r4, #128
 243              	.LVL20:
  53:../APP/Src/oled_interface.c ****     memcpy(&i2c_data_buffer[1], data, len);
 244              		.loc 1 53 5 is_stmt 1 view .LVU57
  53:../APP/Src/oled_interface.c ****     memcpy(&i2c_data_buffer[1], data, len);
ARM GAS  C:\Users\Dawn\AppData\Local\Temp\ccfIN4gf.s 			page 9


 245              		.loc 1 53 24 is_stmt 0 view .LVU58
 246 0014 4023     		movs	r3, #64
 247 0016 00F8013B 		strb	r3, [r0], #1
  54:../APP/Src/oled_interface.c **** 
 248              		.loc 1 54 5 is_stmt 1 view .LVU59
 249 001a 2246     		mov	r2, r4
 250 001c FFF7FEFF 		bl	memcpy
 251              	.LVL21:
  56:../APP/Src/oled_interface.c **** }
 252              		.loc 1 56 5 view .LVU60
  56:../APP/Src/oled_interface.c **** }
 253              		.loc 1 56 12 is_stmt 0 view .LVU61
 254 0020 C822     		movs	r2, #200
 255 0022 0092     		str	r2, [sp]
 256 0024 631C     		adds	r3, r4, #1
 257 0026 054A     		ldr	r2, .L20
 258 0028 95F82010 		ldrb	r1, [r5, #32]	@ zero_extendqisi2
 259 002c 9BB2     		uxth	r3, r3
 260 002e 3046     		mov	r0, r6
 261 0030 FFF7FEFF 		bl	HAL_I2C_Master_Transmit
 262              	.LVL22:
 263              	.L17:
  57:../APP/Src/oled_interface.c **** 
 264              		.loc 1 57 1 view .LVU62
 265 0034 02B0     		add	sp, sp, #8
 266              	.LCFI4:
 267              		.cfi_remember_state
 268              		.cfi_def_cfa_offset 16
 269              		@ sp needed
 270 0036 70BD     		pop	{r4, r5, r6, pc}
 271              	.LVL23:
 272              	.L19:
 273              	.LCFI5:
 274              		.cfi_restore_state
  45:../APP/Src/oled_interface.c ****     }
 275              		.loc 1 45 16 view .LVU63
 276 0038 0120     		movs	r0, #1
 277              	.LVL24:
  45:../APP/Src/oled_interface.c ****     }
 278              		.loc 1 45 16 view .LVU64
 279 003a FBE7     		b	.L17
 280              	.L21:
 281              		.align	2
 282              	.L20:
 283 003c 00000000 		.word	i2c_data_buffer
 284              		.cfi_endproc
 285              	.LFE131:
 287              		.section	.text.OLED_I2C_SendCmd,"ax",%progbits
 288              		.align	1
 289              		.syntax unified
 290              		.thumb
 291              		.thumb_func
 293              	OLED_I2C_SendCmd:
 294              	.LVL25:
 295              	.LFB130:
  25:../APP/Src/oled_interface.c ****     I2C_HandleTypeDef *hi2c = (I2C_HandleTypeDef *)iface->handle;
 296              		.loc 1 25 1 is_stmt 1 view -0
ARM GAS  C:\Users\Dawn\AppData\Local\Temp\ccfIN4gf.s 			page 10


 297              		.cfi_startproc
 298              		@ args = 0, pretend = 0, frame = 0
 299              		@ frame_needed = 0, uses_anonymous_args = 0
  26:../APP/Src/oled_interface.c **** 
 300              		.loc 1 26 5 view .LVU66
  25:../APP/Src/oled_interface.c ****     I2C_HandleTypeDef *hi2c = (I2C_HandleTypeDef *)iface->handle;
 301              		.loc 1 25 1 is_stmt 0 view .LVU67
 302 0000 13B5     		push	{r0, r1, r4, lr}
 303              	.LCFI6:
 304              		.cfi_def_cfa_offset 16
 305              		.cfi_offset 4, -8
 306              		.cfi_offset 14, -4
  25:../APP/Src/oled_interface.c ****     I2C_HandleTypeDef *hi2c = (I2C_HandleTypeDef *)iface->handle;
 307              		.loc 1 25 1 view .LVU68
 308 0002 0446     		mov	r4, r0
  26:../APP/Src/oled_interface.c **** 
 309              		.loc 1 26 24 view .LVU69
 310 0004 C069     		ldr	r0, [r0, #28]
 311              	.LVL26:
  28:../APP/Src/oled_interface.c ****     {
 312              		.loc 1 28 5 is_stmt 1 view .LVU70
  28:../APP/Src/oled_interface.c ****     {
 313              		.loc 1 28 8 is_stmt 0 view .LVU71
 314 0006 60B1     		cbz	r0, .L24
  33:../APP/Src/oled_interface.c ****     i2c_cmd_buffer[1] = cmd;
 315              		.loc 1 33 5 is_stmt 1 view .LVU72
  33:../APP/Src/oled_interface.c ****     i2c_cmd_buffer[1] = cmd;
 316              		.loc 1 33 23 is_stmt 0 view .LVU73
 317 0008 074A     		ldr	r2, .L25
 318 000a 0023     		movs	r3, #0
 319 000c 1370     		strb	r3, [r2]
  34:../APP/Src/oled_interface.c **** 
 320              		.loc 1 34 5 is_stmt 1 view .LVU74
  36:../APP/Src/oled_interface.c **** }
 321              		.loc 1 36 12 is_stmt 0 view .LVU75
 322 000e 6423     		movs	r3, #100
  34:../APP/Src/oled_interface.c **** 
 323              		.loc 1 34 23 view .LVU76
 324 0010 5170     		strb	r1, [r2, #1]
  36:../APP/Src/oled_interface.c **** }
 325              		.loc 1 36 5 is_stmt 1 view .LVU77
  36:../APP/Src/oled_interface.c **** }
 326              		.loc 1 36 12 is_stmt 0 view .LVU78
 327 0012 0093     		str	r3, [sp]
 328 0014 94F82010 		ldrb	r1, [r4, #32]	@ zero_extendqisi2
 329              	.LVL27:
  36:../APP/Src/oled_interface.c **** }
 330              		.loc 1 36 12 view .LVU79
 331 0018 0223     		movs	r3, #2
 332 001a FFF7FEFF 		bl	HAL_I2C_Master_Transmit
 333              	.LVL28:
 334              	.L23:
  37:../APP/Src/oled_interface.c **** 
 335              		.loc 1 37 1 view .LVU80
 336 001e 02B0     		add	sp, sp, #8
 337              	.LCFI7:
 338              		.cfi_remember_state
ARM GAS  C:\Users\Dawn\AppData\Local\Temp\ccfIN4gf.s 			page 11


 339              		.cfi_def_cfa_offset 8
 340              		@ sp needed
 341 0020 10BD     		pop	{r4, pc}
 342              	.LVL29:
 343              	.L24:
 344              	.LCFI8:
 345              		.cfi_restore_state
  30:../APP/Src/oled_interface.c ****     }
 346              		.loc 1 30 16 view .LVU81
 347 0022 0120     		movs	r0, #1
 348              	.LVL30:
  30:../APP/Src/oled_interface.c ****     }
 349              		.loc 1 30 16 view .LVU82
 350 0024 FBE7     		b	.L23
 351              	.L26:
 352 0026 00BF     		.align	2
 353              	.L25:
 354 0028 00000000 		.word	i2c_cmd_buffer
 355              		.cfi_endproc
 356              	.LFE130:
 358              		.section	.text.OLED_SPI_ResetDisplay,"ax",%progbits
 359              		.align	1
 360              		.syntax unified
 361              		.thumb
 362              		.thumb_func
 364              	OLED_SPI_ResetDisplay:
 365              	.LVL31:
 366              	.LFB138:
 175:../APP/Src/oled_interface.c ****     (void)iface;
 367              		.loc 1 175 1 is_stmt 1 view -0
 368              		.cfi_startproc
 369              		@ args = 0, pretend = 0, frame = 0
 370              		@ frame_needed = 0, uses_anonymous_args = 0
 371              		@ link register save eliminated.
 176:../APP/Src/oled_interface.c ****     OLED_SPI_Reset();
 372              		.loc 1 176 5 view .LVU84
 177:../APP/Src/oled_interface.c **** }
 373              		.loc 1 177 5 view .LVU85
 374 0000 FFF7FEBF 		b	OLED_SPI_Reset
 375              	.LVL32:
 177:../APP/Src/oled_interface.c **** }
 376              		.loc 1 177 5 is_stmt 0 view .LVU86
 377              		.cfi_endproc
 378              	.LFE138:
 380              		.section	.text.OLED_SPI_SendDataDMA,"ax",%progbits
 381              		.align	1
 382              		.syntax unified
 383              		.thumb
 384              		.thumb_func
 386              	OLED_SPI_SendDataDMA:
 387              	.LVL33:
 388              	.LFB136:
 139:../APP/Src/oled_interface.c ****     SPI_HandleTypeDef *hspi = (SPI_HandleTypeDef *)iface->handle;
 389              		.loc 1 139 1 is_stmt 1 view -0
 390              		.cfi_startproc
 391              		@ args = 0, pretend = 0, frame = 0
 392              		@ frame_needed = 0, uses_anonymous_args = 0
ARM GAS  C:\Users\Dawn\AppData\Local\Temp\ccfIN4gf.s 			page 12


 140:../APP/Src/oled_interface.c **** 
 393              		.loc 1 140 5 view .LVU88
 139:../APP/Src/oled_interface.c ****     SPI_HandleTypeDef *hspi = (SPI_HandleTypeDef *)iface->handle;
 394              		.loc 1 139 1 is_stmt 0 view .LVU89
 395 0000 38B5     		push	{r3, r4, r5, lr}
 396              	.LCFI9:
 397              		.cfi_def_cfa_offset 16
 398              		.cfi_offset 3, -16
 399              		.cfi_offset 4, -12
 400              		.cfi_offset 5, -8
 401              		.cfi_offset 14, -4
 140:../APP/Src/oled_interface.c **** 
 402              		.loc 1 140 24 view .LVU90
 403 0002 C569     		ldr	r5, [r0, #28]
 404              	.LVL34:
 142:../APP/Src/oled_interface.c ****     {
 405              		.loc 1 142 5 is_stmt 1 view .LVU91
 139:../APP/Src/oled_interface.c ****     SPI_HandleTypeDef *hspi = (SPI_HandleTypeDef *)iface->handle;
 406              		.loc 1 139 1 is_stmt 0 view .LVU92
 407 0004 1446     		mov	r4, r2
 142:../APP/Src/oled_interface.c ****     {
 408              		.loc 1 142 8 view .LVU93
 409 0006 95B1     		cbz	r5, .L29
 142:../APP/Src/oled_interface.c ****     {
 410              		.loc 1 142 22 discriminator 1 view .LVU94
 411 0008 89B1     		cbz	r1, .L29
 147:../APP/Src/oled_interface.c ****     {
 412              		.loc 1 147 5 is_stmt 1 view .LVU95
 147:../APP/Src/oled_interface.c ****     {
 413              		.loc 1 147 8 is_stmt 0 view .LVU96
 414 000a 802A     		cmp	r2, #128
 415 000c 28BF     		it	cs
 416 000e 8024     		movcs	r4, #128
 417              	.LVL35:
 153:../APP/Src/oled_interface.c **** 
 418              		.loc 1 153 5 is_stmt 1 view .LVU97
 419 0010 2246     		mov	r2, r4
 420 0012 0848     		ldr	r0, .L34
 421              	.LVL36:
 153:../APP/Src/oled_interface.c **** 
 422              		.loc 1 153 5 is_stmt 0 view .LVU98
 423 0014 FFF7FEFF 		bl	memcpy
 424              	.LVL37:
 155:../APP/Src/oled_interface.c ****     OLED_SPI_SetDC_Data();
 425              		.loc 1 155 5 is_stmt 1 view .LVU99
 426 0018 FFF7FEFF 		bl	OLED_SPI_CS_Enable
 427              	.LVL38:
 156:../APP/Src/oled_interface.c **** 
 428              		.loc 1 156 5 view .LVU100
 429 001c FFF7FEFF 		bl	OLED_SPI_SetDC_Data
 430              	.LVL39:
 159:../APP/Src/oled_interface.c **** }
 431              		.loc 1 159 5 view .LVU101
 159:../APP/Src/oled_interface.c **** }
 432              		.loc 1 159 12 is_stmt 0 view .LVU102
 433 0020 2246     		mov	r2, r4
 434 0022 2846     		mov	r0, r5
ARM GAS  C:\Users\Dawn\AppData\Local\Temp\ccfIN4gf.s 			page 13


 435 0024 0349     		ldr	r1, .L34
 160:../APP/Src/oled_interface.c **** 
 436              		.loc 1 160 1 view .LVU103
 437 0026 BDE83840 		pop	{r3, r4, r5, lr}
 438              	.LCFI10:
 439              		.cfi_remember_state
 440              		.cfi_restore 14
 441              		.cfi_restore 5
 442              		.cfi_restore 4
 443              		.cfi_restore 3
 444              		.cfi_def_cfa_offset 0
 445              	.LVL40:
 159:../APP/Src/oled_interface.c **** }
 446              		.loc 1 159 12 view .LVU104
 447 002a FFF7FEBF 		b	HAL_SPI_Transmit_DMA
 448              	.LVL41:
 449              	.L29:
 450              	.LCFI11:
 451              		.cfi_restore_state
 160:../APP/Src/oled_interface.c **** 
 452              		.loc 1 160 1 view .LVU105
 453 002e 0120     		movs	r0, #1
 454              	.LVL42:
 160:../APP/Src/oled_interface.c **** 
 455              		.loc 1 160 1 view .LVU106
 456 0030 38BD     		pop	{r3, r4, r5, pc}
 457              	.LVL43:
 458              	.L35:
 160:../APP/Src/oled_interface.c **** 
 459              		.loc 1 160 1 view .LVU107
 460 0032 00BF     		.align	2
 461              	.L34:
 462 0034 00000000 		.word	spi_data_buffer
 463              		.cfi_endproc
 464              	.LFE136:
 466              		.section	.text.OLED_SPI_SendData,"ax",%progbits
 467              		.align	1
 468              		.syntax unified
 469              		.thumb
 470              		.thumb_func
 472              	OLED_SPI_SendData:
 473              	.LVL44:
 474              	.LFB135:
 114:../APP/Src/oled_interface.c ****     SPI_HandleTypeDef *hspi = (SPI_HandleTypeDef *)iface->handle;
 475              		.loc 1 114 1 is_stmt 1 view -0
 476              		.cfi_startproc
 477              		@ args = 0, pretend = 0, frame = 0
 478              		@ frame_needed = 0, uses_anonymous_args = 0
 115:../APP/Src/oled_interface.c ****     HAL_StatusTypeDef status;
 479              		.loc 1 115 5 view .LVU109
 114:../APP/Src/oled_interface.c ****     SPI_HandleTypeDef *hspi = (SPI_HandleTypeDef *)iface->handle;
 480              		.loc 1 114 1 is_stmt 0 view .LVU110
 481 0000 70B5     		push	{r4, r5, r6, lr}
 482              	.LCFI12:
 483              		.cfi_def_cfa_offset 16
 484              		.cfi_offset 4, -16
 485              		.cfi_offset 5, -12
ARM GAS  C:\Users\Dawn\AppData\Local\Temp\ccfIN4gf.s 			page 14


 486              		.cfi_offset 6, -8
 487              		.cfi_offset 14, -4
 115:../APP/Src/oled_interface.c ****     HAL_StatusTypeDef status;
 488              		.loc 1 115 24 view .LVU111
 489 0002 C669     		ldr	r6, [r0, #28]
 490              	.LVL45:
 116:../APP/Src/oled_interface.c **** 
 491              		.loc 1 116 5 is_stmt 1 view .LVU112
 118:../APP/Src/oled_interface.c ****     {
 492              		.loc 1 118 5 view .LVU113
 114:../APP/Src/oled_interface.c ****     SPI_HandleTypeDef *hspi = (SPI_HandleTypeDef *)iface->handle;
 493              		.loc 1 114 1 is_stmt 0 view .LVU114
 494 0004 0C46     		mov	r4, r1
 495 0006 1546     		mov	r5, r2
 118:../APP/Src/oled_interface.c ****     {
 496              		.loc 1 118 8 view .LVU115
 497 0008 9EB1     		cbz	r6, .L39
 118:../APP/Src/oled_interface.c ****     {
 498              		.loc 1 118 22 discriminator 1 view .LVU116
 499 000a 91B1     		cbz	r1, .L39
 123:../APP/Src/oled_interface.c ****     {
 500              		.loc 1 123 5 is_stmt 1 view .LVU117
 501              	.LVL46:
 128:../APP/Src/oled_interface.c ****     OLED_SPI_SetDC_Data();
 502              		.loc 1 128 5 view .LVU118
 503 000c FFF7FEFF 		bl	OLED_SPI_CS_Enable
 504              	.LVL47:
 129:../APP/Src/oled_interface.c **** 
 505              		.loc 1 129 5 view .LVU119
 506 0010 FFF7FEFF 		bl	OLED_SPI_SetDC_Data
 507              	.LVL48:
 131:../APP/Src/oled_interface.c **** 
 508              		.loc 1 131 5 view .LVU120
 131:../APP/Src/oled_interface.c **** 
 509              		.loc 1 131 14 is_stmt 0 view .LVU121
 510 0014 802D     		cmp	r5, #128
 511 0016 2A46     		mov	r2, r5
 512 0018 2146     		mov	r1, r4
 513 001a 4FF0C803 		mov	r3, #200
 514 001e 28BF     		it	cs
 515 0020 8022     		movcs	r2, #128
 516 0022 3046     		mov	r0, r6
 517 0024 FFF7FEFF 		bl	HAL_SPI_Transmit
 518              	.LVL49:
 519 0028 0446     		mov	r4, r0
 520              	.LVL50:
 133:../APP/Src/oled_interface.c **** 
 521              		.loc 1 133 5 is_stmt 1 view .LVU122
 522 002a FFF7FEFF 		bl	OLED_SPI_CS_Disable
 523              	.LVL51:
 135:../APP/Src/oled_interface.c **** }
 524              		.loc 1 135 5 view .LVU123
 525              	.L37:
 136:../APP/Src/oled_interface.c **** 
 526              		.loc 1 136 1 is_stmt 0 view .LVU124
 527 002e 2046     		mov	r0, r4
 528 0030 70BD     		pop	{r4, r5, r6, pc}
ARM GAS  C:\Users\Dawn\AppData\Local\Temp\ccfIN4gf.s 			page 15


 529              	.LVL52:
 530              	.L39:
 120:../APP/Src/oled_interface.c ****     }
 531              		.loc 1 120 16 view .LVU125
 532 0032 0124     		movs	r4, #1
 533 0034 FBE7     		b	.L37
 534              		.cfi_endproc
 535              	.LFE135:
 537              		.section	.text.OLED_SPI_SendCmd,"ax",%progbits
 538              		.align	1
 539              		.syntax unified
 540              		.thumb
 541              		.thumb_func
 543              	OLED_SPI_SendCmd:
 544              	.LVL53:
 545              	.LFB134:
  94:../APP/Src/oled_interface.c ****     SPI_HandleTypeDef *hspi = (SPI_HandleTypeDef *)iface->handle;
 546              		.loc 1 94 1 is_stmt 1 view -0
 547              		.cfi_startproc
 548              		@ args = 0, pretend = 0, frame = 8
 549              		@ frame_needed = 0, uses_anonymous_args = 0
  95:../APP/Src/oled_interface.c ****     HAL_StatusTypeDef status;
 550              		.loc 1 95 5 view .LVU127
  94:../APP/Src/oled_interface.c ****     SPI_HandleTypeDef *hspi = (SPI_HandleTypeDef *)iface->handle;
 551              		.loc 1 94 1 is_stmt 0 view .LVU128
 552 0000 13B5     		push	{r0, r1, r4, lr}
 553              	.LCFI13:
 554              		.cfi_def_cfa_offset 16
 555              		.cfi_offset 4, -8
 556              		.cfi_offset 14, -4
  95:../APP/Src/oled_interface.c ****     HAL_StatusTypeDef status;
 557              		.loc 1 95 24 view .LVU129
 558 0002 C469     		ldr	r4, [r0, #28]
 559              	.LVL54:
  96:../APP/Src/oled_interface.c **** 
 560              		.loc 1 96 5 is_stmt 1 view .LVU130
  98:../APP/Src/oled_interface.c ****     {
 561              		.loc 1 98 5 view .LVU131
  94:../APP/Src/oled_interface.c ****     SPI_HandleTypeDef *hspi = (SPI_HandleTypeDef *)iface->handle;
 562              		.loc 1 94 1 is_stmt 0 view .LVU132
 563 0004 8DF80710 		strb	r1, [sp, #7]
  98:../APP/Src/oled_interface.c ****     {
 564              		.loc 1 98 8 view .LVU133
 565 0008 84B1     		cbz	r4, .L42
 103:../APP/Src/oled_interface.c ****     OLED_SPI_SetDC_Cmd();
 566              		.loc 1 103 5 is_stmt 1 view .LVU134
 567 000a FFF7FEFF 		bl	OLED_SPI_CS_Enable
 568              	.LVL55:
 104:../APP/Src/oled_interface.c **** 
 569              		.loc 1 104 5 view .LVU135
 570 000e FFF7FEFF 		bl	OLED_SPI_SetDC_Cmd
 571              	.LVL56:
 106:../APP/Src/oled_interface.c **** 
 572              		.loc 1 106 5 view .LVU136
 106:../APP/Src/oled_interface.c **** 
 573              		.loc 1 106 14 is_stmt 0 view .LVU137
 574 0012 2046     		mov	r0, r4
ARM GAS  C:\Users\Dawn\AppData\Local\Temp\ccfIN4gf.s 			page 16


 575 0014 6423     		movs	r3, #100
 576 0016 0122     		movs	r2, #1
 577 0018 0DF10701 		add	r1, sp, #7
 578 001c FFF7FEFF 		bl	HAL_SPI_Transmit
 579              	.LVL57:
 580 0020 0446     		mov	r4, r0
 581              	.LVL58:
 108:../APP/Src/oled_interface.c **** 
 582              		.loc 1 108 5 is_stmt 1 view .LVU138
 583 0022 FFF7FEFF 		bl	OLED_SPI_CS_Disable
 584              	.LVL59:
 110:../APP/Src/oled_interface.c **** }
 585              		.loc 1 110 5 view .LVU139
 586              	.L41:
 111:../APP/Src/oled_interface.c **** 
 587              		.loc 1 111 1 is_stmt 0 view .LVU140
 588 0026 2046     		mov	r0, r4
 589 0028 02B0     		add	sp, sp, #8
 590              	.LCFI14:
 591              		.cfi_remember_state
 592              		.cfi_def_cfa_offset 8
 593              		@ sp needed
 594 002a 10BD     		pop	{r4, pc}
 595              	.LVL60:
 596              	.L42:
 597              	.LCFI15:
 598              		.cfi_restore_state
 100:../APP/Src/oled_interface.c ****     }
 599              		.loc 1 100 16 view .LVU141
 600 002c 0124     		movs	r4, #1
 601              	.LVL61:
 100:../APP/Src/oled_interface.c ****     }
 602              		.loc 1 100 16 view .LVU142
 603 002e FAE7     		b	.L41
 604              		.cfi_endproc
 605              	.LFE134:
 607              		.section	.text.OLED_Interface_InitI2C,"ax",%progbits
 608              		.align	1
 609              		.global	OLED_Interface_InitI2C
 610              		.syntax unified
 611              		.thumb
 612              		.thumb_func
 614              	OLED_Interface_InitI2C:
 615              	.LVL62:
 616              	.LFB140:
 184:../APP/Src/oled_interface.c **** }
 185:../APP/Src/oled_interface.c **** 
 186:../APP/Src/oled_interface.c **** /* Public Functions */
 187:../APP/Src/oled_interface.c **** 
 188:../APP/Src/oled_interface.c **** /**
 189:../APP/Src/oled_interface.c ****  * @brief Initialize I2C interface for OLED
 190:../APP/Src/oled_interface.c ****  */
 191:../APP/Src/oled_interface.c **** void OLED_Interface_InitI2C(OLED_Interface_t *iface, void *hi2c, uint8_t i2c_addr, bool use_dma)
 192:../APP/Src/oled_interface.c **** {
 617              		.loc 1 192 1 is_stmt 1 view -0
 618              		.cfi_startproc
 619              		@ args = 0, pretend = 0, frame = 0
ARM GAS  C:\Users\Dawn\AppData\Local\Temp\ccfIN4gf.s 			page 17


 620              		@ frame_needed = 0, uses_anonymous_args = 0
 193:../APP/Src/oled_interface.c ****     if (iface == NULL)
 621              		.loc 1 193 5 view .LVU144
 192:../APP/Src/oled_interface.c ****     if (iface == NULL)
 622              		.loc 1 192 1 is_stmt 0 view .LVU145
 623 0000 F8B5     		push	{r3, r4, r5, r6, r7, lr}
 624              	.LCFI16:
 625              		.cfi_def_cfa_offset 24
 626              		.cfi_offset 3, -24
 627              		.cfi_offset 4, -20
 628              		.cfi_offset 5, -16
 629              		.cfi_offset 6, -12
 630              		.cfi_offset 7, -8
 631              		.cfi_offset 14, -4
 192:../APP/Src/oled_interface.c ****     if (iface == NULL)
 632              		.loc 1 192 1 view .LVU146
 633 0002 0F46     		mov	r7, r1
 634 0004 1646     		mov	r6, r2
 635 0006 1D46     		mov	r5, r3
 636              		.loc 1 193 8 view .LVU147
 637 0008 0446     		mov	r4, r0
 638 000a 88B1     		cbz	r0, .L43
 194:../APP/Src/oled_interface.c ****     {
 195:../APP/Src/oled_interface.c ****         return;
 196:../APP/Src/oled_interface.c ****     }
 197:../APP/Src/oled_interface.c **** 
 198:../APP/Src/oled_interface.c ****     memset(iface, 0, sizeof(OLED_Interface_t));
 639              		.loc 1 198 5 is_stmt 1 view .LVU148
 640 000c 2422     		movs	r2, #36
 641              	.LVL63:
 642              		.loc 1 198 5 is_stmt 0 view .LVU149
 643 000e 0021     		movs	r1, #0
 644              	.LVL64:
 645              		.loc 1 198 5 view .LVU150
 646 0010 FFF7FEFF 		bl	memset
 647              	.LVL65:
 199:../APP/Src/oled_interface.c **** 
 200:../APP/Src/oled_interface.c ****     iface->type = OLED_INTERFACE_I2C;
 648              		.loc 1 200 5 is_stmt 1 view .LVU151
 201:../APP/Src/oled_interface.c ****     iface->handle = hi2c;
 649              		.loc 1 201 5 view .LVU152
 202:../APP/Src/oled_interface.c ****     iface->i2c_addr = i2c_addr;
 203:../APP/Src/oled_interface.c **** 
 204:../APP/Src/oled_interface.c ****     iface->send_cmd = OLED_I2C_SendCmd;
 650              		.loc 1 204 21 is_stmt 0 view .LVU153
 651 0014 074B     		ldr	r3, .L52
 652 0016 6360     		str	r3, [r4, #4]
 205:../APP/Src/oled_interface.c ****     iface->send_data = OLED_I2C_SendData;
 653              		.loc 1 205 22 view .LVU154
 654 0018 074B     		ldr	r3, .L52+4
 201:../APP/Src/oled_interface.c ****     iface->handle = hi2c;
 655              		.loc 1 201 19 view .LVU155
 656 001a E761     		str	r7, [r4, #28]
 202:../APP/Src/oled_interface.c ****     iface->i2c_addr = i2c_addr;
 657              		.loc 1 202 5 is_stmt 1 view .LVU156
 202:../APP/Src/oled_interface.c ****     iface->i2c_addr = i2c_addr;
 658              		.loc 1 202 21 is_stmt 0 view .LVU157
ARM GAS  C:\Users\Dawn\AppData\Local\Temp\ccfIN4gf.s 			page 18


 659 001c 84F82060 		strb	r6, [r4, #32]
 204:../APP/Src/oled_interface.c ****     iface->send_data = OLED_I2C_SendData;
 660              		.loc 1 204 5 is_stmt 1 view .LVU158
 661              		.loc 1 205 5 view .LVU159
 662              		.loc 1 205 22 is_stmt 0 view .LVU160
 663 0020 A360     		str	r3, [r4, #8]
 206:../APP/Src/oled_interface.c **** 
 207:../APP/Src/oled_interface.c ****     if (use_dma)
 664              		.loc 1 207 5 is_stmt 1 view .LVU161
 665              		.loc 1 207 8 is_stmt 0 view .LVU162
 666 0022 1DB1     		cbz	r5, .L45
 208:../APP/Src/oled_interface.c ****     {
 209:../APP/Src/oled_interface.c ****         iface->send_data_dma = OLED_I2C_SendDataDMA;
 667              		.loc 1 209 9 is_stmt 1 view .LVU163
 668              		.loc 1 209 30 is_stmt 0 view .LVU164
 669 0024 054B     		ldr	r3, .L52+8
 670 0026 E360     		str	r3, [r4, #12]
 210:../APP/Src/oled_interface.c ****         iface->is_dma_busy = OLED_I2C_IsDMABusy;
 671              		.loc 1 210 9 is_stmt 1 view .LVU165
 672              		.loc 1 210 28 is_stmt 0 view .LVU166
 673 0028 054B     		ldr	r3, .L52+12
 674 002a 2361     		str	r3, [r4, #16]
 675              	.L45:
 211:../APP/Src/oled_interface.c ****     }
 212:../APP/Src/oled_interface.c ****     else
 213:../APP/Src/oled_interface.c ****     {
 214:../APP/Src/oled_interface.c ****         iface->send_data_dma = NULL;
 215:../APP/Src/oled_interface.c ****         iface->is_dma_busy = NULL;
 216:../APP/Src/oled_interface.c ****     }
 217:../APP/Src/oled_interface.c **** 
 218:../APP/Src/oled_interface.c ****     iface->delay_ms = OLED_DelayMs;
 676              		.loc 1 218 5 is_stmt 1 view .LVU167
 677              		.loc 1 218 21 is_stmt 0 view .LVU168
 678 002c 054B     		ldr	r3, .L52+16
 679 002e 6361     		str	r3, [r4, #20]
 219:../APP/Src/oled_interface.c ****     iface->reset = NULL;  /* I2C OLED typically doesn't have reset pin */
 680              		.loc 1 219 5 is_stmt 1 view .LVU169
 681              	.L43:
 220:../APP/Src/oled_interface.c **** }
 682              		.loc 1 220 1 is_stmt 0 view .LVU170
 683 0030 F8BD     		pop	{r3, r4, r5, r6, r7, pc}
 684              	.LVL66:
 685              	.L53:
 686              		.loc 1 220 1 view .LVU171
 687 0032 00BF     		.align	2
 688              	.L52:
 689 0034 00000000 		.word	OLED_I2C_SendCmd
 690 0038 00000000 		.word	OLED_I2C_SendData
 691 003c 00000000 		.word	OLED_I2C_SendDataDMA
 692 0040 00000000 		.word	OLED_I2C_IsDMABusy
 693 0044 00000000 		.word	OLED_DelayMs
 694              		.cfi_endproc
 695              	.LFE140:
 697              		.section	.text.OLED_Interface_InitSPI,"ax",%progbits
 698              		.align	1
 699              		.global	OLED_Interface_InitSPI
 700              		.syntax unified
ARM GAS  C:\Users\Dawn\AppData\Local\Temp\ccfIN4gf.s 			page 19


 701              		.thumb
 702              		.thumb_func
 704              	OLED_Interface_InitSPI:
 705              	.LVL67:
 706              	.LFB141:
 221:../APP/Src/oled_interface.c **** 
 222:../APP/Src/oled_interface.c **** /**
 223:../APP/Src/oled_interface.c ****  * @brief Initialize SPI interface for OLED
 224:../APP/Src/oled_interface.c ****  */
 225:../APP/Src/oled_interface.c **** void OLED_Interface_InitSPI(OLED_Interface_t *iface, void *hspi, bool use_dma)
 226:../APP/Src/oled_interface.c **** {
 707              		.loc 1 226 1 is_stmt 1 view -0
 708              		.cfi_startproc
 709              		@ args = 0, pretend = 0, frame = 0
 710              		@ frame_needed = 0, uses_anonymous_args = 0
 227:../APP/Src/oled_interface.c ****     if (iface == NULL)
 711              		.loc 1 227 5 view .LVU173
 226:../APP/Src/oled_interface.c ****     if (iface == NULL)
 712              		.loc 1 226 1 is_stmt 0 view .LVU174
 713 0000 70B5     		push	{r4, r5, r6, lr}
 714              	.LCFI17:
 715              		.cfi_def_cfa_offset 16
 716              		.cfi_offset 4, -16
 717              		.cfi_offset 5, -12
 718              		.cfi_offset 6, -8
 719              		.cfi_offset 14, -4
 226:../APP/Src/oled_interface.c ****     if (iface == NULL)
 720              		.loc 1 226 1 view .LVU175
 721 0002 0E46     		mov	r6, r1
 722 0004 1546     		mov	r5, r2
 723              		.loc 1 227 8 view .LVU176
 724 0006 0446     		mov	r4, r0
 725 0008 A0B1     		cbz	r0, .L54
 228:../APP/Src/oled_interface.c ****     {
 229:../APP/Src/oled_interface.c ****         return;
 230:../APP/Src/oled_interface.c ****     }
 231:../APP/Src/oled_interface.c **** 
 232:../APP/Src/oled_interface.c ****     memset(iface, 0, sizeof(OLED_Interface_t));
 726              		.loc 1 232 5 is_stmt 1 view .LVU177
 727 000a 2322     		movs	r2, #35
 728              	.LVL68:
 729              		.loc 1 232 5 is_stmt 0 view .LVU178
 730 000c 0021     		movs	r1, #0
 731              	.LVL69:
 732              		.loc 1 232 5 view .LVU179
 733 000e 0130     		adds	r0, r0, #1
 734              	.LVL70:
 735              		.loc 1 232 5 view .LVU180
 736 0010 FFF7FEFF 		bl	memset
 737              	.LVL71:
 233:../APP/Src/oled_interface.c **** 
 234:../APP/Src/oled_interface.c ****     iface->type = OLED_INTERFACE_SPI;
 738              		.loc 1 234 5 is_stmt 1 view .LVU181
 739              		.loc 1 234 17 is_stmt 0 view .LVU182
 740 0014 0123     		movs	r3, #1
 741 0016 2370     		strb	r3, [r4]
 235:../APP/Src/oled_interface.c ****     iface->handle = hspi;
ARM GAS  C:\Users\Dawn\AppData\Local\Temp\ccfIN4gf.s 			page 20


 742              		.loc 1 235 5 is_stmt 1 view .LVU183
 236:../APP/Src/oled_interface.c ****     iface->i2c_addr = 0;
 237:../APP/Src/oled_interface.c **** 
 238:../APP/Src/oled_interface.c ****     iface->send_cmd = OLED_SPI_SendCmd;
 743              		.loc 1 238 21 is_stmt 0 view .LVU184
 744 0018 074B     		ldr	r3, .L63
 745 001a 6360     		str	r3, [r4, #4]
 239:../APP/Src/oled_interface.c ****     iface->send_data = OLED_SPI_SendData;
 746              		.loc 1 239 22 view .LVU185
 747 001c 074B     		ldr	r3, .L63+4
 235:../APP/Src/oled_interface.c ****     iface->handle = hspi;
 748              		.loc 1 235 19 view .LVU186
 749 001e E661     		str	r6, [r4, #28]
 236:../APP/Src/oled_interface.c ****     iface->i2c_addr = 0;
 750              		.loc 1 236 5 is_stmt 1 view .LVU187
 238:../APP/Src/oled_interface.c ****     iface->send_data = OLED_SPI_SendData;
 751              		.loc 1 238 5 view .LVU188
 752              		.loc 1 239 5 view .LVU189
 753              		.loc 1 239 22 is_stmt 0 view .LVU190
 754 0020 A360     		str	r3, [r4, #8]
 240:../APP/Src/oled_interface.c **** 
 241:../APP/Src/oled_interface.c ****     if (use_dma)
 755              		.loc 1 241 5 is_stmt 1 view .LVU191
 756              		.loc 1 241 8 is_stmt 0 view .LVU192
 757 0022 1DB1     		cbz	r5, .L56
 242:../APP/Src/oled_interface.c ****     {
 243:../APP/Src/oled_interface.c ****         iface->send_data_dma = OLED_SPI_SendDataDMA;
 758              		.loc 1 243 9 is_stmt 1 view .LVU193
 759              		.loc 1 243 30 is_stmt 0 view .LVU194
 760 0024 064B     		ldr	r3, .L63+8
 761 0026 E360     		str	r3, [r4, #12]
 244:../APP/Src/oled_interface.c ****         iface->is_dma_busy = OLED_SPI_IsDMABusy;
 762              		.loc 1 244 9 is_stmt 1 view .LVU195
 763              		.loc 1 244 28 is_stmt 0 view .LVU196
 764 0028 064B     		ldr	r3, .L63+12
 765 002a 2361     		str	r3, [r4, #16]
 766              	.L56:
 245:../APP/Src/oled_interface.c ****     }
 246:../APP/Src/oled_interface.c ****     else
 247:../APP/Src/oled_interface.c ****     {
 248:../APP/Src/oled_interface.c ****         iface->send_data_dma = NULL;
 249:../APP/Src/oled_interface.c ****         iface->is_dma_busy = NULL;
 250:../APP/Src/oled_interface.c ****     }
 251:../APP/Src/oled_interface.c **** 
 252:../APP/Src/oled_interface.c ****     iface->delay_ms = OLED_DelayMs;
 767              		.loc 1 252 5 is_stmt 1 view .LVU197
 768              		.loc 1 252 21 is_stmt 0 view .LVU198
 769 002c 064B     		ldr	r3, .L63+16
 770 002e 6361     		str	r3, [r4, #20]
 253:../APP/Src/oled_interface.c ****     iface->reset = OLED_SPI_ResetDisplay;
 771              		.loc 1 253 5 is_stmt 1 view .LVU199
 772              		.loc 1 253 18 is_stmt 0 view .LVU200
 773 0030 064B     		ldr	r3, .L63+20
 774 0032 A361     		str	r3, [r4, #24]
 775              	.L54:
 254:../APP/Src/oled_interface.c **** }
 776              		.loc 1 254 1 view .LVU201
ARM GAS  C:\Users\Dawn\AppData\Local\Temp\ccfIN4gf.s 			page 21


 777 0034 70BD     		pop	{r4, r5, r6, pc}
 778              	.LVL72:
 779              	.L64:
 780              		.loc 1 254 1 view .LVU202
 781 0036 00BF     		.align	2
 782              	.L63:
 783 0038 00000000 		.word	OLED_SPI_SendCmd
 784 003c 00000000 		.word	OLED_SPI_SendData
 785 0040 00000000 		.word	OLED_SPI_SendDataDMA
 786 0044 00000000 		.word	OLED_SPI_IsDMABusy
 787 0048 00000000 		.word	OLED_DelayMs
 788 004c 00000000 		.word	OLED_SPI_ResetDisplay
 789              		.cfi_endproc
 790              	.LFE141:
 792              		.section	.bss.spi_data_buffer,"aw",%nobits
 795              	spi_data_buffer:
 796 0000 00000000 		.space	128
 796      00000000 
 796      00000000 
 796      00000000 
 796      00000000 
 797              		.section	.bss.i2c_data_buffer,"aw",%nobits
 800              	i2c_data_buffer:
 801 0000 00000000 		.space	129
 801      00000000 
 801      00000000 
 801      00000000 
 801      00000000 
 802              		.section	.bss.i2c_cmd_buffer,"aw",%nobits
 805              	i2c_cmd_buffer:
 806 0000 0000     		.space	2
 807              		.text
 808              	.Letext0:
 809              		.file 2 "D:/Tool/arm-gnu-toolchain/arm-none-eabi/include/machine/_default_types.h"
 810              		.file 3 "D:/Tool/arm-gnu-toolchain/arm-none-eabi/include/sys/_stdint.h"
 811              		.file 4 "../firmware/CMSIS/device/n32g430.h"
 812              		.file 5 "../core/inc/hal_compat.h"
 813              		.file 6 "../APP/Inc/oled_interface.h"
 814              		.file 7 "../core/inc/dma.h"
 815              		.file 8 "../core/inc/i2c.h"
 816              		.file 9 "../core/inc/spi.h"
 817              		.file 10 "D:/Tool/arm-gnu-toolchain/arm-none-eabi/include/string.h"
 818              		.file 11 "<built-in>"
ARM GAS  C:\Users\Dawn\AppData\Local\Temp\ccfIN4gf.s 			page 22

