ARM GAS  C:\Users\Dawn\AppData\Local\Temp\ccFlp14a.s 			page 1


   1              		.cpu cortex-m4
   2              		.arch armv7e-m
   3              		.fpu fpv4-sp-d16
   4              		.eabi_attribute 27, 1
   5              		.eabi_attribute 28, 1
   6              		.eabi_attribute 20, 1
   7              		.eabi_attribute 21, 1
   8              		.eabi_attribute 23, 3
   9              		.eabi_attribute 24, 1
  10              		.eabi_attribute 25, 1
  11              		.eabi_attribute 26, 1
  12              		.eabi_attribute 30, 4
  13              		.eabi_attribute 34, 1
  14              		.eabi_attribute 18, 4
  15              		.file	"oled_example.c"
  16              		.text
  17              	.Ltext0:
  18              		.cfi_sections	.debug_frame
  19              		.file 1 "../APP/Src/oled_example.c"
  20              		.section	.rodata.OLED_Example_Main.str1.1,"aMS",%progbits,1
  21              	.LC0:
  22 0000 4F4C4544 		.ascii	"OLED Demo\000"
  22      2044656D 
  22      6F00
  23              	.LC1:
  24 000a 50726F67 		.ascii	"Progress:\000"
  24      72657373 
  24      3A00
  25              		.section	.text.OLED_Example_Main,"ax",%progbits
  26              		.align	1
  27              		.global	OLED_Example_Main
  28              		.syntax unified
  29              		.thumb
  30              		.thumb_func
  32              	OLED_Example_Main:
  33              	.LFB133:
   1:../APP/Src/oled_example.c **** /* USER CODE BEGIN Header */
   2:../APP/Src/oled_example.c **** /**
   3:../APP/Src/oled_example.c ****   ******************************************************************************
   4:../APP/Src/oled_example.c ****   * @file    oled_example.c
   5:../APP/Src/oled_example.c ****   * @brief   OLEDķ®▒ÕŖ©õĮ┐ńö©ńż║õŠŗµ¢ćõ╗Č
   6:../APP/Src/oled_example.c ****   * @note    µŁżµ¢ćõ╗ČÕ▒Ģńż║õ║åÕ”éõĮĢõĮ┐ńö©OLEDķ®▒ÕŖ©ÕÆīUIµ©ĪÕØŚ
   7:../APP/Src/oled_example.c ****   ******************************************************************************
   8:../APP/Src/oled_example.c ****   * @attention
   9:../APP/Src/oled_example.c ****   *
  10:../APP/Src/oled_example.c ****   * Copyright (c) 2025 STMicroelectronics.
  11:../APP/Src/oled_example.c ****   * All rights reserved.
  12:../APP/Src/oled_example.c ****   *
  13:../APP/Src/oled_example.c ****   ******************************************************************************
  14:../APP/Src/oled_example.c ****   */
  15:../APP/Src/oled_example.c **** /* USER CODE END Header */
  16:../APP/Src/oled_example.c **** 
  17:../APP/Src/oled_example.c **** /* Includes ------------------------------------------------------------------*/
  18:../APP/Src/oled_example.c **** #include "oled_driver.h"
  19:../APP/Src/oled_example.c **** #include "oled_ui.h"
  20:../APP/Src/oled_example.c **** #include "oled_config.h"  /* ÕīģÕÉ½ķģŹńĮ«µ¢ćõ╗Č */
  21:../APP/Src/oled_example.c **** #include "i2c.h"
ARM GAS  C:\Users\Dawn\AppData\Local\Temp\ccFlp14a.s 			page 2


  22:../APP/Src/oled_example.c **** 
  23:../APP/Src/oled_example.c **** /* Private variables ---------------------------------------------------------*/
  24:../APP/Src/oled_example.c **** /* ÕĖ¦ń╝ōÕå▓Õī║ - µĀ╣µŹ«Õ▒ÅÕ╣Ģń▒╗Õ×ŗĶć¬ÕŖ©Ķ░āµĢ┤Õż¦Õ░Å */
  25:../APP/Src/oled_example.c **** #if (OLED_SIZE_TYPE == OLED_SIZE_128X64)
  26:../APP/Src/oled_example.c ****     #define OLED_FB_SIZE  (128 * 64 / 8)  /* 1024ÕŁŚĶŖé */
  27:../APP/Src/oled_example.c **** #elif (OLED_SIZE_TYPE == OLED_SIZE_128X32)
  28:../APP/Src/oled_example.c ****     #define OLED_FB_SIZE  (128 * 32 / 8)  /* 512ÕŁŚĶŖé */
  29:../APP/Src/oled_example.c **** #else
  30:../APP/Src/oled_example.c ****     #define OLED_FB_SIZE  (128 * 64 / 8)  /* ķ╗śĶ«ż1024ÕŁŚĶŖé */
  31:../APP/Src/oled_example.c **** #endif
  32:../APP/Src/oled_example.c **** static uint8_t oled_framebuffer[OLED_FB_SIZE];
  33:../APP/Src/oled_example.c **** 
  34:../APP/Src/oled_example.c **** /* OLEDÕÅźµ¤ä */
  35:../APP/Src/oled_example.c **** static OLED_HandleTypeDef holed;
  36:../APP/Src/oled_example.c **** 
  37:../APP/Src/oled_example.c **** /* UIõĖŖõĖŗµ¢ć */
  38:../APP/Src/oled_example.c **** static OLED_UIContext_t ui_ctx;
  39:../APP/Src/oled_example.c **** 
  40:../APP/Src/oled_example.c **** /* ÕŖ©ńö╗ÕÆīUIń╗äõ╗Č */
  41:../APP/Src/oled_example.c **** static OLED_Animation_t progress_anim;
  42:../APP/Src/oled_example.c **** static OLED_ProgressBar_t progress_bar;
  43:../APP/Src/oled_example.c **** 
  44:../APP/Src/oled_example.c **** /* Private function prototypes -----------------------------------------------*/
  45:../APP/Src/oled_example.c **** static void OLED_Example_Init(void);
  46:../APP/Src/oled_example.c **** static void OLED_Example_DrawUI(void);
  47:../APP/Src/oled_example.c **** static void OLED_Example_Animation(void);
  48:../APP/Src/oled_example.c **** 
  49:../APP/Src/oled_example.c **** /* Private functions ---------------------------------------------------------*/
  50:../APP/Src/oled_example.c **** 
  51:../APP/Src/oled_example.c **** /**
  52:../APP/Src/oled_example.c ****   * @brief  OLEDńż║õŠŗÕłØÕ¦ŗÕī¢
  53:../APP/Src/oled_example.c ****   */
  54:../APP/Src/oled_example.c **** static void OLED_Example_Init(void)
  55:../APP/Src/oled_example.c **** {
  56:../APP/Src/oled_example.c ****     /* µ¢╣µ│Ģ1: õĮ┐ńö©ķóäń╝¢Ķ»æÕ«ÅĶć¬ÕŖ©ķģŹńĮ«’╝łµÄ©ĶŹÉ’╝ē */
  57:../APP/Src/oled_example.c ****     OLED_InitAuto(&holed, &hi2c1, OLED_I2C_ADDR_0x78, oled_framebuffer);
  58:../APP/Src/oled_example.c ****     
  59:../APP/Src/oled_example.c ****     /* µ¢╣µ│Ģ2: µēŗÕŖ©µīćÕ«ÜķģŹńĮ« */
  60:../APP/Src/oled_example.c ****     /*
  61:../APP/Src/oled_example.c ****     OLED_Config_t config = OLED_CONFIG_096_SSD1306_128X64;  // µł¢ OLED_CONFIG_091_SSD1306_128X32 µ
  62:../APP/Src/oled_example.c ****     OLED_Init(&holed, &hi2c1, OLED_I2C_ADDR_0x78, &config, oled_framebuffer);
  63:../APP/Src/oled_example.c ****     */
  64:../APP/Src/oled_example.c ****     
  65:../APP/Src/oled_example.c ****     /* ÕłØÕ¦ŗÕī¢UIõĖŖõĖŗµ¢ć’╝łµĀ╣µŹ«Õ▒ÅÕ╣Ģķ½śÕ║”Ķć¬ÕŖ©Ķ░āµĢ┤’╝ē */
  66:../APP/Src/oled_example.c ****     OLED_UI_Begin(&ui_ctx, &holed, 0, 0, holed.width, holed.height);
  67:../APP/Src/oled_example.c ****     
  68:../APP/Src/oled_example.c ****     /* ÕłØÕ¦ŗÕī¢Ķ┐øÕ║”µØĪ */
  69:../APP/Src/oled_example.c ****     progress_bar.x = 10;
  70:../APP/Src/oled_example.c ****     progress_bar.y = 40;
  71:../APP/Src/oled_example.c ****     progress_bar.width = 108;
  72:../APP/Src/oled_example.c ****     progress_bar.height = 10;
  73:../APP/Src/oled_example.c ****     progress_bar.value = 0;
  74:../APP/Src/oled_example.c ****     progress_bar.border_color = 1;
  75:../APP/Src/oled_example.c ****     progress_bar.fill_color = 1;
  76:../APP/Src/oled_example.c ****     
  77:../APP/Src/oled_example.c ****     /* ÕłØÕ¦ŗÕī¢Ķ┐øÕ║”µØĪÕŖ©ńö╗ */
  78:../APP/Src/oled_example.c ****     OLED_UI_AnimInit(&progress_anim, 0.0f, 100.0f, 3000, OLED_Easing_EaseInOutQuad);
ARM GAS  C:\Users\Dawn\AppData\Local\Temp\ccFlp14a.s 			page 3


  79:../APP/Src/oled_example.c ****     progress_anim.loop = true;
  80:../APP/Src/oled_example.c ****     progress_anim.reverse = true;
  81:../APP/Src/oled_example.c ****     OLED_UI_AnimStart(&progress_anim);
  82:../APP/Src/oled_example.c **** }
  83:../APP/Src/oled_example.c **** 
  84:../APP/Src/oled_example.c **** /**
  85:../APP/Src/oled_example.c ****   * @brief  ń╗śÕłČUIńĢīķØó
  86:../APP/Src/oled_example.c ****   */
  87:../APP/Src/oled_example.c **** static void OLED_Example_DrawUI(void)
  88:../APP/Src/oled_example.c **** {
  89:../APP/Src/oled_example.c ****     uint8_t screen_height = holed.height;
  90:../APP/Src/oled_example.c ****     
  91:../APP/Src/oled_example.c ****     /* µĖģń®║Õ▒ÅÕ╣Ģ */
  92:../APP/Src/oled_example.c ****     OLED_Clear(&holed);
  93:../APP/Src/oled_example.c ****     
  94:../APP/Src/oled_example.c ****     /* ń╗śÕłČµĀćķóś */
  95:../APP/Src/oled_example.c ****     OLED_UI_DrawStr(&ui_ctx, 20, 5, "OLED Demo", 1);
  96:../APP/Src/oled_example.c ****     
  97:../APP/Src/oled_example.c ****     /* ń╗śÕłČÕłåķÜöń║┐ */
  98:../APP/Src/oled_example.c ****     OLED_UI_DrawLine(&ui_ctx, 0, 15, 128, 15, 1);
  99:../APP/Src/oled_example.c ****     
 100:../APP/Src/oled_example.c ****     /* µĀ╣µŹ«Õ▒ÅÕ╣Ģķ½śÕ║”Ķ░āµĢ┤ÕĖāÕ▒Ć */
 101:../APP/Src/oled_example.c ****     if (screen_height == 64)
 102:../APP/Src/oled_example.c ****     {
 103:../APP/Src/oled_example.c ****         /* 128x64ÕĖāÕ▒Ć */
 104:../APP/Src/oled_example.c ****         /* ń╗śÕłČõĖĆõ║øÕøŠÕĮó */
 105:../APP/Src/oled_example.c ****         OLED_UI_DrawCircle(&ui_ctx, 20, 30, 8, 1);
 106:../APP/Src/oled_example.c ****         OLED_UI_DrawFilledCircle(&ui_ctx, 50, 30, 8, 1);
 107:../APP/Src/oled_example.c ****         OLED_UI_DrawBox(&ui_ctx, 70, 22, 16, 16, 1);
 108:../APP/Src/oled_example.c ****         OLED_UI_DrawFilledBox(&ui_ctx, 90, 22, 16, 16, 1);
 109:../APP/Src/oled_example.c ****         
 110:../APP/Src/oled_example.c ****         /* ń╗śÕłČĶ┐øÕ║”µØĪ */
 111:../APP/Src/oled_example.c ****         progress_bar.y = 40;
 112:../APP/Src/oled_example.c ****         OLED_UI_DrawAnimatedProgressBar(&ui_ctx, &progress_bar, &progress_anim);
 113:../APP/Src/oled_example.c ****         
 114:../APP/Src/oled_example.c ****         /* ń╗śÕłČµ¢ćµ£¼ */
 115:../APP/Src/oled_example.c ****         OLED_UI_DrawStr(&ui_ctx, 10, 55, "Progress:", 1);
 116:../APP/Src/oled_example.c ****     }
 117:../APP/Src/oled_example.c ****     else if (screen_height == 32)
 118:../APP/Src/oled_example.c ****     {
 119:../APP/Src/oled_example.c ****         /* 128x32ÕĖāÕ▒Ć */
 120:../APP/Src/oled_example.c ****         /* ń╗śÕłČõĖĆõ║øÕøŠÕĮó */
 121:../APP/Src/oled_example.c ****         OLED_UI_DrawCircle(&ui_ctx, 20, 20, 6, 1);
 122:../APP/Src/oled_example.c ****         OLED_UI_DrawFilledCircle(&ui_ctx, 50, 20, 6, 1);
 123:../APP/Src/oled_example.c ****         OLED_UI_DrawBox(&ui_ctx, 70, 14, 12, 12, 1);
 124:../APP/Src/oled_example.c ****         OLED_UI_DrawFilledBox(&ui_ctx, 90, 14, 12, 12, 1);
 125:../APP/Src/oled_example.c ****         
 126:../APP/Src/oled_example.c ****         /* ń╗śÕłČĶ┐øÕ║”µØĪ */
 127:../APP/Src/oled_example.c ****         progress_bar.y = 25;
 128:../APP/Src/oled_example.c ****         progress_bar.height = 6;
 129:../APP/Src/oled_example.c ****         OLED_UI_DrawAnimatedProgressBar(&ui_ctx, &progress_bar, &progress_anim);
 130:../APP/Src/oled_example.c ****     }
 131:../APP/Src/oled_example.c ****     
 132:../APP/Src/oled_example.c ****     /* ÕłĘµ¢░µśŠńż║’╝łõĮ┐ńö©Õó×ķćÅÕłĘµ¢░’╝ē */
 133:../APP/Src/oled_example.c ****     OLED_RefreshDirty(&holed);
 134:../APP/Src/oled_example.c **** }
 135:../APP/Src/oled_example.c **** 
ARM GAS  C:\Users\Dawn\AppData\Local\Temp\ccFlp14a.s 			page 4


 136:../APP/Src/oled_example.c **** /**
 137:../APP/Src/oled_example.c ****   * @brief  ÕŖ©ńö╗ńż║õŠŗ
 138:../APP/Src/oled_example.c ****   */
 139:../APP/Src/oled_example.c **** static void OLED_Example_Animation(void)
 140:../APP/Src/oled_example.c **** {
 141:../APP/Src/oled_example.c ****     static uint32_t last_tick = 0;
 142:../APP/Src/oled_example.c ****     uint32_t current_tick = HAL_GetTick();
 143:../APP/Src/oled_example.c ****     uint32_t delta_ms = current_tick - last_tick;
 144:../APP/Src/oled_example.c ****     
 145:../APP/Src/oled_example.c ****     if (delta_ms > 50) /* ķÖÉÕłČµø┤µ¢░ķóæńÄć */
 146:../APP/Src/oled_example.c ****     {
 147:../APP/Src/oled_example.c ****         /* µø┤µ¢░ÕŖ©ńö╗ */
 148:../APP/Src/oled_example.c ****         OLED_UI_AnimUpdate(&progress_anim, delta_ms);
 149:../APP/Src/oled_example.c ****         
 150:../APP/Src/oled_example.c ****         /* ķćŹµ¢░ń╗śÕłČUI */
 151:../APP/Src/oled_example.c ****         OLED_Example_DrawUI();
 152:../APP/Src/oled_example.c ****         
 153:../APP/Src/oled_example.c ****         last_tick = current_tick;
 154:../APP/Src/oled_example.c ****     }
 155:../APP/Src/oled_example.c **** }
 156:../APP/Src/oled_example.c **** 
 157:../APP/Src/oled_example.c **** /* Public functions ----------------------------------------------------------*/
 158:../APP/Src/oled_example.c **** 
 159:../APP/Src/oled_example.c **** /**
 160:../APP/Src/oled_example.c ****   * @brief  OLEDńż║õŠŗõĖ╗ÕćĮµĢ░’╝łÕ£©main.cńÜäwhileÕŠ¬ńÄ»õĖŁĶ░āńö©’╝ē
 161:../APP/Src/oled_example.c ****   */
 162:../APP/Src/oled_example.c **** void OLED_Example_Main(void)
 163:../APP/Src/oled_example.c **** {
  34              		.loc 1 163 1 view -0
  35              		.cfi_startproc
  36              		@ args = 0, pretend = 0, frame = 0
  37              		@ frame_needed = 0, uses_anonymous_args = 0
 164:../APP/Src/oled_example.c ****     static bool initialized = false;
  38              		.loc 1 164 5 view .LVU1
 165:../APP/Src/oled_example.c ****     
 166:../APP/Src/oled_example.c ****     if (!initialized)
  39              		.loc 1 166 5 view .LVU2
 163:../APP/Src/oled_example.c ****     static bool initialized = false;
  40              		.loc 1 163 1 is_stmt 0 view .LVU3
  41 0000 F7B5     		push	{r0, r1, r2, r4, r5, r6, r7, lr}
  42              	.LCFI0:
  43              		.cfi_def_cfa_offset 32
  44              		.cfi_offset 4, -20
  45              		.cfi_offset 5, -16
  46              		.cfi_offset 6, -12
  47              		.cfi_offset 7, -8
  48              		.cfi_offset 14, -4
  49              		.loc 1 166 9 view .LVU4
  50 0002 5A4E     		ldr	r6, .L6
  51              		.loc 1 166 8 view .LVU5
  52 0004 3478     		ldrb	r4, [r6]	@ zero_extendqisi2
  53 0006 7CBB     		cbnz	r4, .L2
 167:../APP/Src/oled_example.c ****     {
 168:../APP/Src/oled_example.c ****         OLED_Example_Init();
  54              		.loc 1 168 9 is_stmt 1 view .LVU6
  55              	.LBB8:
  56              	.LBI8:
ARM GAS  C:\Users\Dawn\AppData\Local\Temp\ccFlp14a.s 			page 5


  54:../APP/Src/oled_example.c **** {
  57              		.loc 1 54 13 view .LVU7
  58              	.LBB9:
  57:../APP/Src/oled_example.c ****     
  59              		.loc 1 57 5 view .LVU8
  60 0008 594D     		ldr	r5, .L6+4
  61 000a 5A4B     		ldr	r3, .L6+8
  62 000c 5A49     		ldr	r1, .L6+12
  63 000e 7822     		movs	r2, #120
  64 0010 2846     		mov	r0, r5
  65 0012 FFF7FEFF 		bl	OLED_InitAuto
  66              	.LVL0:
  66:../APP/Src/oled_example.c ****     
  67              		.loc 1 66 5 view .LVU9
  68 0016 6B7E     		ldrb	r3, [r5, #25]	@ zero_extendqisi2
  69 0018 0193     		str	r3, [sp, #4]
  70 001a 2B7E     		ldrb	r3, [r5, #24]	@ zero_extendqisi2
  71 001c 5748     		ldr	r0, .L6+16
  72 001e 0093     		str	r3, [sp]
  73 0020 2246     		mov	r2, r4
  74 0022 2346     		mov	r3, r4
  75 0024 2946     		mov	r1, r5
  76 0026 FFF7FEFF 		bl	OLED_UI_Begin
  77              	.LVL1:
  69:../APP/Src/oled_example.c ****     progress_bar.y = 40;
  78              		.loc 1 69 5 view .LVU10
  69:../APP/Src/oled_example.c ****     progress_bar.y = 40;
  79              		.loc 1 69 20 is_stmt 0 view .LVU11
  80 002a 554B     		ldr	r3, .L6+20
  78:../APP/Src/oled_example.c ****     progress_anim.loop = true;
  81              		.loc 1 78 5 view .LVU12
  82 002c DFED550A 		vldr.32	s1, .L6+24
  73:../APP/Src/oled_example.c ****     progress_bar.border_color = 1;
  83              		.loc 1 73 24 view .LVU13
  84 0030 1C71     		strb	r4, [r3, #4]
  70:../APP/Src/oled_example.c ****     progress_bar.width = 108;
  85              		.loc 1 70 20 view .LVU14
  86 0032 2821     		movs	r1, #40
  87 0034 5970     		strb	r1, [r3, #1]
  69:../APP/Src/oled_example.c ****     progress_bar.y = 40;
  88              		.loc 1 69 20 view .LVU15
  89 0036 0A22     		movs	r2, #10
  74:../APP/Src/oled_example.c ****     progress_bar.fill_color = 1;
  90              		.loc 1 74 31 view .LVU16
  91 0038 0124     		movs	r4, #1
  71:../APP/Src/oled_example.c ****     progress_bar.height = 10;
  92              		.loc 1 71 24 view .LVU17
  93 003a 6C21     		movs	r1, #108
  94 003c 9970     		strb	r1, [r3, #2]
  69:../APP/Src/oled_example.c ****     progress_bar.y = 40;
  95              		.loc 1 69 20 view .LVU18
  96 003e 1A70     		strb	r2, [r3]
  70:../APP/Src/oled_example.c ****     progress_bar.width = 108;
  97              		.loc 1 70 5 is_stmt 1 view .LVU19
  71:../APP/Src/oled_example.c ****     progress_bar.height = 10;
  98              		.loc 1 71 5 view .LVU20
  72:../APP/Src/oled_example.c ****     progress_bar.value = 0;
ARM GAS  C:\Users\Dawn\AppData\Local\Temp\ccFlp14a.s 			page 6


  99              		.loc 1 72 5 view .LVU21
  72:../APP/Src/oled_example.c ****     progress_bar.value = 0;
 100              		.loc 1 72 25 is_stmt 0 view .LVU22
 101 0040 DA70     		strb	r2, [r3, #3]
  73:../APP/Src/oled_example.c ****     progress_bar.border_color = 1;
 102              		.loc 1 73 5 is_stmt 1 view .LVU23
  74:../APP/Src/oled_example.c ****     progress_bar.fill_color = 1;
 103              		.loc 1 74 5 view .LVU24
  74:../APP/Src/oled_example.c ****     progress_bar.fill_color = 1;
 104              		.loc 1 74 31 is_stmt 0 view .LVU25
 105 0042 5C71     		strb	r4, [r3, #5]
  75:../APP/Src/oled_example.c ****     
 106              		.loc 1 75 5 is_stmt 1 view .LVU26
  75:../APP/Src/oled_example.c ****     
 107              		.loc 1 75 29 is_stmt 0 view .LVU27
 108 0044 9C71     		strb	r4, [r3, #6]
  78:../APP/Src/oled_example.c ****     progress_anim.loop = true;
 109              		.loc 1 78 5 is_stmt 1 view .LVU28
 110 0046 504B     		ldr	r3, .L6+28
 111 0048 9FED500A 		vldr.32	s0, .L6+32
 112 004c 1A68     		ldr	r2, [r3]
 113 004e 5048     		ldr	r0, .L6+36
 114 0050 40F6B831 		movw	r1, #3000
 115 0054 FFF7FEFF 		bl	OLED_UI_AnimInit
 116              	.LVL2:
  79:../APP/Src/oled_example.c ****     progress_anim.reverse = true;
 117              		.loc 1 79 5 view .LVU29
  80:../APP/Src/oled_example.c ****     OLED_UI_AnimStart(&progress_anim);
 118              		.loc 1 80 5 view .LVU30
  79:../APP/Src/oled_example.c ****     progress_anim.reverse = true;
 119              		.loc 1 79 24 is_stmt 0 view .LVU31
 120 0058 4D4A     		ldr	r2, .L6+36
 121 005a 40F20113 		movw	r3, #257
  81:../APP/Src/oled_example.c **** }
 122              		.loc 1 81 5 view .LVU32
 123 005e 1046     		mov	r0, r2
  79:../APP/Src/oled_example.c ****     progress_anim.reverse = true;
 124              		.loc 1 79 24 view .LVU33
 125 0060 9383     		strh	r3, [r2, #28]	@ movhi
  81:../APP/Src/oled_example.c **** }
 126              		.loc 1 81 5 is_stmt 1 view .LVU34
 127 0062 FFF7FEFF 		bl	OLED_UI_AnimStart
 128              	.LVL3:
 129              	.LBE9:
 130              	.LBE8:
 169:../APP/Src/oled_example.c ****         initialized = true;
 131              		.loc 1 169 9 view .LVU35
 132              		.loc 1 169 21 is_stmt 0 view .LVU36
 133 0066 3470     		strb	r4, [r6]
 134              	.L2:
 170:../APP/Src/oled_example.c ****     }
 171:../APP/Src/oled_example.c ****     
 172:../APP/Src/oled_example.c ****     /* µē¦ĶĪīÕŖ©ńö╗ */
 173:../APP/Src/oled_example.c ****     OLED_Example_Animation();
 135              		.loc 1 173 5 is_stmt 1 view .LVU37
 136              	.LBB10:
 137              	.LBI10:
ARM GAS  C:\Users\Dawn\AppData\Local\Temp\ccFlp14a.s 			page 7


 139:../APP/Src/oled_example.c **** {
 138              		.loc 1 139 13 view .LVU38
 139              	.LBB11:
 141:../APP/Src/oled_example.c ****     uint32_t current_tick = HAL_GetTick();
 140              		.loc 1 141 5 view .LVU39
 142:../APP/Src/oled_example.c ****     uint32_t delta_ms = current_tick - last_tick;
 141              		.loc 1 142 5 view .LVU40
 143:../APP/Src/oled_example.c ****     
 142              		.loc 1 143 38 is_stmt 0 view .LVU41
 143 0068 4A4F     		ldr	r7, .L6+40
 142:../APP/Src/oled_example.c ****     uint32_t delta_ms = current_tick - last_tick;
 144              		.loc 1 142 29 view .LVU42
 145 006a FFF7FEFF 		bl	HAL_GetTick
 146              	.LVL4:
 143:../APP/Src/oled_example.c ****     
 147              		.loc 1 143 14 view .LVU43
 148 006e 3968     		ldr	r1, [r7]
 149 0070 411A     		subs	r1, r0, r1
 145:../APP/Src/oled_example.c ****     {
 150              		.loc 1 145 8 view .LVU44
 151 0072 3229     		cmp	r1, #50
 142:../APP/Src/oled_example.c ****     uint32_t delta_ms = current_tick - last_tick;
 152              		.loc 1 142 29 view .LVU45
 153 0074 0546     		mov	r5, r0
 154              	.LVL5:
 143:../APP/Src/oled_example.c ****     
 155              		.loc 1 143 5 is_stmt 1 view .LVU46
 145:../APP/Src/oled_example.c ****     {
 156              		.loc 1 145 5 view .LVU47
 145:../APP/Src/oled_example.c ****     {
 157              		.loc 1 145 8 is_stmt 0 view .LVU48
 158 0076 4AD9     		bls	.L1
 148:../APP/Src/oled_example.c ****         
 159              		.loc 1 148 9 is_stmt 1 view .LVU49
 160 0078 4548     		ldr	r0, .L6+36
 161              	.LVL6:
 148:../APP/Src/oled_example.c ****         
 162              		.loc 1 148 9 is_stmt 0 view .LVU50
 163 007a FFF7FEFF 		bl	OLED_UI_AnimUpdate
 164              	.LVL7:
 151:../APP/Src/oled_example.c ****         
 165              		.loc 1 151 9 is_stmt 1 view .LVU51
 166              	.LBB12:
 167              	.LBI12:
  87:../APP/Src/oled_example.c **** {
 168              		.loc 1 87 13 view .LVU52
 169              	.LBB13:
  89:../APP/Src/oled_example.c ****     
 170              		.loc 1 89 5 view .LVU53
  89:../APP/Src/oled_example.c ****     
 171              		.loc 1 89 13 is_stmt 0 view .LVU54
 172 007e 3C48     		ldr	r0, .L6+4
  95:../APP/Src/oled_example.c ****     
 173              		.loc 1 95 5 view .LVU55
 174 0080 0124     		movs	r4, #1
  89:../APP/Src/oled_example.c ****     
 175              		.loc 1 89 13 view .LVU56
ARM GAS  C:\Users\Dawn\AppData\Local\Temp\ccFlp14a.s 			page 8


 176 0082 467E     		ldrb	r6, [r0, #25]	@ zero_extendqisi2
 177              	.LVL8:
  92:../APP/Src/oled_example.c ****     
 178              		.loc 1 92 5 is_stmt 1 view .LVU57
 179 0084 FFF7FEFF 		bl	OLED_Clear
 180              	.LVL9:
  95:../APP/Src/oled_example.c ****     
 181              		.loc 1 95 5 view .LVU58
 182 0088 434B     		ldr	r3, .L6+44
 183 008a 3C48     		ldr	r0, .L6+16
 184 008c 0094     		str	r4, [sp]
 185 008e 0522     		movs	r2, #5
 186 0090 1421     		movs	r1, #20
 187 0092 FFF7FEFF 		bl	OLED_UI_DrawStr
 188              	.LVL10:
  98:../APP/Src/oled_example.c ****     
 189              		.loc 1 98 5 view .LVU59
 190 0096 0F22     		movs	r2, #15
 191 0098 3848     		ldr	r0, .L6+16
 192 009a 0194     		str	r4, [sp, #4]
 193 009c 0092     		str	r2, [sp]
 194 009e 8023     		movs	r3, #128
 195 00a0 0021     		movs	r1, #0
 196 00a2 FFF7FEFF 		bl	OLED_UI_DrawLine
 197              	.LVL11:
 101:../APP/Src/oled_example.c ****     {
 198              		.loc 1 101 5 view .LVU60
 101:../APP/Src/oled_example.c ****     {
 199              		.loc 1 101 8 is_stmt 0 view .LVU61
 200 00a6 402E     		cmp	r6, #64
 201 00a8 33D1     		bne	.L4
 105:../APP/Src/oled_example.c ****         OLED_UI_DrawFilledCircle(&ui_ctx, 50, 30, 8, 1);
 202              		.loc 1 105 9 is_stmt 1 view .LVU62
 203 00aa 3448     		ldr	r0, .L6+16
 204 00ac 0094     		str	r4, [sp]
 205 00ae 0823     		movs	r3, #8
 206 00b0 1E22     		movs	r2, #30
 207 00b2 1421     		movs	r1, #20
 208 00b4 FFF7FEFF 		bl	OLED_UI_DrawCircle
 209              	.LVL12:
 106:../APP/Src/oled_example.c ****         OLED_UI_DrawBox(&ui_ctx, 70, 22, 16, 16, 1);
 210              		.loc 1 106 9 view .LVU63
 107:../APP/Src/oled_example.c ****         OLED_UI_DrawFilledBox(&ui_ctx, 90, 22, 16, 16, 1);
 211              		.loc 1 107 9 is_stmt 0 view .LVU64
 212 00b8 1026     		movs	r6, #16
 213              	.LVL13:
 106:../APP/Src/oled_example.c ****         OLED_UI_DrawBox(&ui_ctx, 70, 22, 16, 16, 1);
 214              		.loc 1 106 9 view .LVU65
 215 00ba 3048     		ldr	r0, .L6+16
 216 00bc 0094     		str	r4, [sp]
 217 00be 0823     		movs	r3, #8
 218 00c0 1E22     		movs	r2, #30
 219 00c2 3221     		movs	r1, #50
 220 00c4 FFF7FEFF 		bl	OLED_UI_DrawFilledCircle
 221              	.LVL14:
 107:../APP/Src/oled_example.c ****         OLED_UI_DrawFilledBox(&ui_ctx, 90, 22, 16, 16, 1);
 222              		.loc 1 107 9 is_stmt 1 view .LVU66
ARM GAS  C:\Users\Dawn\AppData\Local\Temp\ccFlp14a.s 			page 9


 223 00c8 2C48     		ldr	r0, .L6+16
 224 00ca 0194     		str	r4, [sp, #4]
 225 00cc 3346     		mov	r3, r6
 226 00ce 1622     		movs	r2, #22
 227 00d0 4621     		movs	r1, #70
 228 00d2 0096     		str	r6, [sp]
 229 00d4 FFF7FEFF 		bl	OLED_UI_DrawBox
 230              	.LVL15:
 108:../APP/Src/oled_example.c ****         
 231              		.loc 1 108 9 view .LVU67
 232 00d8 2848     		ldr	r0, .L6+16
 233 00da 3346     		mov	r3, r6
 234 00dc 1622     		movs	r2, #22
 235 00de 5A21     		movs	r1, #90
 236 00e0 CDE90064 		strd	r6, r4, [sp]
 237 00e4 FFF7FEFF 		bl	OLED_UI_DrawFilledBox
 238              	.LVL16:
 111:../APP/Src/oled_example.c ****         OLED_UI_DrawAnimatedProgressBar(&ui_ctx, &progress_bar, &progress_anim);
 239              		.loc 1 111 9 view .LVU68
 111:../APP/Src/oled_example.c ****         OLED_UI_DrawAnimatedProgressBar(&ui_ctx, &progress_bar, &progress_anim);
 240              		.loc 1 111 24 is_stmt 0 view .LVU69
 241 00e8 254A     		ldr	r2, .L6+20
 112:../APP/Src/oled_example.c ****         
 242              		.loc 1 112 9 view .LVU70
 243 00ea 2549     		ldr	r1, .L6+20
 244 00ec 2348     		ldr	r0, .L6+16
 111:../APP/Src/oled_example.c ****         OLED_UI_DrawAnimatedProgressBar(&ui_ctx, &progress_bar, &progress_anim);
 245              		.loc 1 111 24 view .LVU71
 246 00ee 2823     		movs	r3, #40
 247 00f0 5370     		strb	r3, [r2, #1]
 112:../APP/Src/oled_example.c ****         
 248              		.loc 1 112 9 is_stmt 1 view .LVU72
 249 00f2 274A     		ldr	r2, .L6+36
 250 00f4 FFF7FEFF 		bl	OLED_UI_DrawAnimatedProgressBar
 251              	.LVL17:
 115:../APP/Src/oled_example.c ****     }
 252              		.loc 1 115 9 view .LVU73
 253 00f8 284B     		ldr	r3, .L6+48
 254 00fa 2048     		ldr	r0, .L6+16
 255 00fc 0094     		str	r4, [sp]
 256 00fe 3722     		movs	r2, #55
 257 0100 0A21     		movs	r1, #10
 258 0102 FFF7FEFF 		bl	OLED_UI_DrawStr
 259              	.LVL18:
 260              	.L5:
 133:../APP/Src/oled_example.c **** }
 261              		.loc 1 133 5 view .LVU74
 262 0106 1A48     		ldr	r0, .L6+4
 263 0108 FFF7FEFF 		bl	OLED_RefreshDirty
 264              	.LVL19:
 133:../APP/Src/oled_example.c **** }
 265              		.loc 1 133 5 is_stmt 0 view .LVU75
 266              	.LBE13:
 267              	.LBE12:
 153:../APP/Src/oled_example.c ****     }
 268              		.loc 1 153 9 is_stmt 1 view .LVU76
 153:../APP/Src/oled_example.c ****     }
ARM GAS  C:\Users\Dawn\AppData\Local\Temp\ccFlp14a.s 			page 10


 269              		.loc 1 153 19 is_stmt 0 view .LVU77
 270 010c 3D60     		str	r5, [r7]
 271              	.LVL20:
 272              	.L1:
 153:../APP/Src/oled_example.c ****     }
 273              		.loc 1 153 19 view .LVU78
 274              	.LBE11:
 275              	.LBE10:
 174:../APP/Src/oled_example.c **** }
 276              		.loc 1 174 1 view .LVU79
 277 010e 03B0     		add	sp, sp, #12
 278              	.LCFI1:
 279              		.cfi_remember_state
 280              		.cfi_def_cfa_offset 20
 281              		@ sp needed
 282 0110 F0BD     		pop	{r4, r5, r6, r7, pc}
 283              	.LVL21:
 284              	.L4:
 285              	.LCFI2:
 286              		.cfi_restore_state
 287              	.LBB17:
 288              	.LBB16:
 289              	.LBB15:
 290              	.LBB14:
 117:../APP/Src/oled_example.c ****     {
 291              		.loc 1 117 10 is_stmt 1 view .LVU80
 117:../APP/Src/oled_example.c ****     {
 292              		.loc 1 117 13 is_stmt 0 view .LVU81
 293 0112 202E     		cmp	r6, #32
 294 0114 F7D1     		bne	.L5
 121:../APP/Src/oled_example.c ****         OLED_UI_DrawFilledCircle(&ui_ctx, 50, 20, 6, 1);
 295              		.loc 1 121 9 is_stmt 1 view .LVU82
 296 0116 1422     		movs	r2, #20
 297 0118 1146     		mov	r1, r2
 298 011a 1848     		ldr	r0, .L6+16
 299 011c 0094     		str	r4, [sp]
 300 011e 0623     		movs	r3, #6
 301 0120 FFF7FEFF 		bl	OLED_UI_DrawCircle
 302              	.LVL22:
 122:../APP/Src/oled_example.c ****         OLED_UI_DrawBox(&ui_ctx, 70, 14, 12, 12, 1);
 303              		.loc 1 122 9 view .LVU83
 123:../APP/Src/oled_example.c ****         OLED_UI_DrawFilledBox(&ui_ctx, 90, 14, 12, 12, 1);
 304              		.loc 1 123 9 is_stmt 0 view .LVU84
 305 0124 0C26     		movs	r6, #12
 306              	.LVL23:
 122:../APP/Src/oled_example.c ****         OLED_UI_DrawBox(&ui_ctx, 70, 14, 12, 12, 1);
 307              		.loc 1 122 9 view .LVU85
 308 0126 1548     		ldr	r0, .L6+16
 309 0128 0094     		str	r4, [sp]
 310 012a 0623     		movs	r3, #6
 311 012c 1422     		movs	r2, #20
 312 012e 3221     		movs	r1, #50
 313 0130 FFF7FEFF 		bl	OLED_UI_DrawFilledCircle
 314              	.LVL24:
 123:../APP/Src/oled_example.c ****         OLED_UI_DrawFilledBox(&ui_ctx, 90, 14, 12, 12, 1);
 315              		.loc 1 123 9 is_stmt 1 view .LVU86
 316 0134 3346     		mov	r3, r6
ARM GAS  C:\Users\Dawn\AppData\Local\Temp\ccFlp14a.s 			page 11


 317 0136 1148     		ldr	r0, .L6+16
 318 0138 0194     		str	r4, [sp, #4]
 319 013a 0096     		str	r6, [sp]
 320 013c 0E22     		movs	r2, #14
 321 013e 4621     		movs	r1, #70
 322 0140 FFF7FEFF 		bl	OLED_UI_DrawBox
 323              	.LVL25:
 124:../APP/Src/oled_example.c ****         
 324              		.loc 1 124 9 view .LVU87
 325 0144 3346     		mov	r3, r6
 326 0146 CDE90064 		strd	r6, r4, [sp]
 327 014a 0C48     		ldr	r0, .L6+16
 328 014c 0E22     		movs	r2, #14
 329 014e 5A21     		movs	r1, #90
 330 0150 FFF7FEFF 		bl	OLED_UI_DrawFilledBox
 331              	.LVL26:
 127:../APP/Src/oled_example.c ****         progress_bar.height = 6;
 332              		.loc 1 127 9 view .LVU88
 127:../APP/Src/oled_example.c ****         progress_bar.height = 6;
 333              		.loc 1 127 24 is_stmt 0 view .LVU89
 334 0154 0A4A     		ldr	r2, .L6+20
 129:../APP/Src/oled_example.c ****     }
 335              		.loc 1 129 9 view .LVU90
 336 0156 0A49     		ldr	r1, .L6+20
 337 0158 0848     		ldr	r0, .L6+16
 127:../APP/Src/oled_example.c ****         progress_bar.height = 6;
 338              		.loc 1 127 24 view .LVU91
 339 015a 1923     		movs	r3, #25
 340 015c 5370     		strb	r3, [r2, #1]
 128:../APP/Src/oled_example.c ****         OLED_UI_DrawAnimatedProgressBar(&ui_ctx, &progress_bar, &progress_anim);
 341              		.loc 1 128 9 is_stmt 1 view .LVU92
 128:../APP/Src/oled_example.c ****         OLED_UI_DrawAnimatedProgressBar(&ui_ctx, &progress_bar, &progress_anim);
 342              		.loc 1 128 29 is_stmt 0 view .LVU93
 343 015e 0623     		movs	r3, #6
 344 0160 D370     		strb	r3, [r2, #3]
 129:../APP/Src/oled_example.c ****     }
 345              		.loc 1 129 9 is_stmt 1 view .LVU94
 346 0162 0B4A     		ldr	r2, .L6+36
 347 0164 FFF7FEFF 		bl	OLED_UI_DrawAnimatedProgressBar
 348              	.LVL27:
 349 0168 CDE7     		b	.L5
 350              	.L7:
 351 016a 00BF     		.align	2
 352              	.L6:
 353 016c 00000000 		.word	initialized.1
 354 0170 00000000 		.word	holed
 355 0174 00000000 		.word	oled_framebuffer
 356 0178 00000000 		.word	hi2c1
 357 017c 00000000 		.word	ui_ctx
 358 0180 00000000 		.word	progress_bar
 359 0184 0000C842 		.word	1120403456
 360 0188 00000000 		.word	OLED_Easing_EaseInOutQuad
 361 018c 00000000 		.word	0
 362 0190 00000000 		.word	progress_anim
 363 0194 00000000 		.word	last_tick.0
 364 0198 00000000 		.word	.LC0
 365 019c 0A000000 		.word	.LC1
ARM GAS  C:\Users\Dawn\AppData\Local\Temp\ccFlp14a.s 			page 12


 366              	.LBE14:
 367              	.LBE15:
 368              	.LBE16:
 369              	.LBE17:
 370              		.cfi_endproc
 371              	.LFE133:
 373              		.section	.bss.last_tick.0,"aw",%nobits
 374              		.align	2
 377              	last_tick.0:
 378 0000 00000000 		.space	4
 379              		.section	.bss.initialized.1,"aw",%nobits
 382              	initialized.1:
 383 0000 00       		.space	1
 384              		.section	.bss.progress_bar,"aw",%nobits
 387              	progress_bar:
 388 0000 00000000 		.space	7
 388      000000
 389              		.section	.bss.progress_anim,"aw",%nobits
 390              		.align	2
 393              	progress_anim:
 394 0000 00000000 		.space	32
 394      00000000 
 394      00000000 
 394      00000000 
 394      00000000 
 395              		.section	.bss.ui_ctx,"aw",%nobits
 396              		.align	2
 399              	ui_ctx:
 400 0000 00000000 		.space	12
 400      00000000 
 400      00000000 
 401              		.section	.bss.holed,"aw",%nobits
 402              		.align	2
 405              	holed:
 406 0000 00000000 		.space	60
 406      00000000 
 406      00000000 
 406      00000000 
 406      00000000 
 407              		.section	.bss.oled_framebuffer,"aw",%nobits
 410              	oled_framebuffer:
 411 0000 00000000 		.space	1024
 411      00000000 
 411      00000000 
 411      00000000 
 411      00000000 
 412              		.text
 413              	.Letext0:
 414              		.file 2 "D:/Tools/arm-gnu-toolchain/arm-none-eabi/include/machine/_default_types.h"
 415              		.file 3 "D:/Tools/arm-gnu-toolchain/arm-none-eabi/include/sys/_stdint.h"
 416              		.file 4 "../firmware/CMSIS/device/n32g430.h"
 417              		.file 5 "../core/inc/hal_compat.h"
 418              		.file 6 "../core/inc/dma.h"
 419              		.file 7 "../core/inc/i2c.h"
 420              		.file 8 "../APP/Inc/oled_driver.h"
 421              		.file 9 "../APP/Inc/oled_ui.h"
ARM GAS  C:\Users\Dawn\AppData\Local\Temp\ccFlp14a.s 			page 13

