ARM GAS  C:\Users\Dawn\AppData\Local\Temp\ccjj2FMF.s 			page 1


   1              		.cpu cortex-m4
   2              		.arch armv7e-m
   3              		.fpu fpv4-sp-d16
   4              		.eabi_attribute 27, 1
   5              		.eabi_attribute 28, 1
   6              		.eabi_attribute 20, 1
   7              		.eabi_attribute 21, 1
   8              		.eabi_attribute 23, 3
   9              		.eabi_attribute 24, 1
  10              		.eabi_attribute 25, 1
  11              		.eabi_attribute 26, 1
  12              		.eabi_attribute 30, 4
  13              		.eabi_attribute 34, 1
  14              		.eabi_attribute 18, 4
  15              		.file	"spi.c"
  16              		.text
  17              	.Ltext0:
  18              		.cfi_sections	.debug_frame
  19              		.file 1 "../core/src/spi.c"
  20              		.section	.text.MX_SPI1_Init,"ax",%progbits
  21              		.align	1
  22              		.global	MX_SPI1_Init
  23              		.syntax unified
  24              		.thumb
  25              		.thumb_func
  27              	MX_SPI1_Init:
  28              	.LFB130:
   1:../core/src/spi.c **** /**
   2:../core/src/spi.c ****  * @file spi.c
   3:../core/src/spi.c ****  * @brief SPI HAL-compatible implementation for OLED display with DMA support.
   4:../core/src/spi.c ****  */
   5:../core/src/spi.c **** 
   6:../core/src/spi.c **** #include "spi.h"
   7:../core/src/spi.c **** #include "n32g430_rcc.h"
   8:../core/src/spi.c **** #include "misc.h"
   9:../core/src/spi.c **** 
  10:../core/src/spi.c **** #define SPI_TIMEOUT_MS 100U
  11:../core/src/spi.c **** 
  12:../core/src/spi.c **** SPI_HandleTypeDef hspi1;
  13:../core/src/spi.c **** 
  14:../core/src/spi.c **** static void SPI_DMA_TxCplt(DMA_HandleTypeDef *hdma);
  15:../core/src/spi.c **** 
  16:../core/src/spi.c **** #ifdef DISPLAY_USE_LCD
  17:../core/src/spi.c **** /* Forward declaration for LCD DMA callback */
  18:../core/src/spi.c **** void HAL_SPI_TxCpltCallback_LCD(SPI_HandleTypeDef *hspi);
  19:../core/src/spi.c **** #endif
  20:../core/src/spi.c **** 
  21:../core/src/spi.c **** /**
  22:../core/src/spi.c ****  * @brief Initialize SPI1 for OLED
  23:../core/src/spi.c ****  * @note  PA5: SCK (AF0), PA7: MOSI (AF0)
  24:../core/src/spi.c ****  *        PA6: RES (GPIO output)
  25:../core/src/spi.c ****  *        PB0: DC (GPIO output)
  26:../core/src/spi.c ****  *        PB1: CS (GPIO output)
  27:../core/src/spi.c ****  */
  28:../core/src/spi.c **** void MX_SPI1_Init(void)
  29:../core/src/spi.c **** {
  29              		.loc 1 29 1 view -0
ARM GAS  C:\Users\Dawn\AppData\Local\Temp\ccjj2FMF.s 			page 2


  30              		.cfi_startproc
  31              		@ args = 0, pretend = 0, frame = 48
  32              		@ frame_needed = 0, uses_anonymous_args = 0
  30:../core/src/spi.c ****     GPIO_InitType GPIO_InitStructure;
  33              		.loc 1 30 5 view .LVU1
  31:../core/src/spi.c ****     SPI_InitType SPI_InitStructure;
  34              		.loc 1 31 5 view .LVU2
  32:../core/src/spi.c **** 
  33:../core/src/spi.c ****     /* Enable GPIO and SPI clocks */
  34:../core/src/spi.c ****     RCC_AHB_Peripheral_Clock_Enable(RCC_AHB_PERIPH_GPIOA | RCC_AHB_PERIPH_GPIOB);
  35              		.loc 1 34 5 view .LVU3
  29:../core/src/spi.c ****     GPIO_InitType GPIO_InitStructure;
  36              		.loc 1 29 1 is_stmt 0 view .LVU4
  37 0000 F0B5     		push	{r4, r5, r6, r7, lr}
  38              	.LCFI0:
  39              		.cfi_def_cfa_offset 20
  40              		.cfi_offset 4, -20
  41              		.cfi_offset 5, -16
  42              		.cfi_offset 6, -12
  43              		.cfi_offset 7, -8
  44              		.cfi_offset 14, -4
  45              		.loc 1 34 5 view .LVU5
  46 0002 4FF4C070 		mov	r0, #384
  29:../core/src/spi.c ****     GPIO_InitType GPIO_InitStructure;
  47              		.loc 1 29 1 view .LVU6
  48 0006 8DB0     		sub	sp, sp, #52
  49              	.LCFI1:
  50              		.cfi_def_cfa_offset 72
  51              		.loc 1 34 5 view .LVU7
  52 0008 FFF7FEFF 		bl	RCC_AHB_Peripheral_Clock_Enable
  53              	.LVL0:
  35:../core/src/spi.c ****     RCC_APB2_Peripheral_Clock_Enable(RCC_APB2_PERIPH_AFIO | RCC_APB2_PERIPH_SPI1);
  54              		.loc 1 35 5 is_stmt 1 view .LVU8
  55 000c 41F20100 		movw	r0, #4097
  56 0010 FFF7FEFF 		bl	RCC_APB2_Peripheral_Clock_Enable
  57              	.LVL1:
  36:../core/src/spi.c **** 
  37:../core/src/spi.c ****     /* Configure SPI1 pins: PA5 (SCK), PA7 (MOSI) - AF1 for SPI1 */
  38:../core/src/spi.c ****     GPIO_Structure_Initialize(&GPIO_InitStructure);
  58              		.loc 1 38 5 view .LVU9
  59 0014 06A8     		add	r0, sp, #24
  60 0016 FFF7FEFF 		bl	GPIO_Structure_Initialize
  61              	.LVL2:
  39:../core/src/spi.c ****     GPIO_InitStructure.Pin              = GPIO_PIN_5 | GPIO_PIN_7;
  62              		.loc 1 39 5 view .LVU10
  40:../core/src/spi.c ****     GPIO_InitStructure.GPIO_Mode        = GPIO_MODE_AF_PP;
  41:../core/src/spi.c ****     GPIO_InitStructure.GPIO_Pull        = GPIO_NO_PULL;
  42:../core/src/spi.c ****     GPIO_InitStructure.GPIO_Slew_Rate   = GPIO_SLEW_RATE_FAST;
  43:../core/src/spi.c ****     GPIO_InitStructure.GPIO_Current     = GPIO_DS_8MA;
  63              		.loc 1 43 41 is_stmt 0 view .LVU11
  64 001a 0124     		movs	r4, #1
  40:../core/src/spi.c ****     GPIO_InitStructure.GPIO_Mode        = GPIO_MODE_AF_PP;
  65              		.loc 1 40 41 view .LVU12
  66 001c A023     		movs	r3, #160
  41:../core/src/spi.c ****     GPIO_InitStructure.GPIO_Slew_Rate   = GPIO_SLEW_RATE_FAST;
  67              		.loc 1 41 41 view .LVU13
  68 001e 0025     		movs	r5, #0
ARM GAS  C:\Users\Dawn\AppData\Local\Temp\ccjj2FMF.s 			page 3


  44:../core/src/spi.c ****     GPIO_InitStructure.GPIO_Alternate   = GPIO_AF1_SPI1;
  45:../core/src/spi.c ****     GPIO_Peripheral_Initialize(GPIOA, &GPIO_InitStructure);
  69              		.loc 1 45 5 view .LVU14
  70 0020 06A9     		add	r1, sp, #24
  40:../core/src/spi.c ****     GPIO_InitStructure.GPIO_Pull        = GPIO_NO_PULL;
  71              		.loc 1 40 41 view .LVU15
  72 0022 0226     		movs	r6, #2
  73              		.loc 1 45 5 view .LVU16
  74 0024 2D48     		ldr	r0, .L2
  40:../core/src/spi.c ****     GPIO_InitStructure.GPIO_Pull        = GPIO_NO_PULL;
  75              		.loc 1 40 41 view .LVU17
  76 0026 CDE90636 		strd	r3, r6, [sp, #24]
  41:../core/src/spi.c ****     GPIO_InitStructure.GPIO_Slew_Rate   = GPIO_SLEW_RATE_FAST;
  77              		.loc 1 41 5 is_stmt 1 view .LVU18
  42:../core/src/spi.c ****     GPIO_InitStructure.GPIO_Current     = GPIO_DS_8MA;
  78              		.loc 1 42 41 is_stmt 0 view .LVU19
  79 002a CDE90855 		strd	r5, r5, [sp, #32]
  43:../core/src/spi.c ****     GPIO_InitStructure.GPIO_Alternate   = GPIO_AF1_SPI1;
  80              		.loc 1 43 5 is_stmt 1 view .LVU20
  44:../core/src/spi.c ****     GPIO_Peripheral_Initialize(GPIOA, &GPIO_InitStructure);
  81              		.loc 1 44 41 is_stmt 0 view .LVU21
  82 002e CDE90A44 		strd	r4, r4, [sp, #40]
  83              		.loc 1 45 5 is_stmt 1 view .LVU22
  84 0032 FFF7FEFF 		bl	GPIO_Peripheral_Initialize
  85              	.LVL3:
  46:../core/src/spi.c **** 
  47:../core/src/spi.c ****     /* Configure RES pin: PA6 (GPIO output) */
  48:../core/src/spi.c ****     GPIO_Structure_Initialize(&GPIO_InitStructure);
  86              		.loc 1 48 5 view .LVU23
  87 0036 06A8     		add	r0, sp, #24
  88 0038 FFF7FEFF 		bl	GPIO_Structure_Initialize
  89              	.LVL4:
  49:../core/src/spi.c ****     GPIO_InitStructure.Pin              = GPIO_PIN_6;
  90              		.loc 1 49 5 view .LVU24
  91              		.loc 1 49 41 is_stmt 0 view .LVU25
  92 003c 4027     		movs	r7, #64
  50:../core/src/spi.c ****     GPIO_InitStructure.GPIO_Mode        = GPIO_MODE_OUT_PP;
  51:../core/src/spi.c ****     GPIO_InitStructure.GPIO_Pull        = GPIO_NO_PULL;
  52:../core/src/spi.c ****     GPIO_InitStructure.GPIO_Slew_Rate   = GPIO_SLEW_RATE_FAST;
  53:../core/src/spi.c ****     GPIO_InitStructure.GPIO_Current     = GPIO_DS_8MA;
  54:../core/src/spi.c ****     GPIO_Peripheral_Initialize(GPIOA, &GPIO_InitStructure);
  93              		.loc 1 54 5 view .LVU26
  94 003e 06A9     		add	r1, sp, #24
  95 0040 2648     		ldr	r0, .L2
  53:../core/src/spi.c ****     GPIO_Peripheral_Initialize(GPIOA, &GPIO_InitStructure);
  96              		.loc 1 53 41 view .LVU27
  97 0042 0A94     		str	r4, [sp, #40]
  50:../core/src/spi.c ****     GPIO_InitStructure.GPIO_Mode        = GPIO_MODE_OUT_PP;
  98              		.loc 1 50 41 view .LVU28
  99 0044 CDE90674 		strd	r7, r4, [sp, #24]
  51:../core/src/spi.c ****     GPIO_InitStructure.GPIO_Slew_Rate   = GPIO_SLEW_RATE_FAST;
 100              		.loc 1 51 5 is_stmt 1 view .LVU29
  52:../core/src/spi.c ****     GPIO_InitStructure.GPIO_Current     = GPIO_DS_8MA;
 101              		.loc 1 52 41 is_stmt 0 view .LVU30
 102 0048 CDE90855 		strd	r5, r5, [sp, #32]
  53:../core/src/spi.c ****     GPIO_Peripheral_Initialize(GPIOA, &GPIO_InitStructure);
 103              		.loc 1 53 5 is_stmt 1 view .LVU31
ARM GAS  C:\Users\Dawn\AppData\Local\Temp\ccjj2FMF.s 			page 4


 104              		.loc 1 54 5 view .LVU32
 105 004c FFF7FEFF 		bl	GPIO_Peripheral_Initialize
 106              	.LVL5:
  55:../core/src/spi.c **** 
  56:../core/src/spi.c ****     /* Configure DC pin: PB0, CS pin: PB1, BL pin: PB10 (GPIO output) */
  57:../core/src/spi.c ****     GPIO_Structure_Initialize(&GPIO_InitStructure);
 107              		.loc 1 57 5 view .LVU33
 108 0050 06A8     		add	r0, sp, #24
 109 0052 FFF7FEFF 		bl	GPIO_Structure_Initialize
 110              	.LVL6:
  58:../core/src/spi.c ****     GPIO_InitStructure.Pin              = GPIO_PIN_0 | GPIO_PIN_1 | GPIO_PIN_10;
 111              		.loc 1 58 5 view .LVU34
 112              		.loc 1 58 41 is_stmt 0 view .LVU35
 113 0056 40F20343 		movw	r3, #1027
  59:../core/src/spi.c ****     GPIO_InitStructure.GPIO_Mode        = GPIO_MODE_OUT_PP;
  60:../core/src/spi.c ****     GPIO_InitStructure.GPIO_Pull        = GPIO_NO_PULL;
  61:../core/src/spi.c ****     GPIO_InitStructure.GPIO_Slew_Rate   = GPIO_SLEW_RATE_FAST;
  62:../core/src/spi.c ****     GPIO_InitStructure.GPIO_Current     = GPIO_DS_8MA;
  63:../core/src/spi.c ****     GPIO_Peripheral_Initialize(GPIOB, &GPIO_InitStructure);
 114              		.loc 1 63 5 view .LVU36
 115 005a 06A9     		add	r1, sp, #24
 116 005c 2048     		ldr	r0, .L2+4
  62:../core/src/spi.c ****     GPIO_Peripheral_Initialize(GPIOB, &GPIO_InitStructure);
 117              		.loc 1 62 41 view .LVU37
 118 005e 0A94     		str	r4, [sp, #40]
  59:../core/src/spi.c ****     GPIO_InitStructure.GPIO_Mode        = GPIO_MODE_OUT_PP;
 119              		.loc 1 59 41 view .LVU38
 120 0060 CDE90634 		strd	r3, r4, [sp, #24]
  60:../core/src/spi.c ****     GPIO_InitStructure.GPIO_Slew_Rate   = GPIO_SLEW_RATE_FAST;
 121              		.loc 1 60 5 is_stmt 1 view .LVU39
  61:../core/src/spi.c ****     GPIO_InitStructure.GPIO_Current     = GPIO_DS_8MA;
 122              		.loc 1 61 41 is_stmt 0 view .LVU40
 123 0064 CDE90855 		strd	r5, r5, [sp, #32]
  62:../core/src/spi.c ****     GPIO_Peripheral_Initialize(GPIOB, &GPIO_InitStructure);
 124              		.loc 1 62 5 is_stmt 1 view .LVU41
 125              		.loc 1 63 5 view .LVU42
 126 0068 FFF7FEFF 		bl	GPIO_Peripheral_Initialize
 127              	.LVL7:
  64:../core/src/spi.c **** 
  65:../core/src/spi.c ****     /* Set default pin states */
  66:../core/src/spi.c ****     DISPLAY_RES_HIGH();   /* RES high (not reset) */
 128              		.loc 1 66 5 view .LVU43
 129 006c 3946     		mov	r1, r7
 130 006e 1B48     		ldr	r0, .L2
 131 0070 FFF7FEFF 		bl	GPIO_Pins_Set
 132              	.LVL8:
  67:../core/src/spi.c ****     DISPLAY_DC_HIGH();    /* DC high (data mode) */
 133              		.loc 1 67 5 view .LVU44
 134 0074 2146     		mov	r1, r4
 135 0076 1A48     		ldr	r0, .L2+4
 136 0078 FFF7FEFF 		bl	GPIO_Pins_Set
 137              	.LVL9:
  68:../core/src/spi.c ****     DISPLAY_CS_HIGH();    /* CS high (not selected) */
 138              		.loc 1 68 5 view .LVU45
 139 007c 3146     		mov	r1, r6
 140 007e 1848     		ldr	r0, .L2+4
  69:../core/src/spi.c **** 
ARM GAS  C:\Users\Dawn\AppData\Local\Temp\ccjj2FMF.s 			page 5


  70:../core/src/spi.c **** #if DISPLAY_HAS_BACKLIGHT
  71:../core/src/spi.c ****     LCD_BL_LOW();         /* BL off initially (will be turned on in LCD_Init) */
  72:../core/src/spi.c **** #endif
  73:../core/src/spi.c **** 
  74:../core/src/spi.c ****     /* Reset SPI1 */
  75:../core/src/spi.c ****     SPI_I2S_Reset(SPI1);
 141              		.loc 1 75 5 is_stmt 0 view .LVU46
 142 0080 184E     		ldr	r6, .L2+8
  68:../core/src/spi.c ****     DISPLAY_CS_HIGH();    /* CS high (not selected) */
 143              		.loc 1 68 5 view .LVU47
 144 0082 FFF7FEFF 		bl	GPIO_Pins_Set
 145              	.LVL10:
  71:../core/src/spi.c **** #endif
 146              		.loc 1 71 5 is_stmt 1 view .LVU48
 147 0086 4FF48061 		mov	r1, #1024
 148 008a 1548     		ldr	r0, .L2+4
 149 008c FFF7FEFF 		bl	GPIO_Pins_Set
 150              	.LVL11:
 151              		.loc 1 75 5 view .LVU49
 152 0090 3046     		mov	r0, r6
 153 0092 FFF7FEFF 		bl	SPI_I2S_Reset
 154              	.LVL12:
  76:../core/src/spi.c **** 
  77:../core/src/spi.c ****     /* Configure SPI1 */
  78:../core/src/spi.c ****     SPI_Initializes_Structure(&SPI_InitStructure);
 155              		.loc 1 78 5 view .LVU50
 156 0096 01A8     		add	r0, sp, #4
 157 0098 FFF7FEFF 		bl	SPI_Initializes_Structure
 158              	.LVL13:
  79:../core/src/spi.c ****     SPI_InitStructure.DataDirection     = SPI_DIR_SINGLELINE_TX;        /* TX only */
 159              		.loc 1 79 5 view .LVU51
  80:../core/src/spi.c ****     SPI_InitStructure.SpiMode           = SPI_MODE_MASTER;              /* Master mode */
 160              		.loc 1 80 5 view .LVU52
  81:../core/src/spi.c ****     SPI_InitStructure.DataLen           = SPI_DATA_SIZE_8BITS;          /* 8-bit data */
 161              		.loc 1 81 5 view .LVU53
  82:../core/src/spi.c **** #ifdef DISPLAY_USE_LCD
  83:../core/src/spi.c ****     SPI_InitStructure.CLKPOL            = SPI_CLKPOL_LOW;               /* CPOL=0 (ST7735S Mode 0) 
 162              		.loc 1 83 5 view .LVU54
  84:../core/src/spi.c ****     SPI_InitStructure.CLKPHA            = SPI_CLKPHA_FIRST_EDGE;        /* CPHA=0 (ST7735S Mode 0) 
 163              		.loc 1 84 5 view .LVU55
  85:../core/src/spi.c **** #else
  86:../core/src/spi.c ****     SPI_InitStructure.CLKPOL            = SPI_CLKPOL_HIGH;              /* CPOL=1 (SSD1306 Mode 3) 
  87:../core/src/spi.c ****     SPI_InitStructure.CLKPHA            = SPI_CLKPHA_SECOND_EDGE;       /* CPHA=1 (SSD1306 Mode 3) 
  88:../core/src/spi.c **** #endif
  89:../core/src/spi.c ****     SPI_InitStructure.NSS               = SPI_NSS_SOFT;                 /* Software NSS */
 164              		.loc 1 89 5 view .LVU56
  90:../core/src/spi.c ****     SPI_InitStructure.BaudRatePres      = SPI_BR_PRESCALER_2;           /* APB2/2 = fastest */
 165              		.loc 1 90 5 view .LVU57
  91:../core/src/spi.c ****     SPI_InitStructure.FirstBit          = SPI_FB_MSB;                   /* MSB first */
 166              		.loc 1 91 5 view .LVU58
  92:../core/src/spi.c ****     SPI_InitStructure.CRCPoly           = 7;
 167              		.loc 1 92 5 view .LVU59
  79:../core/src/spi.c ****     SPI_InitStructure.SpiMode           = SPI_MODE_MASTER;              /* Master mode */
 168              		.loc 1 79 41 is_stmt 0 view .LVU60
 169 009c 4FF49823 		mov	r3, #311296
  81:../core/src/spi.c **** #ifdef DISPLAY_USE_LCD
 170              		.loc 1 81 41 view .LVU61
ARM GAS  C:\Users\Dawn\AppData\Local\Temp\ccjj2FMF.s 			page 6


 171 00a0 CDE90135 		strd	r3, r5, [sp, #4]
  84:../core/src/spi.c **** #else
 172              		.loc 1 84 41 view .LVU62
 173 00a4 4FF00073 		mov	r3, #33554432
  90:../core/src/spi.c ****     SPI_InitStructure.FirstBit          = SPI_FB_MSB;                   /* MSB first */
 174              		.loc 1 90 41 view .LVU63
 175 00a8 CDE90335 		strd	r3, r5, [sp, #12]
  93:../core/src/spi.c ****     SPI_Initializes(SPI1, &SPI_InitStructure);
 176              		.loc 1 93 5 view .LVU64
 177 00ac 01A9     		add	r1, sp, #4
  92:../core/src/spi.c ****     SPI_Initializes(SPI1, &SPI_InitStructure);
 178              		.loc 1 92 41 view .LVU65
 179 00ae 0723     		movs	r3, #7
 180              		.loc 1 93 5 view .LVU66
 181 00b0 3046     		mov	r0, r6
  92:../core/src/spi.c ****     SPI_Initializes(SPI1, &SPI_InitStructure);
 182              		.loc 1 92 41 view .LVU67
 183 00b2 ADF81430 		strh	r3, [sp, #20]	@ movhi
 184              		.loc 1 93 5 is_stmt 1 view .LVU68
 185 00b6 FFF7FEFF 		bl	SPI_Initializes
 186              	.LVL14:
  94:../core/src/spi.c **** 
  95:../core/src/spi.c ****     /* Set internal NSS high to prevent mode fault */
  96:../core/src/spi.c ****     SPI_Set_Nss_Level(SPI1, SPI_NSS_HIGH);
 187              		.loc 1 96 5 view .LVU69
 188 00ba 4FF48071 		mov	r1, #256
 189 00be 3046     		mov	r0, r6
 190 00c0 FFF7FEFF 		bl	SPI_Set_Nss_Level
 191              	.LVL15:
  97:../core/src/spi.c **** 
  98:../core/src/spi.c ****     /* Enable SPI1 */
  99:../core/src/spi.c ****     SPI_ON(SPI1);
 192              		.loc 1 99 5 view .LVU70
 193 00c4 3046     		mov	r0, r6
 194 00c6 FFF7FEFF 		bl	SPI_ON
 195              	.LVL16:
 100:../core/src/spi.c **** 
 101:../core/src/spi.c ****     /* Initialize SPI handle */
 102:../core/src/spi.c ****     hspi1.Instance          = SPI1;
 196              		.loc 1 102 5 view .LVU71
 197              		.loc 1 102 29 is_stmt 0 view .LVU72
 198 00ca 074B     		ldr	r3, .L2+12
 103:../core/src/spi.c ****     hspi1.State             = HAL_SPI_STATE_READY;
 104:../core/src/spi.c ****     hspi1.hdmatx            = &hdma_spi1_tx;
 199              		.loc 1 104 29 view .LVU73
 200 00cc 074A     		ldr	r2, .L2+16
 102:../core/src/spi.c ****     hspi1.State             = HAL_SPI_STATE_READY;
 201              		.loc 1 102 29 view .LVU74
 202 00ce 1E60     		str	r6, [r3]
 103:../core/src/spi.c ****     hspi1.State             = HAL_SPI_STATE_READY;
 203              		.loc 1 103 5 is_stmt 1 view .LVU75
 103:../core/src/spi.c ****     hspi1.State             = HAL_SPI_STATE_READY;
 204              		.loc 1 103 29 is_stmt 0 view .LVU76
 205 00d0 1C71     		strb	r4, [r3, #4]
 206              		.loc 1 104 5 is_stmt 1 view .LVU77
 207              		.loc 1 104 29 is_stmt 0 view .LVU78
 208 00d2 9A60     		str	r2, [r3, #8]
ARM GAS  C:\Users\Dawn\AppData\Local\Temp\ccjj2FMF.s 			page 7


 105:../core/src/spi.c ****     hspi1.hdmatx->Parent    = &hspi1;
 209              		.loc 1 105 5 is_stmt 1 view .LVU79
 210              		.loc 1 105 29 is_stmt 0 view .LVU80
 211 00d4 D360     		str	r3, [r2, #12]
 106:../core/src/spi.c **** }
 212              		.loc 1 106 1 view .LVU81
 213 00d6 0DB0     		add	sp, sp, #52
 214              	.LCFI2:
 215              		.cfi_def_cfa_offset 20
 216              		@ sp needed
 217 00d8 F0BD     		pop	{r4, r5, r6, r7, pc}
 218              	.L3:
 219 00da 00BF     		.align	2
 220              	.L2:
 221 00dc 00340240 		.word	1073886208
 222 00e0 00380240 		.word	1073887232
 223 00e4 00300140 		.word	1073819648
 224 00e8 00000000 		.word	hspi1
 225 00ec 00000000 		.word	hdma_spi1_tx
 226              		.cfi_endproc
 227              	.LFE130:
 229              		.section	.text.HAL_SPI_DeInit,"ax",%progbits
 230              		.align	1
 231              		.global	HAL_SPI_DeInit
 232              		.syntax unified
 233              		.thumb
 234              		.thumb_func
 236              	HAL_SPI_DeInit:
 237              	.LVL17:
 238              	.LFB131:
 107:../core/src/spi.c **** 
 108:../core/src/spi.c **** /**
 109:../core/src/spi.c ****  * @brief Deinitialize SPI
 110:../core/src/spi.c ****  */
 111:../core/src/spi.c **** void HAL_SPI_DeInit(SPI_HandleTypeDef *hspi)
 112:../core/src/spi.c **** {
 239              		.loc 1 112 1 is_stmt 1 view -0
 240              		.cfi_startproc
 241              		@ args = 0, pretend = 0, frame = 0
 242              		@ frame_needed = 0, uses_anonymous_args = 0
 113:../core/src/spi.c ****     if (hspi == NULL || hspi->Instance == NULL)
 243              		.loc 1 113 5 view .LVU83
 112:../core/src/spi.c ****     if (hspi == NULL || hspi->Instance == NULL)
 244              		.loc 1 112 1 is_stmt 0 view .LVU84
 245 0000 10B5     		push	{r4, lr}
 246              	.LCFI3:
 247              		.cfi_def_cfa_offset 8
 248              		.cfi_offset 4, -8
 249              		.cfi_offset 14, -4
 250              		.loc 1 113 8 view .LVU85
 251 0002 0446     		mov	r4, r0
 252 0004 40B1     		cbz	r0, .L4
 253              		.loc 1 113 29 discriminator 1 view .LVU86
 254 0006 0068     		ldr	r0, [r0]
 255              	.LVL18:
 256              		.loc 1 113 22 discriminator 1 view .LVU87
 257 0008 30B1     		cbz	r0, .L4
ARM GAS  C:\Users\Dawn\AppData\Local\Temp\ccjj2FMF.s 			page 8


 114:../core/src/spi.c ****     {
 115:../core/src/spi.c ****         return;
 116:../core/src/spi.c ****     }
 117:../core/src/spi.c **** 
 118:../core/src/spi.c ****     SPI_OFF(hspi->Instance);
 258              		.loc 1 118 5 is_stmt 1 view .LVU88
 259 000a FFF7FEFF 		bl	SPI_OFF
 260              	.LVL19:
 119:../core/src/spi.c ****     SPI_I2S_Reset(hspi->Instance);
 261              		.loc 1 119 5 view .LVU89
 262 000e 2068     		ldr	r0, [r4]
 263 0010 FFF7FEFF 		bl	SPI_I2S_Reset
 264              	.LVL20:
 120:../core/src/spi.c ****     hspi->State = HAL_SPI_STATE_RESET;
 265              		.loc 1 120 5 view .LVU90
 266              		.loc 1 120 17 is_stmt 0 view .LVU91
 267 0014 0023     		movs	r3, #0
 268 0016 2371     		strb	r3, [r4, #4]
 269              	.L4:
 121:../core/src/spi.c **** }
 270              		.loc 1 121 1 view .LVU92
 271 0018 10BD     		pop	{r4, pc}
 272              		.loc 1 121 1 view .LVU93
 273              		.cfi_endproc
 274              	.LFE131:
 276              		.section	.text.HAL_SPI_Transmit,"ax",%progbits
 277              		.align	1
 278              		.global	HAL_SPI_Transmit
 279              		.syntax unified
 280              		.thumb
 281              		.thumb_func
 283              	HAL_SPI_Transmit:
 284              	.LVL21:
 285              	.LFB132:
 122:../core/src/spi.c **** 
 123:../core/src/spi.c **** /**
 124:../core/src/spi.c ****  * @brief Blocking SPI transmit
 125:../core/src/spi.c ****  */
 126:../core/src/spi.c **** HAL_StatusTypeDef HAL_SPI_Transmit(SPI_HandleTypeDef *hspi,
 127:../core/src/spi.c ****                                    uint8_t *pData,
 128:../core/src/spi.c ****                                    uint16_t Size,
 129:../core/src/spi.c ****                                    uint32_t Timeout)
 130:../core/src/spi.c **** {
 286              		.loc 1 130 1 is_stmt 1 view -0
 287              		.cfi_startproc
 288              		@ args = 0, pretend = 0, frame = 0
 289              		@ frame_needed = 0, uses_anonymous_args = 0
 131:../core/src/spi.c ****     uint32_t tick_start;
 290              		.loc 1 131 5 view .LVU95
 132:../core/src/spi.c **** 
 133:../core/src/spi.c ****     if (hspi == NULL || pData == NULL || Size == 0)
 291              		.loc 1 133 5 view .LVU96
 130:../core/src/spi.c ****     uint32_t tick_start;
 292              		.loc 1 130 1 is_stmt 0 view .LVU97
 293 0000 2DE9F041 		push	{r4, r5, r6, r7, r8, lr}
 294              	.LCFI4:
 295              		.cfi_def_cfa_offset 24
ARM GAS  C:\Users\Dawn\AppData\Local\Temp\ccjj2FMF.s 			page 9


 296              		.cfi_offset 4, -24
 297              		.cfi_offset 5, -20
 298              		.cfi_offset 6, -16
 299              		.cfi_offset 7, -12
 300              		.cfi_offset 8, -8
 301              		.cfi_offset 14, -4
 130:../core/src/spi.c ****     uint32_t tick_start;
 302              		.loc 1 130 1 view .LVU98
 303 0004 0D46     		mov	r5, r1
 304 0006 1646     		mov	r6, r2
 305 0008 9846     		mov	r8, r3
 306              		.loc 1 133 8 view .LVU99
 307 000a 0446     		mov	r4, r0
 308 000c 78B3     		cbz	r0, .L22
 309              		.loc 1 133 22 discriminator 1 view .LVU100
 310 000e 71B3     		cbz	r1, .L22
 311              		.loc 1 133 39 discriminator 2 view .LVU101
 312 0010 6AB3     		cbz	r2, .L22
 134:../core/src/spi.c ****     {
 135:../core/src/spi.c ****         return HAL_ERROR;
 136:../core/src/spi.c ****     }
 137:../core/src/spi.c ****     if (hspi->State != HAL_SPI_STATE_READY)
 313              		.loc 1 137 5 is_stmt 1 view .LVU102
 314              		.loc 1 137 8 is_stmt 0 view .LVU103
 315 0012 0379     		ldrb	r3, [r0, #4]	@ zero_extendqisi2
 316              	.LVL22:
 317              		.loc 1 137 8 view .LVU104
 318 0014 012B     		cmp	r3, #1
 319 0016 2CD1     		bne	.L23
 138:../core/src/spi.c ****     {
 139:../core/src/spi.c ****         return HAL_BUSY;
 140:../core/src/spi.c ****     }
 141:../core/src/spi.c **** 
 142:../core/src/spi.c ****     hspi->State = HAL_SPI_STATE_BUSY_TX;
 320              		.loc 1 142 5 is_stmt 1 view .LVU105
 321              		.loc 1 142 17 is_stmt 0 view .LVU106
 322 0018 1223     		movs	r3, #18
 323 001a 0371     		strb	r3, [r0, #4]
 143:../core/src/spi.c ****     tick_start = HAL_GetTick();
 324              		.loc 1 143 5 is_stmt 1 view .LVU107
 325              		.loc 1 143 18 is_stmt 0 view .LVU108
 326 001c FFF7FEFF 		bl	HAL_GetTick
 327              	.LVL23:
 328              		.loc 1 143 18 view .LVU109
 329 0020 2E44     		add	r6, r6, r5
 330              	.LVL24:
 331              		.loc 1 143 18 view .LVU110
 332 0022 0746     		mov	r7, r0
 333              	.LVL25:
 144:../core/src/spi.c **** 
 145:../core/src/spi.c ****     for (uint16_t i = 0; i < Size; i++)
 334              		.loc 1 145 5 is_stmt 1 view .LVU111
 335              	.LBB2:
 336              		.loc 1 145 10 view .LVU112
 337              		.loc 1 145 28 discriminator 1 view .LVU113
 338              	.L15:
 146:../core/src/spi.c ****     {
ARM GAS  C:\Users\Dawn\AppData\Local\Temp\ccjj2FMF.s 			page 10


 147:../core/src/spi.c ****         /* Wait for TX buffer empty */
 148:../core/src/spi.c ****         while (SPI_I2S_Flag_Status_Get(hspi->Instance, SPI_I2S_FLAG_TE) == RESET)
 339              		.loc 1 148 73 view .LVU114
 340              		.loc 1 148 16 is_stmt 0 view .LVU115
 341 0024 2068     		ldr	r0, [r4]
 342 0026 0221     		movs	r1, #2
 343 0028 FFF7FEFF 		bl	SPI_I2S_Flag_Status_Get
 344              	.LVL26:
 345              		.loc 1 148 73 discriminator 1 view .LVU116
 346 002c 80B1     		cbz	r0, .L16
 149:../core/src/spi.c ****         {
 150:../core/src/spi.c ****             if ((HAL_GetTick() - tick_start) >= Timeout)
 151:../core/src/spi.c ****             {
 152:../core/src/spi.c ****                 hspi->State = HAL_SPI_STATE_ERROR;
 153:../core/src/spi.c ****                 return HAL_TIMEOUT;
 154:../core/src/spi.c ****             }
 155:../core/src/spi.c ****         }
 156:../core/src/spi.c ****         SPI_I2S_Data_Transmit(hspi->Instance, pData[i]);
 347              		.loc 1 156 9 is_stmt 1 view .LVU117
 348 002e 15F8011B 		ldrb	r1, [r5], #1	@ zero_extendqisi2
 349 0032 2068     		ldr	r0, [r4]
 350 0034 FFF7FEFF 		bl	SPI_I2S_Data_Transmit
 351              	.LVL27:
 145:../core/src/spi.c ****     {
 352              		.loc 1 145 37 discriminator 2 view .LVU118
 145:../core/src/spi.c ****     {
 353              		.loc 1 145 28 discriminator 1 view .LVU119
 354 0038 B542     		cmp	r5, r6
 355 003a F3D1     		bne	.L15
 356              	.L17:
 357              	.LBE2:
 157:../core/src/spi.c ****     }
 158:../core/src/spi.c **** 
 159:../core/src/spi.c ****     /* Wait for transmission complete (BUSY flag clear) */
 160:../core/src/spi.c ****     while (SPI_I2S_Flag_Status_Get(hspi->Instance, SPI_I2S_FLAG_BUSY) == SET)
 358              		.loc 1 160 71 view .LVU120
 359              		.loc 1 160 12 is_stmt 0 view .LVU121
 360 003c 2068     		ldr	r0, [r4]
 361 003e 8021     		movs	r1, #128
 362 0040 FFF7FEFF 		bl	SPI_I2S_Flag_Status_Get
 363              	.LVL28:
 364              		.loc 1 160 71 discriminator 1 view .LVU122
 365 0044 0128     		cmp	r0, #1
 366 0046 0CD0     		beq	.L19
 161:../core/src/spi.c ****     {
 162:../core/src/spi.c ****         if ((HAL_GetTick() - tick_start) >= Timeout)
 163:../core/src/spi.c ****         {
 164:../core/src/spi.c ****             hspi->State = HAL_SPI_STATE_ERROR;
 165:../core/src/spi.c ****             return HAL_TIMEOUT;
 166:../core/src/spi.c ****         }
 167:../core/src/spi.c ****     }
 168:../core/src/spi.c **** 
 169:../core/src/spi.c ****     hspi->State = HAL_SPI_STATE_READY;
 367              		.loc 1 169 5 is_stmt 1 view .LVU123
 368              		.loc 1 169 17 is_stmt 0 view .LVU124
 369 0048 0123     		movs	r3, #1
 370 004a 2371     		strb	r3, [r4, #4]
ARM GAS  C:\Users\Dawn\AppData\Local\Temp\ccjj2FMF.s 			page 11


 170:../core/src/spi.c ****     return HAL_OK;
 371              		.loc 1 170 5 is_stmt 1 view .LVU125
 372              		.loc 1 170 12 is_stmt 0 view .LVU126
 373 004c 0020     		movs	r0, #0
 374 004e 06E0     		b	.L13
 375              	.LVL29:
 376              	.L16:
 377              	.LBB3:
 150:../core/src/spi.c ****             {
 378              		.loc 1 150 13 is_stmt 1 view .LVU127
 150:../core/src/spi.c ****             {
 379              		.loc 1 150 18 is_stmt 0 view .LVU128
 380 0050 FFF7FEFF 		bl	HAL_GetTick
 381              	.LVL30:
 150:../core/src/spi.c ****             {
 382              		.loc 1 150 32 discriminator 1 view .LVU129
 383 0054 C01B     		subs	r0, r0, r7
 150:../core/src/spi.c ****             {
 384              		.loc 1 150 16 discriminator 1 view .LVU130
 385 0056 4045     		cmp	r0, r8
 386 0058 E4D3     		bcc	.L15
 387              	.L18:
 152:../core/src/spi.c ****                 return HAL_TIMEOUT;
 388              		.loc 1 152 17 is_stmt 1 view .LVU131
 152:../core/src/spi.c ****                 return HAL_TIMEOUT;
 389              		.loc 1 152 29 is_stmt 0 view .LVU132
 390 005a 0320     		movs	r0, #3
 391 005c 2071     		strb	r0, [r4, #4]
 153:../core/src/spi.c ****             }
 392              		.loc 1 153 17 is_stmt 1 view .LVU133
 393              	.LVL31:
 394              	.L13:
 153:../core/src/spi.c ****             }
 395              		.loc 1 153 17 is_stmt 0 view .LVU134
 396              	.LBE3:
 171:../core/src/spi.c **** }
 397              		.loc 1 171 1 view .LVU135
 398 005e BDE8F081 		pop	{r4, r5, r6, r7, r8, pc}
 399              	.LVL32:
 400              	.L19:
 162:../core/src/spi.c ****         {
 401              		.loc 1 162 9 is_stmt 1 view .LVU136
 162:../core/src/spi.c ****         {
 402              		.loc 1 162 14 is_stmt 0 view .LVU137
 403 0062 FFF7FEFF 		bl	HAL_GetTick
 404              	.LVL33:
 162:../core/src/spi.c ****         {
 405              		.loc 1 162 28 discriminator 1 view .LVU138
 406 0066 C01B     		subs	r0, r0, r7
 162:../core/src/spi.c ****         {
 407              		.loc 1 162 12 discriminator 1 view .LVU139
 408 0068 4045     		cmp	r0, r8
 409 006a E7D3     		bcc	.L17
 410 006c F5E7     		b	.L18
 411              	.LVL34:
 412              	.L22:
 135:../core/src/spi.c ****     }
ARM GAS  C:\Users\Dawn\AppData\Local\Temp\ccjj2FMF.s 			page 12


 413              		.loc 1 135 16 view .LVU140
 414 006e 0120     		movs	r0, #1
 415              	.LVL35:
 135:../core/src/spi.c ****     }
 416              		.loc 1 135 16 view .LVU141
 417 0070 F5E7     		b	.L13
 418              	.LVL36:
 419              	.L23:
 139:../core/src/spi.c ****     }
 420              		.loc 1 139 16 view .LVU142
 421 0072 0220     		movs	r0, #2
 422              	.LVL37:
 139:../core/src/spi.c ****     }
 423              		.loc 1 139 16 view .LVU143
 424 0074 F3E7     		b	.L13
 425              		.cfi_endproc
 426              	.LFE132:
 428              		.section	.text.HAL_SPI_Transmit_DMA,"ax",%progbits
 429              		.align	1
 430              		.global	HAL_SPI_Transmit_DMA
 431              		.syntax unified
 432              		.thumb
 433              		.thumb_func
 435              	HAL_SPI_Transmit_DMA:
 436              	.LVL38:
 437              	.LFB133:
 172:../core/src/spi.c **** 
 173:../core/src/spi.c **** /**
 174:../core/src/spi.c ****  * @brief DMA SPI transmit
 175:../core/src/spi.c ****  */
 176:../core/src/spi.c **** HAL_StatusTypeDef HAL_SPI_Transmit_DMA(SPI_HandleTypeDef *hspi,
 177:../core/src/spi.c ****                                        uint8_t *pData,
 178:../core/src/spi.c ****                                        uint16_t Size)
 179:../core/src/spi.c **** {
 438              		.loc 1 179 1 is_stmt 1 view -0
 439              		.cfi_startproc
 440              		@ args = 0, pretend = 0, frame = 48
 441              		@ frame_needed = 0, uses_anonymous_args = 0
 180:../core/src/spi.c ****     DMA_InitType DMA_InitStructure;
 442              		.loc 1 180 5 view .LVU145
 181:../core/src/spi.c **** 
 182:../core/src/spi.c ****     if (hspi == NULL || hspi->hdmatx == NULL || pData == NULL || Size == 0)
 443              		.loc 1 182 5 view .LVU146
 179:../core/src/spi.c ****     DMA_InitType DMA_InitStructure;
 444              		.loc 1 179 1 is_stmt 0 view .LVU147
 445 0000 70B5     		push	{r4, r5, r6, lr}
 446              	.LCFI5:
 447              		.cfi_def_cfa_offset 16
 448              		.cfi_offset 4, -16
 449              		.cfi_offset 5, -12
 450              		.cfi_offset 6, -8
 451              		.cfi_offset 14, -4
 452 0002 0E46     		mov	r6, r1
 453 0004 8CB0     		sub	sp, sp, #48
 454              	.LCFI6:
 455              		.cfi_def_cfa_offset 64
 179:../core/src/spi.c ****     DMA_InitType DMA_InitStructure;
ARM GAS  C:\Users\Dawn\AppData\Local\Temp\ccjj2FMF.s 			page 13


 456              		.loc 1 179 1 view .LVU148
 457 0006 1446     		mov	r4, r2
 458              		.loc 1 182 8 view .LVU149
 459 0008 0546     		mov	r5, r0
 460 000a 0028     		cmp	r0, #0
 461 000c 40D0     		beq	.L31
 462              		.loc 1 182 29 discriminator 1 view .LVU150
 463 000e 8368     		ldr	r3, [r0, #8]
 464              		.loc 1 182 22 discriminator 1 view .LVU151
 465 0010 002B     		cmp	r3, #0
 466 0012 3DD0     		beq	.L31
 467              		.loc 1 182 46 discriminator 2 view .LVU152
 468 0014 0029     		cmp	r1, #0
 469 0016 3BD0     		beq	.L31
 470              		.loc 1 182 63 discriminator 3 view .LVU153
 471 0018 002A     		cmp	r2, #0
 472 001a 39D0     		beq	.L31
 183:../core/src/spi.c ****     {
 184:../core/src/spi.c ****         return HAL_ERROR;
 185:../core/src/spi.c ****     }
 186:../core/src/spi.c ****     if (hspi->State != HAL_SPI_STATE_READY)
 473              		.loc 1 186 5 is_stmt 1 view .LVU154
 474              		.loc 1 186 8 is_stmt 0 view .LVU155
 475 001c 0279     		ldrb	r2, [r0, #4]	@ zero_extendqisi2
 476              	.LVL39:
 477              		.loc 1 186 8 view .LVU156
 478 001e 012A     		cmp	r2, #1
 479 0020 38D1     		bne	.L32
 187:../core/src/spi.c ****     {
 188:../core/src/spi.c ****         return HAL_BUSY;
 189:../core/src/spi.c ****     }
 190:../core/src/spi.c **** 
 191:../core/src/spi.c ****     hspi->State = HAL_SPI_STATE_BUSY_TX;
 480              		.loc 1 191 5 is_stmt 1 view .LVU157
 481              		.loc 1 191 17 is_stmt 0 view .LVU158
 482 0022 1222     		movs	r2, #18
 483 0024 0271     		strb	r2, [r0, #4]
 192:../core/src/spi.c ****     hspi->pBuffPtr = pData;
 484              		.loc 1 192 5 is_stmt 1 view .LVU159
 485              		.loc 1 192 20 is_stmt 0 view .LVU160
 486 0026 C160     		str	r1, [r0, #12]
 193:../core/src/spi.c ****     hspi->XferSize = Size;
 487              		.loc 1 193 5 is_stmt 1 view .LVU161
 488              		.loc 1 193 20 is_stmt 0 view .LVU162
 489 0028 0482     		strh	r4, [r0, #16]	@ movhi
 194:../core/src/spi.c **** 
 195:../core/src/spi.c ****     /* Configure DMA */
 196:../core/src/spi.c ****     DMA_Channel_Disable(hspi->hdmatx->Instance);
 490              		.loc 1 196 5 is_stmt 1 view .LVU163
 491 002a 1868     		ldr	r0, [r3]
 492              	.LVL40:
 493              		.loc 1 196 5 is_stmt 0 view .LVU164
 494 002c FFF7FEFF 		bl	DMA_Channel_Disable
 495              	.LVL41:
 197:../core/src/spi.c ****     DMA_Structure_Initializes(&DMA_InitStructure);
 496              		.loc 1 197 5 is_stmt 1 view .LVU165
 497 0030 01A8     		add	r0, sp, #4
ARM GAS  C:\Users\Dawn\AppData\Local\Temp\ccjj2FMF.s 			page 14


 498 0032 FFF7FEFF 		bl	DMA_Structure_Initializes
 499              	.LVL42:
 198:../core/src/spi.c ****     DMA_InitStructure.PeriphAddr        = (uint32_t)&hspi->Instance->DAT;
 500              		.loc 1 198 5 view .LVU166
 501              		.loc 1 198 53 is_stmt 0 view .LVU167
 502 0036 2B68     		ldr	r3, [r5]
 503 0038 0C33     		adds	r3, r3, #12
 199:../core/src/spi.c ****     DMA_InitStructure.MemAddr           = (uint32_t)pData;
 504              		.loc 1 199 41 view .LVU168
 505 003a CDE90136 		strd	r3, r6, [sp, #4]
 200:../core/src/spi.c ****     DMA_InitStructure.Direction         = DMA_DIR_PERIPH_DST;
 506              		.loc 1 200 5 is_stmt 1 view .LVU169
 507              		.loc 1 200 41 is_stmt 0 view .LVU170
 508 003e 1023     		movs	r3, #16
 201:../core/src/spi.c ****     DMA_InitStructure.BufSize           = Size;
 509              		.loc 1 201 41 view .LVU171
 510 0040 CDE90334 		strd	r3, r4, [sp, #12]
 202:../core/src/spi.c ****     DMA_InitStructure.PeriphInc         = DMA_PERIPH_INC_MODE_DISABLE;
 511              		.loc 1 202 5 is_stmt 1 view .LVU172
 203:../core/src/spi.c ****     DMA_InitStructure.MemoryInc         = DMA_MEM_INC_MODE_ENABLE;
 512              		.loc 1 203 41 is_stmt 0 view .LVU173
 513 0044 0024     		movs	r4, #0
 514              	.LVL43:
 515              		.loc 1 203 41 view .LVU174
 516 0046 8023     		movs	r3, #128
 517 0048 CDE90543 		strd	r4, r3, [sp, #20]
 204:../core/src/spi.c ****     DMA_InitStructure.PeriphDataSize    = DMA_PERIPH_DATA_WIDTH_BYTE;
 518              		.loc 1 204 5 is_stmt 1 view .LVU175
 205:../core/src/spi.c ****     DMA_InitStructure.MemDataSize       = DMA_MEM_DATA_WIDTH_BYTE;
 206:../core/src/spi.c ****     DMA_InitStructure.CircularMode      = DMA_CIRCULAR_MODE_DISABLE;
 207:../core/src/spi.c ****     DMA_InitStructure.Priority          = DMA_CH_PRIORITY_HIGH;
 519              		.loc 1 207 41 is_stmt 0 view .LVU176
 520 004c 4FF40053 		mov	r3, #8192
 208:../core/src/spi.c ****     DMA_InitStructure.Mem2Mem           = DMA_MEM2MEM_DISABLE;
 521              		.loc 1 208 41 view .LVU177
 522 0050 CDE90A34 		strd	r3, r4, [sp, #40]
 209:../core/src/spi.c ****     DMA_Initializes(hspi->hdmatx->Instance, &DMA_InitStructure);
 523              		.loc 1 209 5 view .LVU178
 524 0054 AB68     		ldr	r3, [r5, #8]
 206:../core/src/spi.c ****     DMA_InitStructure.Priority          = DMA_CH_PRIORITY_HIGH;
 525              		.loc 1 206 41 view .LVU179
 526 0056 0994     		str	r4, [sp, #36]
 527              		.loc 1 209 5 view .LVU180
 528 0058 1868     		ldr	r0, [r3]
 529 005a 01A9     		add	r1, sp, #4
 205:../core/src/spi.c ****     DMA_InitStructure.CircularMode      = DMA_CIRCULAR_MODE_DISABLE;
 530              		.loc 1 205 41 view .LVU181
 531 005c CDE90744 		strd	r4, r4, [sp, #28]
 206:../core/src/spi.c ****     DMA_InitStructure.Priority          = DMA_CH_PRIORITY_HIGH;
 532              		.loc 1 206 5 is_stmt 1 view .LVU182
 207:../core/src/spi.c ****     DMA_InitStructure.Mem2Mem           = DMA_MEM2MEM_DISABLE;
 533              		.loc 1 207 5 view .LVU183
 534              		.loc 1 209 5 view .LVU184
 535 0060 FFF7FEFF 		bl	DMA_Initializes
 536              	.LVL44:
 210:../core/src/spi.c **** 
 211:../core/src/spi.c ****     hspi->hdmatx->Parent                = hspi;
ARM GAS  C:\Users\Dawn\AppData\Local\Temp\ccjj2FMF.s 			page 15


 537              		.loc 1 211 5 view .LVU185
 538              		.loc 1 211 9 is_stmt 0 view .LVU186
 539 0064 AB68     		ldr	r3, [r5, #8]
 212:../core/src/spi.c ****     hspi->hdmatx->State                 = HAL_DMA_STATE_BUSY;
 213:../core/src/spi.c ****     hspi->hdmatx->XferCpltCallback      = SPI_DMA_TxCplt;
 540              		.loc 1 213 41 view .LVU187
 541 0066 0C4A     		ldr	r2, .L33
 214:../core/src/spi.c ****     hspi->hdmatx->XferErrorCallback     = NULL;
 215:../core/src/spi.c **** 
 216:../core/src/spi.c ****     /* Enable DMA interrupts and channel */
 217:../core/src/spi.c ****     DMA_Interrupts_Enable(hspi->hdmatx->Instance, DMA_INT_TXC | DMA_INT_ERR);
 542              		.loc 1 217 5 view .LVU188
 543 0068 1868     		ldr	r0, [r3]
 211:../core/src/spi.c ****     hspi->hdmatx->State                 = HAL_DMA_STATE_BUSY;
 544              		.loc 1 211 41 view .LVU189
 545 006a DD60     		str	r5, [r3, #12]
 212:../core/src/spi.c ****     hspi->hdmatx->State                 = HAL_DMA_STATE_BUSY;
 546              		.loc 1 212 5 is_stmt 1 view .LVU190
 212:../core/src/spi.c ****     hspi->hdmatx->State                 = HAL_DMA_STATE_BUSY;
 547              		.loc 1 212 41 is_stmt 0 view .LVU191
 548 006c 0226     		movs	r6, #2
 549              	.LVL45:
 214:../core/src/spi.c ****     hspi->hdmatx->XferErrorCallback     = NULL;
 550              		.loc 1 214 41 view .LVU192
 551 006e C3E90424 		strd	r2, r4, [r3, #16]
 552              		.loc 1 217 5 view .LVU193
 553 0072 0A21     		movs	r1, #10
 212:../core/src/spi.c ****     hspi->hdmatx->State                 = HAL_DMA_STATE_BUSY;
 554              		.loc 1 212 41 view .LVU194
 555 0074 1E71     		strb	r6, [r3, #4]
 213:../core/src/spi.c ****     hspi->hdmatx->XferErrorCallback     = NULL;
 556              		.loc 1 213 5 is_stmt 1 view .LVU195
 557              		.loc 1 217 5 view .LVU196
 558 0076 FFF7FEFF 		bl	DMA_Interrupts_Enable
 559              	.LVL46:
 218:../core/src/spi.c ****     DMA_Channel_Enable(hspi->hdmatx->Instance);
 560              		.loc 1 218 5 view .LVU197
 561 007a AB68     		ldr	r3, [r5, #8]
 562 007c 1868     		ldr	r0, [r3]
 563 007e FFF7FEFF 		bl	DMA_Channel_Enable
 564              	.LVL47:
 219:../core/src/spi.c **** 
 220:../core/src/spi.c ****     /* Enable SPI DMA TX request */
 221:../core/src/spi.c ****     SPI_I2S_DMA_Transfer_Enable(hspi->Instance, SPI_I2S_DMA_TX);
 565              		.loc 1 221 5 view .LVU198
 566 0082 2868     		ldr	r0, [r5]
 567 0084 3146     		mov	r1, r6
 568 0086 FFF7FEFF 		bl	SPI_I2S_DMA_Transfer_Enable
 569              	.LVL48:
 222:../core/src/spi.c **** 
 223:../core/src/spi.c ****     return HAL_OK;
 570              		.loc 1 223 5 view .LVU199
 571              		.loc 1 223 12 is_stmt 0 view .LVU200
 572 008a 2046     		mov	r0, r4
 573              	.L27:
 224:../core/src/spi.c **** }
 574              		.loc 1 224 1 view .LVU201
ARM GAS  C:\Users\Dawn\AppData\Local\Temp\ccjj2FMF.s 			page 16


 575 008c 0CB0     		add	sp, sp, #48
 576              	.LCFI7:
 577              		.cfi_remember_state
 578              		.cfi_def_cfa_offset 16
 579              		@ sp needed
 580 008e 70BD     		pop	{r4, r5, r6, pc}
 581              	.LVL49:
 582              	.L31:
 583              	.LCFI8:
 584              		.cfi_restore_state
 184:../core/src/spi.c ****     }
 585              		.loc 1 184 16 view .LVU202
 586 0090 0120     		movs	r0, #1
 587              	.LVL50:
 184:../core/src/spi.c ****     }
 588              		.loc 1 184 16 view .LVU203
 589 0092 FBE7     		b	.L27
 590              	.LVL51:
 591              	.L32:
 188:../core/src/spi.c ****     }
 592              		.loc 1 188 16 view .LVU204
 593 0094 0220     		movs	r0, #2
 594              	.LVL52:
 188:../core/src/spi.c ****     }
 595              		.loc 1 188 16 view .LVU205
 596 0096 F9E7     		b	.L27
 597              	.L34:
 598              		.align	2
 599              	.L33:
 600 0098 00000000 		.word	SPI_DMA_TxCplt
 601              		.cfi_endproc
 602              	.LFE133:
 604              		.section	.text.HAL_SPI_TxCpltCallback,"ax",%progbits
 605              		.align	1
 606              		.weak	HAL_SPI_TxCpltCallback
 607              		.syntax unified
 608              		.thumb
 609              		.thumb_func
 611              	HAL_SPI_TxCpltCallback:
 612              	.LVL53:
 613              	.LFB135:
 225:../core/src/spi.c **** 
 226:../core/src/spi.c **** /**
 227:../core/src/spi.c ****  * @brief DMA TX complete callback
 228:../core/src/spi.c ****  */
 229:../core/src/spi.c **** static void SPI_DMA_TxCplt(DMA_HandleTypeDef *hdma)
 230:../core/src/spi.c **** {
 231:../core/src/spi.c ****     SPI_HandleTypeDef *hspi = (SPI_HandleTypeDef *)hdma->Parent;
 232:../core/src/spi.c ****     if (hspi == NULL)
 233:../core/src/spi.c ****     {
 234:../core/src/spi.c ****         return;
 235:../core/src/spi.c ****     }
 236:../core/src/spi.c **** 
 237:../core/src/spi.c ****     /* Wait for SPI transmission complete */
 238:../core/src/spi.c ****     uint32_t tick_start = HAL_GetTick();
 239:../core/src/spi.c ****     while (SPI_I2S_Flag_Status_Get(hspi->Instance, SPI_I2S_FLAG_BUSY) == SET)
 240:../core/src/spi.c ****     {
ARM GAS  C:\Users\Dawn\AppData\Local\Temp\ccjj2FMF.s 			page 17


 241:../core/src/spi.c ****         if ((HAL_GetTick() - tick_start) >= SPI_TIMEOUT_MS)
 242:../core/src/spi.c ****         {
 243:../core/src/spi.c ****             break;
 244:../core/src/spi.c ****         }
 245:../core/src/spi.c ****     }
 246:../core/src/spi.c **** 
 247:../core/src/spi.c ****     /* Disable SPI DMA TX request */
 248:../core/src/spi.c ****     SPI_I2S_DMA_Transfer_Disable(hspi->Instance, SPI_I2S_DMA_TX);
 249:../core/src/spi.c ****     DMA_Channel_Disable(hdma->Instance);
 250:../core/src/spi.c **** 
 251:../core/src/spi.c ****     hdma->State = HAL_DMA_STATE_READY;
 252:../core/src/spi.c ****     hspi->State = HAL_SPI_STATE_READY;
 253:../core/src/spi.c **** 
 254:../core/src/spi.c **** #ifdef DISPLAY_USE_LCD
 255:../core/src/spi.c ****     HAL_SPI_TxCpltCallback_LCD(hspi);
 256:../core/src/spi.c **** #else
 257:../core/src/spi.c ****     HAL_SPI_TxCpltCallback(hspi);
 258:../core/src/spi.c **** #endif
 259:../core/src/spi.c **** }
 260:../core/src/spi.c **** 
 261:../core/src/spi.c **** /**
 262:../core/src/spi.c ****  * @brief SPI TX complete callback (weak)
 263:../core/src/spi.c ****  */
 264:../core/src/spi.c **** __attribute__((weak)) void HAL_SPI_TxCpltCallback(SPI_HandleTypeDef *hspi)
 265:../core/src/spi.c **** {
 614              		.loc 1 265 1 is_stmt 1 view -0
 615              		.cfi_startproc
 616              		@ args = 0, pretend = 0, frame = 0
 617              		@ frame_needed = 0, uses_anonymous_args = 0
 618              		@ link register save eliminated.
 266:../core/src/spi.c ****     (void)hspi;
 619              		.loc 1 266 5 view .LVU207
 267:../core/src/spi.c **** }
 620              		.loc 1 267 1 is_stmt 0 view .LVU208
 621 0000 7047     		bx	lr
 622              		.cfi_endproc
 623              	.LFE135:
 625              		.section	.text.HAL_SPI_TxCpltCallback_LCD,"ax",%progbits
 626              		.align	1
 627              		.global	HAL_SPI_TxCpltCallback_LCD
 628              		.syntax unified
 629              		.thumb
 630              		.thumb_func
 632              	HAL_SPI_TxCpltCallback_LCD:
 633              	.LVL54:
 634              	.LFB136:
 268:../core/src/spi.c **** 
 269:../core/src/spi.c **** #ifdef DISPLAY_USE_LCD
 270:../core/src/spi.c **** /* LCD buffer DMA complete callback */
 271:../core/src/spi.c **** extern void LCD_Buffer_DMAComplete(void);
 272:../core/src/spi.c **** 
 273:../core/src/spi.c **** void HAL_SPI_TxCpltCallback_LCD(SPI_HandleTypeDef *hspi)
 274:../core/src/spi.c **** {
 635              		.loc 1 274 1 is_stmt 1 view -0
 636              		.cfi_startproc
 637              		@ args = 0, pretend = 0, frame = 0
 638              		@ frame_needed = 0, uses_anonymous_args = 0
ARM GAS  C:\Users\Dawn\AppData\Local\Temp\ccjj2FMF.s 			page 18


 639              		@ link register save eliminated.
 275:../core/src/spi.c ****     if (hspi == &hspi1) {
 640              		.loc 1 275 5 view .LVU210
 641              		.loc 1 275 8 is_stmt 0 view .LVU211
 642 0000 024B     		ldr	r3, .L38
 643 0002 8342     		cmp	r3, r0
 644 0004 01D1     		bne	.L36
 276:../core/src/spi.c ****         LCD_Buffer_DMAComplete();
 645              		.loc 1 276 9 is_stmt 1 view .LVU212
 646 0006 FFF7FEBF 		b	LCD_Buffer_DMAComplete
 647              	.LVL55:
 648              	.L36:
 277:../core/src/spi.c ****     }
 278:../core/src/spi.c **** }
 649              		.loc 1 278 1 is_stmt 0 view .LVU213
 650 000a 7047     		bx	lr
 651              	.L39:
 652              		.align	2
 653              	.L38:
 654 000c 00000000 		.word	hspi1
 655              		.cfi_endproc
 656              	.LFE136:
 658              		.section	.text.SPI_DMA_TxCplt,"ax",%progbits
 659              		.align	1
 660              		.syntax unified
 661              		.thumb
 662              		.thumb_func
 664              	SPI_DMA_TxCplt:
 665              	.LVL56:
 666              	.LFB134:
 230:../core/src/spi.c ****     SPI_HandleTypeDef *hspi = (SPI_HandleTypeDef *)hdma->Parent;
 667              		.loc 1 230 1 is_stmt 1 view -0
 668              		.cfi_startproc
 669              		@ args = 0, pretend = 0, frame = 0
 670              		@ frame_needed = 0, uses_anonymous_args = 0
 231:../core/src/spi.c ****     if (hspi == NULL)
 671              		.loc 1 231 5 view .LVU215
 230:../core/src/spi.c ****     SPI_HandleTypeDef *hspi = (SPI_HandleTypeDef *)hdma->Parent;
 672              		.loc 1 230 1 is_stmt 0 view .LVU216
 673 0000 70B5     		push	{r4, r5, r6, lr}
 674              	.LCFI9:
 675              		.cfi_def_cfa_offset 16
 676              		.cfi_offset 4, -16
 677              		.cfi_offset 5, -12
 678              		.cfi_offset 6, -8
 679              		.cfi_offset 14, -4
 231:../core/src/spi.c ****     if (hspi == NULL)
 680              		.loc 1 231 24 view .LVU217
 681 0002 C468     		ldr	r4, [r0, #12]
 682              	.LVL57:
 232:../core/src/spi.c ****     {
 683              		.loc 1 232 5 is_stmt 1 view .LVU218
 230:../core/src/spi.c ****     SPI_HandleTypeDef *hspi = (SPI_HandleTypeDef *)hdma->Parent;
 684              		.loc 1 230 1 is_stmt 0 view .LVU219
 685 0004 0546     		mov	r5, r0
 232:../core/src/spi.c ****     {
 686              		.loc 1 232 8 view .LVU220
ARM GAS  C:\Users\Dawn\AppData\Local\Temp\ccjj2FMF.s 			page 19


 687 0006 E4B1     		cbz	r4, .L40
 238:../core/src/spi.c ****     while (SPI_I2S_Flag_Status_Get(hspi->Instance, SPI_I2S_FLAG_BUSY) == SET)
 688              		.loc 1 238 5 is_stmt 1 view .LVU221
 238:../core/src/spi.c ****     while (SPI_I2S_Flag_Status_Get(hspi->Instance, SPI_I2S_FLAG_BUSY) == SET)
 689              		.loc 1 238 27 is_stmt 0 view .LVU222
 690 0008 FFF7FEFF 		bl	HAL_GetTick
 691              	.LVL58:
 238:../core/src/spi.c ****     while (SPI_I2S_Flag_Status_Get(hspi->Instance, SPI_I2S_FLAG_BUSY) == SET)
 692              		.loc 1 238 27 view .LVU223
 693 000c 0646     		mov	r6, r0
 694              	.LVL59:
 239:../core/src/spi.c ****     {
 695              		.loc 1 239 5 is_stmt 1 view .LVU224
 696              	.L42:
 239:../core/src/spi.c ****     {
 697              		.loc 1 239 71 view .LVU225
 239:../core/src/spi.c ****     {
 698              		.loc 1 239 12 is_stmt 0 view .LVU226
 699 000e 2068     		ldr	r0, [r4]
 700 0010 8021     		movs	r1, #128
 701 0012 FFF7FEFF 		bl	SPI_I2S_Flag_Status_Get
 702              	.LVL60:
 239:../core/src/spi.c ****     {
 703              		.loc 1 239 71 discriminator 1 view .LVU227
 704 0016 0128     		cmp	r0, #1
 705 0018 04D1     		bne	.L44
 241:../core/src/spi.c ****         {
 706              		.loc 1 241 9 is_stmt 1 view .LVU228
 241:../core/src/spi.c ****         {
 707              		.loc 1 241 14 is_stmt 0 view .LVU229
 708 001a FFF7FEFF 		bl	HAL_GetTick
 709              	.LVL61:
 241:../core/src/spi.c ****         {
 710              		.loc 1 241 28 discriminator 1 view .LVU230
 711 001e 801B     		subs	r0, r0, r6
 241:../core/src/spi.c ****         {
 712              		.loc 1 241 12 discriminator 1 view .LVU231
 713 0020 6328     		cmp	r0, #99
 714 0022 F4D9     		bls	.L42
 715              	.L44:
 248:../core/src/spi.c ****     DMA_Channel_Disable(hdma->Instance);
 716              		.loc 1 248 5 is_stmt 1 view .LVU232
 717 0024 2068     		ldr	r0, [r4]
 718 0026 0221     		movs	r1, #2
 719 0028 FFF7FEFF 		bl	SPI_I2S_DMA_Transfer_Disable
 720              	.LVL62:
 249:../core/src/spi.c **** 
 721              		.loc 1 249 5 view .LVU233
 722 002c 2868     		ldr	r0, [r5]
 723 002e FFF7FEFF 		bl	DMA_Channel_Disable
 724              	.LVL63:
 251:../core/src/spi.c ****     hspi->State = HAL_SPI_STATE_READY;
 725              		.loc 1 251 5 view .LVU234
 251:../core/src/spi.c ****     hspi->State = HAL_SPI_STATE_READY;
 726              		.loc 1 251 17 is_stmt 0 view .LVU235
 727 0032 0123     		movs	r3, #1
 728 0034 2B71     		strb	r3, [r5, #4]
ARM GAS  C:\Users\Dawn\AppData\Local\Temp\ccjj2FMF.s 			page 20


 252:../core/src/spi.c **** 
 729              		.loc 1 252 5 is_stmt 1 view .LVU236
 252:../core/src/spi.c **** 
 730              		.loc 1 252 17 is_stmt 0 view .LVU237
 731 0036 2371     		strb	r3, [r4, #4]
 255:../core/src/spi.c **** #else
 732              		.loc 1 255 5 is_stmt 1 view .LVU238
 733 0038 2046     		mov	r0, r4
 259:../core/src/spi.c **** 
 734              		.loc 1 259 1 is_stmt 0 view .LVU239
 735 003a BDE87040 		pop	{r4, r5, r6, lr}
 736              	.LCFI10:
 737              		.cfi_remember_state
 738              		.cfi_restore 14
 739              		.cfi_restore 6
 740              		.cfi_restore 5
 741              		.cfi_restore 4
 742              		.cfi_def_cfa_offset 0
 743              	.LVL64:
 255:../core/src/spi.c **** #else
 744              		.loc 1 255 5 view .LVU240
 745 003e FFF7FEBF 		b	HAL_SPI_TxCpltCallback_LCD
 746              	.LVL65:
 747              	.L40:
 748              	.LCFI11:
 749              		.cfi_restore_state
 259:../core/src/spi.c **** 
 750              		.loc 1 259 1 view .LVU241
 751 0042 70BD     		pop	{r4, r5, r6, pc}
 259:../core/src/spi.c **** 
 752              		.loc 1 259 1 view .LVU242
 753              		.cfi_endproc
 754              	.LFE134:
 756              		.section	.text.OLED_SPI_Reset,"ax",%progbits
 757              		.align	1
 758              		.global	OLED_SPI_Reset
 759              		.syntax unified
 760              		.thumb
 761              		.thumb_func
 763              	OLED_SPI_Reset:
 764              	.LFB137:
 279:../core/src/spi.c **** #endif
 280:../core/src/spi.c **** 
 281:../core/src/spi.c **** /* OLED SPI control functions */
 282:../core/src/spi.c **** 
 283:../core/src/spi.c **** /**
 284:../core/src/spi.c ****  * @brief Reset OLED display
 285:../core/src/spi.c ****  */
 286:../core/src/spi.c **** void OLED_SPI_Reset(void)
 287:../core/src/spi.c **** {
 765              		.loc 1 287 1 is_stmt 1 view -0
 766              		.cfi_startproc
 767              		@ args = 0, pretend = 0, frame = 0
 768              		@ frame_needed = 0, uses_anonymous_args = 0
 288:../core/src/spi.c ****     OLED_RES_LOW();
 769              		.loc 1 288 5 view .LVU244
 287:../core/src/spi.c ****     OLED_RES_LOW();
ARM GAS  C:\Users\Dawn\AppData\Local\Temp\ccjj2FMF.s 			page 21


 770              		.loc 1 287 1 is_stmt 0 view .LVU245
 771 0000 08B5     		push	{r3, lr}
 772              	.LCFI12:
 773              		.cfi_def_cfa_offset 8
 774              		.cfi_offset 3, -8
 775              		.cfi_offset 14, -4
 776              		.loc 1 288 5 view .LVU246
 777 0002 4021     		movs	r1, #64
 778 0004 0748     		ldr	r0, .L47
 779 0006 FFF7FEFF 		bl	GPIO_Pins_Reset
 780              	.LVL66:
 289:../core/src/spi.c ****     HAL_Delay(10);
 781              		.loc 1 289 5 is_stmt 1 view .LVU247
 782 000a 0A20     		movs	r0, #10
 783 000c FFF7FEFF 		bl	HAL_Delay
 784              	.LVL67:
 290:../core/src/spi.c ****     OLED_RES_HIGH();
 785              		.loc 1 290 5 view .LVU248
 786 0010 0448     		ldr	r0, .L47
 787 0012 4021     		movs	r1, #64
 788 0014 FFF7FEFF 		bl	GPIO_Pins_Set
 789              	.LVL68:
 291:../core/src/spi.c ****     HAL_Delay(10);
 790              		.loc 1 291 5 view .LVU249
 292:../core/src/spi.c **** }
 791              		.loc 1 292 1 is_stmt 0 view .LVU250
 792 0018 BDE80840 		pop	{r3, lr}
 793              	.LCFI13:
 794              		.cfi_restore 14
 795              		.cfi_restore 3
 796              		.cfi_def_cfa_offset 0
 291:../core/src/spi.c ****     HAL_Delay(10);
 797              		.loc 1 291 5 view .LVU251
 798 001c 0A20     		movs	r0, #10
 799 001e FFF7FEBF 		b	HAL_Delay
 800              	.LVL69:
 801              	.L48:
 802 0022 00BF     		.align	2
 803              	.L47:
 804 0024 00340240 		.word	1073886208
 805              		.cfi_endproc
 806              	.LFE137:
 808              		.section	.text.OLED_SPI_SetDC_Cmd,"ax",%progbits
 809              		.align	1
 810              		.global	OLED_SPI_SetDC_Cmd
 811              		.syntax unified
 812              		.thumb
 813              		.thumb_func
 815              	OLED_SPI_SetDC_Cmd:
 816              	.LFB138:
 293:../core/src/spi.c **** 
 294:../core/src/spi.c **** /**
 295:../core/src/spi.c ****  * @brief Set DC pin low for command mode
 296:../core/src/spi.c ****  */
 297:../core/src/spi.c **** void OLED_SPI_SetDC_Cmd(void)
 298:../core/src/spi.c **** {
 817              		.loc 1 298 1 is_stmt 1 view -0
ARM GAS  C:\Users\Dawn\AppData\Local\Temp\ccjj2FMF.s 			page 22


 818              		.cfi_startproc
 819              		@ args = 0, pretend = 0, frame = 0
 820              		@ frame_needed = 0, uses_anonymous_args = 0
 821              		@ link register save eliminated.
 299:../core/src/spi.c ****     OLED_DC_LOW();
 822              		.loc 1 299 5 view .LVU253
 823 0000 0148     		ldr	r0, .L50
 824 0002 0121     		movs	r1, #1
 825 0004 FFF7FEBF 		b	GPIO_Pins_Reset
 826              	.LVL70:
 827              	.L51:
 828              		.align	2
 829              	.L50:
 830 0008 00380240 		.word	1073887232
 831              		.cfi_endproc
 832              	.LFE138:
 834              		.section	.text.OLED_SPI_SetDC_Data,"ax",%progbits
 835              		.align	1
 836              		.global	OLED_SPI_SetDC_Data
 837              		.syntax unified
 838              		.thumb
 839              		.thumb_func
 841              	OLED_SPI_SetDC_Data:
 842              	.LFB139:
 300:../core/src/spi.c **** }
 301:../core/src/spi.c **** 
 302:../core/src/spi.c **** /**
 303:../core/src/spi.c ****  * @brief Set DC pin high for data mode
 304:../core/src/spi.c ****  */
 305:../core/src/spi.c **** void OLED_SPI_SetDC_Data(void)
 306:../core/src/spi.c **** {
 843              		.loc 1 306 1 view -0
 844              		.cfi_startproc
 845              		@ args = 0, pretend = 0, frame = 0
 846              		@ frame_needed = 0, uses_anonymous_args = 0
 847              		@ link register save eliminated.
 307:../core/src/spi.c ****     OLED_DC_HIGH();
 848              		.loc 1 307 5 view .LVU255
 849 0000 0148     		ldr	r0, .L53
 850 0002 0121     		movs	r1, #1
 851 0004 FFF7FEBF 		b	GPIO_Pins_Set
 852              	.LVL71:
 853              	.L54:
 854              		.align	2
 855              	.L53:
 856 0008 00380240 		.word	1073887232
 857              		.cfi_endproc
 858              	.LFE139:
 860              		.section	.text.OLED_SPI_CS_Enable,"ax",%progbits
 861              		.align	1
 862              		.global	OLED_SPI_CS_Enable
 863              		.syntax unified
 864              		.thumb
 865              		.thumb_func
 867              	OLED_SPI_CS_Enable:
 868              	.LFB140:
 308:../core/src/spi.c **** }
ARM GAS  C:\Users\Dawn\AppData\Local\Temp\ccjj2FMF.s 			page 23


 309:../core/src/spi.c **** 
 310:../core/src/spi.c **** /**
 311:../core/src/spi.c ****  * @brief Enable CS (active low)
 312:../core/src/spi.c ****  */
 313:../core/src/spi.c **** void OLED_SPI_CS_Enable(void)
 314:../core/src/spi.c **** {
 869              		.loc 1 314 1 view -0
 870              		.cfi_startproc
 871              		@ args = 0, pretend = 0, frame = 0
 872              		@ frame_needed = 0, uses_anonymous_args = 0
 873              		@ link register save eliminated.
 315:../core/src/spi.c ****     OLED_CS_LOW();
 874              		.loc 1 315 5 view .LVU257
 875 0000 0148     		ldr	r0, .L56
 876 0002 0221     		movs	r1, #2
 877 0004 FFF7FEBF 		b	GPIO_Pins_Reset
 878              	.LVL72:
 879              	.L57:
 880              		.align	2
 881              	.L56:
 882 0008 00380240 		.word	1073887232
 883              		.cfi_endproc
 884              	.LFE140:
 886              		.section	.text.OLED_SPI_CS_Disable,"ax",%progbits
 887              		.align	1
 888              		.global	OLED_SPI_CS_Disable
 889              		.syntax unified
 890              		.thumb
 891              		.thumb_func
 893              	OLED_SPI_CS_Disable:
 894              	.LFB141:
 316:../core/src/spi.c **** }
 317:../core/src/spi.c **** 
 318:../core/src/spi.c **** /**
 319:../core/src/spi.c ****  * @brief Disable CS
 320:../core/src/spi.c ****  */
 321:../core/src/spi.c **** void OLED_SPI_CS_Disable(void)
 322:../core/src/spi.c **** {
 895              		.loc 1 322 1 view -0
 896              		.cfi_startproc
 897              		@ args = 0, pretend = 0, frame = 0
 898              		@ frame_needed = 0, uses_anonymous_args = 0
 899              		@ link register save eliminated.
 323:../core/src/spi.c ****     OLED_CS_HIGH();
 900              		.loc 1 323 5 view .LVU259
 901 0000 0148     		ldr	r0, .L59
 902 0002 0221     		movs	r1, #2
 903 0004 FFF7FEBF 		b	GPIO_Pins_Set
 904              	.LVL73:
 905              	.L60:
 906              		.align	2
 907              	.L59:
 908 0008 00380240 		.word	1073887232
 909              		.cfi_endproc
 910              	.LFE141:
 912              		.section	.text.LCD_SPI_Reset,"ax",%progbits
 913              		.align	1
ARM GAS  C:\Users\Dawn\AppData\Local\Temp\ccjj2FMF.s 			page 24


 914              		.global	LCD_SPI_Reset
 915              		.syntax unified
 916              		.thumb
 917              		.thumb_func
 919              	LCD_SPI_Reset:
 920              	.LFB150:
 921              		.cfi_startproc
 324:../core/src/spi.c **** }
 325:../core/src/spi.c **** 
 326:../core/src/spi.c **** /* LCD SPI control functions */
 327:../core/src/spi.c **** 
 328:../core/src/spi.c **** /**
 329:../core/src/spi.c ****  * @brief Reset LCD display
 330:../core/src/spi.c ****  */
 331:../core/src/spi.c **** void LCD_SPI_Reset(void)
 922              		.loc 1 331 6 view -0
 923              		@ args = 0, pretend = 0, frame = 0
 924              		@ frame_needed = 0, uses_anonymous_args = 0
 925              		@ link register save eliminated.
 926 0000 FFF7FEBF 		b	OLED_SPI_Reset
 927              		.cfi_endproc
 928              	.LFE150:
 930              		.section	.text.LCD_SPI_SetDC_Cmd,"ax",%progbits
 931              		.align	1
 932              		.global	LCD_SPI_SetDC_Cmd
 933              		.syntax unified
 934              		.thumb
 935              		.thumb_func
 937              	LCD_SPI_SetDC_Cmd:
 938              	.LFB152:
 939              		.cfi_startproc
 332:../core/src/spi.c **** {
 333:../core/src/spi.c ****     DISPLAY_RES_LOW();
 334:../core/src/spi.c ****     HAL_Delay(10);
 335:../core/src/spi.c ****     DISPLAY_RES_HIGH();
 336:../core/src/spi.c ****     HAL_Delay(10);
 337:../core/src/spi.c **** }
 338:../core/src/spi.c **** 
 339:../core/src/spi.c **** /**
 340:../core/src/spi.c ****  * @brief Set DC pin low for command mode (LCD)
 341:../core/src/spi.c ****  */
 342:../core/src/spi.c **** void LCD_SPI_SetDC_Cmd(void)
 940              		.loc 1 342 6 view -0
 941              		@ args = 0, pretend = 0, frame = 0
 942              		@ frame_needed = 0, uses_anonymous_args = 0
 943              		@ link register save eliminated.
 944 0000 FFF7FEBF 		b	OLED_SPI_SetDC_Cmd
 945              		.cfi_endproc
 946              	.LFE152:
 948              		.section	.text.LCD_SPI_SetDC_Data,"ax",%progbits
 949              		.align	1
 950              		.global	LCD_SPI_SetDC_Data
 951              		.syntax unified
 952              		.thumb
 953              		.thumb_func
 955              	LCD_SPI_SetDC_Data:
 956              	.LFB154:
ARM GAS  C:\Users\Dawn\AppData\Local\Temp\ccjj2FMF.s 			page 25


 957              		.cfi_startproc
 343:../core/src/spi.c **** {
 344:../core/src/spi.c ****     DISPLAY_DC_LOW();
 345:../core/src/spi.c **** }
 346:../core/src/spi.c **** 
 347:../core/src/spi.c **** /**
 348:../core/src/spi.c ****  * @brief Set DC pin high for data mode (LCD)
 349:../core/src/spi.c ****  */
 350:../core/src/spi.c **** void LCD_SPI_SetDC_Data(void)
 958              		.loc 1 350 6 view -0
 959              		@ args = 0, pretend = 0, frame = 0
 960              		@ frame_needed = 0, uses_anonymous_args = 0
 961              		@ link register save eliminated.
 962 0000 FFF7FEBF 		b	OLED_SPI_SetDC_Data
 963              		.cfi_endproc
 964              	.LFE154:
 966              		.section	.text.LCD_SPI_CS_Enable,"ax",%progbits
 967              		.align	1
 968              		.global	LCD_SPI_CS_Enable
 969              		.syntax unified
 970              		.thumb
 971              		.thumb_func
 973              	LCD_SPI_CS_Enable:
 974              	.LFB156:
 975              		.cfi_startproc
 351:../core/src/spi.c **** {
 352:../core/src/spi.c ****     DISPLAY_DC_HIGH();
 353:../core/src/spi.c **** }
 354:../core/src/spi.c **** 
 355:../core/src/spi.c **** /**
 356:../core/src/spi.c ****  * @brief Enable CS (active low) for LCD
 357:../core/src/spi.c ****  */
 358:../core/src/spi.c **** void LCD_SPI_CS_Enable(void)
 976              		.loc 1 358 6 view -0
 977              		@ args = 0, pretend = 0, frame = 0
 978              		@ frame_needed = 0, uses_anonymous_args = 0
 979              		@ link register save eliminated.
 980 0000 FFF7FEBF 		b	OLED_SPI_CS_Enable
 981              		.cfi_endproc
 982              	.LFE156:
 984              		.section	.text.LCD_SPI_CS_Disable,"ax",%progbits
 985              		.align	1
 986              		.global	LCD_SPI_CS_Disable
 987              		.syntax unified
 988              		.thumb
 989              		.thumb_func
 991              	LCD_SPI_CS_Disable:
 992              	.LFB158:
 993              		.cfi_startproc
 359:../core/src/spi.c **** {
 360:../core/src/spi.c ****     DISPLAY_CS_LOW();
 361:../core/src/spi.c **** }
 362:../core/src/spi.c **** 
 363:../core/src/spi.c **** /**
 364:../core/src/spi.c ****  * @brief Disable CS for LCD
 365:../core/src/spi.c ****  */
 366:../core/src/spi.c **** void LCD_SPI_CS_Disable(void)
ARM GAS  C:\Users\Dawn\AppData\Local\Temp\ccjj2FMF.s 			page 26


 994              		.loc 1 366 6 view -0
 995              		@ args = 0, pretend = 0, frame = 0
 996              		@ frame_needed = 0, uses_anonymous_args = 0
 997              		@ link register save eliminated.
 998 0000 FFF7FEBF 		b	OLED_SPI_CS_Disable
 999              		.cfi_endproc
 1000              	.LFE158:
 1002              		.section	.text.LCD_BL_ON,"ax",%progbits
 1003              		.align	1
 1004              		.global	LCD_BL_ON
 1005              		.syntax unified
 1006              		.thumb
 1007              		.thumb_func
 1009              	LCD_BL_ON:
 1010              	.LFB147:
 367:../core/src/spi.c **** {
 368:../core/src/spi.c ****     DISPLAY_CS_HIGH();
 369:../core/src/spi.c **** }
 370:../core/src/spi.c **** 
 371:../core/src/spi.c **** /**
 372:../core/src/spi.c ****  * @brief Turn on LCD backlight
 373:../core/src/spi.c ****  */
 374:../core/src/spi.c **** void LCD_BL_ON(void)
 375:../core/src/spi.c **** {
 1011              		.loc 1 375 1 view -0
 1012              		.cfi_startproc
 1013              		@ args = 0, pretend = 0, frame = 0
 1014              		@ frame_needed = 0, uses_anonymous_args = 0
 1015              		@ link register save eliminated.
 376:../core/src/spi.c ****     LCD_BL_HIGH();
 1016              		.loc 1 376 5 view .LVU266
 1017 0000 0248     		ldr	r0, .L67
 1018 0002 4FF48061 		mov	r1, #1024
 1019 0006 FFF7FEBF 		b	GPIO_Pins_Reset
 1020              	.LVL74:
 1021              	.L68:
 1022 000a 00BF     		.align	2
 1023              	.L67:
 1024 000c 00380240 		.word	1073887232
 1025              		.cfi_endproc
 1026              	.LFE147:
 1028              		.section	.text.LCD_BL_OFF,"ax",%progbits
 1029              		.align	1
 1030              		.global	LCD_BL_OFF
 1031              		.syntax unified
 1032              		.thumb
 1033              		.thumb_func
 1035              	LCD_BL_OFF:
 1036              	.LFB148:
 377:../core/src/spi.c **** }
 378:../core/src/spi.c **** 
 379:../core/src/spi.c **** /**
 380:../core/src/spi.c ****  * @brief Turn off LCD backlight
 381:../core/src/spi.c ****  */
 382:../core/src/spi.c **** void LCD_BL_OFF(void)
 383:../core/src/spi.c **** {
 1037              		.loc 1 383 1 view -0
ARM GAS  C:\Users\Dawn\AppData\Local\Temp\ccjj2FMF.s 			page 27


 1038              		.cfi_startproc
 1039              		@ args = 0, pretend = 0, frame = 0
 1040              		@ frame_needed = 0, uses_anonymous_args = 0
 1041              		@ link register save eliminated.
 384:../core/src/spi.c ****     LCD_BL_LOW();
 1042              		.loc 1 384 5 view .LVU268
 1043 0000 0248     		ldr	r0, .L70
 1044 0002 4FF48061 		mov	r1, #1024
 1045 0006 FFF7FEBF 		b	GPIO_Pins_Set
 1046              	.LVL75:
 1047              	.L71:
 1048 000a 00BF     		.align	2
 1049              	.L70:
 1050 000c 00380240 		.word	1073887232
 1051              		.cfi_endproc
 1052              	.LFE148:
 1054              		.global	hspi1
 1055              		.section	.bss.hspi1,"aw",%nobits
 1056              		.align	2
 1059              	hspi1:
 1060 0000 00000000 		.space	20
 1060      00000000 
 1060      00000000 
 1060      00000000 
 1060      00000000 
 1061              		.text
 1062              	.Letext0:
 1063              		.file 2 "D:/Tool/arm-gnu-toolchain/arm-none-eabi/include/machine/_default_types.h"
 1064              		.file 3 "D:/Tool/arm-gnu-toolchain/arm-none-eabi/include/sys/_stdint.h"
 1065              		.file 4 "../firmware/CMSIS/device/n32g430.h"
 1066              		.file 5 "../firmware/n32g430_std_periph_driver/inc/n32g430_dma.h"
 1067              		.file 6 "../firmware/n32g430_std_periph_driver/inc/n32g430_gpio.h"
 1068              		.file 7 "../firmware/n32g430_std_periph_driver/inc/n32g430_spi.h"
 1069              		.file 8 "../core/inc/hal_compat.h"
 1070              		.file 9 "../core/inc/dma.h"
 1071              		.file 10 "../core/inc/spi.h"
 1072              		.file 11 "../firmware/n32g430_std_periph_driver/inc/n32g430_rcc.h"
ARM GAS  C:\Users\Dawn\AppData\Local\Temp\ccjj2FMF.s 			page 28

