ARM GAS  C:\Users\Dawn\AppData\Local\Temp\ccuIQVS2.s 			page 1


   1              		.cpu cortex-m4
   2              		.arch armv7e-m
   3              		.fpu fpv4-sp-d16
   4              		.eabi_attribute 27, 1
   5              		.eabi_attribute 28, 1
   6              		.eabi_attribute 20, 1
   7              		.eabi_attribute 21, 1
   8              		.eabi_attribute 23, 3
   9              		.eabi_attribute 24, 1
  10              		.eabi_attribute 25, 1
  11              		.eabi_attribute 26, 1
  12              		.eabi_attribute 30, 4
  13              		.eabi_attribute 34, 1
  14              		.eabi_attribute 18, 4
  15              		.file	"Buffer.c"
  16              		.text
  17              	.Ltext0:
  18              		.cfi_sections	.debug_frame
  19              		.file 1 "../APP/Src/Buffer.c"
  20              		.section	.rodata.RingBuffer_Init.str1.1,"aMS",%progbits,1
  21              	.LC0:
  22 0000 52696E67 		.ascii	"RingBuffer_Init: buffer->p_head = %p, buffer->p_tai"
  22      42756666 
  22      65725F49 
  22      6E69743A 
  22      20627566 
  23 0033 6C203D20 		.ascii	"l = %p\012\000"
  23      25700A00 
  24              		.section	.text.RingBuffer_Init,"ax",%progbits
  25              		.align	1
  26              		.global	RingBuffer_Init
  27              		.syntax unified
  28              		.thumb
  29              		.thumb_func
  31              	RingBuffer_Init:
  32              	.LVL0:
  33              	.LFB3:
   1:../APP/Src/Buffer.c **** #include "Buffer.h"
   2:../APP/Src/Buffer.c **** #include <stdio.h>
   3:../APP/Src/Buffer.c **** #include <string.h>
   4:../APP/Src/Buffer.c **** 
   5:../APP/Src/Buffer.c **** 
   6:../APP/Src/Buffer.c **** /**
   7:../APP/Src/Buffer.c ****  * @brief        ÕłØÕ¦ŗÕī¢ńÄ»ÕĮóń╝ōÕå▓Õī║ 
   8:../APP/Src/Buffer.c ****  * @param buffer ń╝ōÕå▓Õī║ń╗ōµ×äõĮō
   9:../APP/Src/Buffer.c ****  * @note         Õż┤µīćķÆłÕÆīÕ░ŠµīćķÆłķāĮõĖ║0’╝īµĖģń®║ń╝ōÕå▓Õī║µĢ░µŹ«
  10:../APP/Src/Buffer.c ****  */
  11:../APP/Src/Buffer.c **** void RingBuffer_Init(Buffer_t *buffer)
  12:../APP/Src/Buffer.c **** {
  34              		.loc 1 12 1 view -0
  35              		.cfi_startproc
  36              		@ args = 0, pretend = 0, frame = 0
  37              		@ frame_needed = 0, uses_anonymous_args = 0
  13:../APP/Src/Buffer.c ****     buffer->p_head = (uint16_t *)buffer->data;
  38              		.loc 1 13 5 view .LVU1
  12:../APP/Src/Buffer.c ****     buffer->p_head = (uint16_t *)buffer->data;
  39              		.loc 1 12 1 is_stmt 0 view .LVU2
ARM GAS  C:\Users\Dawn\AppData\Local\Temp\ccuIQVS2.s 			page 2


  40 0000 10B5     		push	{r4, lr}
  41              	.LCFI0:
  42              		.cfi_def_cfa_offset 8
  43              		.cfi_offset 4, -8
  44              		.cfi_offset 14, -4
  14:../APP/Src/Buffer.c ****     buffer->p_tail = (uint16_t *)buffer->data; 
  15:../APP/Src/Buffer.c ****     buffer->p_read = (uint16_t *)buffer->data;
  16:../APP/Src/Buffer.c ****     buffer->data_length = 0;
  45              		.loc 1 16 25 view .LVU3
  46 0002 0021     		movs	r1, #0
  12:../APP/Src/Buffer.c ****     buffer->p_head = (uint16_t *)buffer->data;
  47              		.loc 1 12 1 view .LVU4
  48 0004 0446     		mov	r4, r0
  49              		.loc 1 16 25 view .LVU5
  50 0006 8186     		strh	r1, [r0, #52]	@ movhi
  17:../APP/Src/Buffer.c ****     memset(buffer->data, 0, sizeof(buffer->data));
  51              		.loc 1 17 5 view .LVU6
  52 0008 2822     		movs	r2, #40
  14:../APP/Src/Buffer.c ****     buffer->p_tail = (uint16_t *)buffer->data; 
  53              		.loc 1 14 20 view .LVU7
  54 000a C0E90A00 		strd	r0, r0, [r0, #40]
  15:../APP/Src/Buffer.c ****     buffer->data_length = 0;
  55              		.loc 1 15 5 is_stmt 1 view .LVU8
  15:../APP/Src/Buffer.c ****     buffer->data_length = 0;
  56              		.loc 1 15 20 is_stmt 0 view .LVU9
  57 000e 0063     		str	r0, [r0, #48]
  16:../APP/Src/Buffer.c ****     memset(buffer->data, 0, sizeof(buffer->data));
  58              		.loc 1 16 5 is_stmt 1 view .LVU10
  59              		.loc 1 17 5 view .LVU11
  60 0010 FFF7FEFF 		bl	memset
  61              	.LVL1:
  18:../APP/Src/Buffer.c **** 
  19:../APP/Src/Buffer.c **** #if __BUFFER_DEBUG__ == 1
  20:../APP/Src/Buffer.c ****     printf("RingBuffer_Init: buffer->p_head = %p, buffer->p_tail = %p\n", buffer->p_head, buffer->p
  62              		.loc 1 20 5 view .LVU12
  63 0014 2246     		mov	r2, r4
  64 0016 2146     		mov	r1, r4
  65 0018 0248     		ldr	r0, .L2
  21:../APP/Src/Buffer.c **** #endif
  22:../APP/Src/Buffer.c **** }
  66              		.loc 1 22 1 is_stmt 0 view .LVU13
  67 001a BDE81040 		pop	{r4, lr}
  68              	.LCFI1:
  69              		.cfi_restore 14
  70              		.cfi_restore 4
  71              		.cfi_def_cfa_offset 0
  72              	.LVL2:
  20:../APP/Src/Buffer.c **** #endif
  73              		.loc 1 20 5 view .LVU14
  74 001e FFF7FEBF 		b	printf
  75              	.LVL3:
  76              	.L3:
  20:../APP/Src/Buffer.c **** #endif
  77              		.loc 1 20 5 view .LVU15
  78 0022 00BF     		.align	2
  79              	.L2:
  80 0024 00000000 		.word	.LC0
ARM GAS  C:\Users\Dawn\AppData\Local\Temp\ccuIQVS2.s 			page 3


  81              		.cfi_endproc
  82              	.LFE3:
  84              		.section	.rodata.RingBuffer_WriteArray.str1.1,"aMS",%progbits,1
  85              	.LC1:
  86 0000 52696E67 		.ascii	"RingBuffer_WriteArray: InitError\000"
  86      42756666 
  86      65725F57 
  86      72697465 
  86      41727261 
  87              	.LC2:
  88 0021 52696E67 		.ascii	"RingBuffer_WriteArray: Invalid parameters\000"
  88      42756666 
  88      65725F57 
  88      72697465 
  88      41727261 
  89              	.LC3:
  90 004b 52696E67 		.ascii	"RingBuffer_WriteArray: Buffer full, moving head by "
  90      42756666 
  90      65725F57 
  90      72697465 
  90      41727261 
  91 007e 25642062 		.ascii	"%d bytes\012\000"
  91      79746573 
  91      0A00
  92              	.LC4:
  93 0088 52696E67 		.ascii	"RingBuffer_WriteArray: Copied %d bytes (offset %d),"
  93      42756666 
  93      65725F57 
  93      72697465 
  93      41727261 
  94 00bb 20705F68 		.ascii	" p_head = %p, p_tail = %p\012\000"
  94      65616420 
  94      3D202570 
  94      2C20705F 
  94      7461696C 
  95              		.section	.text.RingBuffer_WriteArray,"ax",%progbits
  96              		.align	1
  97              		.global	RingBuffer_WriteArray
  98              		.syntax unified
  99              		.thumb
 100              		.thumb_func
 102              	RingBuffer_WriteArray:
 103              	.LVL4:
 104              	.LFB4:
  23:../APP/Src/Buffer.c **** 
  24:../APP/Src/Buffer.c **** /**
  25:../APP/Src/Buffer.c ****  * @brief        õĮ┐ńö©memcpyÕåÖÕģźµĢ░ń╗ä
  26:../APP/Src/Buffer.c ****  * @param buffer ń╝ōÕå▓Õī║ń╗ōµ×äõĮō
  27:../APP/Src/Buffer.c ****  * @param data   µĢ░µŹ«µĢ░ń╗ä
  28:../APP/Src/Buffer.c ****  * @param length µĢ░ń╗äķĢ┐Õ║”
  29:../APP/Src/Buffer.c ****  * @return ńŖČµĆü
  30:../APP/Src/Buffer.c ****  */
  31:../APP/Src/Buffer.c **** Buffer_State_t RingBuffer_WriteArray(Buffer_t *buffer, uint8_t *data, uint16_t length)
  32:../APP/Src/Buffer.c **** {
 105              		.loc 1 32 1 is_stmt 1 view -0
 106              		.cfi_startproc
 107              		@ args = 0, pretend = 0, frame = 0
ARM GAS  C:\Users\Dawn\AppData\Local\Temp\ccuIQVS2.s 			page 4


 108              		@ frame_needed = 0, uses_anonymous_args = 0
  33:../APP/Src/Buffer.c ****     /* Õłżµ¢Łń╝ōÕå▓Õī║µś»ÕÉ”ÕłØÕ¦ŗÕī¢ */
  34:../APP/Src/Buffer.c ****     if (buffer->p_head == NULL || buffer->p_tail == NULL)
 109              		.loc 1 34 5 view .LVU17
 110              		.loc 1 34 8 is_stmt 0 view .LVU18
 111 0000 836A     		ldr	r3, [r0, #40]
  32:../APP/Src/Buffer.c ****     /* Õłżµ¢Łń╝ōÕå▓Õī║µś»ÕÉ”ÕłØÕ¦ŗÕī¢ */
 112              		.loc 1 32 1 view .LVU19
 113 0002 2DE9F743 		push	{r0, r1, r2, r4, r5, r6, r7, r8, r9, lr}
 114              	.LCFI2:
 115              		.cfi_def_cfa_offset 40
 116              		.cfi_offset 4, -28
 117              		.cfi_offset 5, -24
 118              		.cfi_offset 6, -20
 119              		.cfi_offset 7, -16
 120              		.cfi_offset 8, -12
 121              		.cfi_offset 9, -8
 122              		.cfi_offset 14, -4
  32:../APP/Src/Buffer.c ****     /* Õłżµ¢Łń╝ōÕå▓Õī║µś»ÕÉ”ÕłØÕ¦ŗÕī¢ */
 123              		.loc 1 32 1 view .LVU20
 124 0006 0546     		mov	r5, r0
 125 0008 8946     		mov	r9, r1
 126 000a 1646     		mov	r6, r2
 127              		.loc 1 34 8 view .LVU21
 128 000c 0BB1     		cbz	r3, .L5
 129              		.loc 1 34 32 discriminator 1 view .LVU22
 130 000e C36A     		ldr	r3, [r0, #44]
 131 0010 3BB9     		cbnz	r3, .L6
 132              	.L5:
  35:../APP/Src/Buffer.c ****     {
  36:../APP/Src/Buffer.c **** #if __BUFFER_DEBUG__ == 1
  37:../APP/Src/Buffer.c ****         printf("RingBuffer_WriteArray: InitError\n");
 133              		.loc 1 37 9 is_stmt 1 view .LVU23
 134 0012 2348     		ldr	r0, .L24
 135              	.LVL5:
 136              	.L23:
  38:../APP/Src/Buffer.c **** #endif
  39:../APP/Src/Buffer.c ****         return BUFFER_InitError;
  40:../APP/Src/Buffer.c ****     }
  41:../APP/Src/Buffer.c **** 
  42:../APP/Src/Buffer.c ****     /* Õłżµ¢ŁÕÅéµĢ░µ£ēµĢłµĆ¦ */
  43:../APP/Src/Buffer.c ****     if (data == NULL || length == 0)
  44:../APP/Src/Buffer.c ****     {
  45:../APP/Src/Buffer.c **** #if __BUFFER_DEBUG__ == 1
  46:../APP/Src/Buffer.c ****         printf("RingBuffer_WriteArray: Invalid parameters\n");
 137              		.loc 1 46 9 is_stmt 0 view .LVU24
 138 0014 FFF7FEFF 		bl	puts
 139              	.LVL6:
  47:../APP/Src/Buffer.c **** #endif
  48:../APP/Src/Buffer.c ****         return BUFFER_InitError;
 140              		.loc 1 48 9 is_stmt 1 view .LVU25
  39:../APP/Src/Buffer.c ****     }
 141              		.loc 1 39 16 is_stmt 0 view .LVU26
 142 0018 4FF0FF30 		mov	r0, #-1
 143              	.LVL7:
 144              	.L10:
  49:../APP/Src/Buffer.c ****     }
ARM GAS  C:\Users\Dawn\AppData\Local\Temp\ccuIQVS2.s 			page 5


  50:../APP/Src/Buffer.c **** 
  51:../APP/Src/Buffer.c ****     uint16_t remaining = length;
  52:../APP/Src/Buffer.c ****     uint16_t offset = 0;
  53:../APP/Src/Buffer.c ****     
  54:../APP/Src/Buffer.c ****     while (remaining > 0)
  55:../APP/Src/Buffer.c ****     {
  56:../APP/Src/Buffer.c ****         /* Ķ«Īń«ŚÕĮōÕēŹÕÅ»Ķ┐×ń╗ŁÕåÖÕģźńÜäÕŁŚĶŖéµĢ░ */
  57:../APP/Src/Buffer.c ****         uint16_t available_to_end = BUFFER_SIZE - ((uint8_t *)buffer->p_tail - buffer->data);
  58:../APP/Src/Buffer.c ****         uint16_t write_size = (remaining < available_to_end) ? remaining : available_to_end;
  59:../APP/Src/Buffer.c ****         
  60:../APP/Src/Buffer.c ****         /* µŻĆµ¤źµś»ÕÉ”ķ£ĆĶ”üń¦╗ÕŖ©Õż┤µīćķÆł’╝łń╝ōÕå▓Õī║µ╗ĪńÜäµāģÕåĄ’╝ē */
  61:../APP/Src/Buffer.c ****         uint16_t *next_tail = (uint16_t *)((uint8_t *)buffer->p_tail + write_size);
  62:../APP/Src/Buffer.c ****         if ((uint8_t *)next_tail >= buffer->data + BUFFER_SIZE)
  63:../APP/Src/Buffer.c ****         {
  64:../APP/Src/Buffer.c ****             next_tail = (uint16_t *)(buffer->data + ((uint8_t *)next_tail - (buffer->data + BUFFER_
  65:../APP/Src/Buffer.c ****         }
  66:../APP/Src/Buffer.c ****         
  67:../APP/Src/Buffer.c ****         if (next_tail == buffer->p_head)
  68:../APP/Src/Buffer.c ****         {
  69:../APP/Src/Buffer.c ****             /* ń╝ōÕå▓Õī║µ╗Ī’╝īń¦╗ÕŖ©Õż┤µīćķÆł */
  70:../APP/Src/Buffer.c ****             uint16_t head_move = write_size;
  71:../APP/Src/Buffer.c ****             buffer->p_head = (uint16_t *)((uint8_t *)buffer->p_head + head_move);
  72:../APP/Src/Buffer.c ****             if ((uint8_t *)buffer->p_head >= buffer->data + BUFFER_SIZE)
  73:../APP/Src/Buffer.c ****             {
  74:../APP/Src/Buffer.c ****                 buffer->p_head = (uint16_t *)(buffer->data + ((uint8_t *)buffer->p_head - (buffer->
  75:../APP/Src/Buffer.c ****             }
  76:../APP/Src/Buffer.c **** #if __BUFFER_DEBUG__ == 1
  77:../APP/Src/Buffer.c ****             printf("RingBuffer_WriteArray: Buffer full, moving head by %d bytes\n", head_move);
  78:../APP/Src/Buffer.c **** #endif
  79:../APP/Src/Buffer.c ****         }
  80:../APP/Src/Buffer.c ****         
  81:../APP/Src/Buffer.c ****         /* õĮ┐ńö©memcpyµē╣ķćÅÕżŹÕłČ */
  82:../APP/Src/Buffer.c ****         memcpy((uint8_t *)buffer->p_tail, data + offset, write_size);
  83:../APP/Src/Buffer.c ****         
  84:../APP/Src/Buffer.c ****         /* µø┤µ¢░Õ░ŠµīćķÆł */
  85:../APP/Src/Buffer.c ****         buffer->p_tail = (uint16_t *)((uint8_t *)buffer->p_tail + write_size);
  86:../APP/Src/Buffer.c ****         if ((uint8_t *)buffer->p_tail >= buffer->data + BUFFER_SIZE)
  87:../APP/Src/Buffer.c ****         {
  88:../APP/Src/Buffer.c ****             buffer->p_tail = (uint16_t *)buffer->data;
  89:../APP/Src/Buffer.c ****         }
  90:../APP/Src/Buffer.c ****         
  91:../APP/Src/Buffer.c **** #if __BUFFER_DEBUG__ == 1
  92:../APP/Src/Buffer.c ****         printf("RingBuffer_WriteArray: Copied %d bytes (offset %d), p_head = %p, p_tail = %p\n", 
  93:../APP/Src/Buffer.c ****                write_size, offset, buffer->p_head, buffer->p_tail);
  94:../APP/Src/Buffer.c **** #endif
  95:../APP/Src/Buffer.c ****         
  96:../APP/Src/Buffer.c ****         remaining -= write_size;
  97:../APP/Src/Buffer.c ****         offset += write_size;
  98:../APP/Src/Buffer.c ****     }
  99:../APP/Src/Buffer.c **** 
 100:../APP/Src/Buffer.c ****     return BUFFER_OK;
 101:../APP/Src/Buffer.c **** }
 145              		.loc 1 101 1 view .LVU27
 146 001c 03B0     		add	sp, sp, #12
 147              	.LCFI3:
 148              		.cfi_remember_state
 149              		.cfi_def_cfa_offset 28
ARM GAS  C:\Users\Dawn\AppData\Local\Temp\ccuIQVS2.s 			page 6


 150              		@ sp needed
 151 001e BDE8F083 		pop	{r4, r5, r6, r7, r8, r9, pc}
 152              	.LVL8:
 153              	.L6:
 154              	.LCFI4:
 155              		.cfi_restore_state
  43:../APP/Src/Buffer.c ****     {
 156              		.loc 1 43 5 is_stmt 1 view .LVU28
  43:../APP/Src/Buffer.c ****     {
 157              		.loc 1 43 8 is_stmt 0 view .LVU29
 158 0022 01B1     		cbz	r1, .L8
  43:../APP/Src/Buffer.c ****     {
 159              		.loc 1 43 22 discriminator 1 view .LVU30
 160 0024 0AB9     		cbnz	r2, .L15
 161              	.L8:
  46:../APP/Src/Buffer.c **** #endif
 162              		.loc 1 46 9 is_stmt 1 view .LVU31
 163 0026 1F48     		ldr	r0, .L24+4
 164              	.LVL9:
  46:../APP/Src/Buffer.c **** #endif
 165              		.loc 1 46 9 is_stmt 0 view .LVU32
 166 0028 F4E7     		b	.L23
 167              	.LVL10:
 168              	.L15:
  52:../APP/Src/Buffer.c ****     
 169              		.loc 1 52 14 view .LVU33
 170 002a 4FF00008 		mov	r8, #0
 171              	.LBB2:
  62:../APP/Src/Buffer.c ****         {
 172              		.loc 1 62 50 view .LVU34
 173 002e 00F12807 		add	r7, r0, #40
 174              	.LVL11:
 175              	.L9:
  57:../APP/Src/Buffer.c ****         uint16_t write_size = (remaining < available_to_end) ? remaining : available_to_end;
 176              		.loc 1 57 9 is_stmt 1 view .LVU35
  57:../APP/Src/Buffer.c ****         uint16_t write_size = (remaining < available_to_end) ? remaining : available_to_end;
 177              		.loc 1 57 69 is_stmt 0 view .LVU36
 178 0032 EB6A     		ldr	r3, [r5, #44]
 179              	.LVL12:
  58:../APP/Src/Buffer.c ****         
 180              		.loc 1 58 9 is_stmt 1 view .LVU37
  67:../APP/Src/Buffer.c ****         {
 181              		.loc 1 67 32 is_stmt 0 view .LVU38
 182 0034 AA6A     		ldr	r2, [r5, #40]
  57:../APP/Src/Buffer.c ****         uint16_t write_size = (remaining < available_to_end) ? remaining : available_to_end;
 183              		.loc 1 57 78 view .LVU39
 184 0036 5C1B     		subs	r4, r3, r5
  57:../APP/Src/Buffer.c ****         uint16_t write_size = (remaining < available_to_end) ? remaining : available_to_end;
 185              		.loc 1 57 18 view .LVU40
 186 0038 C4F12804 		rsb	r4, r4, #40
  58:../APP/Src/Buffer.c ****         
 187              		.loc 1 58 18 view .LVU41
 188 003c A4B2     		uxth	r4, r4
 189 003e B442     		cmp	r4, r6
 190 0040 28BF     		it	cs
 191 0042 3446     		movcs	r4, r6
 192              	.LVL13:
ARM GAS  C:\Users\Dawn\AppData\Local\Temp\ccuIQVS2.s 			page 7


  61:../APP/Src/Buffer.c ****         if ((uint8_t *)next_tail >= buffer->data + BUFFER_SIZE)
 193              		.loc 1 61 9 is_stmt 1 view .LVU42
  61:../APP/Src/Buffer.c ****         if ((uint8_t *)next_tail >= buffer->data + BUFFER_SIZE)
 194              		.loc 1 61 19 is_stmt 0 view .LVU43
 195 0044 2344     		add	r3, r3, r4
 196              	.LVL14:
  62:../APP/Src/Buffer.c ****         {
 197              		.loc 1 62 9 is_stmt 1 view .LVU44
  62:../APP/Src/Buffer.c ****         {
 198              		.loc 1 62 12 is_stmt 0 view .LVU45
 199 0046 9F42     		cmp	r7, r3
  64:../APP/Src/Buffer.c ****         }
 200              		.loc 1 64 13 is_stmt 1 view .LVU46
  64:../APP/Src/Buffer.c ****         }
 201              		.loc 1 64 75 is_stmt 0 view .LVU47
 202 0048 9CBF     		itt	ls
 203 004a DB1B     		subls	r3, r3, r7
 204              	.LVL15:
  64:../APP/Src/Buffer.c ****         }
 205              		.loc 1 64 23 view .LVU48
 206 004c 5B19     		addls	r3, r3, r5
 207              	.LVL16:
  67:../APP/Src/Buffer.c ****         {
 208              		.loc 1 67 9 is_stmt 1 view .LVU49
  67:../APP/Src/Buffer.c ****         {
 209              		.loc 1 67 12 is_stmt 0 view .LVU50
 210 004e 9A42     		cmp	r2, r3
 211 0050 09D1     		bne	.L12
 212              	.LBB3:
  70:../APP/Src/Buffer.c ****             buffer->p_head = (uint16_t *)((uint8_t *)buffer->p_head + head_move);
 213              		.loc 1 70 13 is_stmt 1 view .LVU51
 214              	.LVL17:
  71:../APP/Src/Buffer.c ****             if ((uint8_t *)buffer->p_head >= buffer->data + BUFFER_SIZE)
 215              		.loc 1 71 13 view .LVU52
  71:../APP/Src/Buffer.c ****             if ((uint8_t *)buffer->p_head >= buffer->data + BUFFER_SIZE)
 216              		.loc 1 71 30 is_stmt 0 view .LVU53
 217 0052 2344     		add	r3, r3, r4
 218              	.LVL18:
  72:../APP/Src/Buffer.c ****             {
 219              		.loc 1 72 13 is_stmt 1 view .LVU54
  72:../APP/Src/Buffer.c ****             {
 220              		.loc 1 72 16 is_stmt 0 view .LVU55
 221 0054 9F42     		cmp	r7, r3
  74:../APP/Src/Buffer.c ****             }
 222              		.loc 1 74 17 is_stmt 1 view .LVU56
  74:../APP/Src/Buffer.c ****             }
 223              		.loc 1 74 89 is_stmt 0 view .LVU57
 224 0056 9CBF     		itt	ls
 225 0058 DB1B     		subls	r3, r3, r7
  74:../APP/Src/Buffer.c ****             }
 226              		.loc 1 74 34 view .LVU58
 227 005a 5B19     		addls	r3, r3, r5
  77:../APP/Src/Buffer.c **** #endif
 228              		.loc 1 77 13 view .LVU59
 229 005c 1248     		ldr	r0, .L24+8
  71:../APP/Src/Buffer.c ****             if ((uint8_t *)buffer->p_head >= buffer->data + BUFFER_SIZE)
 230              		.loc 1 71 28 view .LVU60
ARM GAS  C:\Users\Dawn\AppData\Local\Temp\ccuIQVS2.s 			page 8


 231 005e AB62     		str	r3, [r5, #40]
  77:../APP/Src/Buffer.c **** #endif
 232              		.loc 1 77 13 is_stmt 1 view .LVU61
 233 0060 2146     		mov	r1, r4
 234 0062 FFF7FEFF 		bl	printf
 235              	.LVL19:
 236              	.L12:
  77:../APP/Src/Buffer.c **** #endif
 237              		.loc 1 77 13 is_stmt 0 view .LVU62
 238              	.LBE3:
  82:../APP/Src/Buffer.c ****         
 239              		.loc 1 82 9 is_stmt 1 view .LVU63
 240 0066 2246     		mov	r2, r4
 241 0068 09EB0801 		add	r1, r9, r8
 242 006c E86A     		ldr	r0, [r5, #44]
 243 006e FFF7FEFF 		bl	memcpy
 244              	.LVL20:
  85:../APP/Src/Buffer.c ****         if ((uint8_t *)buffer->p_tail >= buffer->data + BUFFER_SIZE)
 245              		.loc 1 85 9 view .LVU64
  85:../APP/Src/Buffer.c ****         if ((uint8_t *)buffer->p_tail >= buffer->data + BUFFER_SIZE)
 246              		.loc 1 85 26 is_stmt 0 view .LVU65
 247 0072 EB6A     		ldr	r3, [r5, #44]
  92:../APP/Src/Buffer.c ****                write_size, offset, buffer->p_head, buffer->p_tail);
 248              		.loc 1 92 9 view .LVU66
 249 0074 0D48     		ldr	r0, .L24+12
  85:../APP/Src/Buffer.c ****         if ((uint8_t *)buffer->p_tail >= buffer->data + BUFFER_SIZE)
 250              		.loc 1 85 26 view .LVU67
 251 0076 2344     		add	r3, r3, r4
  86:../APP/Src/Buffer.c ****         {
 252              		.loc 1 86 9 is_stmt 1 view .LVU68
  88:../APP/Src/Buffer.c ****         }
 253              		.loc 1 88 28 is_stmt 0 view .LVU69
 254 0078 9F42     		cmp	r7, r3
 255 007a 98BF     		it	ls
 256 007c 2B46     		movls	r3, r5
 257 007e EB62     		str	r3, [r5, #44]
  92:../APP/Src/Buffer.c ****                write_size, offset, buffer->p_head, buffer->p_tail);
 258              		.loc 1 92 9 is_stmt 1 view .LVU70
  96:../APP/Src/Buffer.c ****         offset += write_size;
 259              		.loc 1 96 19 is_stmt 0 view .LVU71
 260 0080 361B     		subs	r6, r6, r4
 261              	.LVL21:
  92:../APP/Src/Buffer.c ****                write_size, offset, buffer->p_head, buffer->p_tail);
 262              		.loc 1 92 9 view .LVU72
 263 0082 0093     		str	r3, [sp]
 264 0084 4246     		mov	r2, r8
 265 0086 2146     		mov	r1, r4
 266 0088 AB6A     		ldr	r3, [r5, #40]
  97:../APP/Src/Buffer.c ****     }
 267              		.loc 1 97 16 view .LVU73
 268 008a 4444     		add	r4, r4, r8
 269              	.LVL22:
  96:../APP/Src/Buffer.c ****         offset += write_size;
 270              		.loc 1 96 19 view .LVU74
 271 008c B6B2     		uxth	r6, r6
  92:../APP/Src/Buffer.c ****                write_size, offset, buffer->p_head, buffer->p_tail);
 272              		.loc 1 92 9 view .LVU75
ARM GAS  C:\Users\Dawn\AppData\Local\Temp\ccuIQVS2.s 			page 9


 273 008e FFF7FEFF 		bl	printf
 274              	.LVL23:
  96:../APP/Src/Buffer.c ****         offset += write_size;
 275              		.loc 1 96 9 is_stmt 1 view .LVU76
  97:../APP/Src/Buffer.c ****     }
 276              		.loc 1 97 9 view .LVU77
  97:../APP/Src/Buffer.c ****     }
 277              		.loc 1 97 16 is_stmt 0 view .LVU78
 278 0092 1FFA84F8 		uxth	r8, r4
 279              	.LVL24:
  97:../APP/Src/Buffer.c ****     }
 280              		.loc 1 97 16 view .LVU79
 281              	.LBE2:
  54:../APP/Src/Buffer.c ****     {
 282              		.loc 1 54 22 is_stmt 1 view .LVU80
 283 0096 002E     		cmp	r6, #0
 284 0098 CBD1     		bne	.L9
 100:../APP/Src/Buffer.c **** }
 285              		.loc 1 100 12 is_stmt 0 view .LVU81
 286 009a 3046     		mov	r0, r6
 287 009c BEE7     		b	.L10
 288              	.L25:
 289 009e 00BF     		.align	2
 290              	.L24:
 291 00a0 00000000 		.word	.LC1
 292 00a4 21000000 		.word	.LC2
 293 00a8 4B000000 		.word	.LC3
 294 00ac 88000000 		.word	.LC4
 295              		.cfi_endproc
 296              	.LFE4:
 298              		.section	.rodata.RingBuffer_ReadArray.str1.1,"aMS",%progbits,1
 299              	.LC5:
 300 0000 52696E67 		.ascii	"RingBuffer_ReadArray: buffer->p_head = %p, buffer->"
 300      42756666 
 300      65725F52 
 300      65616441 
 300      72726179 
 301 0033 705F7461 		.ascii	"p_tail = %p\012\000"
 301      696C203D 
 301      2025700A 
 301      00
 302              	.LC6:
 303 0040 52696E67 		.ascii	"RingBuffer_ReadArray: InitError\000"
 303      42756666 
 303      65725F52 
 303      65616441 
 303      72726179 
 304              	.LC7:
 305 0060 52696E67 		.ascii	"RingBuffer_ReadArray: Invalid parameters\000"
 305      42756666 
 305      65725F52 
 305      65616441 
 305      72726179 
 306              	.LC8:
 307 0089 52696E67 		.ascii	"RingBuffer_ReadArray: Read data[%d] = %d, p_head = "
 307      42756666 
 307      65725F52 
ARM GAS  C:\Users\Dawn\AppData\Local\Temp\ccuIQVS2.s 			page 10


 307      65616441 
 307      72726179 
 308 00bc 25702C20 		.ascii	"%p, p_tail = %p\012\000"
 308      705F7461 
 308      696C203D 
 308      2025700A 
 308      00
 309              		.section	.text.RingBuffer_ReadArray,"ax",%progbits
 310              		.align	1
 311              		.global	RingBuffer_ReadArray
 312              		.syntax unified
 313              		.thumb
 314              		.thumb_func
 316              	RingBuffer_ReadArray:
 317              	.LVL25:
 318              	.LFB5:
 102:../APP/Src/Buffer.c **** 
 103:../APP/Src/Buffer.c **** 
 104:../APP/Src/Buffer.c **** 
 105:../APP/Src/Buffer.c **** Buffer_State_t RingBuffer_ReadArray(Buffer_t *buffer, uint8_t *data, uint16_t length)
 106:../APP/Src/Buffer.c **** {
 319              		.loc 1 106 1 is_stmt 1 view -0
 320              		.cfi_startproc
 321              		@ args = 0, pretend = 0, frame = 0
 322              		@ frame_needed = 0, uses_anonymous_args = 0
 107:../APP/Src/Buffer.c ****     if (buffer->p_head == NULL || buffer->p_tail == NULL)
 323              		.loc 1 107 5 view .LVU83
 106:../APP/Src/Buffer.c ****     if (buffer->p_head == NULL || buffer->p_tail == NULL)
 324              		.loc 1 106 1 is_stmt 0 view .LVU84
 325 0000 2DE9F341 		push	{r0, r1, r4, r5, r6, r7, r8, lr}
 326              	.LCFI5:
 327              		.cfi_def_cfa_offset 32
 328              		.cfi_offset 4, -24
 329              		.cfi_offset 5, -20
 330              		.cfi_offset 6, -16
 331              		.cfi_offset 7, -12
 332              		.cfi_offset 8, -8
 333              		.cfi_offset 14, -4
 106:../APP/Src/Buffer.c ****     if (buffer->p_head == NULL || buffer->p_tail == NULL)
 334              		.loc 1 106 1 view .LVU85
 335 0004 0D46     		mov	r5, r1
 336 0006 1746     		mov	r7, r2
 337              		.loc 1 107 41 discriminator 1 view .LVU86
 338 0008 D0E90A12 		ldrd	r1, r2, [r0, #40]
 339              	.LVL26:
 106:../APP/Src/Buffer.c ****     if (buffer->p_head == NULL || buffer->p_tail == NULL)
 340              		.loc 1 106 1 view .LVU87
 341 000c 0446     		mov	r4, r0
 342              		.loc 1 107 8 view .LVU88
 343 000e 01B1     		cbz	r1, .L27
 344              		.loc 1 107 32 discriminator 1 view .LVU89
 345 0010 52B9     		cbnz	r2, .L28
 346              	.L27:
 108:../APP/Src/Buffer.c ****     {
 109:../APP/Src/Buffer.c **** #if __BUFFER_DEBUG__ == 1   
 110:../APP/Src/Buffer.c ****         printf("RingBuffer_ReadArray: buffer->p_head = %p, buffer->p_tail = %p\n", buffer->p_head, 
 347              		.loc 1 110 9 is_stmt 1 view .LVU90
ARM GAS  C:\Users\Dawn\AppData\Local\Temp\ccuIQVS2.s 			page 11


 348 0012 1648     		ldr	r0, .L44
 349              	.LVL27:
 350              		.loc 1 110 9 is_stmt 0 view .LVU91
 351 0014 FFF7FEFF 		bl	printf
 352              	.LVL28:
 111:../APP/Src/Buffer.c ****         printf("RingBuffer_ReadArray: InitError\n");
 353              		.loc 1 111 9 is_stmt 1 view .LVU92
 354 0018 1548     		ldr	r0, .L44+4
 355              	.L43:
 112:../APP/Src/Buffer.c **** #endif
 113:../APP/Src/Buffer.c ****         return BUFFER_InitError;
 114:../APP/Src/Buffer.c ****     }
 115:../APP/Src/Buffer.c **** 
 116:../APP/Src/Buffer.c ****     if (data == NULL || length == 0)
 117:../APP/Src/Buffer.c ****     {
 118:../APP/Src/Buffer.c **** #if __BUFFER_DEBUG__ == 1
 119:../APP/Src/Buffer.c ****         printf("RingBuffer_ReadArray: Invalid parameters\n");
 356              		.loc 1 119 9 is_stmt 0 view .LVU93
 357 001a FFF7FEFF 		bl	puts
 358              	.LVL29:
 120:../APP/Src/Buffer.c **** #endif
 121:../APP/Src/Buffer.c ****         return BUFFER_InitError;
 359              		.loc 1 121 9 is_stmt 1 view .LVU94
 113:../APP/Src/Buffer.c ****     }
 360              		.loc 1 113 16 is_stmt 0 view .LVU95
 361 001e 4FF0FF30 		mov	r0, #-1
 362              	.LVL30:
 363              	.L32:
 122:../APP/Src/Buffer.c ****     }
 123:../APP/Src/Buffer.c **** 
 124:../APP/Src/Buffer.c ****     for (uint16_t i = 0; i < length; i++)
 125:../APP/Src/Buffer.c ****     {
 126:../APP/Src/Buffer.c ****         data[i] = *((uint8_t *)buffer->p_head);
 127:../APP/Src/Buffer.c ****         buffer->p_head = (uint16_t *)((uint8_t *)buffer->p_head + sizeof(uint8_t));
 128:../APP/Src/Buffer.c ****         if ((uint8_t *)buffer->p_head >= buffer->data + BUFFER_SIZE)
 129:../APP/Src/Buffer.c ****         {
 130:../APP/Src/Buffer.c ****             buffer->p_head = (uint16_t *)buffer->data;
 131:../APP/Src/Buffer.c ****         }
 132:../APP/Src/Buffer.c **** 
 133:../APP/Src/Buffer.c **** #if __BUFFER_DEBUG__ == 1   
 134:../APP/Src/Buffer.c **** printf("RingBuffer_ReadArray: Read data[%d] = %d, p_head = %p, p_tail = %p\n",  
 135:../APP/Src/Buffer.c ****         i, data[i], buffer->p_head, buffer->p_tail);
 136:../APP/Src/Buffer.c **** #endif
 137:../APP/Src/Buffer.c ****     }
 138:../APP/Src/Buffer.c **** 
 139:../APP/Src/Buffer.c ****         return BUFFER_OK;
 140:../APP/Src/Buffer.c **** }
 364              		.loc 1 140 1 view .LVU96
 365 0022 02B0     		add	sp, sp, #8
 366              	.LCFI6:
 367              		.cfi_remember_state
 368              		.cfi_def_cfa_offset 24
 369              		@ sp needed
 370 0024 BDE8F081 		pop	{r4, r5, r6, r7, r8, pc}
 371              	.LVL31:
 372              	.L28:
 373              	.LCFI7:
ARM GAS  C:\Users\Dawn\AppData\Local\Temp\ccuIQVS2.s 			page 12


 374              		.cfi_restore_state
 116:../APP/Src/Buffer.c ****     {
 375              		.loc 1 116 5 is_stmt 1 view .LVU97
 116:../APP/Src/Buffer.c ****     {
 376              		.loc 1 116 8 is_stmt 0 view .LVU98
 377 0028 05B1     		cbz	r5, .L30
 116:../APP/Src/Buffer.c ****     {
 378              		.loc 1 116 22 discriminator 1 view .LVU99
 379 002a 0FB9     		cbnz	r7, .L31
 380              	.L30:
 119:../APP/Src/Buffer.c **** #endif
 381              		.loc 1 119 9 is_stmt 1 view .LVU100
 382 002c 1148     		ldr	r0, .L44+8
 383              	.LVL32:
 119:../APP/Src/Buffer.c **** #endif
 384              		.loc 1 119 9 is_stmt 0 view .LVU101
 385 002e F4E7     		b	.L43
 386              	.LVL33:
 387              	.L31:
 119:../APP/Src/Buffer.c **** #endif
 388              		.loc 1 119 9 view .LVU102
 389 0030 013D     		subs	r5, r5, #1
 390              	.LVL34:
 116:../APP/Src/Buffer.c ****     {
 391              		.loc 1 116 22 discriminator 1 view .LVU103
 392 0032 0026     		movs	r6, #0
 393              	.LBB4:
 128:../APP/Src/Buffer.c ****         {
 394              		.loc 1 128 55 view .LVU104
 395 0034 00F12808 		add	r8, r0, #40
 396              	.LVL35:
 397              	.L34:
 126:../APP/Src/Buffer.c ****         buffer->p_head = (uint16_t *)((uint8_t *)buffer->p_head + sizeof(uint8_t));
 398              		.loc 1 126 9 is_stmt 1 view .LVU105
 126:../APP/Src/Buffer.c ****         buffer->p_head = (uint16_t *)((uint8_t *)buffer->p_head + sizeof(uint8_t));
 399              		.loc 1 126 19 is_stmt 0 view .LVU106
 400 0038 A36A     		ldr	r3, [r4, #40]
 134:../APP/Src/Buffer.c ****         i, data[i], buffer->p_head, buffer->p_tail);
 401              		.loc 1 134 1 view .LVU107
 402 003a 0F48     		ldr	r0, .L44+12
 126:../APP/Src/Buffer.c ****         buffer->p_head = (uint16_t *)((uint8_t *)buffer->p_head + sizeof(uint8_t));
 403              		.loc 1 126 19 view .LVU108
 404 003c 1B78     		ldrb	r3, [r3]	@ zero_extendqisi2
 126:../APP/Src/Buffer.c ****         buffer->p_head = (uint16_t *)((uint8_t *)buffer->p_head + sizeof(uint8_t));
 405              		.loc 1 126 17 view .LVU109
 406 003e 05F8013F 		strb	r3, [r5, #1]!
 127:../APP/Src/Buffer.c ****         if ((uint8_t *)buffer->p_head >= buffer->data + BUFFER_SIZE)
 407              		.loc 1 127 9 is_stmt 1 view .LVU110
 127:../APP/Src/Buffer.c ****         if ((uint8_t *)buffer->p_head >= buffer->data + BUFFER_SIZE)
 408              		.loc 1 127 26 is_stmt 0 view .LVU111
 409 0042 A36A     		ldr	r3, [r4, #40]
 410 0044 0133     		adds	r3, r3, #1
 128:../APP/Src/Buffer.c ****         {
 411              		.loc 1 128 9 is_stmt 1 view .LVU112
 128:../APP/Src/Buffer.c ****         {
 412              		.loc 1 128 12 is_stmt 0 view .LVU113
 413 0046 4345     		cmp	r3, r8
ARM GAS  C:\Users\Dawn\AppData\Local\Temp\ccuIQVS2.s 			page 13


 130:../APP/Src/Buffer.c ****         }
 414              		.loc 1 130 13 is_stmt 1 view .LVU114
 130:../APP/Src/Buffer.c ****         }
 415              		.loc 1 130 42 is_stmt 0 view .LVU115
 416 0048 2CBF     		ite	cs
 417 004a 2246     		movcs	r2, r4
 418 004c 1A46     		movcc	r2, r3
 127:../APP/Src/Buffer.c ****         if ((uint8_t *)buffer->p_head >= buffer->data + BUFFER_SIZE)
 419              		.loc 1 127 24 view .LVU116
 420 004e A262     		str	r2, [r4, #40]
 134:../APP/Src/Buffer.c ****         i, data[i], buffer->p_head, buffer->p_tail);
 421              		.loc 1 134 1 is_stmt 1 view .LVU117
 422 0050 E26A     		ldr	r2, [r4, #44]
 423 0052 0092     		str	r2, [sp]
 130:../APP/Src/Buffer.c ****         }
 424              		.loc 1 130 42 is_stmt 0 view .LVU118
 425 0054 28BF     		it	cs
 426 0056 2346     		movcs	r3, r4
 134:../APP/Src/Buffer.c ****         i, data[i], buffer->p_head, buffer->p_tail);
 427              		.loc 1 134 1 view .LVU119
 428 0058 3146     		mov	r1, r6
 429 005a 2A78     		ldrb	r2, [r5]	@ zero_extendqisi2
 124:../APP/Src/Buffer.c ****     {
 430              		.loc 1 124 28 discriminator 1 view .LVU120
 431 005c 0136     		adds	r6, r6, #1
 432              	.LVL36:
 134:../APP/Src/Buffer.c ****         i, data[i], buffer->p_head, buffer->p_tail);
 433              		.loc 1 134 1 view .LVU121
 434 005e FFF7FEFF 		bl	printf
 435              	.LVL37:
 124:../APP/Src/Buffer.c ****     {
 436              		.loc 1 124 39 is_stmt 1 discriminator 2 view .LVU122
 124:../APP/Src/Buffer.c ****     {
 437              		.loc 1 124 28 discriminator 1 view .LVU123
 438 0062 BE42     		cmp	r6, r7
 439 0064 E8D1     		bne	.L34
 440              	.LBE4:
 139:../APP/Src/Buffer.c **** }
 441              		.loc 1 139 16 is_stmt 0 view .LVU124
 442 0066 0020     		movs	r0, #0
 443 0068 DBE7     		b	.L32
 444              	.L45:
 445 006a 00BF     		.align	2
 446              	.L44:
 447 006c 00000000 		.word	.LC5
 448 0070 40000000 		.word	.LC6
 449 0074 60000000 		.word	.LC7
 450 0078 89000000 		.word	.LC8
 451              		.cfi_endproc
 452              	.LFE5:
 454              		.section	.text.Data_Pack,"ax",%progbits
 455              		.align	1
 456              		.global	Data_Pack
 457              		.syntax unified
 458              		.thumb
 459              		.thumb_func
 461              	Data_Pack:
ARM GAS  C:\Users\Dawn\AppData\Local\Temp\ccuIQVS2.s 			page 14


 462              	.LVL38:
 463              	.LFB7:
 141:../APP/Src/Buffer.c **** 
 142:../APP/Src/Buffer.c **** 
 143:../APP/Src/Buffer.c ****  /**
 144:../APP/Src/Buffer.c ****   * @brief        µĢ░µŹ«Ķ»╗ÕÅ¢
 145:../APP/Src/Buffer.c ****   * @param buffer ń╝ōÕå▓Õī║ń╗ōµ×äõĮō
 146:../APP/Src/Buffer.c ****   * @param data   ĶŠōÕć║µĢ░µŹ«
 147:../APP/Src/Buffer.c ****   * @return       µ£ēµĢłµĢ░µŹ«ķĢ┐Õ║”’╝ł0ĶĪ©ńż║Õż▒Ķ┤ź’╝ē
 148:../APP/Src/Buffer.c ****   * @note         Ķ»╗ÕÅ¢µ£ēµĢłńÜäµĢ░µŹ«ÕĖ¦’╝īĶ┐öÕø×Õ«×ķÖģĶ»╗ÕÅ¢ńÜäµĢ░µŹ«ķĢ┐Õ║”
 149:../APP/Src/Buffer.c ****   */
 150:../APP/Src/Buffer.c ****  uint8_t Data_Read(Buffer_t *buffer, uint8_t *data)
 151:../APP/Src/Buffer.c ****  {
 152:../APP/Src/Buffer.c ****      if (buffer->p_read == NULL || data == NULL)
 153:../APP/Src/Buffer.c ****      {
 154:../APP/Src/Buffer.c **** #if __BUFFER_DEBUG__ == 1
 155:../APP/Src/Buffer.c ****          printf("Data_Read: Invalid parameters\n");
 156:../APP/Src/Buffer.c **** #endif
 157:../APP/Src/Buffer.c ****          return 0;
 158:../APP/Src/Buffer.c ****      }
 159:../APP/Src/Buffer.c **** 
 160:../APP/Src/Buffer.c ****      // ÕģłµŻĆµ¤źµś»ÕÉ”µ£ēµ£ēµĢłÕĖ¦
 161:../APP/Src/Buffer.c ****      if (Data_Check(buffer) != BUFFER_OK)
 162:../APP/Src/Buffer.c ****      {
 163:../APP/Src/Buffer.c **** #if __BUFFER_DEBUG__ == 1
 164:../APP/Src/Buffer.c ****          printf("Data_Read: No valid frame found\n");
 165:../APP/Src/Buffer.c **** #endif
 166:../APP/Src/Buffer.c ****          return 0;
 167:../APP/Src/Buffer.c ****      }
 168:../APP/Src/Buffer.c **** 
 169:../APP/Src/Buffer.c ****      // Ķ»╗ÕÅ¢ÕĖ¦ķĢ┐Õ║”
 170:../APP/Src/Buffer.c ****      uint8_t frame_length = *((uint8_t *)buffer->p_read + 1);
 171:../APP/Src/Buffer.c ****      
 172:../APP/Src/Buffer.c ****      // Ķ»╗ÕÅ¢ÕĖ¦µĢ░µŹ«
 173:../APP/Src/Buffer.c ****      uint16_t *p_temp = (uint16_t *)((uint8_t *)buffer->p_read + 2); // ĶĘ│Ķ┐ćÕĖ¦Õż┤ÕÆīÕĖ¦ķĢ┐Õ║”
 174:../APP/Src/Buffer.c ****      
 175:../APP/Src/Buffer.c ****      for (uint8_t i = 0; i < frame_length; i++)
 176:../APP/Src/Buffer.c ****      {
 177:../APP/Src/Buffer.c ****          data[i] = *((uint8_t *)p_temp);
 178:../APP/Src/Buffer.c ****          p_temp = (uint16_t *)((uint8_t *)p_temp + 1);
 179:../APP/Src/Buffer.c ****          if ((uint8_t *)p_temp >= buffer->data + BUFFER_SIZE)
 180:../APP/Src/Buffer.c ****          {
 181:../APP/Src/Buffer.c ****              p_temp = (uint16_t *)buffer->data;
 182:../APP/Src/Buffer.c ****          }
 183:../APP/Src/Buffer.c ****      }
 184:../APP/Src/Buffer.c **** 
 185:../APP/Src/Buffer.c ****      // ń¦╗ÕŖ©Ķ»╗µīćķÆłÕł░õĖŗõĖĆÕĖ¦Õ╝ĆÕ¦ŗõĮŹńĮ«
 186:../APP/Src/Buffer.c ****      buffer->p_read = (uint16_t *)((uint8_t *)buffer->p_read + frame_length + 4); // ĶĘ│Ķ┐ćÕĖ¦Õż┤ŃĆ
 187:../APP/Src/Buffer.c ****      if ((uint8_t *)buffer->p_read >= buffer->data + BUFFER_SIZE)
 188:../APP/Src/Buffer.c ****      {
 189:../APP/Src/Buffer.c ****          buffer->p_read = (uint16_t *)(buffer->data + ((uint8_t *)buffer->p_read - (buffer->data + 
 190:../APP/Src/Buffer.c ****      }
 191:../APP/Src/Buffer.c **** 
 192:../APP/Src/Buffer.c **** #if __BUFFER_DEBUG__ == 1
 193:../APP/Src/Buffer.c ****      printf("Data_Read: Read frame data, length = %d\n", frame_length);
 194:../APP/Src/Buffer.c **** #endif
 195:../APP/Src/Buffer.c **** 
ARM GAS  C:\Users\Dawn\AppData\Local\Temp\ccuIQVS2.s 			page 15


 196:../APP/Src/Buffer.c ****      return frame_length;
 197:../APP/Src/Buffer.c ****  }
 198:../APP/Src/Buffer.c **** 
 199:../APP/Src/Buffer.c **** 
 200:../APP/Src/Buffer.c **** /**
 201:../APP/Src/Buffer.c ****  * @brief        µĢ░µŹ«µēōÕīģ
 202:../APP/Src/Buffer.c ****  * @param buffer ń╝ōÕå▓Õī║ń╗ōµ×äõĮō
 203:../APP/Src/Buffer.c ****  * @return       ńŖČµĆü
 204:../APP/Src/Buffer.c ****  * @note         µēōÕīģÕĖ¦Õż┤ŃĆüÕĖ¦ķĢ┐Õ║”ŃĆüÕĖ¦µĢ░µŹ«ŃĆüÕĖ¦Õ░ŠŃĆüµĀĪķ¬īÕÆī
 205:../APP/Src/Buffer.c ****  */
 206:../APP/Src/Buffer.c **** uint16_t Data_Pack(Buffer_t *buffer)
 207:../APP/Src/Buffer.c **** {
 464              		.loc 1 207 1 is_stmt 1 view -0
 465              		.cfi_startproc
 466              		@ args = 0, pretend = 0, frame = 0
 467              		@ frame_needed = 0, uses_anonymous_args = 0
 468              		@ link register save eliminated.
 208:../APP/Src/Buffer.c ****     // Ķ┐ÖķćīÕÅ»õ╗źÕ«×ńÄ░µĢ░µŹ«µēōÕīģÕŖ¤ĶāĮ
 209:../APP/Src/Buffer.c ****     // µÜéµŚČĶ┐öÕø×0’╝īĶĪ©ńż║µ£¬Õ«×ńÄ░
 210:../APP/Src/Buffer.c ****     return 0;
 469              		.loc 1 210 5 view .LVU126
 211:../APP/Src/Buffer.c **** }
 470              		.loc 1 211 1 is_stmt 0 view .LVU127
 471 0000 0020     		movs	r0, #0
 472              	.LVL39:
 473              		.loc 1 211 1 view .LVU128
 474 0002 7047     		bx	lr
 475              		.cfi_endproc
 476              	.LFE7:
 478              		.section	.rodata.Data_Check.str1.1,"aMS",%progbits,1
 479              	.LC9:
 480 0000 44617461 		.ascii	"Data_Check: Found frame header at position %d\012\000"
 480      5F436865 
 480      636B3A20 
 480      466F756E 
 480      64206672 
 481              	.LC10:
 482 002f 44617461 		.ascii	"Data_Check: Frame length = %d\012\000"
 482      5F436865 
 482      636B3A20 
 482      4672616D 
 482      65206C65 
 483              	.LC11:
 484 004e 44617461 		.ascii	"Data_Check: Calculated checksum = 0x%02X, Stored ch"
 484      5F436865 
 484      636B3A20 
 484      43616C63 
 484      756C6174 
 485 0081 65636B73 		.ascii	"ecksum = 0x%02X\012\000"
 485      756D203D 
 485      20307825 
 485      3032580A 
 485      00
 486              	.LC12:
 487 0092 44617461 		.ascii	"Data_Check: Frame tail = 0x%02X\012\000"
 487      5F436865 
 487      636B3A20 
ARM GAS  C:\Users\Dawn\AppData\Local\Temp\ccuIQVS2.s 			page 16


 487      4672616D 
 487      65207461 
 488              	.LC13:
 489 00b3 44617461 		.ascii	"Data_Check: Valid frame found, length = %d\012\000"
 489      5F436865 
 489      636B3A20 
 489      56616C69 
 489      64206672 
 490              		.section	.text.Data_Check,"ax",%progbits
 491              		.align	1
 492              		.global	Data_Check
 493              		.syntax unified
 494              		.thumb
 495              		.thumb_func
 497              	Data_Check:
 498              	.LVL40:
 499              	.LFB8:
 212:../APP/Src/Buffer.c **** 
 213:../APP/Src/Buffer.c **** /**
 214:../APP/Src/Buffer.c ****  * @brief        µĢ░µŹ«µĀĪķ¬ī
 215:../APP/Src/Buffer.c ****  * @param buffer ń╝ōÕå▓Õī║ń╗ōµ×äõĮō
 216:../APP/Src/Buffer.c ****  * @return       ńŖČµĆü
 217:../APP/Src/Buffer.c ****  * @note         µĀĪķ¬īÕĖ¦Õż┤ŃĆüÕĖ¦ķĢ┐Õ║”ŃĆüÕĖ¦µĢ░µŹ«ŃĆüÕĖ¦Õ░ŠŃĆüµĀĪķ¬īÕÆī
 218:../APP/Src/Buffer.c ****  */
 219:../APP/Src/Buffer.c **** Buffer_State_t Data_Check(Buffer_t *buffer)
 220:../APP/Src/Buffer.c **** {
 500              		.loc 1 220 1 is_stmt 1 view -0
 501              		.cfi_startproc
 502              		@ args = 0, pretend = 0, frame = 0
 503              		@ frame_needed = 0, uses_anonymous_args = 0
 221:../APP/Src/Buffer.c ****     //Õłżµ¢ŁĶ»╗µīćķÆłµś»ÕÉ”õĖ║ń®║
 222:../APP/Src/Buffer.c ****     if (buffer->p_read == NULL)
 504              		.loc 1 222 5 view .LVU130
 220:../APP/Src/Buffer.c ****     //Õłżµ¢ŁĶ»╗µīćķÆłµś»ÕÉ”õĖ║ń®║
 505              		.loc 1 220 1 is_stmt 0 view .LVU131
 506 0000 2DE9F84F 		push	{r3, r4, r5, r6, r7, r8, r9, r10, fp, lr}
 507              	.LCFI8:
 508              		.cfi_def_cfa_offset 40
 509              		.cfi_offset 3, -40
 510              		.cfi_offset 4, -36
 511              		.cfi_offset 5, -32
 512              		.cfi_offset 6, -28
 513              		.cfi_offset 7, -24
 514              		.cfi_offset 8, -20
 515              		.cfi_offset 9, -16
 516              		.cfi_offset 10, -12
 517              		.cfi_offset 11, -8
 518              		.cfi_offset 14, -4
 519              		.loc 1 222 15 view .LVU132
 520 0004 066B     		ldr	r6, [r0, #48]
 220:../APP/Src/Buffer.c ****     //Õłżµ¢ŁĶ»╗µīćķÆłµś»ÕÉ”õĖ║ń®║
 521              		.loc 1 220 1 view .LVU133
 522 0006 0446     		mov	r4, r0
 523              		.loc 1 222 8 view .LVU134
 524 0008 002E     		cmp	r6, #0
 525 000a 64D0     		beq	.L62
 526 000c 2827     		movs	r7, #40
ARM GAS  C:\Users\Dawn\AppData\Local\Temp\ccuIQVS2.s 			page 17


 527              	.LVL41:
 528              	.L61:
 529              	.LBB5:
 223:../APP/Src/Buffer.c ****     {
 224:../APP/Src/Buffer.c ****         return BUFFER_InitError;
 225:../APP/Src/Buffer.c ****     }
 226:../APP/Src/Buffer.c **** 
 227:../APP/Src/Buffer.c ****     uint16_t data_length = 0;
 228:../APP/Src/Buffer.c ****     uint8_t checksum = 0;
 229:../APP/Src/Buffer.c ****     uint8_t temp_checksum = 0;
 230:../APP/Src/Buffer.c ****     uint16_t *p_temp = buffer->p_read;
 231:../APP/Src/Buffer.c ****     uint16_t *start_position = buffer->p_read; // Ķ«░ÕĮĢĶĄĘÕ¦ŗõĮŹńĮ«’╝īķś▓µŁóµŚĀķÖÉÕŠ¬ńÄ»
 232:../APP/Src/Buffer.c ****     uint16_t search_count = 0; // µÉ£ń┤óĶ«ĪµĢ░ÕÖ©
 233:../APP/Src/Buffer.c **** 
 234:../APP/Src/Buffer.c ****     while(search_count < BUFFER_SIZE)/* ÕŠ¬ńÄ»µŻĆµĄŗµĢ░µŹ«’╝īµ£ĆÕżÜµÉ£ń┤óµĢ┤õĖ¬ń╝ōÕå▓Õī║ */
 235:../APP/Src/Buffer.c ****     {
 236:../APP/Src/Buffer.c ****         search_count++;
 530              		.loc 1 236 9 is_stmt 1 view .LVU135
 237:../APP/Src/Buffer.c ****         
 238:../APP/Src/Buffer.c ****         /* Õłżµ¢ŁÕĖ¦Õż┤ */
 239:../APP/Src/Buffer.c ****         if (*((uint8_t *)buffer->p_read) != 0x55)
 531              		.loc 1 239 9 view .LVU136
 532              		.loc 1 239 32 is_stmt 0 view .LVU137
 533 000e 216B     		ldr	r1, [r4, #48]
 534              		.loc 1 239 12 view .LVU138
 535 0010 0B78     		ldrb	r3, [r1]	@ zero_extendqisi2
 536 0012 552B     		cmp	r3, #85
 240:../APP/Src/Buffer.c ****         {
 241:../APP/Src/Buffer.c ****             buffer->p_read = (uint16_t *)((uint8_t *)buffer->p_read + 1);
 242:../APP/Src/Buffer.c ****             if ((uint8_t *)buffer->p_read >= buffer->data + BUFFER_SIZE)
 537              		.loc 1 242 59 view .LVU139
 538 0014 04F12805 		add	r5, r4, #40
 239:../APP/Src/Buffer.c ****         {
 539              		.loc 1 239 12 view .LVU140
 540 0018 01D0     		beq	.L49
 541              	.L74:
 243:../APP/Src/Buffer.c ****             {
 244:../APP/Src/Buffer.c ****                 buffer->p_read = (uint16_t *)buffer->data;
 245:../APP/Src/Buffer.c ****             }
 246:../APP/Src/Buffer.c ****             continue;
 247:../APP/Src/Buffer.c ****         }
 248:../APP/Src/Buffer.c **** 
 249:../APP/Src/Buffer.c **** #if __BUFFER_DEBUG__ == 1
 250:../APP/Src/Buffer.c ****         printf("Data_Check: Found frame header at position %d\n", 
 251:../APP/Src/Buffer.c ****                (int)((uint8_t *)buffer->p_read - buffer->data));
 252:../APP/Src/Buffer.c **** #endif
 253:../APP/Src/Buffer.c **** 
 254:../APP/Src/Buffer.c ****         /* µŻĆµ¤źµś»ÕÉ”µ£ēĶČ│Õż¤µĢ░µŹ«Ķ»╗ÕÅ¢ÕĖ¦ķĢ┐Õ║” */
 255:../APP/Src/Buffer.c ****         uint8_t *next_byte = (uint8_t *)buffer->p_read + 1;
 256:../APP/Src/Buffer.c ****         if (next_byte >= buffer->data + BUFFER_SIZE)
 257:../APP/Src/Buffer.c ****         {
 258:../APP/Src/Buffer.c ****             next_byte = buffer->data;
 259:../APP/Src/Buffer.c ****         }
 260:../APP/Src/Buffer.c **** 
 261:../APP/Src/Buffer.c ****         /* Ķ»╗ÕÅ¢ÕĖ¦ķĢ┐Õ║” */
 262:../APP/Src/Buffer.c ****         data_length = *next_byte;
 263:../APP/Src/Buffer.c ****         
ARM GAS  C:\Users\Dawn\AppData\Local\Temp\ccuIQVS2.s 			page 18


 264:../APP/Src/Buffer.c **** #if __BUFFER_DEBUG__ == 1
 265:../APP/Src/Buffer.c ****         printf("Data_Check: Frame length = %d\n", data_length);
 266:../APP/Src/Buffer.c **** #endif
 267:../APP/Src/Buffer.c **** 
 268:../APP/Src/Buffer.c ****         /* Õłżµ¢ŁÕĖ¦ķĢ┐Õ║”µś»ÕÉ”ÕÉłńÉå */
 269:../APP/Src/Buffer.c ****         if (data_length == 0 || data_length > BUFFER_SIZE - 4)
 270:../APP/Src/Buffer.c ****         {
 271:../APP/Src/Buffer.c ****             buffer->p_read = (uint16_t *)((uint8_t *)buffer->p_read + 1);
 272:../APP/Src/Buffer.c ****             if ((uint8_t *)buffer->p_read >= buffer->data + BUFFER_SIZE)
 273:../APP/Src/Buffer.c ****             {
 274:../APP/Src/Buffer.c ****                 buffer->p_read = (uint16_t *)buffer->data;
 275:../APP/Src/Buffer.c ****             }
 276:../APP/Src/Buffer.c ****             continue;
 277:../APP/Src/Buffer.c ****         }
 278:../APP/Src/Buffer.c **** 
 279:../APP/Src/Buffer.c ****         /* Ķ«Īń«ŚµĀĪķ¬īÕÆī’╝ÜÕĖ¦Õż┤ + ÕĖ¦ķĢ┐Õ║” + ÕĖ¦µĢ░µŹ« + ÕĖ¦Õ░Š */
 280:../APP/Src/Buffer.c ****         temp_checksum = 0;
 281:../APP/Src/Buffer.c ****         p_temp = buffer->p_read;
 282:../APP/Src/Buffer.c ****         
 283:../APP/Src/Buffer.c ****         // ÕĖ¦Õż┤
 284:../APP/Src/Buffer.c ****         temp_checksum += *((uint8_t *)p_temp);
 285:../APP/Src/Buffer.c ****         p_temp = (uint16_t *)((uint8_t *)p_temp + 1);
 286:../APP/Src/Buffer.c ****         if ((uint8_t *)p_temp >= buffer->data + BUFFER_SIZE)
 287:../APP/Src/Buffer.c ****         {
 288:../APP/Src/Buffer.c ****             p_temp = (uint16_t *)buffer->data;
 289:../APP/Src/Buffer.c ****         }
 290:../APP/Src/Buffer.c ****         
 291:../APP/Src/Buffer.c ****         // ÕĖ¦ķĢ┐Õ║”
 292:../APP/Src/Buffer.c ****         temp_checksum += *((uint8_t *)p_temp);
 293:../APP/Src/Buffer.c ****         p_temp = (uint16_t *)((uint8_t *)p_temp + 1);
 294:../APP/Src/Buffer.c ****         if ((uint8_t *)p_temp >= buffer->data + BUFFER_SIZE)
 295:../APP/Src/Buffer.c ****         {
 296:../APP/Src/Buffer.c ****             p_temp = (uint16_t *)buffer->data;
 297:../APP/Src/Buffer.c ****         }
 298:../APP/Src/Buffer.c ****         
 299:../APP/Src/Buffer.c ****         // ÕĖ¦µĢ░µŹ«
 300:../APP/Src/Buffer.c ****         for (uint16_t i = 0; i < data_length; i++)
 301:../APP/Src/Buffer.c ****         {
 302:../APP/Src/Buffer.c ****             temp_checksum += *((uint8_t *)p_temp);
 303:../APP/Src/Buffer.c ****             p_temp = (uint16_t *)((uint8_t *)p_temp + 1);
 304:../APP/Src/Buffer.c ****             if ((uint8_t *)p_temp >= buffer->data + BUFFER_SIZE)
 305:../APP/Src/Buffer.c ****             {
 306:../APP/Src/Buffer.c ****                 p_temp = (uint16_t *)buffer->data;
 307:../APP/Src/Buffer.c ****             }
 308:../APP/Src/Buffer.c ****         }
 309:../APP/Src/Buffer.c ****         
 310:../APP/Src/Buffer.c ****         /* Ķ»╗ÕÅ¢ÕŁśÕé©ńÜäµĀĪķ¬īÕÆī */
 311:../APP/Src/Buffer.c ****         checksum = *((uint8_t *)p_temp);
 312:../APP/Src/Buffer.c ****         p_temp = (uint16_t *)((uint8_t *)p_temp + 1);
 313:../APP/Src/Buffer.c ****         if ((uint8_t *)p_temp >= buffer->data + BUFFER_SIZE)
 314:../APP/Src/Buffer.c ****         {
 315:../APP/Src/Buffer.c ****             p_temp = (uint16_t *)buffer->data;
 316:../APP/Src/Buffer.c ****         }
 317:../APP/Src/Buffer.c ****         
 318:../APP/Src/Buffer.c ****         /* Ķ»╗ÕÅ¢ÕĖ¦Õ░ŠÕ╣ČÕŖĀÕģźµĀĪķ¬īÕÆīĶ«Īń«Ś */
 319:../APP/Src/Buffer.c ****         uint8_t frame_tail = *((uint8_t *)p_temp);
 320:../APP/Src/Buffer.c ****         temp_checksum += frame_tail;
ARM GAS  C:\Users\Dawn\AppData\Local\Temp\ccuIQVS2.s 			page 19


 321:../APP/Src/Buffer.c **** 
 322:../APP/Src/Buffer.c **** #if __BUFFER_DEBUG__ == 1
 323:../APP/Src/Buffer.c ****         printf("Data_Check: Calculated checksum = 0x%02X, Stored checksum = 0x%02X\n", 
 324:../APP/Src/Buffer.c ****                temp_checksum & 0xFF, checksum);
 325:../APP/Src/Buffer.c ****         printf("Data_Check: Frame tail = 0x%02X\n", frame_tail);
 326:../APP/Src/Buffer.c **** #endif
 327:../APP/Src/Buffer.c **** 
 328:../APP/Src/Buffer.c ****         /* µŻĆµĄŗµĀĪķ¬īÕÆī */
 329:../APP/Src/Buffer.c ****         if ((temp_checksum & 0xFF) != checksum)
 330:../APP/Src/Buffer.c ****         {
 331:../APP/Src/Buffer.c ****             // µĀĪķ¬īÕÆīķöÖĶ»»’╝īń¦╗ÕŖ©Õł░õĖŗõĖĆõĖ¬ÕŁŚĶŖéń╗¦ń╗Łµ¤źµēŠ
 332:../APP/Src/Buffer.c ****             buffer->p_read = (uint16_t *)((uint8_t *)buffer->p_read + 1);
 333:../APP/Src/Buffer.c ****             if ((uint8_t *)buffer->p_read >= buffer->data + BUFFER_SIZE)
 334:../APP/Src/Buffer.c ****             {
 335:../APP/Src/Buffer.c ****                 buffer->p_read = (uint16_t *)buffer->data;
 336:../APP/Src/Buffer.c ****             }
 337:../APP/Src/Buffer.c ****             continue;
 338:../APP/Src/Buffer.c ****         }
 339:../APP/Src/Buffer.c **** 
 340:../APP/Src/Buffer.c ****         /* Õłżµ¢ŁÕĖ¦Õ░Š */
 341:../APP/Src/Buffer.c ****         if (frame_tail != 0xAA)
 342:../APP/Src/Buffer.c ****         {
 343:../APP/Src/Buffer.c ****             // ÕĖ¦Õ░ŠķöÖĶ»»’╝īń¦╗ÕŖ©Õł░õĖŗõĖĆõĖ¬ÕŁŚĶŖéń╗¦ń╗Łµ¤źµēŠ
 344:../APP/Src/Buffer.c ****             buffer->p_read = (uint16_t *)((uint8_t *)buffer->p_read + 1);
 542              		.loc 1 344 30 view .LVU141
 543 001a 0131     		adds	r1, r1, #1
 544 001c 15E0     		b	.L76
 545              	.L49:
 250:../APP/Src/Buffer.c ****                (int)((uint8_t *)buffer->p_read - buffer->data));
 546              		.loc 1 250 9 is_stmt 1 view .LVU142
 547 001e 091B     		subs	r1, r1, r4
 548 0020 2E48     		ldr	r0, .L77
 549 0022 FFF7FEFF 		bl	printf
 550              	.LVL42:
 255:../APP/Src/Buffer.c ****         if (next_byte >= buffer->data + BUFFER_SIZE)
 551              		.loc 1 255 9 view .LVU143
 255:../APP/Src/Buffer.c ****         if (next_byte >= buffer->data + BUFFER_SIZE)
 552              		.loc 1 255 18 is_stmt 0 view .LVU144
 553 0026 236B     		ldr	r3, [r4, #48]
 265:../APP/Src/Buffer.c **** #endif
 554              		.loc 1 265 9 view .LVU145
 555 0028 2D48     		ldr	r0, .L77+4
 255:../APP/Src/Buffer.c ****         if (next_byte >= buffer->data + BUFFER_SIZE)
 556              		.loc 1 255 18 view .LVU146
 557 002a 0133     		adds	r3, r3, #1
 558              	.LVL43:
 256:../APP/Src/Buffer.c ****         {
 559              		.loc 1 256 9 is_stmt 1 view .LVU147
 258:../APP/Src/Buffer.c ****         }
 560              		.loc 1 258 23 is_stmt 0 view .LVU148
 561 002c AB42     		cmp	r3, r5
 562 002e 28BF     		it	cs
 563 0030 2346     		movcs	r3, r4
 564              	.LVL44:
 262:../APP/Src/Buffer.c ****         
 565              		.loc 1 262 9 is_stmt 1 view .LVU149
 262:../APP/Src/Buffer.c ****         
ARM GAS  C:\Users\Dawn\AppData\Local\Temp\ccuIQVS2.s 			page 20


 566              		.loc 1 262 23 is_stmt 0 view .LVU150
 567 0032 93F80080 		ldrb	r8, [r3]	@ zero_extendqisi2
 568              	.LVL45:
 265:../APP/Src/Buffer.c **** #endif
 569              		.loc 1 265 9 is_stmt 1 view .LVU151
 570 0036 4146     		mov	r1, r8
 571 0038 FFF7FEFF 		bl	printf
 572              	.LVL46:
 269:../APP/Src/Buffer.c ****         {
 573              		.loc 1 269 9 view .LVU152
 271:../APP/Src/Buffer.c ****             if ((uint8_t *)buffer->p_read >= buffer->data + BUFFER_SIZE)
 574              		.loc 1 271 60 is_stmt 0 view .LVU153
 575 003c 236B     		ldr	r3, [r4, #48]
 269:../APP/Src/Buffer.c ****         {
 576              		.loc 1 269 12 view .LVU154
 577 003e 08F1FF32 		add	r2, r8, #-1
 578 0042 232A     		cmp	r2, #35
 271:../APP/Src/Buffer.c ****             if ((uint8_t *)buffer->p_read >= buffer->data + BUFFER_SIZE)
 579              		.loc 1 271 30 view .LVU155
 580 0044 03F10101 		add	r1, r3, #1
 269:../APP/Src/Buffer.c ****         {
 581              		.loc 1 269 12 view .LVU156
 582 0048 0AD9     		bls	.L53
 583              	.LVL47:
 584              	.L76:
 345:../APP/Src/Buffer.c ****             if ((uint8_t *)buffer->p_read >= buffer->data + BUFFER_SIZE)
 585              		.loc 1 345 13 is_stmt 1 view .LVU157
 586              		.loc 1 345 16 is_stmt 0 view .LVU158
 587 004a A942     		cmp	r1, r5
 588 004c 41D3     		bcc	.L50
 346:../APP/Src/Buffer.c ****             {
 347:../APP/Src/Buffer.c ****                 buffer->p_read = (uint16_t *)buffer->data;
 589              		.loc 1 347 17 is_stmt 1 view .LVU159
 590              		.loc 1 347 32 is_stmt 0 view .LVU160
 591 004e 2463     		str	r4, [r4, #48]
 592              	.L51:
 593              		.loc 1 347 32 view .LVU161
 594              	.LBE5:
 234:../APP/Src/Buffer.c ****     {
 595              		.loc 1 234 24 is_stmt 1 view .LVU162
 596 0050 013F     		subs	r7, r7, #1
 597              	.LVL48:
 234:../APP/Src/Buffer.c ****     {
 598              		.loc 1 234 24 is_stmt 0 view .LVU163
 599 0052 BFB2     		uxth	r7, r7
 600 0054 002F     		cmp	r7, #0
 601 0056 DAD1     		bne	.L61
 348:../APP/Src/Buffer.c ****             }
 349:../APP/Src/Buffer.c ****             continue;
 350:../APP/Src/Buffer.c ****         }
 351:../APP/Src/Buffer.c **** 
 352:../APP/Src/Buffer.c ****         /* µēĆµ£ēµŻĆµ¤źķāĮķĆÜĶ┐ć’╝īµēŠÕł░µ£ēµĢłÕĖ¦ */
 353:../APP/Src/Buffer.c **** #if __BUFFER_DEBUG__ == 1
 354:../APP/Src/Buffer.c ****         printf("Data_Check: Valid frame found, length = %d\n", data_length);
 355:../APP/Src/Buffer.c **** #endif
 356:../APP/Src/Buffer.c ****         return BUFFER_OK;
 357:../APP/Src/Buffer.c ****     }
ARM GAS  C:\Users\Dawn\AppData\Local\Temp\ccuIQVS2.s 			page 21


 358:../APP/Src/Buffer.c ****     
 359:../APP/Src/Buffer.c ****     // µÉ£ń┤óÕ«īµĢ┤õĖ¬ń╝ōÕå▓Õī║ķāĮµ▓Īµ£ēµēŠÕł░µ£ēµĢłÕĖ¦
 360:../APP/Src/Buffer.c ****     buffer->p_read = start_position; // µüóÕżŹÕÄ¤Õ¦ŗõĮŹńĮ«
 602              		.loc 1 360 5 is_stmt 1 view .LVU164
 603              		.loc 1 360 20 is_stmt 0 view .LVU165
 604 0058 2663     		str	r6, [r4, #48]
 361:../APP/Src/Buffer.c ****     return BUFFER_ReadError;
 605              		.loc 1 361 5 is_stmt 1 view .LVU166
 606              		.loc 1 361 12 is_stmt 0 view .LVU167
 607 005a 6FF00100 		mvn	r0, #1
 608 005e 36E0     		b	.L48
 609              	.LVL49:
 610              	.L53:
 611              	.LBB8:
 280:../APP/Src/Buffer.c ****         p_temp = buffer->p_read;
 612              		.loc 1 280 9 is_stmt 1 view .LVU168
 281:../APP/Src/Buffer.c ****         
 613              		.loc 1 281 9 view .LVU169
 284:../APP/Src/Buffer.c ****         p_temp = (uint16_t *)((uint8_t *)p_temp + 1);
 614              		.loc 1 284 9 view .LVU170
 284:../APP/Src/Buffer.c ****         p_temp = (uint16_t *)((uint8_t *)p_temp + 1);
 615              		.loc 1 284 26 is_stmt 0 view .LVU171
 616 0060 1A78     		ldrb	r2, [r3]	@ zero_extendqisi2
 617              	.LVL50:
 285:../APP/Src/Buffer.c ****         if ((uint8_t *)p_temp >= buffer->data + BUFFER_SIZE)
 618              		.loc 1 285 9 is_stmt 1 view .LVU172
 286:../APP/Src/Buffer.c ****         {
 619              		.loc 1 286 9 view .LVU173
 292:../APP/Src/Buffer.c ****         p_temp = (uint16_t *)((uint8_t *)p_temp + 1);
 620              		.loc 1 292 9 view .LVU174
 292:../APP/Src/Buffer.c ****         p_temp = (uint16_t *)((uint8_t *)p_temp + 1);
 621              		.loc 1 292 23 is_stmt 0 view .LVU175
 622 0062 A942     		cmp	r1, r5
 623 0064 34BF     		ite	cc
 624 0066 0B46     		movcc	r3, r1
 625 0068 2346     		movcs	r3, r4
 626              	.LVL51:
 292:../APP/Src/Buffer.c ****         p_temp = (uint16_t *)((uint8_t *)p_temp + 1);
 627              		.loc 1 292 23 view .LVU176
 628 006a 13F8011B 		ldrb	r1, [r3], #1	@ zero_extendqisi2
 629              	.LVL52:
 292:../APP/Src/Buffer.c ****         p_temp = (uint16_t *)((uint8_t *)p_temp + 1);
 630              		.loc 1 292 23 view .LVU177
 631 006e 1144     		add	r1, r1, r2
 632 0070 C9B2     		uxtb	r1, r1
 633              	.LVL53:
 293:../APP/Src/Buffer.c ****         if ((uint8_t *)p_temp >= buffer->data + BUFFER_SIZE)
 634              		.loc 1 293 9 is_stmt 1 view .LVU178
 294:../APP/Src/Buffer.c ****         {
 635              		.loc 1 294 9 view .LVU179
 296:../APP/Src/Buffer.c ****         }
 636              		.loc 1 296 20 is_stmt 0 view .LVU180
 637 0072 AB42     		cmp	r3, r5
 638 0074 28BF     		it	cs
 639 0076 2346     		movcs	r3, r4
 640              	.LVL54:
 641              	.LBB6:
ARM GAS  C:\Users\Dawn\AppData\Local\Temp\ccuIQVS2.s 			page 22


 300:../APP/Src/Buffer.c ****         {
 642              		.loc 1 300 32 is_stmt 1 discriminator 1 view .LVU181
 643              	.LBE6:
 296:../APP/Src/Buffer.c ****         }
 644              		.loc 1 296 20 is_stmt 0 view .LVU182
 645 0078 0022     		movs	r2, #0
 646              	.LVL55:
 647              	.L57:
 648              	.LBB7:
 302:../APP/Src/Buffer.c ****             p_temp = (uint16_t *)((uint8_t *)p_temp + 1);
 649              		.loc 1 302 13 is_stmt 1 view .LVU183
 302:../APP/Src/Buffer.c ****             p_temp = (uint16_t *)((uint8_t *)p_temp + 1);
 650              		.loc 1 302 27 is_stmt 0 view .LVU184
 651 007a 13F8010B 		ldrb	r0, [r3], #1	@ zero_extendqisi2
 652              	.LVL56:
 300:../APP/Src/Buffer.c ****         {
 653              		.loc 1 300 32 discriminator 1 view .LVU185
 654 007e 0132     		adds	r2, r2, #1
 655              	.LVL57:
 302:../APP/Src/Buffer.c ****             p_temp = (uint16_t *)((uint8_t *)p_temp + 1);
 656              		.loc 1 302 27 view .LVU186
 657 0080 0144     		add	r1, r1, r0
 658              	.LVL58:
 300:../APP/Src/Buffer.c ****         {
 659              		.loc 1 300 32 discriminator 1 view .LVU187
 660 0082 90B2     		uxth	r0, r2
 306:../APP/Src/Buffer.c ****             }
 661              		.loc 1 306 24 view .LVU188
 662 0084 AB42     		cmp	r3, r5
 663 0086 28BF     		it	cs
 664 0088 2346     		movcs	r3, r4
 665              	.LVL59:
 300:../APP/Src/Buffer.c ****         {
 666              		.loc 1 300 32 discriminator 1 view .LVU189
 667 008a 4045     		cmp	r0, r8
 302:../APP/Src/Buffer.c ****             p_temp = (uint16_t *)((uint8_t *)p_temp + 1);
 668              		.loc 1 302 27 view .LVU190
 669 008c C9B2     		uxtb	r1, r1
 670              	.LVL60:
 303:../APP/Src/Buffer.c ****             if ((uint8_t *)p_temp >= buffer->data + BUFFER_SIZE)
 671              		.loc 1 303 13 is_stmt 1 view .LVU191
 304:../APP/Src/Buffer.c ****             {
 672              		.loc 1 304 13 view .LVU192
 300:../APP/Src/Buffer.c ****         {
 673              		.loc 1 300 48 discriminator 2 view .LVU193
 300:../APP/Src/Buffer.c ****         {
 674              		.loc 1 300 32 discriminator 1 view .LVU194
 675 008e F4D3     		bcc	.L57
 676              	.LBE7:
 311:../APP/Src/Buffer.c ****         p_temp = (uint16_t *)((uint8_t *)p_temp + 1);
 677              		.loc 1 311 9 view .LVU195
 311:../APP/Src/Buffer.c ****         p_temp = (uint16_t *)((uint8_t *)p_temp + 1);
 678              		.loc 1 311 18 is_stmt 0 view .LVU196
 679 0090 13F801BB 		ldrb	fp, [r3], #1	@ zero_extendqisi2
 680              	.LVL61:
 312:../APP/Src/Buffer.c ****         if ((uint8_t *)p_temp >= buffer->data + BUFFER_SIZE)
 681              		.loc 1 312 9 is_stmt 1 view .LVU197
ARM GAS  C:\Users\Dawn\AppData\Local\Temp\ccuIQVS2.s 			page 23


 313:../APP/Src/Buffer.c ****         {
 682              		.loc 1 313 9 view .LVU198
 323:../APP/Src/Buffer.c ****                temp_checksum & 0xFF, checksum);
 683              		.loc 1 323 9 is_stmt 0 view .LVU199
 684 0094 1348     		ldr	r0, .L77+8
 315:../APP/Src/Buffer.c ****         }
 685              		.loc 1 315 20 view .LVU200
 686 0096 AB42     		cmp	r3, r5
 687 0098 28BF     		it	cs
 688 009a 2346     		movcs	r3, r4
 689              	.LVL62:
 319:../APP/Src/Buffer.c ****         temp_checksum += frame_tail;
 690              		.loc 1 319 9 is_stmt 1 view .LVU201
 323:../APP/Src/Buffer.c ****                temp_checksum & 0xFF, checksum);
 691              		.loc 1 323 9 is_stmt 0 view .LVU202
 692 009c 5A46     		mov	r2, fp
 319:../APP/Src/Buffer.c ****         temp_checksum += frame_tail;
 693              		.loc 1 319 17 view .LVU203
 694 009e 93F800A0 		ldrb	r10, [r3]	@ zero_extendqisi2
 695              	.LVL63:
 320:../APP/Src/Buffer.c **** 
 696              		.loc 1 320 9 is_stmt 1 view .LVU204
 320:../APP/Src/Buffer.c **** 
 697              		.loc 1 320 23 is_stmt 0 view .LVU205
 698 00a2 5144     		add	r1, r1, r10
 699              	.LVL64:
 320:../APP/Src/Buffer.c **** 
 700              		.loc 1 320 23 view .LVU206
 701 00a4 5FFA81F9 		uxtb	r9, r1
 702              	.LVL65:
 323:../APP/Src/Buffer.c ****                temp_checksum & 0xFF, checksum);
 703              		.loc 1 323 9 is_stmt 1 view .LVU207
 704 00a8 4946     		mov	r1, r9
 705 00aa FFF7FEFF 		bl	printf
 706              	.LVL66:
 325:../APP/Src/Buffer.c **** #endif
 707              		.loc 1 325 9 view .LVU208
 708 00ae 0E48     		ldr	r0, .L77+12
 709 00b0 5146     		mov	r1, r10
 710 00b2 FFF7FEFF 		bl	printf
 711              	.LVL67:
 329:../APP/Src/Buffer.c ****         {
 712              		.loc 1 329 9 view .LVU209
 329:../APP/Src/Buffer.c ****         {
 713              		.loc 1 329 12 is_stmt 0 view .LVU210
 714 00b6 CB45     		cmp	fp, r9
 715 00b8 01D0     		beq	.L59
 716              	.L72:
 344:../APP/Src/Buffer.c ****             if ((uint8_t *)buffer->p_read >= buffer->data + BUFFER_SIZE)
 717              		.loc 1 344 13 is_stmt 1 view .LVU211
 344:../APP/Src/Buffer.c ****             if ((uint8_t *)buffer->p_read >= buffer->data + BUFFER_SIZE)
 718              		.loc 1 344 30 is_stmt 0 view .LVU212
 719 00ba 216B     		ldr	r1, [r4, #48]
 720 00bc ADE7     		b	.L74
 721              	.L59:
 341:../APP/Src/Buffer.c ****         {
 722              		.loc 1 341 9 is_stmt 1 view .LVU213
ARM GAS  C:\Users\Dawn\AppData\Local\Temp\ccuIQVS2.s 			page 24


 341:../APP/Src/Buffer.c ****         {
 723              		.loc 1 341 12 is_stmt 0 view .LVU214
 724 00be BAF1AA0F 		cmp	r10, #170
 725 00c2 FAD1     		bne	.L72
 354:../APP/Src/Buffer.c **** #endif
 726              		.loc 1 354 9 is_stmt 1 view .LVU215
 727 00c4 0948     		ldr	r0, .L77+16
 728 00c6 4146     		mov	r1, r8
 729 00c8 FFF7FEFF 		bl	printf
 730              	.LVL68:
 356:../APP/Src/Buffer.c ****     }
 731              		.loc 1 356 9 view .LVU216
 356:../APP/Src/Buffer.c ****     }
 732              		.loc 1 356 16 is_stmt 0 view .LVU217
 733 00cc 0020     		movs	r0, #0
 734              	.LVL69:
 735              	.L48:
 356:../APP/Src/Buffer.c ****     }
 736              		.loc 1 356 16 view .LVU218
 737              	.LBE8:
 362:../APP/Src/Buffer.c **** }...
 738              		.loc 1 362 1 view .LVU219
 739 00ce BDE8F88F 		pop	{r3, r4, r5, r6, r7, r8, r9, r10, fp, pc}
 740              	.LVL70:
 741              	.L50:
 742              	.LBB9:
 241:../APP/Src/Buffer.c ****             buffer->p_read = (uint16_t *)((uint8_t *)buffer->p_read + 1);
 743              		.loc 1 241 28 view .LVU220
 744 00d2 2163     		str	r1, [r4, #48]
 745 00d4 BCE7     		b	.L51
 746              	.LVL71:
 747              	.L62:
 241:../APP/Src/Buffer.c ****             buffer->p_read = (uint16_t *)((uint8_t *)buffer->p_read + 1);
 748              		.loc 1 241 28 view .LVU221
 749              	.LBE9:
 224:../APP/Src/Buffer.c ****         return BUFFER_InitError;
 750              		.loc 1 224 16 view .LVU222
 751 00d6 4FF0FF30 		mov	r0, #-1
 752              	.LVL72:
 224:../APP/Src/Buffer.c ****         return BUFFER_InitError;
 753              		.loc 1 224 16 view .LVU223
 754 00da F8E7     		b	.L48
 755              	.L78:
 756              		.align	2
 757              	.L77:
 758 00dc 00000000 		.word	.LC9
 759 00e0 2F000000 		.word	.LC10
 760 00e4 4E000000 		.word	.LC11
 761 00e8 92000000 		.word	.LC12
 762 00ec B3000000 		.word	.LC13
 763              		.cfi_endproc
 764              	.LFE8:
 766              		.section	.rodata.Data_Read.str1.1,"aMS",%progbits,1
 767              	.LC14:
 768 0000 44617461 		.ascii	"Data_Read: Invalid parameters\000"
 768      5F526561 
 768      643A2049 
ARM GAS  C:\Users\Dawn\AppData\Local\Temp\ccuIQVS2.s 			page 25


 768      6E76616C 
 768      69642070 
 769              	.LC15:
 770 001e 44617461 		.ascii	"Data_Read: No valid frame found\000"
 770      5F526561 
 770      643A204E 
 770      6F207661 
 770      6C696420 
 771              	.LC16:
 772 003e 44617461 		.ascii	"Data_Read: Read frame data, length = %d\012\000"
 772      5F526561 
 772      643A2052 
 772      65616420 
 772      6672616D 
 773              		.section	.text.Data_Read,"ax",%progbits
 774              		.align	1
 775              		.global	Data_Read
 776              		.syntax unified
 777              		.thumb
 778              		.thumb_func
 780              	Data_Read:
 781              	.LVL73:
 782              	.LFB6:
 151:../APP/Src/Buffer.c ****  {
 783              		.loc 1 151 2 is_stmt 1 view -0
 784              		.cfi_startproc
 785              		@ args = 0, pretend = 0, frame = 0
 786              		@ frame_needed = 0, uses_anonymous_args = 0
 152:../APP/Src/Buffer.c ****      if (buffer->p_read == NULL || data == NULL)
 787              		.loc 1 152 9 is_stmt 0 view .LVU225
 788 0000 036B     		ldr	r3, [r0, #48]
 151:../APP/Src/Buffer.c ****  {
 789              		.loc 1 151 2 view .LVU226
 790 0002 70B5     		push	{r4, r5, r6, lr}
 791              	.LCFI9:
 792              		.cfi_def_cfa_offset 16
 793              		.cfi_offset 4, -16
 794              		.cfi_offset 5, -12
 795              		.cfi_offset 6, -8
 796              		.cfi_offset 14, -4
 151:../APP/Src/Buffer.c ****  {
 797              		.loc 1 151 2 view .LVU227
 798 0004 0446     		mov	r4, r0
 152:../APP/Src/Buffer.c ****      if (buffer->p_read == NULL || data == NULL)
 799              		.loc 1 152 6 is_stmt 1 view .LVU228
 151:../APP/Src/Buffer.c ****  {
 800              		.loc 1 151 2 is_stmt 0 view .LVU229
 801 0006 0D46     		mov	r5, r1
 152:../APP/Src/Buffer.c ****      if (buffer->p_read == NULL || data == NULL)
 802              		.loc 1 152 9 view .LVU230
 803 0008 03B1     		cbz	r3, .L80
 152:../APP/Src/Buffer.c ****      if (buffer->p_read == NULL || data == NULL)
 804              		.loc 1 152 33 discriminator 1 view .LVU231
 805 000a 29B9     		cbnz	r1, .L81
 806              	.L80:
 155:../APP/Src/Buffer.c ****          printf("Data_Read: Invalid parameters\n");
 807              		.loc 1 155 10 is_stmt 1 view .LVU232
ARM GAS  C:\Users\Dawn\AppData\Local\Temp\ccuIQVS2.s 			page 26


 808 000c 1448     		ldr	r0, .L93
 809              	.LVL74:
 810              	.L92:
 164:../APP/Src/Buffer.c ****          printf("Data_Read: No valid frame found\n");
 811              		.loc 1 164 10 is_stmt 0 view .LVU233
 812 000e FFF7FEFF 		bl	puts
 813              	.LVL75:
 166:../APP/Src/Buffer.c ****          return 0;
 814              		.loc 1 166 10 is_stmt 1 view .LVU234
 157:../APP/Src/Buffer.c ****          return 0;
 815              		.loc 1 157 17 is_stmt 0 view .LVU235
 816 0012 0026     		movs	r6, #0
 817              	.LVL76:
 818              	.L84:
 197:../APP/Src/Buffer.c ****  }
 819              		.loc 1 197 2 view .LVU236
 820 0014 3046     		mov	r0, r6
 821 0016 70BD     		pop	{r4, r5, r6, pc}
 822              	.LVL77:
 823              	.L81:
 161:../APP/Src/Buffer.c ****      if (Data_Check(buffer) != BUFFER_OK)
 824              		.loc 1 161 6 is_stmt 1 view .LVU237
 161:../APP/Src/Buffer.c ****      if (Data_Check(buffer) != BUFFER_OK)
 825              		.loc 1 161 10 is_stmt 0 view .LVU238
 826 0018 FFF7FEFF 		bl	Data_Check
 827              	.LVL78:
 161:../APP/Src/Buffer.c ****      if (Data_Check(buffer) != BUFFER_OK)
 828              		.loc 1 161 9 discriminator 1 view .LVU239
 829 001c 08B1     		cbz	r0, .L83
 164:../APP/Src/Buffer.c ****          printf("Data_Read: No valid frame found\n");
 830              		.loc 1 164 10 is_stmt 1 view .LVU240
 831 001e 1148     		ldr	r0, .L93+4
 832 0020 F5E7     		b	.L92
 833              	.L83:
 170:../APP/Src/Buffer.c ****      uint8_t frame_length = *((uint8_t *)buffer->p_read + 1);
 834              		.loc 1 170 6 view .LVU241
 170:../APP/Src/Buffer.c ****      uint8_t frame_length = *((uint8_t *)buffer->p_read + 1);
 835              		.loc 1 170 48 is_stmt 0 view .LVU242
 836 0022 226B     		ldr	r2, [r4, #48]
 170:../APP/Src/Buffer.c ****      uint8_t frame_length = *((uint8_t *)buffer->p_read + 1);
 837              		.loc 1 170 14 view .LVU243
 838 0024 5678     		ldrb	r6, [r2, #1]	@ zero_extendqisi2
 839              	.LVL79:
 173:../APP/Src/Buffer.c ****      uint16_t *p_temp = (uint16_t *)((uint8_t *)buffer->p_read + 2); // ĶĘ│Ķ┐ćÕĖ¦Õż┤ÕÆīÕĖ¦ķĢ┐Õ║”
 840              		.loc 1 173 6 is_stmt 1 view .LVU244
 841 0026 2B46     		mov	r3, r5
 173:../APP/Src/Buffer.c ****      uint16_t *p_temp = (uint16_t *)((uint8_t *)buffer->p_read + 2); // ĶĘ│Ķ┐ćÕĖ¦Õż┤ÕÆīÕĖ¦ķĢ┐Õ║”
 842              		.loc 1 173 16 is_stmt 0 view .LVU245
 843 0028 0232     		adds	r2, r2, #2
 844              	.LVL80:
 175:../APP/Src/Buffer.c ****      for (uint8_t i = 0; i < frame_length; i++)
 845              		.loc 1 175 6 is_stmt 1 view .LVU246
 846              	.LBB10:
 175:../APP/Src/Buffer.c ****      for (uint8_t i = 0; i < frame_length; i++)
 847              		.loc 1 175 11 view .LVU247
 175:../APP/Src/Buffer.c ****      for (uint8_t i = 0; i < frame_length; i++)
 848              		.loc 1 175 11 is_stmt 0 view .LVU248
ARM GAS  C:\Users\Dawn\AppData\Local\Temp\ccuIQVS2.s 			page 27


 849 002a A819     		adds	r0, r5, r6
 179:../APP/Src/Buffer.c ****          if ((uint8_t *)p_temp >= buffer->data + BUFFER_SIZE)
 850              		.loc 1 179 48 view .LVU249
 851 002c 04F12801 		add	r1, r4, #40
 852              	.LVL81:
 853              	.L85:
 175:../APP/Src/Buffer.c ****      for (uint8_t i = 0; i < frame_length; i++)
 854              		.loc 1 175 28 is_stmt 1 discriminator 1 view .LVU250
 855 0030 8342     		cmp	r3, r0
 856 0032 0CD1     		bne	.L87
 175:../APP/Src/Buffer.c ****      for (uint8_t i = 0; i < frame_length; i++)
 857              		.loc 1 175 28 is_stmt 0 discriminator 1 view .LVU251
 858              	.LBE10:
 186:../APP/Src/Buffer.c ****      buffer->p_read = (uint16_t *)((uint8_t *)buffer->p_read + frame_length + 4); // ĶĘ│Ķ┐ćÕĖ¦Õż┤ŃĆ
 859              		.loc 1 186 6 is_stmt 1 view .LVU252
 186:../APP/Src/Buffer.c ****      buffer->p_read = (uint16_t *)((uint8_t *)buffer->p_read + frame_length + 4); // ĶĘ│Ķ┐ćÕĖ¦Õż┤ŃĆ
 860              		.loc 1 186 23 is_stmt 0 view .LVU253
 861 0034 236B     		ldr	r3, [r4, #48]
 862              	.LVL82:
 193:../APP/Src/Buffer.c ****      printf("Data_Read: Read frame data, length = %d\n", frame_length);
 863              		.loc 1 193 6 view .LVU254
 864 0036 0C48     		ldr	r0, .L93+8
 186:../APP/Src/Buffer.c ****      buffer->p_read = (uint16_t *)((uint8_t *)buffer->p_read + frame_length + 4); // ĶĘ│Ķ┐ćÕĖ¦Õż┤ŃĆ
 865              		.loc 1 186 77 view .LVU255
 866 0038 321D     		adds	r2, r6, #4
 867              	.LVL83:
 186:../APP/Src/Buffer.c ****      buffer->p_read = (uint16_t *)((uint8_t *)buffer->p_read + frame_length + 4); // ĶĘ│Ķ┐ćÕĖ¦Õż┤ŃĆ
 868              		.loc 1 186 23 view .LVU256
 869 003a 1344     		add	r3, r3, r2
 187:../APP/Src/Buffer.c ****      if ((uint8_t *)buffer->p_read >= buffer->data + BUFFER_SIZE)
 870              		.loc 1 187 6 is_stmt 1 view .LVU257
 187:../APP/Src/Buffer.c ****      if ((uint8_t *)buffer->p_read >= buffer->data + BUFFER_SIZE)
 871              		.loc 1 187 9 is_stmt 0 view .LVU258
 872 003c 8B42     		cmp	r3, r1
 189:../APP/Src/Buffer.c ****          buffer->p_read = (uint16_t *)(buffer->data + ((uint8_t *)buffer->p_read - (buffer->data + 
 873              		.loc 1 189 10 is_stmt 1 view .LVU259
 189:../APP/Src/Buffer.c ****          buffer->p_read = (uint16_t *)(buffer->data + ((uint8_t *)buffer->p_read - (buffer->data + 
 874              		.loc 1 189 82 is_stmt 0 view .LVU260
 875 003e 24BF     		itt	cs
 876 0040 5B1A     		subcs	r3, r3, r1
 189:../APP/Src/Buffer.c ****          buffer->p_read = (uint16_t *)(buffer->data + ((uint8_t *)buffer->p_read - (buffer->data + 
 877              		.loc 1 189 27 view .LVU261
 878 0042 1B19     		addcs	r3, r3, r4
 186:../APP/Src/Buffer.c ****      buffer->p_read = (uint16_t *)((uint8_t *)buffer->p_read + frame_length + 4); // ĶĘ│Ķ┐ćÕĖ¦Õż┤ŃĆ
 879              		.loc 1 186 21 view .LVU262
 880 0044 2363     		str	r3, [r4, #48]
 193:../APP/Src/Buffer.c ****      printf("Data_Read: Read frame data, length = %d\n", frame_length);
 881              		.loc 1 193 6 is_stmt 1 view .LVU263
 882 0046 3146     		mov	r1, r6
 883 0048 FFF7FEFF 		bl	printf
 884              	.LVL84:
 196:../APP/Src/Buffer.c ****      return frame_length;
 885              		.loc 1 196 6 view .LVU264
 196:../APP/Src/Buffer.c ****      return frame_length;
 886              		.loc 1 196 13 is_stmt 0 view .LVU265
 887 004c E2E7     		b	.L84
 888              	.LVL85:
ARM GAS  C:\Users\Dawn\AppData\Local\Temp\ccuIQVS2.s 			page 28


 889              	.L87:
 890              	.LBB11:
 177:../APP/Src/Buffer.c ****          data[i] = *((uint8_t *)p_temp);
 891              		.loc 1 177 10 is_stmt 1 view .LVU266
 177:../APP/Src/Buffer.c ****          data[i] = *((uint8_t *)p_temp);
 892              		.loc 1 177 20 is_stmt 0 view .LVU267
 893 004e 12F8015B 		ldrb	r5, [r2], #1	@ zero_extendqisi2
 894              	.LVL86:
 177:../APP/Src/Buffer.c ****          data[i] = *((uint8_t *)p_temp);
 895              		.loc 1 177 18 view .LVU268
 896 0052 03F8015B 		strb	r5, [r3], #1
 897              	.LVL87:
 178:../APP/Src/Buffer.c ****          p_temp = (uint16_t *)((uint8_t *)p_temp + 1);
 898              		.loc 1 178 10 is_stmt 1 view .LVU269
 179:../APP/Src/Buffer.c ****          if ((uint8_t *)p_temp >= buffer->data + BUFFER_SIZE)
 899              		.loc 1 179 10 view .LVU270
 181:../APP/Src/Buffer.c ****              p_temp = (uint16_t *)buffer->data;
 900              		.loc 1 181 21 is_stmt 0 view .LVU271
 901 0056 8A42     		cmp	r2, r1
 902 0058 28BF     		it	cs
 903 005a 2246     		movcs	r2, r4
 904              	.LVL88:
 175:../APP/Src/Buffer.c ****      for (uint8_t i = 0; i < frame_length; i++)
 905              		.loc 1 175 45 is_stmt 1 discriminator 2 view .LVU272
 906 005c E8E7     		b	.L85
 907              	.L94:
 908 005e 00BF     		.align	2
 909              	.L93:
 910 0060 00000000 		.word	.LC14
 911 0064 1E000000 		.word	.LC15
 912 0068 3E000000 		.word	.LC16
 913              	.LBE11:
 914              		.cfi_endproc
 915              	.LFE6:
 917              		.text
 918              	.Letext0:
 919              		.file 2 "D:/Tools/arm-gnu-toolchain/arm-none-eabi/include/machine/_default_types.h"
 920              		.file 3 "D:/Tools/arm-gnu-toolchain/arm-none-eabi/include/sys/_stdint.h"
 921              		.file 4 "../APP/Ins/Buffer.h"
 922              		.file 5 "D:/Tools/arm-gnu-toolchain/arm-none-eabi/include/string.h"
 923              		.file 6 "D:/Tools/arm-gnu-toolchain/arm-none-eabi/include/stdio.h"
 924              		.file 7 "<built-in>"
ARM GAS  C:\Users\Dawn\AppData\Local\Temp\ccuIQVS2.s 			page 29

